
target/riscv64gc-unknown-none-elf/debug/os:	file format elf64-littleriscv

Disassembly of section .text:

0000000080200000 <stext>:
80200000: 17 61 08 00  	auipc	sp, 0x86
80200004: 13 01 01 00  	mv	sp, sp
80200008: 97 40 01 00  	auipc	ra, 0x14
8020000c: e7 80 e0 5e  	jalr	0x5ee(ra) <rust_main>
		...

0000000080201000 <strampoline>:
80201000: 73 11 01 14  	csrrw	sp, sscratch, sp
80201004: 06 e4        	sd	ra, 0x8(sp)
80201006: 0e ec        	sd	gp, 0x18(sp)
80201008: 16 f4        	sd	t0, 0x28(sp)
8020100a: 1a f8        	sd	t1, 0x30(sp)
8020100c: 1e fc        	sd	t2, 0x38(sp)
8020100e: a2 e0        	sd	s0, 0x40(sp)
80201010: a6 e4        	sd	s1, 0x48(sp)
80201012: aa e8        	sd	a0, 0x50(sp)
80201014: ae ec        	sd	a1, 0x58(sp)
80201016: b2 f0        	sd	a2, 0x60(sp)
80201018: b6 f4        	sd	a3, 0x68(sp)
8020101a: ba f8        	sd	a4, 0x70(sp)
8020101c: be fc        	sd	a5, 0x78(sp)
8020101e: 42 e1        	sd	a6, 0x80(sp)
80201020: 46 e5        	sd	a7, 0x88(sp)
80201022: 4a e9        	sd	s2, 0x90(sp)
80201024: 4e ed        	sd	s3, 0x98(sp)
80201026: 52 f1        	sd	s4, 0xa0(sp)
80201028: 56 f5        	sd	s5, 0xa8(sp)
8020102a: 5a f9        	sd	s6, 0xb0(sp)
8020102c: 5e fd        	sd	s7, 0xb8(sp)
8020102e: e2 e1        	sd	s8, 0xc0(sp)
80201030: e6 e5        	sd	s9, 0xc8(sp)
80201032: ea e9        	sd	s10, 0xd0(sp)
80201034: ee ed        	sd	s11, 0xd8(sp)
80201036: f2 f1        	sd	t3, 0xe0(sp)
80201038: f6 f5        	sd	t4, 0xe8(sp)
8020103a: fa f9        	sd	t5, 0xf0(sp)
8020103c: fe fd        	sd	t6, 0xf8(sp)
8020103e: f3 22 00 10  	csrr	t0, sstatus
80201042: 73 23 10 14  	csrr	t1, sepc
80201046: 16 e2        	sd	t0, 0x100(sp)
80201048: 1a e6        	sd	t1, 0x108(sp)
8020104a: f3 23 00 14  	csrr	t2, sscratch
8020104e: 1e e8        	sd	t2, 0x10(sp)
80201050: d2 62        	ld	t0, 0x110(sp)
80201052: 12 73        	ld	t1, 0x120(sp)
80201054: 72 61        	ld	sp, 0x118(sp)
80201056: 73 90 02 18  	csrw	satp, t0
8020105a: 73 00 00 12  	sfence.vma
8020105e: 02 83        	jr	t1

0000000080201060 <__restore>:
80201060: 73 90 05 18  	csrw	satp, a1
80201064: 73 00 00 12  	sfence.vma
80201068: 73 10 05 14  	csrw	sscratch, a0
8020106c: 2a 81        	mv	sp, a0
8020106e: 92 62        	ld	t0, 0x100(sp)
80201070: 32 63        	ld	t1, 0x108(sp)
80201072: 73 90 02 10  	csrw	sstatus, t0
80201076: 73 10 13 14  	csrw	sepc, t1
8020107a: a2 60        	ld	ra, 0x8(sp)
8020107c: e2 61        	ld	gp, 0x18(sp)
8020107e: a2 72        	ld	t0, 0x28(sp)
80201080: 42 73        	ld	t1, 0x30(sp)
80201082: e2 73        	ld	t2, 0x38(sp)
80201084: 06 64        	ld	s0, 0x40(sp)
80201086: a6 64        	ld	s1, 0x48(sp)
80201088: 46 65        	ld	a0, 0x50(sp)
8020108a: e6 65        	ld	a1, 0x58(sp)
8020108c: 06 76        	ld	a2, 0x60(sp)
8020108e: a6 76        	ld	a3, 0x68(sp)
80201090: 46 77        	ld	a4, 0x70(sp)
80201092: e6 77        	ld	a5, 0x78(sp)
80201094: 0a 68        	ld	a6, 0x80(sp)
80201096: aa 68        	ld	a7, 0x88(sp)
80201098: 4a 69        	ld	s2, 0x90(sp)
8020109a: ea 69        	ld	s3, 0x98(sp)
8020109c: 0a 7a        	ld	s4, 0xa0(sp)
8020109e: aa 7a        	ld	s5, 0xa8(sp)
802010a0: 4a 7b        	ld	s6, 0xb0(sp)
802010a2: ea 7b        	ld	s7, 0xb8(sp)
802010a4: 0e 6c        	ld	s8, 0xc0(sp)
802010a6: ae 6c        	ld	s9, 0xc8(sp)
802010a8: 4e 6d        	ld	s10, 0xd0(sp)
802010aa: ee 6d        	ld	s11, 0xd8(sp)
802010ac: 0e 7e        	ld	t3, 0xe0(sp)
802010ae: ae 7e        	ld	t4, 0xe8(sp)
802010b0: 4e 7f        	ld	t5, 0xf0(sp)
802010b2: ee 7f        	ld	t6, 0xf8(sp)
802010b4: 42 61        	ld	sp, 0x10(sp)
802010b6: 73 00 20 10  	sret
		...
80201ffe: 00 00        	unimp

0000000080202000 <_ZN63_$LT$I$u20$as$u20$core..iter..traits..collect..IntoIterator$GT$9into_iter17hd45045c4b29faac3E>:
80202000: 01 11        	addi	sp, sp, -0x20
80202002: 06 ec        	sd	ra, 0x18(sp)
80202004: 22 e8        	sd	s0, 0x10(sp)
80202006: 00 10        	addi	s0, sp, 0x20
80202008: 23 30 a4 fe  	sd	a0, -0x20(s0)
8020200c: 23 34 b4 fe  	sd	a1, -0x18(s0)
80202010: e2 60        	ld	ra, 0x18(sp)
80202012: 42 64        	ld	s0, 0x10(sp)
80202014: 05 61        	addi	sp, sp, 0x20
80202016: 82 80        	ret

0000000080202018 <_ZN5riscv8register7sstatus4read17h937ce6b3a113aa90E>:
80202018: 41 11        	addi	sp, sp, -0x10
8020201a: 06 e4        	sd	ra, 0x8(sp)
8020201c: 22 e0        	sd	s0, 0x0(sp)
8020201e: 00 08        	addi	s0, sp, 0x10
80202020: 97 00 00 00  	auipc	ra, 0x0
80202024: e7 80 00 01  	jalr	0x10(ra) <_ZN5riscv8register7sstatus5_read17hd49e0c0c9f59046cE>
80202028: a2 60        	ld	ra, 0x8(sp)
8020202a: 02 64        	ld	s0, 0x0(sp)
8020202c: 41 01        	addi	sp, sp, 0x10
8020202e: 82 80        	ret

0000000080202030 <_ZN5riscv8register7sstatus5_read17hd49e0c0c9f59046cE>:
80202030: 01 11        	addi	sp, sp, -0x20
80202032: 06 ec        	sd	ra, 0x18(sp)
80202034: 22 e8        	sd	s0, 0x10(sp)
80202036: 00 10        	addi	s0, sp, 0x20
80202038: 73 25 00 10  	csrr	a0, sstatus
8020203c: 23 34 a4 fe  	sd	a0, -0x18(s0)
80202040: 03 35 84 fe  	ld	a0, -0x18(s0)
80202044: e2 60        	ld	ra, 0x18(sp)
80202046: 42 64        	ld	s0, 0x10(sp)
80202048: 05 61        	addi	sp, sp, 0x20
8020204a: 82 80        	ret

000000008020204c <_ZN5riscv8register7sstatus7Sstatus7set_spp17h170a0aff973432a3E>:
8020204c: 79 71        	addi	sp, sp, -0x30
8020204e: 06 f4        	sd	ra, 0x28(sp)
80202050: 22 f0        	sd	s0, 0x20(sp)
80202052: 00 18        	addi	s0, sp, 0x30
80202054: 23 3c a4 fc  	sd	a0, -0x28(s0)
80202058: a3 03 b4 fe  	sb	a1, -0x19(s0)
8020205c: 23 34 a4 fe  	sd	a0, -0x18(s0)

0000000080202060 <.Lpcrel_hi0>:
80202060: 17 f5 01 00  	auipc	a0, 0x1f
80202064: 93 05 05 fa  	addi	a1, a0, -0x60
80202068: 13 05 74 fe  	addi	a0, s0, -0x19
8020206c: 97 00 00 00  	auipc	ra, 0x0
80202070: e7 80 80 02  	jalr	0x28(ra) <_ZN70_$LT$riscv..register..sstatus..SPP$u20$as$u20$core..cmp..PartialEq$GT$2eq17ha182f504b52056e2E>
80202074: 2a 86        	mv	a2, a0
80202076: 03 35 84 fd  	ld	a0, -0x28(s0)

000000008020207a <.Lpcrel_hi1>:
8020207a: 97 f5 01 00  	auipc	a1, 0x1f
8020207e: 93 86 65 fe  	addi	a3, a1, -0x1a
80202082: a1 45        	li	a1, 0x8
80202084: 97 40 00 00  	auipc	ra, 0x4
80202088: e7 80 20 8a  	jalr	-0x75e(ra) <_ZN45_$LT$usize$u20$as$u20$bit_field..BitField$GT$7set_bit17h78ef2d4793c7ba2eE>
8020208c: a2 70        	ld	ra, 0x28(sp)
8020208e: 02 74        	ld	s0, 0x20(sp)
80202090: 45 61        	addi	sp, sp, 0x30
80202092: 82 80        	ret

0000000080202094 <_ZN70_$LT$riscv..register..sstatus..SPP$u20$as$u20$core..cmp..PartialEq$GT$2eq17ha182f504b52056e2E>:
80202094: 79 71        	addi	sp, sp, -0x30
80202096: 06 f4        	sd	ra, 0x28(sp)
80202098: 22 f0        	sd	s0, 0x20(sp)
8020209a: 00 18        	addi	s0, sp, 0x30
8020209c: 23 38 a4 fc  	sd	a0, -0x30(s0)
802020a0: 23 3c b4 fc  	sd	a1, -0x28(s0)
802020a4: 03 45 05 00  	lbu	a0, 0x0(a0)
802020a8: 05 89        	andi	a0, a0, 0x1
802020aa: 23 30 a4 fe  	sd	a0, -0x20(s0)
802020ae: 83 c5 05 00  	lbu	a1, 0x0(a1)
802020b2: 85 89        	andi	a1, a1, 0x1
802020b4: 23 34 b4 fe  	sd	a1, -0x18(s0)
802020b8: 2d 8d        	xor	a0, a0, a1
802020ba: 13 35 15 00  	seqz	a0, a0
802020be: a2 70        	ld	ra, 0x28(sp)
802020c0: 02 74        	ld	s0, 0x20(sp)
802020c2: 45 61        	addi	sp, sp, 0x30
802020c4: 82 80        	ret

00000000802020c6 <_ZN5alloc11collections5btree3map5entry28VacantEntry$LT$K$C$V$C$A$GT$6insert17h80a43e10f828be61E>:
802020c6: 29 71        	addi	sp, sp, -0x140
802020c8: 06 fe        	sd	ra, 0x138(sp)
802020ca: 22 fa        	sd	s0, 0x130(sp)
802020cc: 80 02        	addi	s0, sp, 0x140
802020ce: 23 34 b4 ee  	sd	a1, -0x118(s0)
802020d2: 23 38 a4 ee  	sd	a0, -0x110(s0)
802020d6: 23 34 b4 f8  	sd	a1, -0x78(s0)
802020da: 08 69        	ld	a0, 0x10(a0)
802020dc: 71 e5        	bnez	a0, 0x802021a8 <_ZN5alloc11collections5btree3map5entry28VacantEntry$LT$K$C$V$C$A$GT$6insert17h80a43e10f828be61E+0xe2>
802020de: 09 a0        	j	0x802020e0 <_ZN5alloc11collections5btree3map5entry28VacantEntry$LT$K$C$V$C$A$GT$6insert17h80a43e10f828be61E+0x1a>
802020e0: 03 35 04 ef  	ld	a0, -0x110(s0)
802020e4: 0c 61        	ld	a1, 0x0(a0)
802020e6: 23 30 b4 ee  	sd	a1, -0x120(s0)
802020ea: 23 3c b4 f8  	sd	a1, -0x68(s0)
802020ee: 23 30 b4 fa  	sd	a1, -0x60(s0)
802020f2: 13 05 85 02  	addi	a0, a0, 0x28
802020f6: 97 40 01 00  	auipc	ra, 0x14
802020fa: e7 80 20 9f  	jalr	-0x60e(ra) <_ZN59_$LT$alloc..alloc..Global$u20$as$u20$core..clone..Clone$GT$5clone17h47dd613f0bc5b609E>
802020fe: 97 d0 00 00  	auipc	ra, 0xd
80202102: e7 80 40 a3  	jalr	-0x5cc(ra) <_ZN5alloc11collections5btree4node21LeafNode$LT$K$C$V$GT$3new17hb3734722988af809E>
80202106: 97 a0 00 00  	auipc	ra, 0xa
8020210a: e7 80 00 bc  	jalr	-0x440(ra) <_ZN5alloc11collections5btree4node117NodeRef$LT$alloc..collections..btree..node..marker..Owned$C$K$C$V$C$alloc..collections..btree..node..marker..Leaf$GT$13from_new_leaf17h243bd1ec689bfd56E>
8020210e: 83 36 84 ee  	ld	a3, -0x118(s0)
80202112: 2a 86        	mv	a2, a0
80202114: 03 35 04 ef  	ld	a0, -0x110(s0)
80202118: 23 34 c4 f0  	sd	a2, -0xf8(s0)
8020211c: 23 38 b4 f0  	sd	a1, -0xf0(s0)
80202120: 93 05 84 f0  	addi	a1, s0, -0xf8
80202124: 23 34 b4 fa  	sd	a1, -0x58(s0)
80202128: 03 36 04 f1  	ld	a2, -0xf0(s0)
8020212c: 83 35 84 f0  	ld	a1, -0xf8(s0)
80202130: 23 30 c4 f2  	sd	a2, -0xe0(s0)
80202134: 23 3c b4 f0  	sd	a1, -0xe8(s0)
80202138: 93 05 84 f1  	addi	a1, s0, -0xe8
8020213c: 23 38 b4 fa  	sd	a1, -0x50(s0)
80202140: 10 65        	ld	a2, 0x8(a0)
80202142: 23 3c c4 fa  	sd	a2, -0x48(s0)
80202146: 13 05 04 f7  	addi	a0, s0, -0x90
8020214a: 23 3c a4 ec  	sd	a0, -0x128(s0)
8020214e: 97 a0 00 00  	auipc	ra, 0xa
80202152: e7 80 60 9c  	jalr	-0x63a(ra) <_ZN5alloc11collections5btree4node115NodeRef$LT$alloc..collections..btree..node..marker..Mut$C$K$C$V$C$alloc..collections..btree..node..marker..Leaf$GT$16push_with_handle17he1091c582a1b804dE>
80202156: 03 35 84 ed  	ld	a0, -0x128(s0)
8020215a: 97 b0 00 00  	auipc	ra, 0xb
8020215e: e7 80 00 b4  	jalr	-0x4c0(ra) <_ZN5alloc11collections5btree4node171Handle$LT$alloc..collections..btree..node..NodeRef$LT$alloc..collections..btree..node..marker..Mut$C$K$C$V$C$NodeType$GT$$C$alloc..collections..btree..node..marker..KV$GT$12into_val_mut17hc15d20bb407383edE>
80202162: 03 36 04 ee  	ld	a2, -0x120(s0)
80202166: 23 30 a4 fc  	sd	a0, -0x40(s0)
8020216a: 83 35 04 f1  	ld	a1, -0xf0(s0)
8020216e: 23 34 b4 fc  	sd	a1, -0x38(s0)
80202172: 83 36 84 f0  	ld	a3, -0xf8(s0)
80202176: 23 38 d4 fc  	sd	a3, -0x30(s0)
8020217a: 23 34 d4 f2  	sd	a3, -0xd8(s0)
8020217e: 23 38 b4 f2  	sd	a1, -0xd0(s0)
80202182: 83 36 84 f2  	ld	a3, -0xd8(s0)
80202186: 83 35 04 f3  	ld	a1, -0xd0(s0)
8020218a: 14 e2        	sd	a3, 0x0(a2)
8020218c: 0c e6        	sd	a1, 0x8(a2)
8020218e: 85 45        	li	a1, 0x1
80202190: 0c ea        	sd	a1, 0x10(a2)
80202192: 23 30 a4 f0  	sd	a0, -0x100(s0)
80202196: 03 35 04 f0  	ld	a0, -0x100(s0)
8020219a: 23 34 a4 f6  	sd	a0, -0x98(s0)
8020219e: 03 35 84 f6  	ld	a0, -0x98(s0)
802021a2: 23 3c a4 ee  	sd	a0, -0x108(s0)
802021a6: 51 a0        	j	0x8020222a <_ZN5alloc11collections5btree3map5entry28VacantEntry$LT$K$C$V$C$A$GT$6insert17h80a43e10f828be61E+0x164>
802021a8: 03 35 04 ef  	ld	a0, -0x110(s0)
802021ac: 0c 71        	ld	a1, 0x20(a0)
802021ae: 23 34 b4 f4  	sd	a1, -0xb8(s0)
802021b2: 0c 6d        	ld	a1, 0x18(a0)
802021b4: 23 30 b4 f4  	sd	a1, -0xc0(s0)
802021b8: 0c 69        	ld	a1, 0x10(a0)
802021ba: 23 3c b4 f2  	sd	a1, -0xc8(s0)
802021be: 0c 65        	ld	a1, 0x8(a0)
802021c0: 23 34 b4 ec  	sd	a1, -0x138(s0)
802021c4: 13 05 85 02  	addi	a0, a0, 0x28
802021c8: 97 40 01 00  	auipc	ra, 0x14
802021cc: e7 80 00 92  	jalr	-0x6e0(ra) <_ZN59_$LT$alloc..alloc..Global$u20$as$u20$core..clone..Clone$GT$5clone17h47dd613f0bc5b609E>
802021d0: 03 36 84 ec  	ld	a2, -0x138(s0)
802021d4: 83 36 84 ee  	ld	a3, -0x118(s0)
802021d8: 03 37 04 ef  	ld	a4, -0x110(s0)
802021dc: 13 05 04 f5  	addi	a0, s0, -0xb0
802021e0: 23 38 a4 ec  	sd	a0, -0x130(s0)
802021e4: 93 05 84 f3  	addi	a1, s0, -0xc8
802021e8: 97 c0 00 00  	auipc	ra, 0xc
802021ec: e7 80 c0 8b  	jalr	-0x744(ra) <_ZN5alloc11collections5btree4node210Handle$LT$alloc..collections..btree..node..NodeRef$LT$alloc..collections..btree..node..marker..Mut$C$K$C$V$C$alloc..collections..btree..node..marker..Leaf$GT$$C$alloc..collections..btree..node..marker..Edge$GT$16insert_recursing17hd7c51b58cb92884eE>
802021f0: 03 35 04 ed  	ld	a0, -0x130(s0)
802021f4: 97 b0 00 00  	auipc	ra, 0xb
802021f8: e7 80 60 aa  	jalr	-0x55a(ra) <_ZN5alloc11collections5btree4node171Handle$LT$alloc..collections..btree..node..NodeRef$LT$alloc..collections..btree..node..marker..Mut$C$K$C$V$C$NodeType$GT$$C$alloc..collections..btree..node..marker..KV$GT$12into_val_mut17hc15d20bb407383edE>
802021fc: 83 35 04 ef  	ld	a1, -0x110(s0)
80202200: 23 3c a4 fc  	sd	a0, -0x28(s0)
80202204: 90 61        	ld	a2, 0x0(a1)
80202206: 23 30 c4 fe  	sd	a2, -0x20(s0)
8020220a: 23 34 c4 fe  	sd	a2, -0x18(s0)
8020220e: 0c 6a        	ld	a1, 0x10(a2)
80202210: 85 05        	addi	a1, a1, 0x1
80202212: 0c ea        	sd	a1, 0x10(a2)
80202214: 23 30 a4 f0  	sd	a0, -0x100(s0)
80202218: 03 35 04 f0  	ld	a0, -0x100(s0)
8020221c: 23 34 a4 f6  	sd	a0, -0x98(s0)
80202220: 03 35 84 f6  	ld	a0, -0x98(s0)
80202224: 23 3c a4 ee  	sd	a0, -0x108(s0)
80202228: 11 a0        	j	0x8020222c <_ZN5alloc11collections5btree3map5entry28VacantEntry$LT$K$C$V$C$A$GT$6insert17h80a43e10f828be61E+0x166>
8020222a: 09 a0        	j	0x8020222c <_ZN5alloc11collections5btree3map5entry28VacantEntry$LT$K$C$V$C$A$GT$6insert17h80a43e10f828be61E+0x166>
8020222c: 03 35 84 ef  	ld	a0, -0x108(s0)
80202230: f2 70        	ld	ra, 0x138(sp)
80202232: 52 74        	ld	s0, 0x130(sp)
80202234: 31 61        	addi	sp, sp, 0x140
80202236: 82 80        	ret

0000000080202238 <_ZN5alloc11collections5btree3map5entry28VacantEntry$LT$K$C$V$C$A$GT$6insert28_$u7b$$u7b$closure$u7d$$u7d$17h7b51087f58817653E>:
80202238: 19 71        	addi	sp, sp, -0x80
8020223a: 86 fc        	sd	ra, 0x78(sp)
8020223c: a2 f8        	sd	s0, 0x70(sp)
8020223e: 00 01        	addi	s0, sp, 0x80
80202240: 23 30 b4 f8  	sd	a1, -0x80(s0)
80202244: 23 34 a4 fa  	sd	a0, -0x58(s0)
80202248: 90 65        	ld	a2, 0x8(a1)
8020224a: 23 38 c4 fa  	sd	a2, -0x50(s0)
8020224e: 8c 61        	ld	a1, 0x0(a1)
80202250: 23 3c b4 fa  	sd	a1, -0x48(s0)
80202254: 23 30 a4 fc  	sd	a0, -0x40(s0)
80202258: 08 61        	ld	a0, 0x0(a0)
8020225a: 23 34 a4 f8  	sd	a0, -0x78(s0)
8020225e: 23 34 a4 fc  	sd	a0, -0x38(s0)
80202262: 23 38 a4 fc  	sd	a0, -0x30(s0)
80202266: 23 3c a4 fc  	sd	a0, -0x28(s0)
8020226a: 08 61        	ld	a0, 0x0(a0)
8020226c: 09 ed        	bnez	a0, 0x80202286 <.Lpcrel_hi0+0x10>
8020226e: 09 a0        	j	0x80202270 <_ZN5alloc11collections5btree3map5entry28VacantEntry$LT$K$C$V$C$A$GT$6insert28_$u7b$$u7b$closure$u7d$$u7d$17h7b51087f58817653E+0x38>
80202270: 01 45        	li	a0, 0x0
80202272: 23 38 a4 f8  	sd	a0, -0x70(s0)

0000000080202276 <.Lpcrel_hi0>:
80202276: 17 f5 01 00  	auipc	a0, 0x1f
8020227a: 13 05 25 e6  	addi	a0, a0, -0x19e
8020227e: 97 b0 01 00  	auipc	ra, 0x1b
80202282: e7 80 60 7c  	jalr	0x7c6(ra) <_ZN4core6option13unwrap_failed17h29a7a5e83cb350cbE>
80202286: 03 35 84 f8  	ld	a0, -0x78(s0)
8020228a: 23 30 a4 fe  	sd	a0, -0x20(s0)
8020228e: 23 38 a4 f8  	sd	a0, -0x70(s0)
80202292: 03 35 04 f9  	ld	a0, -0x70(s0)
80202296: 23 34 a4 fe  	sd	a0, -0x18(s0)
8020229a: 97 a0 00 00  	auipc	ra, 0xa
8020229e: e7 80 80 3d  	jalr	0x3d8(ra) <_ZN5alloc11collections5btree4node127NodeRef$LT$alloc..collections..btree..node..marker..Owned$C$K$C$V$C$alloc..collections..btree..node..marker..LeafOrInternal$GT$19push_internal_level17h45b913ed4b455d86E>
802022a2: 2a 86        	mv	a2, a0
802022a4: 03 35 04 f8  	ld	a0, -0x80(s0)
802022a8: 23 3c c4 f8  	sd	a2, -0x68(s0)
802022ac: 23 30 b4 fa  	sd	a1, -0x60(s0)
802022b0: 0c 71        	ld	a1, 0x20(a0)
802022b2: 10 75        	ld	a2, 0x28(a0)
802022b4: 14 69        	ld	a3, 0x10(a0)
802022b6: 18 6d        	ld	a4, 0x18(a0)
802022b8: 13 05 84 f9  	addi	a0, s0, -0x68
802022bc: 97 a0 00 00  	auipc	ra, 0xa
802022c0: e7 80 60 b3  	jalr	-0x4ca(ra) <_ZN5alloc11collections5btree4node119NodeRef$LT$alloc..collections..btree..node..marker..Mut$C$K$C$V$C$alloc..collections..btree..node..marker..Internal$GT$4push17h238457787f3c5094E>
802022c4: e6 70        	ld	ra, 0x78(sp)
802022c6: 46 74        	ld	s0, 0x70(sp)
802022c8: 09 61        	addi	sp, sp, 0x80
802022ca: 82 80        	ret

00000000802022cc <_ZN5alloc11collections5btree3map5entry30OccupiedEntry$LT$K$C$V$C$A$GT$9remove_kv17h829ca469f09a94deE>:
802022cc: 55 71        	addi	sp, sp, -0xd0
802022ce: 86 e5        	sd	ra, 0xc8(sp)
802022d0: a2 e1        	sd	s0, 0xc0(sp)
802022d2: 80 09        	addi	s0, sp, 0xd0
802022d4: 23 3c a4 f2  	sd	a0, -0xc8(s0)
802022d8: 81 45        	li	a1, 0x0
802022da: a3 07 b4 f6  	sb	a1, -0x91(s0)
802022de: 0c 69        	ld	a1, 0x10(a0)
802022e0: 23 34 b4 fa  	sd	a1, -0x58(s0)
802022e4: 0c 65        	ld	a1, 0x8(a0)
802022e6: 23 30 b4 fa  	sd	a1, -0x60(s0)
802022ea: 0c 61        	ld	a1, 0x0(a0)
802022ec: 23 3c b4 f8  	sd	a1, -0x68(s0)
802022f0: 13 05 05 02  	addi	a0, a0, 0x20
802022f4: 97 30 01 00  	auipc	ra, 0x13
802022f8: e7 80 40 7f  	jalr	0x7f4(ra) <_ZN59_$LT$alloc..alloc..Global$u20$as$u20$core..clone..Clone$GT$5clone17h47dd613f0bc5b609E>
802022fc: 13 05 04 f7  	addi	a0, s0, -0x90
80202300: 93 05 84 f9  	addi	a1, s0, -0x68
80202304: 13 06 f4 f6  	addi	a2, s0, -0x91
80202308: 97 10 01 00  	auipc	ra, 0x11
8020230c: e7 80 80 db  	jalr	-0x248(ra) <_ZN5alloc11collections5btree6remove269_$LT$impl$u20$alloc..collections..btree..node..Handle$LT$alloc..collections..btree..node..NodeRef$LT$alloc..collections..btree..node..marker..Mut$C$K$C$V$C$alloc..collections..btree..node..marker..LeafOrInternal$GT$$C$alloc..collections..btree..node..marker..KV$GT$$GT$18remove_kv_tracking17h786fc39fb5bc6047E>
80202310: 03 35 84 f3  	ld	a0, -0xc8(s0)
80202314: 03 36 04 f7  	ld	a2, -0x90(s0)
80202318: 23 30 c4 f4  	sd	a2, -0xc0(s0)
8020231c: 83 35 84 f7  	ld	a1, -0x88(s0)
80202320: 23 34 b4 f4  	sd	a1, -0xb8(s0)
80202324: 23 3c c4 fa  	sd	a2, -0x48(s0)
80202328: 23 30 b4 fc  	sd	a1, -0x40(s0)
8020232c: 0c 6d        	ld	a1, 0x18(a0)
8020232e: 23 38 b4 f4  	sd	a1, -0xb0(s0)
80202332: 23 34 b4 fc  	sd	a1, -0x38(s0)
80202336: 23 38 b4 fc  	sd	a1, -0x30(s0)
8020233a: 88 69        	ld	a0, 0x10(a1)
8020233c: 7d 15        	addi	a0, a0, -0x1
8020233e: 88 e9        	sd	a0, 0x10(a1)
80202340: 03 45 f4 f6  	lbu	a0, -0x91(s0)
80202344: 05 89        	andi	a0, a0, 0x1
80202346: 19 e9        	bnez	a0, 0x8020235c <_ZN5alloc11collections5btree3map5entry30OccupiedEntry$LT$K$C$V$C$A$GT$9remove_kv17h829ca469f09a94deE+0x90>
80202348: 09 a0        	j	0x8020234a <_ZN5alloc11collections5btree3map5entry30OccupiedEntry$LT$K$C$V$C$A$GT$9remove_kv17h829ca469f09a94deE+0x7e>
8020234a: 03 35 84 f4  	ld	a0, -0xb8(s0)
8020234e: 83 35 04 f4  	ld	a1, -0xc0(s0)
80202352: 23 3c b4 f4  	sd	a1, -0xa8(s0)
80202356: 23 30 a4 f6  	sd	a0, -0xa0(s0)
8020235a: 01 a8        	j	0x8020236a <_ZN5alloc11collections5btree3map5entry30OccupiedEntry$LT$K$C$V$C$A$GT$9remove_kv17h829ca469f09a94deE+0x9e>
8020235c: 03 35 04 f5  	ld	a0, -0xb0(s0)
80202360: 23 3c a4 fc  	sd	a0, -0x28(s0)
80202364: 08 61        	ld	a0, 0x0(a0)
80202366: 19 c9        	beqz	a0, 0x8020237c <_ZN5alloc11collections5btree3map5entry30OccupiedEntry$LT$K$C$V$C$A$GT$9remove_kv17h829ca469f09a94deE+0xb0>
80202368: 2d a0        	j	0x80202392 <.Lpcrel_hi1+0x10>
8020236a: 09 a0        	j	0x8020236c <_ZN5alloc11collections5btree3map5entry30OccupiedEntry$LT$K$C$V$C$A$GT$9remove_kv17h829ca469f09a94deE+0xa0>
8020236c: 03 35 84 f5  	ld	a0, -0xa8(s0)
80202370: 83 35 04 f6  	ld	a1, -0xa0(s0)
80202374: ae 60        	ld	ra, 0xc8(sp)
80202376: 0e 64        	ld	s0, 0xc0(sp)
80202378: 69 61        	addi	sp, sp, 0xd0
8020237a: 82 80        	ret
8020237c: 01 45        	li	a0, 0x0
8020237e: 23 38 a4 fa  	sd	a0, -0x50(s0)

0000000080202382 <.Lpcrel_hi1>:
80202382: 17 f5 01 00  	auipc	a0, 0x1f
80202386: 13 05 e5 d6  	addi	a0, a0, -0x292
8020238a: 97 b0 01 00  	auipc	ra, 0x1b
8020238e: e7 80 a0 6b  	jalr	0x6ba(ra) <_ZN4core6option13unwrap_failed17h29a7a5e83cb350cbE>
80202392: 03 35 04 f5  	ld	a0, -0xb0(s0)
80202396: 23 30 a4 fe  	sd	a0, -0x20(s0)
8020239a: 23 38 a4 fa  	sd	a0, -0x50(s0)
8020239e: 03 35 04 fb  	ld	a0, -0x50(s0)
802023a2: 23 34 a4 fe  	sd	a0, -0x18(s0)
802023a6: 97 a0 00 00  	auipc	ra, 0xa
802023aa: e7 80 40 21  	jalr	0x214(ra) <_ZN5alloc11collections5btree4node127NodeRef$LT$alloc..collections..btree..node..marker..Owned$C$K$C$V$C$alloc..collections..btree..node..marker..LeafOrInternal$GT$18pop_internal_level17h0d16cbf85d1402abE>
802023ae: 83 35 04 f4  	ld	a1, -0xc0(s0)
802023b2: 03 35 84 f4  	ld	a0, -0xb8(s0)
802023b6: 23 3c b4 f4  	sd	a1, -0xa8(s0)
802023ba: 23 30 a4 f6  	sd	a0, -0xa0(s0)
802023be: 7d b7        	j	0x8020236c <_ZN5alloc11collections5btree3map5entry30OccupiedEntry$LT$K$C$V$C$A$GT$9remove_kv17h829ca469f09a94deE+0xa0>

00000000802023c0 <_ZN5alloc11collections5btree3map5entry30OccupiedEntry$LT$K$C$V$C$A$GT$9remove_kv28_$u7b$$u7b$closure$u7d$$u7d$17h7a3ddd379a941dc0E>:
802023c0: 01 11        	addi	sp, sp, -0x20
802023c2: 06 ec        	sd	ra, 0x18(sp)
802023c4: 22 e8        	sd	s0, 0x10(sp)
802023c6: 00 10        	addi	s0, sp, 0x20
802023c8: aa 85        	mv	a1, a0
802023ca: 23 34 b4 fe  	sd	a1, -0x18(s0)
802023ce: 05 45        	li	a0, 0x1
802023d0: 23 80 a5 00  	sb	a0, 0x0(a1)
802023d4: e2 60        	ld	ra, 0x18(sp)
802023d6: 42 64        	ld	s0, 0x10(sp)
802023d8: 05 61        	addi	sp, sp, 0x20
802023da: 82 80        	ret

00000000802023dc <_ZN81_$LT$core..str..iter..Chars$u20$as$u20$core..iter..traits..iterator..Iterator$GT$4next17hea094459905e4266E>:
802023dc: 39 71        	addi	sp, sp, -0x40
802023de: 06 fc        	sd	ra, 0x38(sp)
802023e0: 22 f8        	sd	s0, 0x30(sp)
802023e2: 80 00        	addi	s0, sp, 0x40
802023e4: 23 30 a4 fe  	sd	a0, -0x20(s0)
802023e8: 97 30 00 00  	auipc	ra, 0x3
802023ec: e7 80 60 67  	jalr	0x676(ra) <_ZN4core3str11validations15next_code_point17hc8c97f41eeb86878E>
802023f0: 23 2c a4 fc  	sw	a0, -0x28(s0)
802023f4: 23 2e b4 fc  	sw	a1, -0x24(s0)
802023f8: 03 25 84 fd  	lw	a0, -0x28(s0)
802023fc: 19 e5        	bnez	a0, 0x8020240a <_ZN81_$LT$core..str..iter..Chars$u20$as$u20$core..iter..traits..iterator..Iterator$GT$4next17hea094459905e4266E+0x2e>
802023fe: 09 a0        	j	0x80202400 <_ZN81_$LT$core..str..iter..Chars$u20$as$u20$core..iter..traits..iterator..Iterator$GT$4next17hea094459905e4266E+0x24>
80202400: 37 05 11 00  	lui	a0, 0x110
80202404: 23 2a a4 fc  	sw	a0, -0x2c(s0)
80202408: 01 a8        	j	0x80202418 <_ZN81_$LT$core..str..iter..Chars$u20$as$u20$core..iter..traits..iterator..Iterator$GT$4next17hea094459905e4266E+0x3c>
8020240a: 03 25 c4 fd  	lw	a0, -0x24(s0)
8020240e: 23 34 a4 fc  	sd	a0, -0x38(s0)
80202412: 23 26 a4 fe  	sw	a0, -0x14(s0)
80202416: 39 a0        	j	0x80202424 <_ZN81_$LT$core..str..iter..Chars$u20$as$u20$core..iter..traits..iterator..Iterator$GT$4next17hea094459905e4266E+0x48>
80202418: 03 25 44 fd  	lw	a0, -0x2c(s0)
8020241c: e2 70        	ld	ra, 0x38(sp)
8020241e: 42 74        	ld	s0, 0x30(sp)
80202420: 21 61        	addi	sp, sp, 0x40
80202422: 82 80        	ret
80202424: 03 35 84 fc  	ld	a0, -0x38(s0)
80202428: 97 40 00 00  	auipc	ra, 0x4
8020242c: e7 80 e0 50  	jalr	0x50e(ra) <_ZN4core4char7convert18from_u32_unchecked18precondition_check17h80d73912859f1aefE>
80202430: 09 a0        	j	0x80202432 <_ZN81_$LT$core..str..iter..Chars$u20$as$u20$core..iter..traits..iterator..Iterator$GT$4next17hea094459905e4266E+0x56>
80202432: 03 35 84 fc  	ld	a0, -0x38(s0)
80202436: 23 2a a4 fc  	sw	a0, -0x2c(s0)
8020243a: f9 bf        	j	0x80202418 <_ZN81_$LT$core..str..iter..Chars$u20$as$u20$core..iter..traits..iterator..Iterator$GT$4next17hea094459905e4266E+0x3c>

000000008020243c <_ZN42_$LT$$RF$T$u20$as$u20$core..fmt..Debug$GT$3fmt17h56cd9a053a90d2eaE>:
8020243c: 01 11        	addi	sp, sp, -0x20
8020243e: 06 ec        	sd	ra, 0x18(sp)
80202440: 22 e8        	sd	s0, 0x10(sp)
80202442: 00 10        	addi	s0, sp, 0x20
80202444: 23 30 a4 fe  	sd	a0, -0x20(s0)
80202448: 23 34 b4 fe  	sd	a1, -0x18(s0)
8020244c: 08 61        	ld	a0, 0x0(a0)
8020244e: 97 70 01 00  	auipc	ra, 0x17
80202452: e7 80 00 2a  	jalr	0x2a0(ra) <_ZN4core5array69_$LT$impl$u20$core..fmt..Debug$u20$for$u20$$u5b$T$u3b$$u20$N$u5d$$GT$3fmt17h299adc9ffa3854b2E>
80202456: e2 60        	ld	ra, 0x18(sp)
80202458: 42 64        	ld	s0, 0x10(sp)
8020245a: 05 61        	addi	sp, sp, 0x20
8020245c: 82 80        	ret

000000008020245e <_ZN44_$LT$$RF$T$u20$as$u20$core..fmt..Display$GT$3fmt17h6ed08c66ae4c8192E>:
8020245e: 01 11        	addi	sp, sp, -0x20
80202460: 06 ec        	sd	ra, 0x18(sp)
80202462: 22 e8        	sd	s0, 0x10(sp)
80202464: 00 10        	addi	s0, sp, 0x20
80202466: 2e 86        	mv	a2, a1
80202468: aa 85        	mv	a1, a0
8020246a: 23 30 b4 fe  	sd	a1, -0x20(s0)
8020246e: 23 34 c4 fe  	sd	a2, -0x18(s0)
80202472: 88 61        	ld	a0, 0x0(a1)
80202474: 8c 65        	ld	a1, 0x8(a1)
80202476: 97 d0 01 00  	auipc	ra, 0x1d
8020247a: e7 80 20 ca  	jalr	-0x35e(ra) <_ZN42_$LT$str$u20$as$u20$core..fmt..Display$GT$3fmt17h2342691faffa6bcfE>
8020247e: e2 60        	ld	ra, 0x18(sp)
80202480: 42 64        	ld	s0, 0x10(sp)
80202482: 05 61        	addi	sp, sp, 0x20
80202484: 82 80        	ret

0000000080202486 <_ZN4core3fmt9Arguments6new_v117h9d841e0671b66ef9E>:
80202486: 79 71        	addi	sp, sp, -0x30
80202488: 06 f4        	sd	ra, 0x28(sp)
8020248a: 22 f0        	sd	s0, 0x20(sp)
8020248c: 00 18        	addi	s0, sp, 0x30
8020248e: 23 3c b4 fc  	sd	a1, -0x28(s0)
80202492: aa 85        	mv	a1, a0
80202494: 03 35 84 fd  	ld	a0, -0x28(s0)
80202498: 23 30 a4 fe  	sd	a0, -0x20(s0)
8020249c: 23 34 c4 fe  	sd	a2, -0x18(s0)
802024a0: 88 e1        	sd	a0, 0x0(a1)
802024a2: 0d 45        	li	a0, 0x3
802024a4: 88 e5        	sd	a0, 0x8(a1)

00000000802024a6 <.Lpcrel_hi0>:
802024a6: 17 f5 01 00  	auipc	a0, 0x1f
802024aa: 13 05 25 ce  	addi	a0, a0, -0x31e
802024ae: 14 61        	ld	a3, 0x0(a0)
802024b0: 08 65        	ld	a0, 0x8(a0)
802024b2: 94 f1        	sd	a3, 0x20(a1)
802024b4: 88 f5        	sd	a0, 0x28(a1)
802024b6: 90 e9        	sd	a2, 0x10(a1)
802024b8: 09 45        	li	a0, 0x2
802024ba: 88 ed        	sd	a0, 0x18(a1)
802024bc: a2 70        	ld	ra, 0x28(sp)
802024be: 02 74        	ld	s0, 0x20(sp)
802024c0: 45 61        	addi	sp, sp, 0x30
802024c2: 82 80        	ret

00000000802024c4 <_ZN4core3cmp9PartialEq2ne17hc9ab0fa397e77e6aE>:
802024c4: 01 11        	addi	sp, sp, -0x20
802024c6: 06 ec        	sd	ra, 0x18(sp)
802024c8: 22 e8        	sd	s0, 0x10(sp)
802024ca: 00 10        	addi	s0, sp, 0x20
802024cc: 23 30 a4 fe  	sd	a0, -0x20(s0)
802024d0: 23 34 b4 fe  	sd	a1, -0x18(s0)
802024d4: 97 80 00 00  	auipc	ra, 0x8
802024d8: e7 80 a0 23  	jalr	0x23a(ra) <_ZN69_$LT$os..mm..page_table..PTEFlags$u20$as$u20$core..cmp..PartialEq$GT$2eq17h2c8c4daeae5d0596E>
802024dc: 13 45 15 00  	xori	a0, a0, 0x1
802024e0: e2 60        	ld	ra, 0x18(sp)
802024e2: 42 64        	ld	s0, 0x10(sp)
802024e4: 05 61        	addi	sp, sp, 0x20
802024e6: 82 80        	ret

00000000802024e8 <_ZN2os2mm10page_table9PageTable9translate28_$u7b$$u7b$closure$u7d$$u7d$17hb5431353a88a753cE>:
802024e8: 79 71        	addi	sp, sp, -0x30
802024ea: 06 f4        	sd	ra, 0x28(sp)
802024ec: 22 f0        	sd	s0, 0x20(sp)
802024ee: 00 18        	addi	s0, sp, 0x30
802024f0: 23 34 a4 fe  	sd	a0, -0x18(s0)
802024f4: 08 61        	ld	a0, 0x0(a0)
802024f6: 23 3c a4 fc  	sd	a0, -0x28(s0)
802024fa: 03 35 84 fd  	ld	a0, -0x28(s0)
802024fe: a2 70        	ld	ra, 0x28(sp)
80202500: 02 74        	ld	s0, 0x20(sp)
80202502: 45 61        	addi	sp, sp, 0x30
80202504: 82 80        	ret

0000000080202506 <_ZN2os2mm10memory_set9MemorySet8new_bare17h0279d5db50bee90cE>:
80202506: 5d 71        	addi	sp, sp, -0x50
80202508: 86 e4        	sd	ra, 0x48(sp)
8020250a: a2 e0        	sd	s0, 0x40(sp)
8020250c: 80 08        	addi	s0, sp, 0x50
8020250e: 23 38 a4 fa  	sd	a0, -0x50(s0)
80202512: 13 05 84 fb  	addi	a0, s0, -0x48
80202516: 97 80 00 00  	auipc	ra, 0x8
8020251a: e7 80 00 90  	jalr	-0x700(ra) <_ZN2os2mm10page_table9PageTable3new17h7db91647f0662da3E>
8020251e: 13 05 84 fd  	addi	a0, s0, -0x28
80202522: 97 40 00 00  	auipc	ra, 0x4
80202526: e7 80 a0 b9  	jalr	-0x466(ra) <_ZN5alloc3vec12Vec$LT$T$GT$3new17h7bf9637a9ad3d08bE>
8020252a: 83 35 04 fb  	ld	a1, -0x50(s0)
8020252e: 03 35 04 fd  	ld	a0, -0x30(s0)
80202532: 88 ed        	sd	a0, 0x18(a1)
80202534: 03 35 84 fc  	ld	a0, -0x38(s0)
80202538: 88 e9        	sd	a0, 0x10(a1)
8020253a: 03 35 04 fc  	ld	a0, -0x40(s0)
8020253e: 88 e5        	sd	a0, 0x8(a1)
80202540: 03 35 84 fb  	ld	a0, -0x48(s0)
80202544: 88 e1        	sd	a0, 0x0(a1)
80202546: 03 35 84 fe  	ld	a0, -0x18(s0)
8020254a: 88 f9        	sd	a0, 0x30(a1)
8020254c: 03 35 04 fe  	ld	a0, -0x20(s0)
80202550: 88 f5        	sd	a0, 0x28(a1)
80202552: 03 35 84 fd  	ld	a0, -0x28(s0)
80202556: 88 f1        	sd	a0, 0x20(a1)
80202558: a6 60        	ld	ra, 0x48(sp)
8020255a: 06 64        	ld	s0, 0x40(sp)
8020255c: 61 61        	addi	sp, sp, 0x50
8020255e: 82 80        	ret

0000000080202560 <_ZN2os2mm10memory_set9MemorySet5token17hc6d0fedbfef9cd92E>:
80202560: 01 11        	addi	sp, sp, -0x20
80202562: 06 ec        	sd	ra, 0x18(sp)
80202564: 22 e8        	sd	s0, 0x10(sp)
80202566: 00 10        	addi	s0, sp, 0x20
80202568: 23 34 a4 fe  	sd	a0, -0x18(s0)
8020256c: 97 80 00 00  	auipc	ra, 0x8
80202570: e7 80 20 f2  	jalr	-0xde(ra) <_ZN2os2mm10page_table9PageTable5token17h9d52945834db24dcE>
80202574: e2 60        	ld	ra, 0x18(sp)
80202576: 42 64        	ld	s0, 0x10(sp)
80202578: 05 61        	addi	sp, sp, 0x20
8020257a: 82 80        	ret

000000008020257c <_ZN2os2mm10memory_set9MemorySet18insert_framed_area17hb1e661230d5e953bE>:
8020257c: 75 71        	addi	sp, sp, -0x90
8020257e: 06 e5        	sd	ra, 0x88(sp)
80202580: 22 e1        	sd	s0, 0x80(sp)
80202582: 00 09        	addi	s0, sp, 0x90
80202584: 36 87        	mv	a4, a3
80202586: 23 3c a4 f6  	sd	a0, -0x88(s0)
8020258a: 23 38 a4 fc  	sd	a0, -0x30(s0)
8020258e: 23 3c b4 fc  	sd	a1, -0x28(s0)
80202592: 23 30 c4 fe  	sd	a2, -0x20(s0)
80202596: a3 07 e4 fe  	sb	a4, -0x11(s0)
8020259a: 05 45        	li	a0, 0x1
8020259c: a3 0f a4 fa  	sb	a0, -0x41(s0)
802025a0: 03 45 f4 fb  	lbu	a0, -0x41(s0)
802025a4: 93 76 15 00  	andi	a3, a0, 0x1
802025a8: 13 05 84 f8  	addi	a0, s0, -0x78
802025ac: 23 30 a4 f8  	sd	a0, -0x80(s0)
802025b0: 97 20 00 00  	auipc	ra, 0x2
802025b4: e7 80 60 b2  	jalr	-0x4da(ra) <_ZN2os2mm10memory_set7MapArea3new17h1c7388352d3e2f1aE>
802025b8: 03 35 84 f7  	ld	a0, -0x88(s0)
802025bc: 83 35 04 f8  	ld	a1, -0x80(s0)
802025c0: 01 46        	li	a2, 0x0
802025c2: 23 30 c4 fc  	sd	a2, -0x40(s0)
802025c6: 03 36 04 fc  	ld	a2, -0x40(s0)
802025ca: 83 36 84 fc  	ld	a3, -0x38(s0)
802025ce: 97 00 00 00  	auipc	ra, 0x0
802025d2: e7 80 00 01  	jalr	0x10(ra) <_ZN2os2mm10memory_set9MemorySet4push17hdc866bfc6e798f8eE>
802025d6: aa 60        	ld	ra, 0x88(sp)
802025d8: 0a 64        	ld	s0, 0x80(sp)
802025da: 49 61        	addi	sp, sp, 0x90
802025dc: 82 80        	ret

00000000802025de <_ZN2os2mm10memory_set9MemorySet4push17hdc866bfc6e798f8eE>:
802025de: 19 71        	addi	sp, sp, -0x80
802025e0: 86 fc        	sd	ra, 0x78(sp)
802025e2: a2 f8        	sd	s0, 0x70(sp)
802025e4: 00 01        	addi	s0, sp, 0x80
802025e6: 23 34 b4 f8  	sd	a1, -0x78(s0)
802025ea: aa 85        	mv	a1, a0
802025ec: 03 35 84 f8  	ld	a0, -0x78(s0)
802025f0: 23 38 b4 f8  	sd	a1, -0x70(s0)
802025f4: 23 3c c4 f8  	sd	a2, -0x68(s0)
802025f8: 23 30 d4 fa  	sd	a3, -0x60(s0)
802025fc: 23 3c b4 fc  	sd	a1, -0x28(s0)
80202600: 97 20 00 00  	auipc	ra, 0x2
80202604: e7 80 e0 cd  	jalr	-0x322(ra) <_ZN2os2mm10memory_set7MapArea3map17he5039933bd5e0cd7E>
80202608: 03 35 84 f9  	ld	a0, -0x68(s0)
8020260c: 1d c1        	beqz	a0, 0x80202632 <_ZN2os2mm10memory_set9MemorySet4push17hdc866bfc6e798f8eE+0x54>
8020260e: 09 a0        	j	0x80202610 <_ZN2os2mm10memory_set9MemorySet4push17hdc866bfc6e798f8eE+0x32>
80202610: 83 35 04 f9  	ld	a1, -0x70(s0)
80202614: 03 35 84 f8  	ld	a0, -0x78(s0)
80202618: 03 36 84 f9  	ld	a2, -0x68(s0)
8020261c: 83 36 04 fa  	ld	a3, -0x60(s0)
80202620: 23 30 c4 fe  	sd	a2, -0x20(s0)
80202624: 23 34 d4 fe  	sd	a3, -0x18(s0)
80202628: 97 20 00 00  	auipc	ra, 0x2
8020262c: e7 80 60 e7  	jalr	-0x18a(ra) <_ZN2os2mm10memory_set7MapArea9copy_data17h3b53405329cb92f4E>
80202630: 09 a0        	j	0x80202632 <_ZN2os2mm10memory_set9MemorySet4push17hdc866bfc6e798f8eE+0x54>
80202632: 83 35 84 f8  	ld	a1, -0x78(s0)
80202636: 03 35 04 f9  	ld	a0, -0x70(s0)
8020263a: 13 05 05 02  	addi	a0, a0, 0x20
8020263e: 90 75        	ld	a2, 0x28(a1)
80202640: 23 38 c4 fc  	sd	a2, -0x30(s0)
80202644: 90 71        	ld	a2, 0x20(a1)
80202646: 23 34 c4 fc  	sd	a2, -0x38(s0)
8020264a: 90 6d        	ld	a2, 0x18(a1)
8020264c: 23 30 c4 fc  	sd	a2, -0x40(s0)
80202650: 90 69        	ld	a2, 0x10(a1)
80202652: 23 3c c4 fa  	sd	a2, -0x48(s0)
80202656: 90 65        	ld	a2, 0x8(a1)
80202658: 23 38 c4 fa  	sd	a2, -0x50(s0)
8020265c: 8c 61        	ld	a1, 0x0(a1)
8020265e: 23 34 b4 fa  	sd	a1, -0x58(s0)
80202662: 93 05 84 fa  	addi	a1, s0, -0x58
80202666: 97 40 00 00  	auipc	ra, 0x4
8020266a: e7 80 e0 be  	jalr	-0x412(ra) <_ZN5alloc3vec16Vec$LT$T$C$A$GT$4push17h25c83a5e6bbab8c4E>
8020266e: e6 70        	ld	ra, 0x78(sp)
80202670: 46 74        	ld	s0, 0x70(sp)
80202672: 09 61        	addi	sp, sp, 0x80
80202674: 82 80        	ret

0000000080202676 <_ZN2os2mm10memory_set9MemorySet14map_trampoline17h11a63d3c45d320daE>:
80202676: 79 71        	addi	sp, sp, -0x30
80202678: 06 f4        	sd	ra, 0x28(sp)
8020267a: 22 f0        	sd	s0, 0x20(sp)
8020267c: 00 18        	addi	s0, sp, 0x30
8020267e: 23 30 a4 fe  	sd	a0, -0x20(s0)
80202682: 23 34 a4 fe  	sd	a0, -0x18(s0)
80202686: 7d 75        	lui	a0, 0xfffff
80202688: 97 30 00 00  	auipc	ra, 0x3
8020268c: e7 80 20 a3  	jalr	-0x5ce(ra) <_ZN78_$LT$os..mm..address..VirtAddr$u20$as$u20$core..convert..From$LT$usize$GT$$GT$4from17h1c295d1a0d39bef5E>

0000000080202690 <.Lpcrel_hi0>:
80202690: 97 f5 01 00  	auipc	a1, 0x1f
80202694: 93 85 85 b8  	addi	a1, a1, -0x478
80202698: 97 30 01 00  	auipc	ra, 0x13
8020269c: e7 80 80 be  	jalr	-0x418(ra) <_ZN50_$LT$T$u20$as$u20$core..convert..Into$LT$U$GT$$GT$4into17ha9dc52e42a8d14ffE>
802026a0: 23 38 a4 fc  	sd	a0, -0x30(s0)

00000000802026a4 <.Lpcrel_hi1>:
802026a4: 17 f5 ff ff  	auipc	a0, 0xfffff
802026a8: 13 05 c5 95  	addi	a0, a0, -0x6a4
802026ac: 97 20 00 00  	auipc	ra, 0x2
802026b0: e7 80 00 70  	jalr	0x700(ra) <_ZN78_$LT$os..mm..address..PhysAddr$u20$as$u20$core..convert..From$LT$usize$GT$$GT$4from17h1a7c21e2be50f779E>

00000000802026b4 <.Lpcrel_hi2>:
802026b4: 97 f5 01 00  	auipc	a1, 0x1f
802026b8: 93 85 c5 b7  	addi	a1, a1, -0x484
802026bc: 97 30 01 00  	auipc	ra, 0x13
802026c0: e7 80 c0 bf  	jalr	-0x404(ra) <_ZN50_$LT$T$u20$as$u20$core..convert..Into$LT$U$GT$$GT$4into17he897533dca51a8b3E>
802026c4: 23 3c a4 fc  	sd	a0, -0x28(s0)
802026c8: 09 45        	li	a0, 0x2
802026ca: a1 45        	li	a1, 0x8
802026cc: 97 80 00 00  	auipc	ra, 0x8
802026d0: e7 80 00 11  	jalr	0x110(ra) <_ZN70_$LT$os..mm..page_table..PTEFlags$u20$as$u20$core..ops..bit..BitOr$GT$5bitor17h95154ebd7d232092E>
802026d4: 83 35 04 fd  	ld	a1, -0x30(s0)
802026d8: 03 36 84 fd  	ld	a2, -0x28(s0)
802026dc: aa 86        	mv	a3, a0
802026de: 03 35 04 fe  	ld	a0, -0x20(s0)
802026e2: 97 80 00 00  	auipc	ra, 0x8
802026e6: e7 80 40 b7  	jalr	-0x48c(ra) <_ZN2os2mm10page_table9PageTable3map17h9e53dd0e41dabcb8E>
802026ea: a2 70        	ld	ra, 0x28(sp)
802026ec: 02 74        	ld	s0, 0x20(sp)
802026ee: 45 61        	addi	sp, sp, 0x30
802026f0: 82 80        	ret

00000000802026f2 <_ZN2os2mm10memory_set9MemorySet10new_kernel17h46603da8f16527c2E>:
802026f2: 13 01 01 81  	addi	sp, sp, -0x7f0
802026f6: 23 34 11 7e  	sd	ra, 0x7e8(sp)
802026fa: 23 30 81 7e  	sd	s0, 0x7e0(sp)
802026fe: 13 04 01 7f  	addi	s0, sp, 0x7f0
80202702: 13 01 01 9b  	addi	sp, sp, -0x650
80202706: 93 05 04 80  	addi	a1, s0, -0x800
8020270a: 93 85 05 b7  	addi	a1, a1, -0x490
8020270e: 05 66        	lui	a2, 0x1
80202710: 33 06 c4 40  	sub	a2, s0, a2
80202714: 23 34 b6 20  	sd	a1, 0x208(a2)
80202718: 85 65        	lui	a1, 0x1
8020271a: b3 05 b4 40  	sub	a1, s0, a1
8020271e: 23 b8 a5 1e  	sd	a0, 0x1f0(a1)
80202722: 13 05 04 80  	addi	a0, s0, -0x800
80202726: 13 05 05 b4  	addi	a0, a0, -0x4c0
8020272a: 85 65        	lui	a1, 0x1
8020272c: b3 05 b4 40  	sub	a1, s0, a1
80202730: 23 b0 a5 32  	sd	a0, 0x320(a1)
80202734: 97 00 00 00  	auipc	ra, 0x0
80202738: e7 80 20 dd  	jalr	-0x22e(ra) <_ZN2os2mm10memory_set9MemorySet8new_bare17h0279d5db50bee90cE>
8020273c: 05 65        	lui	a0, 0x1
8020273e: 33 05 a4 40  	sub	a0, s0, a0
80202742: 03 35 05 32  	ld	a0, 0x320(a0)
80202746: 97 00 00 00  	auipc	ra, 0x0
8020274a: e7 80 00 f3  	jalr	-0xd0(ra) <_ZN2os2mm10memory_set9MemorySet14map_trampoline17h11a63d3c45d320daE>
8020274e: 05 65        	lui	a0, 0x1
80202750: 33 05 a4 40  	sub	a0, s0, a0
80202754: 83 35 85 20  	ld	a1, 0x208(a0)

0000000080202758 <.Lpcrel_hi3>:
80202758: 17 e5 ff ff  	auipc	a0, 0xffffe
8020275c: 13 05 85 8a  	addi	a0, a0, -0x758
80202760: 05 66        	lui	a2, 0x1
80202762: 33 06 c4 40  	sub	a2, s0, a2
80202766: 23 30 a6 24  	sd	a0, 0x240(a2)
8020276a: a8 f5        	sd	a0, 0x68(a1)
8020276c: 13 06 04 80  	addi	a2, s0, -0x800
80202770: 13 06 86 bd  	addi	a2, a2, -0x428
80202774: 23 3c c4 fc  	sd	a2, -0x28(s0)

0000000080202778 <.Lpcrel_hi4>:
80202778: 17 e5 01 00  	auipc	a0, 0x1e
8020277c: 13 05 a5 9d  	addi	a0, a0, -0x626
80202780: 85 66        	lui	a3, 0x1
80202782: b3 06 d4 40  	sub	a3, s0, a3
80202786: 23 bc a6 20  	sd	a0, 0x218(a3)
8020278a: 23 30 a4 fe  	sd	a0, -0x20(s0)
8020278e: 23 34 c4 fc  	sd	a2, -0x38(s0)
80202792: 23 38 a4 fc  	sd	a0, -0x30(s0)
80202796: 03 36 04 fd  	ld	a2, -0x30(s0)
8020279a: b0 f1        	sd	a2, 0x60(a1)
8020279c: 03 36 84 fc  	ld	a2, -0x38(s0)
802027a0: b0 ed        	sd	a2, 0x58(a1)

00000000802027a2 <.Lpcrel_hi5>:
802027a2: 17 f6 01 00  	auipc	a2, 0x1f
802027a6: 13 06 e6 85  	addi	a2, a2, -0x7a2
802027aa: 85 66        	lui	a3, 0x1
802027ac: b3 06 d4 40  	sub	a3, s0, a3
802027b0: 23 b4 c6 24  	sd	a2, 0x248(a3)
802027b4: d0 e1        	sd	a2, 0x80(a1)
802027b6: 13 06 04 80  	addi	a2, s0, -0x800
802027ba: 13 06 06 bf  	addi	a2, a2, -0x410
802027be: 23 3c c4 fa  	sd	a2, -0x48(s0)
802027c2: 23 30 a4 fc  	sd	a0, -0x40(s0)
802027c6: 23 34 c4 fa  	sd	a2, -0x58(s0)
802027ca: 23 38 a4 fa  	sd	a0, -0x50(s0)
802027ce: 03 35 04 fb  	ld	a0, -0x50(s0)
802027d2: a8 fd        	sd	a0, 0x78(a1)
802027d4: 03 35 84 fa  	ld	a0, -0x58(s0)
802027d8: a8 f9        	sd	a0, 0x70(a1)
802027da: a8 71        	ld	a0, 0x60(a1)
802027dc: a8 e1        	sd	a0, 0x40(a1)
802027de: a8 6d        	ld	a0, 0x58(a1)
802027e0: 88 fd        	sd	a0, 0x38(a1)
802027e2: a8 7d        	ld	a0, 0x78(a1)
802027e4: a8 e9        	sd	a0, 0x50(a1)
802027e6: a8 79        	ld	a0, 0x70(a1)
802027e8: a8 e5        	sd	a0, 0x48(a1)
802027ea: 0d 46        	li	a2, 0x3
802027ec: 05 65        	lui	a0, 0x1
802027ee: 33 05 a4 40  	sub	a0, s0, a0
802027f2: 23 34 c5 22  	sd	a2, 0x228(a0)
802027f6: a3 8b c5 12  	sb	a2, 0x137(a1)
802027fa: 09 48        	li	a6, 0x2
802027fc: 05 65        	lui	a0, 0x1
802027fe: 33 05 a4 40  	sub	a0, s0, a0
80202802: 23 30 05 31  	sd	a6, 0x300(a0)
80202806: 23 bc 05 13  	sd	a6, 0x138(a1)
8020280a: 23 b4 05 15  	sd	a6, 0x148(a1)
8020280e: 83 c2 75 13  	lbu	t0, 0x137(a1)
80202812: 83 b7 85 13  	ld	a5, 0x138(a1)
80202816: 03 b7 05 14  	ld	a4, 0x140(a1)
8020281a: 83 b6 85 14  	ld	a3, 0x148(a1)
8020281e: 03 b5 05 15  	ld	a0, 0x150(a1)
80202822: 81 43        	li	t2, 0x0
80202824: 85 68        	lui	a7, 0x1
80202826: b3 08 14 41  	sub	a7, s0, a7
8020282a: 23 bc 78 30  	sd	t2, 0x318(a7)
8020282e: 23 38 74 ea  	sd	t2, -0x150(s0)
80202832: 13 03 00 02  	li	t1, 0x20
80202836: 85 68        	lui	a7, 0x1
80202838: b3 08 14 41  	sub	a7, s0, a7
8020283c: 23 b0 68 22  	sd	t1, 0x220(a7)
80202840: 23 2e 64 ea  	sw	t1, -0x144(s0)
80202844: a3 01 54 ec  	sb	t0, -0x13d(s0)
80202848: 91 48        	li	a7, 0x4
8020284a: 05 6e        	lui	t3, 0x1
8020284c: 33 0e c4 41  	sub	t3, s0, t3
80202850: 23 3c 1e 2f  	sd	a7, 0x2f8(t3)
80202854: 23 22 14 ed  	sw	a7, -0x13c(s0)
80202858: 23 34 f4 ec  	sd	a5, -0x138(s0)
8020285c: 23 38 e4 ec  	sd	a4, -0x130(s0)
80202860: 23 3c d4 ec  	sd	a3, -0x128(s0)
80202864: 23 30 a4 ee  	sd	a0, -0x120(s0)
80202868: 23 bc 75 10  	sd	t2, 0x118(a1)
8020286c: 23 a0 65 12  	sw	t1, 0x120(a1)
80202870: 23 84 55 12  	sb	t0, 0x128(a1)
80202874: 23 a2 15 13  	sw	a7, 0x124(a1)
80202878: fc fd        	sd	a5, 0xf8(a1)
8020287a: 23 b0 e5 10  	sd	a4, 0x100(a1)
8020287e: 23 b4 d5 10  	sd	a3, 0x108(a1)
80202882: 23 b8 a5 10  	sd	a0, 0x110(a1)
80202886: a3 8b c5 18  	sb	a2, 0x197(a1)
8020288a: 23 bc 05 19  	sd	a6, 0x198(a1)
8020288e: 23 b4 05 1b  	sd	a6, 0x1a8(a1)
80202892: 83 c2 75 19  	lbu	t0, 0x197(a1)
80202896: 83 b7 85 19  	ld	a5, 0x198(a1)
8020289a: 03 b7 05 1a  	ld	a4, 0x1a0(a1)
8020289e: 83 b6 85 1a  	ld	a3, 0x1a8(a1)
802028a2: 03 b5 05 1b  	ld	a0, 0x1b0(a1)
802028a6: 85 43        	li	t2, 0x1
802028a8: 05 6e        	lui	t3, 0x1
802028aa: 33 0e c4 41  	sub	t3, s0, t3
802028ae: 23 3c 7e 32  	sd	t2, 0x338(t3)
802028b2: 23 3c 74 e6  	sd	t2, -0x188(s0)
802028b6: 23 22 64 e8  	sw	t1, -0x17c(s0)
802028ba: a3 05 54 e8  	sb	t0, -0x175(s0)
802028be: 23 26 14 e9  	sw	a7, -0x174(s0)
802028c2: 23 38 f4 e8  	sd	a5, -0x170(s0)
802028c6: 23 3c e4 e8  	sd	a4, -0x168(s0)
802028ca: 23 30 d4 ea  	sd	a3, -0x160(s0)
802028ce: 23 34 a4 ea  	sd	a0, -0x158(s0)
802028d2: 23 bc 75 16  	sd	t2, 0x178(a1)
802028d6: 23 a0 65 18  	sw	t1, 0x180(a1)
802028da: 23 84 55 18  	sb	t0, 0x188(a1)
802028de: 23 a2 15 19  	sw	a7, 0x184(a1)
802028e2: 23 bc f5 14  	sd	a5, 0x158(a1)
802028e6: 23 b0 e5 16  	sd	a4, 0x160(a1)
802028ea: 23 b4 d5 16  	sd	a3, 0x168(a1)
802028ee: 23 b8 a5 16  	sd	a0, 0x170(a1)
802028f2: 03 b5 85 12  	ld	a0, 0x128(a1)
802028f6: c8 fd        	sd	a0, 0xb8(a1)
802028f8: 03 b5 05 12  	ld	a0, 0x120(a1)
802028fc: c8 f9        	sd	a0, 0xb0(a1)
802028fe: 03 b5 85 11  	ld	a0, 0x118(a1)
80202902: c8 f5        	sd	a0, 0xa8(a1)
80202904: 03 b5 05 11  	ld	a0, 0x110(a1)
80202908: c8 f1        	sd	a0, 0xa0(a1)
8020290a: 03 b5 85 10  	ld	a0, 0x108(a1)
8020290e: c8 ed        	sd	a0, 0x98(a1)
80202910: 03 b5 05 10  	ld	a0, 0x100(a1)
80202914: c8 e9        	sd	a0, 0x90(a1)
80202916: e8 7d        	ld	a0, 0xf8(a1)
80202918: c8 e5        	sd	a0, 0x88(a1)
8020291a: 03 b5 85 18  	ld	a0, 0x188(a1)
8020291e: e8 f9        	sd	a0, 0xf0(a1)
80202920: 03 b5 05 18  	ld	a0, 0x180(a1)
80202924: e8 f5        	sd	a0, 0xe8(a1)
80202926: 03 b5 85 17  	ld	a0, 0x178(a1)
8020292a: e8 f1        	sd	a0, 0xe0(a1)
8020292c: 03 b5 05 17  	ld	a0, 0x170(a1)
80202930: e8 ed        	sd	a0, 0xd8(a1)
80202932: 03 b5 85 16  	ld	a0, 0x168(a1)
80202936: e8 e9        	sd	a0, 0xd0(a1)
80202938: 03 b5 05 16  	ld	a0, 0x160(a1)
8020293c: e8 e5        	sd	a0, 0xc8(a1)
8020293e: 03 b5 85 15  	ld	a0, 0x158(a1)
80202942: e8 e1        	sd	a0, 0xc0(a1)

0000000080202944 <.Lpcrel_hi6>:
80202944: 17 f5 01 00  	auipc	a0, 0x1f
80202948: 93 05 45 91  	addi	a1, a0, -0x6ec
8020294c: 13 05 04 80  	addi	a0, s0, -0x800
80202950: 13 05 85 b7  	addi	a0, a0, -0x488
80202954: 85 66        	lui	a3, 0x1
80202956: b3 06 d4 40  	sub	a3, s0, a3
8020295a: 23 bc a6 1e  	sd	a0, 0x1f8(a3)
8020295e: 93 06 04 80  	addi	a3, s0, -0x800
80202962: 93 86 86 ba  	addi	a3, a3, -0x458
80202966: 93 07 04 80  	addi	a5, s0, -0x800
8020296a: 93 87 87 bf  	addi	a5, a5, -0x408
8020296e: 42 87        	mv	a4, a6
80202970: 97 20 00 00  	auipc	ra, 0x2
80202974: e7 80 e0 23  	jalr	0x23e(ra) <_ZN4core3fmt9Arguments16new_v1_formatted17hb1eceb776864e12dE>
80202978: 05 65        	lui	a0, 0x1
8020297a: 33 05 a4 40  	sub	a0, s0, a0
8020297e: 03 35 85 1f  	ld	a0, 0x1f8(a0)
80202982: 97 40 00 00  	auipc	ra, 0x4
80202986: e7 80 e0 28  	jalr	0x28e(ra) <_ZN2os7console5print17he820b8e27323609fE>
8020298a: 05 65        	lui	a0, 0x1
8020298c: 33 05 a4 40  	sub	a0, s0, a0
80202990: 83 35 85 20  	ld	a1, 0x208(a0)
80202994: 05 65        	lui	a0, 0x1
80202996: 33 05 a4 40  	sub	a0, s0, a0
8020299a: 03 35 85 21  	ld	a0, 0x218(a0)
8020299e: 05 66        	lui	a2, 0x1
802029a0: 33 06 c4 40  	sub	a2, s0, a2
802029a4: 03 33 06 22  	ld	t1, 0x220(a2)
802029a8: 05 66        	lui	a2, 0x1
802029aa: 33 06 c4 40  	sub	a2, s0, a2
802029ae: 03 36 86 22  	ld	a2, 0x228(a2)
802029b2: 85 66        	lui	a3, 0x1
802029b4: b3 06 d4 40  	sub	a3, s0, a3
802029b8: 03 b8 06 30  	ld	a6, 0x300(a3)
802029bc: 85 66        	lui	a3, 0x1
802029be: b3 06 d4 40  	sub	a3, s0, a3
802029c2: 83 b8 86 2f  	ld	a7, 0x2f8(a3)
802029c6: 85 66        	lui	a3, 0x1
802029c8: b3 06 d4 40  	sub	a3, s0, a3
802029cc: 03 be 86 31  	ld	t3, 0x318(a3)
802029d0: 85 66        	lui	a3, 0x1
802029d2: b3 06 d4 40  	sub	a3, s0, a3
802029d6: 83 b3 86 33  	ld	t2, 0x338(a3)

00000000802029da <.Lpcrel_hi7>:
802029da: 97 e6 01 00  	auipc	a3, 0x1e
802029de: 93 86 66 62  	addi	a3, a3, 0x626
802029e2: 05 67        	lui	a4, 0x1
802029e4: 33 07 e4 40  	sub	a4, s0, a4
802029e8: 23 38 d7 26  	sd	a3, 0x270(a4)
802029ec: 23 bc d5 20  	sd	a3, 0x218(a1)
802029f0: 93 06 04 80  	addi	a3, s0, -0x800
802029f4: 93 86 86 d8  	addi	a3, a3, -0x278
802029f8: 23 3c d4 f8  	sd	a3, -0x68(s0)
802029fc: 23 30 a4 fa  	sd	a0, -0x60(s0)
80202a00: 23 34 d4 f8  	sd	a3, -0x78(s0)
80202a04: 23 38 a4 f8  	sd	a0, -0x70(s0)
80202a08: 83 36 04 f9  	ld	a3, -0x70(s0)
80202a0c: 23 b8 d5 20  	sd	a3, 0x210(a1)
80202a10: 83 36 84 f8  	ld	a3, -0x78(s0)
80202a14: 23 b4 d5 20  	sd	a3, 0x208(a1)

0000000080202a18 <.Lpcrel_hi8>:
80202a18: 97 46 02 00  	auipc	a3, 0x24
80202a1c: 93 86 86 5e  	addi	a3, a3, 0x5e8
80202a20: 05 67        	lui	a4, 0x1
80202a22: 33 07 e4 40  	sub	a4, s0, a4
80202a26: 23 3c d7 26  	sd	a3, 0x278(a4)
80202a2a: 23 b8 d5 22  	sd	a3, 0x230(a1)
80202a2e: 93 06 04 80  	addi	a3, s0, -0x800
80202a32: 93 86 06 da  	addi	a3, a3, -0x260
80202a36: 23 3c d4 f6  	sd	a3, -0x88(s0)
80202a3a: 23 30 a4 f8  	sd	a0, -0x80(s0)
80202a3e: 23 34 d4 f6  	sd	a3, -0x98(s0)
80202a42: 23 38 a4 f6  	sd	a0, -0x90(s0)
80202a46: 03 35 04 f7  	ld	a0, -0x90(s0)
80202a4a: 23 b4 a5 22  	sd	a0, 0x228(a1)
80202a4e: 03 35 84 f6  	ld	a0, -0x98(s0)
80202a52: 23 b0 a5 22  	sd	a0, 0x220(a1)
80202a56: 03 b5 05 21  	ld	a0, 0x210(a1)
80202a5a: 23 b8 a5 1e  	sd	a0, 0x1f0(a1)
80202a5e: 03 b5 85 20  	ld	a0, 0x208(a1)
80202a62: 23 b4 a5 1e  	sd	a0, 0x1e8(a1)
80202a66: 03 b5 85 22  	ld	a0, 0x228(a1)
80202a6a: 23 b0 a5 20  	sd	a0, 0x200(a1)
80202a6e: 03 b5 05 22  	ld	a0, 0x220(a1)
80202a72: 23 bc a5 1e  	sd	a0, 0x1f8(a1)
80202a76: a3 83 c5 2e  	sb	a2, 0x2e7(a1)
80202a7a: 23 b4 05 2f  	sd	a6, 0x2e8(a1)
80202a7e: 23 bc 05 2f  	sd	a6, 0x2f8(a1)
80202a82: 83 c2 75 2e  	lbu	t0, 0x2e7(a1)
80202a86: 83 b7 85 2e  	ld	a5, 0x2e8(a1)
80202a8a: 03 b7 05 2f  	ld	a4, 0x2f0(a1)
80202a8e: 83 b6 85 2f  	ld	a3, 0x2f8(a1)
80202a92: 03 b5 05 30  	ld	a0, 0x300(a1)
80202a96: 23 30 c4 e5  	sd	t3, -0x1c0(s0)
80202a9a: 23 26 64 e4  	sw	t1, -0x1b4(s0)
80202a9e: a3 09 54 e4  	sb	t0, -0x1ad(s0)
80202aa2: 23 2a 14 e5  	sw	a7, -0x1ac(s0)
80202aa6: 23 3c f4 e4  	sd	a5, -0x1a8(s0)
80202aaa: 23 30 e4 e6  	sd	a4, -0x1a0(s0)
80202aae: 23 34 d4 e6  	sd	a3, -0x198(s0)
80202ab2: 23 38 a4 e6  	sd	a0, -0x190(s0)
80202ab6: 23 b4 c5 2d  	sd	t3, 0x2c8(a1)
80202aba: 23 a8 65 2c  	sw	t1, 0x2d0(a1)
80202abe: 23 8c 55 2c  	sb	t0, 0x2d8(a1)
80202ac2: 23 aa 15 2d  	sw	a7, 0x2d4(a1)
80202ac6: 23 b4 f5 2a  	sd	a5, 0x2a8(a1)
80202aca: 23 b8 e5 2a  	sd	a4, 0x2b0(a1)
80202ace: 23 bc d5 2a  	sd	a3, 0x2b8(a1)
80202ad2: 23 b0 a5 2c  	sd	a0, 0x2c0(a1)
80202ad6: a3 83 c5 34  	sb	a2, 0x347(a1)
80202ada: 23 b4 05 35  	sd	a6, 0x348(a1)
80202ade: 23 bc 05 35  	sd	a6, 0x358(a1)
80202ae2: 83 c2 75 34  	lbu	t0, 0x347(a1)
80202ae6: 83 b7 85 34  	ld	a5, 0x348(a1)
80202aea: 03 b7 05 35  	ld	a4, 0x350(a1)
80202aee: 83 b6 85 35  	ld	a3, 0x358(a1)
80202af2: 03 b5 05 36  	ld	a0, 0x360(a1)
80202af6: 23 34 74 e0  	sd	t2, -0x1f8(s0)
80202afa: 23 2a 64 e0  	sw	t1, -0x1ec(s0)
80202afe: a3 0d 54 e0  	sb	t0, -0x1e5(s0)
80202b02: 23 2e 14 e1  	sw	a7, -0x1e4(s0)
80202b06: 23 30 f4 e2  	sd	a5, -0x1e0(s0)
80202b0a: 23 34 e4 e2  	sd	a4, -0x1d8(s0)
80202b0e: 23 38 d4 e2  	sd	a3, -0x1d0(s0)
80202b12: 23 3c a4 e2  	sd	a0, -0x1c8(s0)
80202b16: 23 b4 75 32  	sd	t2, 0x328(a1)
80202b1a: 23 a8 65 32  	sw	t1, 0x330(a1)
80202b1e: 23 8c 55 32  	sb	t0, 0x338(a1)
80202b22: 23 aa 15 33  	sw	a7, 0x334(a1)
80202b26: 23 b4 f5 30  	sd	a5, 0x308(a1)
80202b2a: 23 b8 e5 30  	sd	a4, 0x310(a1)
80202b2e: 23 bc d5 30  	sd	a3, 0x318(a1)
80202b32: 23 b0 a5 32  	sd	a0, 0x320(a1)
80202b36: 03 b5 85 2d  	ld	a0, 0x2d8(a1)
80202b3a: 23 b4 a5 26  	sd	a0, 0x268(a1)
80202b3e: 03 b5 05 2d  	ld	a0, 0x2d0(a1)
80202b42: 23 b0 a5 26  	sd	a0, 0x260(a1)
80202b46: 03 b5 85 2c  	ld	a0, 0x2c8(a1)
80202b4a: 23 bc a5 24  	sd	a0, 0x258(a1)
80202b4e: 03 b5 05 2c  	ld	a0, 0x2c0(a1)
80202b52: 23 b8 a5 24  	sd	a0, 0x250(a1)
80202b56: 03 b5 85 2b  	ld	a0, 0x2b8(a1)
80202b5a: 23 b4 a5 24  	sd	a0, 0x248(a1)
80202b5e: 03 b5 05 2b  	ld	a0, 0x2b0(a1)
80202b62: 23 b0 a5 24  	sd	a0, 0x240(a1)
80202b66: 03 b5 85 2a  	ld	a0, 0x2a8(a1)
80202b6a: 23 bc a5 22  	sd	a0, 0x238(a1)
80202b6e: 03 b5 85 33  	ld	a0, 0x338(a1)
80202b72: 23 b0 a5 2a  	sd	a0, 0x2a0(a1)
80202b76: 03 b5 05 33  	ld	a0, 0x330(a1)
80202b7a: 23 bc a5 28  	sd	a0, 0x298(a1)
80202b7e: 03 b5 85 32  	ld	a0, 0x328(a1)
80202b82: 23 b8 a5 28  	sd	a0, 0x290(a1)
80202b86: 03 b5 05 32  	ld	a0, 0x320(a1)
80202b8a: 23 b4 a5 28  	sd	a0, 0x288(a1)
80202b8e: 03 b5 85 31  	ld	a0, 0x318(a1)
80202b92: 23 b0 a5 28  	sd	a0, 0x280(a1)
80202b96: 03 b5 05 31  	ld	a0, 0x310(a1)
80202b9a: 23 bc a5 26  	sd	a0, 0x278(a1)
80202b9e: 03 b5 85 30  	ld	a0, 0x308(a1)
80202ba2: 23 b8 a5 26  	sd	a0, 0x270(a1)

0000000080202ba6 <.Lpcrel_hi9>:
80202ba6: 17 e5 01 00  	auipc	a0, 0x1e
80202baa: 93 05 25 6f  	addi	a1, a0, 0x6f2
80202bae: 13 05 04 80  	addi	a0, s0, -0x800
80202bb2: 13 05 85 d2  	addi	a0, a0, -0x2d8
80202bb6: 85 66        	lui	a3, 0x1
80202bb8: b3 06 d4 40  	sub	a3, s0, a3
80202bbc: 23 b0 a6 20  	sd	a0, 0x200(a3)
80202bc0: 93 06 04 80  	addi	a3, s0, -0x800
80202bc4: 93 86 86 d5  	addi	a3, a3, -0x2a8
80202bc8: 93 07 04 80  	addi	a5, s0, -0x800
80202bcc: 93 87 87 da  	addi	a5, a5, -0x258
80202bd0: 42 87        	mv	a4, a6
80202bd2: 97 20 00 00  	auipc	ra, 0x2
80202bd6: e7 80 c0 fd  	jalr	-0x24(ra) <_ZN4core3fmt9Arguments16new_v1_formatted17hb1eceb776864e12dE>
80202bda: 05 65        	lui	a0, 0x1
80202bdc: 33 05 a4 40  	sub	a0, s0, a0
80202be0: 03 35 05 20  	ld	a0, 0x200(a0)
80202be4: 97 40 00 00  	auipc	ra, 0x4
80202be8: e7 80 c0 02  	jalr	0x2c(ra) <_ZN2os7console5print17he820b8e27323609fE>
80202bec: 05 65        	lui	a0, 0x1
80202bee: 33 05 a4 40  	sub	a0, s0, a0
80202bf2: 83 35 85 20  	ld	a1, 0x208(a0)
80202bf6: 05 65        	lui	a0, 0x1
80202bf8: 33 05 a4 40  	sub	a0, s0, a0
80202bfc: 03 35 85 21  	ld	a0, 0x218(a0)
80202c00: 05 66        	lui	a2, 0x1
80202c02: 33 06 c4 40  	sub	a2, s0, a2
80202c06: 03 33 06 22  	ld	t1, 0x220(a2)
80202c0a: 05 66        	lui	a2, 0x1
80202c0c: 33 06 c4 40  	sub	a2, s0, a2
80202c10: 03 36 86 22  	ld	a2, 0x228(a2)
80202c14: 85 66        	lui	a3, 0x1
80202c16: b3 06 d4 40  	sub	a3, s0, a3
80202c1a: 03 b8 06 30  	ld	a6, 0x300(a3)
80202c1e: 85 66        	lui	a3, 0x1
80202c20: b3 06 d4 40  	sub	a3, s0, a3
80202c24: 83 b8 86 2f  	ld	a7, 0x2f8(a3)
80202c28: 85 66        	lui	a3, 0x1
80202c2a: b3 06 d4 40  	sub	a3, s0, a3
80202c2e: 03 be 86 31  	ld	t3, 0x318(a3)
80202c32: 85 66        	lui	a3, 0x1
80202c34: b3 06 d4 40  	sub	a3, s0, a3
80202c38: 83 b3 86 33  	ld	t2, 0x338(a3)

0000000080202c3c <.Lpcrel_hi10>:
80202c3c: 97 46 02 00  	auipc	a3, 0x24
80202c40: 93 86 46 3c  	addi	a3, a3, 0x3c4
80202c44: 05 67        	lui	a4, 0x1
80202c46: 33 07 e4 40  	sub	a4, s0, a4
80202c4a: 23 3c d7 28  	sd	a3, 0x298(a4)
80202c4e: 23 b4 d5 3c  	sd	a3, 0x3c8(a1)
80202c52: 93 06 04 80  	addi	a3, s0, -0x800
80202c56: 93 86 86 f3  	addi	a3, a3, -0xc8
80202c5a: 23 3c d4 f4  	sd	a3, -0xa8(s0)
80202c5e: 23 30 a4 f6  	sd	a0, -0xa0(s0)
80202c62: 23 34 d4 f4  	sd	a3, -0xb8(s0)
80202c66: 23 38 a4 f4  	sd	a0, -0xb0(s0)
80202c6a: 83 36 04 f5  	ld	a3, -0xb0(s0)
80202c6e: 23 b0 d5 3c  	sd	a3, 0x3c0(a1)
80202c72: 83 36 84 f4  	ld	a3, -0xb8(s0)
80202c76: 23 bc d5 3a  	sd	a3, 0x3b8(a1)

0000000080202c7a <.Lpcrel_hi11>:
80202c7a: 97 36 07 00  	auipc	a3, 0x73
80202c7e: 93 86 66 38  	addi	a3, a3, 0x386
80202c82: 05 67        	lui	a4, 0x1
80202c84: 33 07 e4 40  	sub	a4, s0, a4
80202c88: 23 30 d7 2a  	sd	a3, 0x2a0(a4)
80202c8c: 23 b0 d5 3e  	sd	a3, 0x3e0(a1)
80202c90: 93 06 04 80  	addi	a3, s0, -0x800
80202c94: 93 86 06 f5  	addi	a3, a3, -0xb0
80202c98: 23 3c d4 f2  	sd	a3, -0xc8(s0)
80202c9c: 23 30 a4 f4  	sd	a0, -0xc0(s0)
80202ca0: 23 34 d4 f2  	sd	a3, -0xd8(s0)
80202ca4: 23 38 a4 f2  	sd	a0, -0xd0(s0)
80202ca8: 03 35 04 f3  	ld	a0, -0xd0(s0)
80202cac: 23 bc a5 3c  	sd	a0, 0x3d8(a1)
80202cb0: 03 35 84 f2  	ld	a0, -0xd8(s0)
80202cb4: 23 b8 a5 3c  	sd	a0, 0x3d0(a1)
80202cb8: 03 b5 05 3c  	ld	a0, 0x3c0(a1)
80202cbc: 23 b0 a5 3a  	sd	a0, 0x3a0(a1)
80202cc0: 03 b5 85 3b  	ld	a0, 0x3b8(a1)
80202cc4: 23 bc a5 38  	sd	a0, 0x398(a1)
80202cc8: 03 b5 85 3d  	ld	a0, 0x3d8(a1)
80202ccc: 23 b8 a5 3a  	sd	a0, 0x3b0(a1)
80202cd0: 03 b5 05 3d  	ld	a0, 0x3d0(a1)
80202cd4: 23 b4 a5 3a  	sd	a0, 0x3a8(a1)
80202cd8: a3 8b c5 48  	sb	a2, 0x497(a1)
80202cdc: 23 bc 05 49  	sd	a6, 0x498(a1)
80202ce0: 23 b4 05 4b  	sd	a6, 0x4a8(a1)
80202ce4: 83 c2 75 49  	lbu	t0, 0x497(a1)
80202ce8: 83 b7 85 49  	ld	a5, 0x498(a1)
80202cec: 03 b7 05 4a  	ld	a4, 0x4a0(a1)
80202cf0: 83 b6 85 4a  	ld	a3, 0x4a8(a1)
80202cf4: 03 b5 05 4b  	ld	a0, 0x4b0(a1)
80202cf8: 23 38 c4 dd  	sd	t3, -0x230(s0)
80202cfc: 23 2e 64 dc  	sw	t1, -0x224(s0)
80202d00: a3 01 54 de  	sb	t0, -0x21d(s0)
80202d04: 23 22 14 df  	sw	a7, -0x21c(s0)
80202d08: 23 34 f4 de  	sd	a5, -0x218(s0)
80202d0c: 23 38 e4 de  	sd	a4, -0x210(s0)
80202d10: 23 3c d4 de  	sd	a3, -0x208(s0)
80202d14: 23 30 a4 e0  	sd	a0, -0x200(s0)
80202d18: 23 bc c5 47  	sd	t3, 0x478(a1)
80202d1c: 23 a0 65 48  	sw	t1, 0x480(a1)
80202d20: 23 84 55 48  	sb	t0, 0x488(a1)
80202d24: 23 a2 15 49  	sw	a7, 0x484(a1)
80202d28: 23 bc f5 44  	sd	a5, 0x458(a1)
80202d2c: 23 b0 e5 46  	sd	a4, 0x460(a1)
80202d30: 23 b4 d5 46  	sd	a3, 0x468(a1)
80202d34: 23 b8 a5 46  	sd	a0, 0x470(a1)
80202d38: a3 8b c5 4e  	sb	a2, 0x4f7(a1)
80202d3c: 23 bc 05 4f  	sd	a6, 0x4f8(a1)
80202d40: 23 b4 05 51  	sd	a6, 0x508(a1)
80202d44: 83 c2 75 4f  	lbu	t0, 0x4f7(a1)
80202d48: 83 b7 85 4f  	ld	a5, 0x4f8(a1)
80202d4c: 03 b7 05 50  	ld	a4, 0x500(a1)
80202d50: 83 b6 85 50  	ld	a3, 0x508(a1)
80202d54: 03 b5 05 51  	ld	a0, 0x510(a1)
80202d58: 23 3c 74 d8  	sd	t2, -0x268(s0)
80202d5c: 23 22 64 da  	sw	t1, -0x25c(s0)
80202d60: a3 05 54 da  	sb	t0, -0x255(s0)
80202d64: 23 26 14 db  	sw	a7, -0x254(s0)
80202d68: 23 38 f4 da  	sd	a5, -0x250(s0)
80202d6c: 23 3c e4 da  	sd	a4, -0x248(s0)
80202d70: 23 30 d4 dc  	sd	a3, -0x240(s0)
80202d74: 23 34 a4 dc  	sd	a0, -0x238(s0)
80202d78: 23 bc 75 4c  	sd	t2, 0x4d8(a1)
80202d7c: 23 a0 65 4e  	sw	t1, 0x4e0(a1)
80202d80: 23 84 55 4e  	sb	t0, 0x4e8(a1)
80202d84: 23 a2 15 4f  	sw	a7, 0x4e4(a1)
80202d88: 23 bc f5 4a  	sd	a5, 0x4b8(a1)
80202d8c: 23 b0 e5 4c  	sd	a4, 0x4c0(a1)
80202d90: 23 b4 d5 4c  	sd	a3, 0x4c8(a1)
80202d94: 23 b8 a5 4c  	sd	a0, 0x4d0(a1)
80202d98: 03 b5 85 48  	ld	a0, 0x488(a1)
80202d9c: 23 bc a5 40  	sd	a0, 0x418(a1)
80202da0: 03 b5 05 48  	ld	a0, 0x480(a1)
80202da4: 23 b8 a5 40  	sd	a0, 0x410(a1)
80202da8: 03 b5 85 47  	ld	a0, 0x478(a1)
80202dac: 23 b4 a5 40  	sd	a0, 0x408(a1)
80202db0: 03 b5 05 47  	ld	a0, 0x470(a1)
80202db4: 23 b0 a5 40  	sd	a0, 0x400(a1)
80202db8: 03 b5 85 46  	ld	a0, 0x468(a1)
80202dbc: 23 bc a5 3e  	sd	a0, 0x3f8(a1)
80202dc0: 03 b5 05 46  	ld	a0, 0x460(a1)
80202dc4: 23 b8 a5 3e  	sd	a0, 0x3f0(a1)
80202dc8: 03 b5 85 45  	ld	a0, 0x458(a1)
80202dcc: 23 b4 a5 3e  	sd	a0, 0x3e8(a1)
80202dd0: 03 b5 85 4e  	ld	a0, 0x4e8(a1)
80202dd4: 23 b8 a5 44  	sd	a0, 0x450(a1)
80202dd8: 03 b5 05 4e  	ld	a0, 0x4e0(a1)
80202ddc: 23 b4 a5 44  	sd	a0, 0x448(a1)
80202de0: 03 b5 85 4d  	ld	a0, 0x4d8(a1)
80202de4: 23 b0 a5 44  	sd	a0, 0x440(a1)
80202de8: 03 b5 05 4d  	ld	a0, 0x4d0(a1)
80202dec: 23 bc a5 42  	sd	a0, 0x438(a1)
80202df0: 03 b5 85 4c  	ld	a0, 0x4c8(a1)
80202df4: 23 b8 a5 42  	sd	a0, 0x430(a1)
80202df8: 03 b5 05 4c  	ld	a0, 0x4c0(a1)
80202dfc: 23 b4 a5 42  	sd	a0, 0x428(a1)
80202e00: 03 b5 85 4b  	ld	a0, 0x4b8(a1)
80202e04: 23 b0 a5 42  	sd	a0, 0x420(a1)

0000000080202e08 <.Lpcrel_hi12>:
80202e08: 17 e5 01 00  	auipc	a0, 0x1e
80202e0c: 93 05 85 4c  	addi	a1, a0, 0x4c8
80202e10: 13 05 04 80  	addi	a0, s0, -0x800
80202e14: 13 05 85 ed  	addi	a0, a0, -0x128
80202e18: 85 66        	lui	a3, 0x1
80202e1a: b3 06 d4 40  	sub	a3, s0, a3
80202e1e: 23 b8 a6 20  	sd	a0, 0x210(a3)
80202e22: 93 06 04 80  	addi	a3, s0, -0x800
80202e26: 93 86 86 f0  	addi	a3, a3, -0xf8
80202e2a: 93 07 04 80  	addi	a5, s0, -0x800
80202e2e: 93 87 87 f5  	addi	a5, a5, -0xa8
80202e32: 42 87        	mv	a4, a6
80202e34: 97 20 00 00  	auipc	ra, 0x2
80202e38: e7 80 a0 d7  	jalr	-0x286(ra) <_ZN4core3fmt9Arguments16new_v1_formatted17hb1eceb776864e12dE>
80202e3c: 05 65        	lui	a0, 0x1
80202e3e: 33 05 a4 40  	sub	a0, s0, a0
80202e42: 03 35 05 21  	ld	a0, 0x210(a0)
80202e46: 97 40 00 00  	auipc	ra, 0x4
80202e4a: e7 80 a0 dc  	jalr	-0x236(ra) <_ZN2os7console5print17he820b8e27323609fE>
80202e4e: 05 65        	lui	a0, 0x1
80202e50: 33 05 a4 40  	sub	a0, s0, a0
80202e54: 03 35 85 21  	ld	a0, 0x218(a0)
80202e58: 85 65        	lui	a1, 0x1
80202e5a: b3 05 b4 40  	sub	a1, s0, a1
80202e5e: 83 b2 05 22  	ld	t0, 0x220(a1)
80202e62: 85 65        	lui	a1, 0x1
80202e64: b3 05 b4 40  	sub	a1, s0, a1
80202e68: 03 b6 85 22  	ld	a2, 0x228(a1)
80202e6c: 85 65        	lui	a1, 0x1
80202e6e: b3 05 b4 40  	sub	a1, s0, a1
80202e72: 03 b8 05 30  	ld	a6, 0x300(a1)
80202e76: 85 65        	lui	a1, 0x1
80202e78: b3 05 b4 40  	sub	a1, s0, a1
80202e7c: 83 b7 85 2f  	ld	a5, 0x2f8(a1)
80202e80: 85 65        	lui	a1, 0x1
80202e82: b3 05 b4 40  	sub	a1, s0, a1
80202e86: 83 b3 85 31  	ld	t2, 0x318(a1)
80202e8a: 85 65        	lui	a1, 0x1
80202e8c: b3 05 b4 40  	sub	a1, s0, a1
80202e90: 03 b3 85 33  	ld	t1, 0x338(a1)

0000000080202e94 <.Lpcrel_hi13>:
80202e94: 97 35 07 00  	auipc	a1, 0x73
80202e98: 93 85 c5 16  	addi	a1, a1, 0x16c
80202e9c: 85 66        	lui	a3, 0x1
80202e9e: b3 06 d4 40  	sub	a3, s0, a3
80202ea2: 23 b4 b6 2c  	sd	a1, 0x2c8(a3)
80202ea6: 23 34 b4 8e  	sd	a1, -0x718(s0)
80202eaa: 93 05 84 8e  	addi	a1, s0, -0x718
80202eae: 23 3c b4 f0  	sd	a1, -0xe8(s0)
80202eb2: 23 30 a4 f2  	sd	a0, -0xe0(s0)
80202eb6: 23 34 b4 f0  	sd	a1, -0xf8(s0)
80202eba: 23 38 a4 f0  	sd	a0, -0xf0(s0)
80202ebe: 83 35 04 f1  	ld	a1, -0xf0(s0)
80202ec2: 23 30 b4 8e  	sd	a1, -0x720(s0)
80202ec6: 83 35 84 f0  	ld	a1, -0xf8(s0)
80202eca: 23 3c b4 8c  	sd	a1, -0x728(s0)

0000000080202ece <.Lpcrel_hi14>:
80202ece: 97 45 38 00  	auipc	a1, 0x384
80202ed2: 93 85 25 13  	addi	a1, a1, 0x132
80202ed6: 85 66        	lui	a3, 0x1
80202ed8: b3 06 d4 40  	sub	a3, s0, a3
80202edc: 23 b8 b6 2c  	sd	a1, 0x2d0(a3)
80202ee0: 23 30 b4 90  	sd	a1, -0x700(s0)
80202ee4: 93 05 04 90  	addi	a1, s0, -0x700
80202ee8: 23 3c b4 ee  	sd	a1, -0x108(s0)
80202eec: 23 30 a4 f0  	sd	a0, -0x100(s0)
80202ef0: 23 34 b4 ee  	sd	a1, -0x118(s0)
80202ef4: 23 38 a4 ee  	sd	a0, -0x110(s0)
80202ef8: 03 35 04 ef  	ld	a0, -0x110(s0)
80202efc: 23 3c a4 8e  	sd	a0, -0x708(s0)
80202f00: 03 35 84 ee  	ld	a0, -0x118(s0)
80202f04: 23 38 a4 8e  	sd	a0, -0x710(s0)
80202f08: 03 35 04 8e  	ld	a0, -0x720(s0)
80202f0c: 23 30 a4 8c  	sd	a0, -0x740(s0)
80202f10: 03 35 84 8d  	ld	a0, -0x728(s0)
80202f14: 23 3c a4 8a  	sd	a0, -0x748(s0)
80202f18: 03 35 84 8f  	ld	a0, -0x708(s0)
80202f1c: 23 38 a4 8c  	sd	a0, -0x730(s0)
80202f20: 03 35 04 8f  	ld	a0, -0x710(s0)
80202f24: 23 34 a4 8c  	sd	a0, -0x738(s0)
80202f28: a3 0b c4 9a  	sb	a2, -0x649(s0)
80202f2c: 23 3c 04 9b  	sd	a6, -0x648(s0)
80202f30: 23 34 04 9d  	sd	a6, -0x638(s0)
80202f34: 83 48 74 9b  	lbu	a7, -0x649(s0)
80202f38: 03 37 84 9b  	ld	a4, -0x648(s0)
80202f3c: 83 36 04 9c  	ld	a3, -0x640(s0)
80202f40: 83 35 84 9c  	ld	a1, -0x638(s0)
80202f44: 03 35 04 9d  	ld	a0, -0x630(s0)
80202f48: 23 30 74 d6  	sd	t2, -0x2a0(s0)
80202f4c: 23 26 54 d6  	sw	t0, -0x294(s0)
80202f50: a3 09 14 d7  	sb	a7, -0x28d(s0)
80202f54: 23 2a f4 d6  	sw	a5, -0x28c(s0)
80202f58: 23 3c e4 d6  	sd	a4, -0x288(s0)
80202f5c: 23 30 d4 d8  	sd	a3, -0x280(s0)
80202f60: 23 34 b4 d8  	sd	a1, -0x278(s0)
80202f64: 23 38 a4 d8  	sd	a0, -0x270(s0)
80202f68: 23 3c 74 98  	sd	t2, -0x668(s0)
80202f6c: 23 20 54 9a  	sw	t0, -0x660(s0)
80202f70: 23 04 14 9b  	sb	a7, -0x658(s0)
80202f74: 23 22 f4 9a  	sw	a5, -0x65c(s0)
80202f78: 23 3c e4 96  	sd	a4, -0x688(s0)
80202f7c: 23 30 d4 98  	sd	a3, -0x680(s0)
80202f80: 23 34 b4 98  	sd	a1, -0x678(s0)
80202f84: 23 38 a4 98  	sd	a0, -0x670(s0)
80202f88: a3 0b c4 a0  	sb	a2, -0x5e9(s0)
80202f8c: 23 3c 04 a1  	sd	a6, -0x5e8(s0)
80202f90: 23 34 04 a3  	sd	a6, -0x5d8(s0)
80202f94: 83 48 74 a1  	lbu	a7, -0x5e9(s0)
80202f98: 03 37 84 a1  	ld	a4, -0x5e8(s0)
80202f9c: 83 36 04 a2  	ld	a3, -0x5e0(s0)
80202fa0: 83 35 84 a2  	ld	a1, -0x5d8(s0)
80202fa4: 03 35 04 a3  	ld	a0, -0x5d0(s0)
80202fa8: 23 34 64 d2  	sd	t1, -0x2d8(s0)
80202fac: 23 2a 54 d2  	sw	t0, -0x2cc(s0)
80202fb0: a3 0d 14 d3  	sb	a7, -0x2c5(s0)
80202fb4: 23 2e f4 d2  	sw	a5, -0x2c4(s0)
80202fb8: 23 30 e4 d4  	sd	a4, -0x2c0(s0)
80202fbc: 23 34 d4 d4  	sd	a3, -0x2b8(s0)
80202fc0: 23 38 b4 d4  	sd	a1, -0x2b0(s0)
80202fc4: 23 3c a4 d4  	sd	a0, -0x2a8(s0)
80202fc8: 23 3c 64 9e  	sd	t1, -0x608(s0)
80202fcc: 23 20 54 a0  	sw	t0, -0x600(s0)
80202fd0: 23 04 14 a1  	sb	a7, -0x5f8(s0)
80202fd4: 23 22 f4 a0  	sw	a5, -0x5fc(s0)
80202fd8: 23 3c e4 9c  	sd	a4, -0x628(s0)
80202fdc: 23 30 d4 9e  	sd	a3, -0x620(s0)
80202fe0: 23 34 b4 9e  	sd	a1, -0x618(s0)
80202fe4: 23 38 a4 9e  	sd	a0, -0x610(s0)
80202fe8: 03 35 84 9a  	ld	a0, -0x658(s0)
80202fec: 23 3c a4 92  	sd	a0, -0x6c8(s0)
80202ff0: 03 35 04 9a  	ld	a0, -0x660(s0)
80202ff4: 23 38 a4 92  	sd	a0, -0x6d0(s0)
80202ff8: 03 35 84 99  	ld	a0, -0x668(s0)
80202ffc: 23 34 a4 92  	sd	a0, -0x6d8(s0)
80203000: 03 35 04 99  	ld	a0, -0x670(s0)
80203004: 23 30 a4 92  	sd	a0, -0x6e0(s0)
80203008: 03 35 84 98  	ld	a0, -0x678(s0)
8020300c: 23 3c a4 90  	sd	a0, -0x6e8(s0)
80203010: 03 35 04 98  	ld	a0, -0x680(s0)
80203014: 23 38 a4 90  	sd	a0, -0x6f0(s0)
80203018: 03 35 84 97  	ld	a0, -0x688(s0)
8020301c: 23 34 a4 90  	sd	a0, -0x6f8(s0)
80203020: 03 35 84 a0  	ld	a0, -0x5f8(s0)
80203024: 23 38 a4 96  	sd	a0, -0x690(s0)
80203028: 03 35 04 a0  	ld	a0, -0x600(s0)
8020302c: 23 34 a4 96  	sd	a0, -0x698(s0)
80203030: 03 35 84 9f  	ld	a0, -0x608(s0)
80203034: 23 30 a4 96  	sd	a0, -0x6a0(s0)
80203038: 03 35 04 9f  	ld	a0, -0x610(s0)
8020303c: 23 3c a4 94  	sd	a0, -0x6a8(s0)
80203040: 03 35 84 9e  	ld	a0, -0x618(s0)
80203044: 23 38 a4 94  	sd	a0, -0x6b0(s0)
80203048: 03 35 04 9e  	ld	a0, -0x620(s0)
8020304c: 23 34 a4 94  	sd	a0, -0x6b8(s0)
80203050: 03 35 84 9d  	ld	a0, -0x628(s0)
80203054: 23 30 a4 94  	sd	a0, -0x6c0(s0)

0000000080203058 <.Lpcrel_hi15>:
80203058: 17 e5 01 00  	auipc	a0, 0x1e
8020305c: 93 05 05 2b  	addi	a1, a0, 0x2b0
80203060: 13 05 84 88  	addi	a0, s0, -0x778
80203064: 85 66        	lui	a3, 0x1
80203066: b3 06 d4 40  	sub	a3, s0, a3
8020306a: 23 b8 a6 22  	sd	a0, 0x230(a3)
8020306e: 93 06 84 8b  	addi	a3, s0, -0x748
80203072: 93 07 84 90  	addi	a5, s0, -0x6f8
80203076: 42 87        	mv	a4, a6
80203078: 97 20 00 00  	auipc	ra, 0x2
8020307c: e7 80 60 b3  	jalr	-0x4ca(ra) <_ZN4core3fmt9Arguments16new_v1_formatted17hb1eceb776864e12dE>
80203080: 05 65        	lui	a0, 0x1
80203082: 33 05 a4 40  	sub	a0, s0, a0
80203086: 03 35 05 23  	ld	a0, 0x230(a0)
8020308a: 97 40 00 00  	auipc	ra, 0x4
8020308e: e7 80 60 b8  	jalr	-0x47a(ra) <_ZN2os7console5print17he820b8e27323609fE>

0000000080203092 <.Lpcrel_hi16>:
80203092: 17 e5 01 00  	auipc	a0, 0x1e
80203096: 93 05 e5 2b  	addi	a1, a0, 0x2be
8020309a: 13 05 84 a3  	addi	a0, s0, -0x5c8
8020309e: 05 66        	lui	a2, 0x1
802030a0: 33 06 c4 40  	sub	a2, s0, a2
802030a4: 23 3c a6 22  	sd	a0, 0x238(a2)
802030a8: 97 80 01 00  	auipc	ra, 0x18
802030ac: e7 80 60 da  	jalr	-0x25a(ra) <_ZN4core3fmt9Arguments9new_const17hdd0dcb54612202f7E>
802030b0: 05 65        	lui	a0, 0x1
802030b2: 33 05 a4 40  	sub	a0, s0, a0
802030b6: 03 35 85 23  	ld	a0, 0x238(a0)
802030ba: 97 40 00 00  	auipc	ra, 0x4
802030be: e7 80 60 b5  	jalr	-0x4aa(ra) <_ZN2os7console5print17he820b8e27323609fE>
802030c2: 05 65        	lui	a0, 0x1
802030c4: 33 05 a4 40  	sub	a0, s0, a0
802030c8: 03 35 05 24  	ld	a0, 0x240(a0)

00000000802030cc <.Lpcrel_hi17>:
802030cc: 97 e5 01 00  	auipc	a1, 0x1e
802030d0: 93 85 45 29  	addi	a1, a1, 0x294
802030d4: 97 20 01 00  	auipc	ra, 0x12
802030d8: e7 80 c0 41  	jalr	0x41c(ra) <_ZN50_$LT$T$u20$as$u20$core..convert..Into$LT$U$GT$$GT$4into17h6fa49f94f91b83d8E>
802030dc: aa 85        	mv	a1, a0
802030de: 05 65        	lui	a0, 0x1
802030e0: 33 05 a4 40  	sub	a0, s0, a0
802030e4: 03 35 85 24  	ld	a0, 0x248(a0)
802030e8: 05 66        	lui	a2, 0x1
802030ea: 33 06 c4 40  	sub	a2, s0, a2
802030ee: 23 38 b6 24  	sd	a1, 0x250(a2)

00000000802030f2 <.Lpcrel_hi18>:
802030f2: 97 e5 01 00  	auipc	a1, 0x1e
802030f6: 93 85 65 28  	addi	a1, a1, 0x286
802030fa: 97 20 01 00  	auipc	ra, 0x12
802030fe: e7 80 60 3f  	jalr	0x3f6(ra) <_ZN50_$LT$T$u20$as$u20$core..convert..Into$LT$U$GT$$GT$4into17h6fa49f94f91b83d8E>
80203102: 85 65        	lui	a1, 0x1
80203104: b3 05 b4 40  	sub	a1, s0, a1
80203108: 83 b5 85 31  	ld	a1, 0x318(a1)
8020310c: 2a 86        	mv	a2, a0
8020310e: 05 65        	lui	a0, 0x1
80203110: 33 05 a4 40  	sub	a0, s0, a0
80203114: 03 35 05 30  	ld	a0, 0x300(a0)
80203118: 85 66        	lui	a3, 0x1
8020311a: b3 06 d4 40  	sub	a3, s0, a3
8020311e: 23 bc c6 24  	sd	a2, 0x258(a3)
80203122: a3 0f b4 a8  	sb	a1, -0x561(s0)
80203126: a1 45        	li	a1, 0x8
80203128: 97 20 00 00  	auipc	ra, 0x2
8020312c: e7 80 a0 99  	jalr	-0x666(ra) <_ZN75_$LT$os..mm..memory_set..MapPermission$u20$as$u20$core..ops..bit..BitOr$GT$5bitor17h5e1241d565c824afE>
80203130: 85 65        	lui	a1, 0x1
80203132: b3 05 b4 40  	sub	a1, s0, a1
80203136: 83 b5 05 25  	ld	a1, 0x250(a1)
8020313a: 05 66        	lui	a2, 0x1
8020313c: 33 06 c4 40  	sub	a2, s0, a2
80203140: 03 36 86 25  	ld	a2, 0x258(a2)
80203144: 2a 87        	mv	a4, a0
80203146: 03 45 f4 a9  	lbu	a0, -0x561(s0)
8020314a: 93 76 15 00  	andi	a3, a0, 0x1
8020314e: 13 05 84 a6  	addi	a0, s0, -0x598
80203152: 85 67        	lui	a5, 0x1
80203154: b3 07 f4 40  	sub	a5, s0, a5
80203158: 23 b0 a7 26  	sd	a0, 0x260(a5)
8020315c: 97 10 00 00  	auipc	ra, 0x1
80203160: e7 80 a0 f7  	jalr	-0x86(ra) <_ZN2os2mm10memory_set7MapArea3new17h1c7388352d3e2f1aE>
80203164: 05 65        	lui	a0, 0x1
80203166: 33 05 a4 40  	sub	a0, s0, a0
8020316a: 83 35 05 26  	ld	a1, 0x260(a0)
8020316e: 05 65        	lui	a0, 0x1
80203170: 33 05 a4 40  	sub	a0, s0, a0
80203174: 03 36 85 31  	ld	a2, 0x318(a0)
80203178: 05 65        	lui	a0, 0x1
8020317a: 33 05 a4 40  	sub	a0, s0, a0
8020317e: 03 35 05 32  	ld	a0, 0x320(a0)
80203182: 23 30 c4 aa  	sd	a2, -0x560(s0)
80203186: 03 36 04 aa  	ld	a2, -0x560(s0)
8020318a: 83 36 84 aa  	ld	a3, -0x558(s0)
8020318e: 97 f0 ff ff  	auipc	ra, 0xfffff
80203192: e7 80 00 45  	jalr	0x450(ra) <ekernel+0xffc7b5de>

0000000080203196 <.Lpcrel_hi19>:
80203196: 17 e5 01 00  	auipc	a0, 0x1e
8020319a: 93 05 25 21  	addi	a1, a0, 0x212
8020319e: 13 05 04 ab  	addi	a0, s0, -0x550
802031a2: 05 66        	lui	a2, 0x1
802031a4: 33 06 c4 40  	sub	a2, s0, a2
802031a8: 23 34 a6 26  	sd	a0, 0x268(a2)
802031ac: 97 80 01 00  	auipc	ra, 0x18
802031b0: e7 80 20 ca  	jalr	-0x35e(ra) <_ZN4core3fmt9Arguments9new_const17hdd0dcb54612202f7E>
802031b4: 05 65        	lui	a0, 0x1
802031b6: 33 05 a4 40  	sub	a0, s0, a0
802031ba: 03 35 85 26  	ld	a0, 0x268(a0)
802031be: 97 40 00 00  	auipc	ra, 0x4
802031c2: e7 80 20 a5  	jalr	-0x5ae(ra) <_ZN2os7console5print17he820b8e27323609fE>
802031c6: 05 65        	lui	a0, 0x1
802031c8: 33 05 a4 40  	sub	a0, s0, a0
802031cc: 03 35 05 27  	ld	a0, 0x270(a0)

00000000802031d0 <.Lpcrel_hi20>:
802031d0: 97 e5 01 00  	auipc	a1, 0x1e
802031d4: 93 85 85 1e  	addi	a1, a1, 0x1e8
802031d8: 97 20 01 00  	auipc	ra, 0x12
802031dc: e7 80 80 31  	jalr	0x318(ra) <_ZN50_$LT$T$u20$as$u20$core..convert..Into$LT$U$GT$$GT$4into17h6fa49f94f91b83d8E>
802031e0: aa 85        	mv	a1, a0
802031e2: 05 65        	lui	a0, 0x1
802031e4: 33 05 a4 40  	sub	a0, s0, a0
802031e8: 03 35 85 27  	ld	a0, 0x278(a0)
802031ec: 05 66        	lui	a2, 0x1
802031ee: 33 06 c4 40  	sub	a2, s0, a2
802031f2: 23 30 b6 28  	sd	a1, 0x280(a2)

00000000802031f6 <.Lpcrel_hi21>:
802031f6: 97 e5 01 00  	auipc	a1, 0x1e
802031fa: 93 85 a5 1d  	addi	a1, a1, 0x1da
802031fe: 97 20 01 00  	auipc	ra, 0x12
80203202: e7 80 20 2f  	jalr	0x2f2(ra) <_ZN50_$LT$T$u20$as$u20$core..convert..Into$LT$U$GT$$GT$4into17h6fa49f94f91b83d8E>
80203206: 85 65        	lui	a1, 0x1
80203208: b3 05 b4 40  	sub	a1, s0, a1
8020320c: 83 b5 05 28  	ld	a1, 0x280(a1)
80203210: 05 66        	lui	a2, 0x1
80203212: 33 06 c4 40  	sub	a2, s0, a2
80203216: 03 37 06 30  	ld	a4, 0x300(a2)
8020321a: 2a 86        	mv	a2, a0
8020321c: 05 65        	lui	a0, 0x1
8020321e: 33 05 a4 40  	sub	a0, s0, a0
80203222: 03 35 85 31  	ld	a0, 0x318(a0)
80203226: a3 0b a4 b0  	sb	a0, -0x4e9(s0)
8020322a: 03 45 74 b1  	lbu	a0, -0x4e9(s0)
8020322e: 93 76 15 00  	andi	a3, a0, 0x1
80203232: 13 05 04 ae  	addi	a0, s0, -0x520
80203236: 85 67        	lui	a5, 0x1
80203238: b3 07 f4 40  	sub	a5, s0, a5
8020323c: 23 b4 a7 28  	sd	a0, 0x288(a5)
80203240: 97 10 00 00  	auipc	ra, 0x1
80203244: e7 80 60 e9  	jalr	-0x16a(ra) <_ZN2os2mm10memory_set7MapArea3new17h1c7388352d3e2f1aE>
80203248: 05 65        	lui	a0, 0x1
8020324a: 33 05 a4 40  	sub	a0, s0, a0
8020324e: 83 35 85 28  	ld	a1, 0x288(a0)
80203252: 05 65        	lui	a0, 0x1
80203254: 33 05 a4 40  	sub	a0, s0, a0
80203258: 03 36 85 31  	ld	a2, 0x318(a0)
8020325c: 05 65        	lui	a0, 0x1
8020325e: 33 05 a4 40  	sub	a0, s0, a0
80203262: 03 35 05 32  	ld	a0, 0x320(a0)
80203266: 23 3c c4 b0  	sd	a2, -0x4e8(s0)
8020326a: 03 36 84 b1  	ld	a2, -0x4e8(s0)
8020326e: 83 36 04 b2  	ld	a3, -0x4e0(s0)
80203272: 97 f0 ff ff  	auipc	ra, 0xfffff
80203276: e7 80 c0 36  	jalr	0x36c(ra) <ekernel+0xffc7b5de>

000000008020327a <.Lpcrel_hi22>:
8020327a: 17 e5 01 00  	auipc	a0, 0x1e
8020327e: 93 05 65 18  	addi	a1, a0, 0x186
80203282: 13 05 84 b2  	addi	a0, s0, -0x4d8
80203286: 05 66        	lui	a2, 0x1
80203288: 33 06 c4 40  	sub	a2, s0, a2
8020328c: 23 38 a6 28  	sd	a0, 0x290(a2)
80203290: 97 80 01 00  	auipc	ra, 0x18
80203294: e7 80 e0 bb  	jalr	-0x442(ra) <_ZN4core3fmt9Arguments9new_const17hdd0dcb54612202f7E>
80203298: 05 65        	lui	a0, 0x1
8020329a: 33 05 a4 40  	sub	a0, s0, a0
8020329e: 03 35 05 29  	ld	a0, 0x290(a0)
802032a2: 97 40 00 00  	auipc	ra, 0x4
802032a6: e7 80 e0 96  	jalr	-0x692(ra) <_ZN2os7console5print17he820b8e27323609fE>
802032aa: 05 65        	lui	a0, 0x1
802032ac: 33 05 a4 40  	sub	a0, s0, a0
802032b0: 03 35 85 29  	ld	a0, 0x298(a0)

00000000802032b4 <.Lpcrel_hi23>:
802032b4: 97 e5 01 00  	auipc	a1, 0x1e
802032b8: 93 85 c5 15  	addi	a1, a1, 0x15c
802032bc: 97 20 01 00  	auipc	ra, 0x12
802032c0: e7 80 40 23  	jalr	0x234(ra) <_ZN50_$LT$T$u20$as$u20$core..convert..Into$LT$U$GT$$GT$4into17h6fa49f94f91b83d8E>
802032c4: aa 85        	mv	a1, a0
802032c6: 05 65        	lui	a0, 0x1
802032c8: 33 05 a4 40  	sub	a0, s0, a0
802032cc: 03 35 05 2a  	ld	a0, 0x2a0(a0)
802032d0: 05 66        	lui	a2, 0x1
802032d2: 33 06 c4 40  	sub	a2, s0, a2
802032d6: 23 34 b6 2a  	sd	a1, 0x2a8(a2)

00000000802032da <.Lpcrel_hi24>:
802032da: 97 e5 01 00  	auipc	a1, 0x1e
802032de: 93 85 e5 14  	addi	a1, a1, 0x14e
802032e2: 97 20 01 00  	auipc	ra, 0x12
802032e6: e7 80 e0 20  	jalr	0x20e(ra) <_ZN50_$LT$T$u20$as$u20$core..convert..Into$LT$U$GT$$GT$4into17h6fa49f94f91b83d8E>
802032ea: 85 65        	lui	a1, 0x1
802032ec: b3 05 b4 40  	sub	a1, s0, a1
802032f0: 83 b5 85 2f  	ld	a1, 0x2f8(a1)
802032f4: 05 66        	lui	a2, 0x1
802032f6: 33 06 c4 40  	sub	a2, s0, a2
802032fa: 03 36 86 31  	ld	a2, 0x318(a2)
802032fe: aa 86        	mv	a3, a0
80203300: 05 65        	lui	a0, 0x1
80203302: 33 05 a4 40  	sub	a0, s0, a0
80203306: 03 35 05 30  	ld	a0, 0x300(a0)
8020330a: 05 67        	lui	a4, 0x1
8020330c: 33 07 e4 40  	sub	a4, s0, a4
80203310: 23 38 d7 2a  	sd	a3, 0x2b0(a4)
80203314: a3 07 c4 b8  	sb	a2, -0x471(s0)
80203318: 97 10 00 00  	auipc	ra, 0x1
8020331c: e7 80 a0 7a  	jalr	0x7aa(ra) <_ZN75_$LT$os..mm..memory_set..MapPermission$u20$as$u20$core..ops..bit..BitOr$GT$5bitor17h5e1241d565c824afE>
80203320: 85 65        	lui	a1, 0x1
80203322: b3 05 b4 40  	sub	a1, s0, a1
80203326: 83 b5 85 2a  	ld	a1, 0x2a8(a1)
8020332a: 05 66        	lui	a2, 0x1
8020332c: 33 06 c4 40  	sub	a2, s0, a2
80203330: 03 36 06 2b  	ld	a2, 0x2b0(a2)
80203334: 2a 87        	mv	a4, a0
80203336: 03 45 f4 b8  	lbu	a0, -0x471(s0)
8020333a: 93 76 15 00  	andi	a3, a0, 0x1
8020333e: 13 05 84 b5  	addi	a0, s0, -0x4a8
80203342: 85 67        	lui	a5, 0x1
80203344: b3 07 f4 40  	sub	a5, s0, a5
80203348: 23 bc a7 2a  	sd	a0, 0x2b8(a5)
8020334c: 97 10 00 00  	auipc	ra, 0x1
80203350: e7 80 a0 d8  	jalr	-0x276(ra) <_ZN2os2mm10memory_set7MapArea3new17h1c7388352d3e2f1aE>
80203354: 05 65        	lui	a0, 0x1
80203356: 33 05 a4 40  	sub	a0, s0, a0
8020335a: 83 35 85 2b  	ld	a1, 0x2b8(a0)
8020335e: 05 65        	lui	a0, 0x1
80203360: 33 05 a4 40  	sub	a0, s0, a0
80203364: 03 36 85 31  	ld	a2, 0x318(a0)
80203368: 05 65        	lui	a0, 0x1
8020336a: 33 05 a4 40  	sub	a0, s0, a0
8020336e: 03 35 05 32  	ld	a0, 0x320(a0)
80203372: 23 38 c4 b8  	sd	a2, -0x470(s0)
80203376: 03 36 04 b9  	ld	a2, -0x470(s0)
8020337a: 83 36 84 b9  	ld	a3, -0x468(s0)
8020337e: 97 f0 ff ff  	auipc	ra, 0xfffff
80203382: e7 80 00 26  	jalr	0x260(ra) <ekernel+0xffc7b5de>

0000000080203386 <.Lpcrel_hi25>:
80203386: 17 e5 01 00  	auipc	a0, 0x1e
8020338a: 93 05 25 0d  	addi	a1, a0, 0xd2
8020338e: 13 05 04 ba  	addi	a0, s0, -0x460
80203392: 05 66        	lui	a2, 0x1
80203394: 33 06 c4 40  	sub	a2, s0, a2
80203398: 23 30 a6 2c  	sd	a0, 0x2c0(a2)
8020339c: 97 80 01 00  	auipc	ra, 0x18
802033a0: e7 80 20 ab  	jalr	-0x54e(ra) <_ZN4core3fmt9Arguments9new_const17hdd0dcb54612202f7E>
802033a4: 05 65        	lui	a0, 0x1
802033a6: 33 05 a4 40  	sub	a0, s0, a0
802033aa: 03 35 05 2c  	ld	a0, 0x2c0(a0)
802033ae: 97 40 00 00  	auipc	ra, 0x4
802033b2: e7 80 20 86  	jalr	-0x79e(ra) <_ZN2os7console5print17he820b8e27323609fE>
802033b6: 05 65        	lui	a0, 0x1
802033b8: 33 05 a4 40  	sub	a0, s0, a0
802033bc: 03 35 85 2c  	ld	a0, 0x2c8(a0)

00000000802033c0 <.Lpcrel_hi26>:
802033c0: 97 e5 01 00  	auipc	a1, 0x1e
802033c4: 93 85 85 0a  	addi	a1, a1, 0xa8
802033c8: 97 20 01 00  	auipc	ra, 0x12
802033cc: e7 80 80 12  	jalr	0x128(ra) <_ZN50_$LT$T$u20$as$u20$core..convert..Into$LT$U$GT$$GT$4into17h6fa49f94f91b83d8E>
802033d0: aa 85        	mv	a1, a0
802033d2: 05 65        	lui	a0, 0x1
802033d4: 33 05 a4 40  	sub	a0, s0, a0
802033d8: 03 35 05 2d  	ld	a0, 0x2d0(a0)
802033dc: 05 66        	lui	a2, 0x1
802033de: 33 06 c4 40  	sub	a2, s0, a2
802033e2: 23 3c b6 2c  	sd	a1, 0x2d8(a2)

00000000802033e6 <.Lpcrel_hi27>:
802033e6: 97 e5 01 00  	auipc	a1, 0x1e
802033ea: 93 85 a5 09  	addi	a1, a1, 0x9a
802033ee: 97 20 01 00  	auipc	ra, 0x12
802033f2: e7 80 20 10  	jalr	0x102(ra) <_ZN50_$LT$T$u20$as$u20$core..convert..Into$LT$U$GT$$GT$4into17h6fa49f94f91b83d8E>
802033f6: 85 65        	lui	a1, 0x1
802033f8: b3 05 b4 40  	sub	a1, s0, a1
802033fc: 83 b5 85 2f  	ld	a1, 0x2f8(a1)
80203400: 05 66        	lui	a2, 0x1
80203402: 33 06 c4 40  	sub	a2, s0, a2
80203406: 03 36 86 31  	ld	a2, 0x318(a2)
8020340a: aa 86        	mv	a3, a0
8020340c: 05 65        	lui	a0, 0x1
8020340e: 33 05 a4 40  	sub	a0, s0, a0
80203412: 03 35 05 30  	ld	a0, 0x300(a0)
80203416: 05 67        	lui	a4, 0x1
80203418: 33 07 e4 40  	sub	a4, s0, a4
8020341c: 23 30 d7 2e  	sd	a3, 0x2e0(a4)
80203420: a3 03 c4 c0  	sb	a2, -0x3f9(s0)
80203424: 97 10 00 00  	auipc	ra, 0x1
80203428: e7 80 e0 69  	jalr	0x69e(ra) <_ZN75_$LT$os..mm..memory_set..MapPermission$u20$as$u20$core..ops..bit..BitOr$GT$5bitor17h5e1241d565c824afE>
8020342c: 85 65        	lui	a1, 0x1
8020342e: b3 05 b4 40  	sub	a1, s0, a1
80203432: 83 b5 85 2d  	ld	a1, 0x2d8(a1)
80203436: 05 66        	lui	a2, 0x1
80203438: 33 06 c4 40  	sub	a2, s0, a2
8020343c: 03 36 06 2e  	ld	a2, 0x2e0(a2)
80203440: 2a 87        	mv	a4, a0
80203442: 03 45 74 c0  	lbu	a0, -0x3f9(s0)
80203446: 93 76 15 00  	andi	a3, a0, 0x1
8020344a: 13 05 04 bd  	addi	a0, s0, -0x430
8020344e: 85 67        	lui	a5, 0x1
80203450: b3 07 f4 40  	sub	a5, s0, a5
80203454: 23 b4 a7 2e  	sd	a0, 0x2e8(a5)
80203458: 97 10 00 00  	auipc	ra, 0x1
8020345c: e7 80 e0 c7  	jalr	-0x382(ra) <_ZN2os2mm10memory_set7MapArea3new17h1c7388352d3e2f1aE>
80203460: 05 65        	lui	a0, 0x1
80203462: 33 05 a4 40  	sub	a0, s0, a0
80203466: 83 35 85 2e  	ld	a1, 0x2e8(a0)
8020346a: 05 65        	lui	a0, 0x1
8020346c: 33 05 a4 40  	sub	a0, s0, a0
80203470: 03 36 85 31  	ld	a2, 0x318(a0)
80203474: 05 65        	lui	a0, 0x1
80203476: 33 05 a4 40  	sub	a0, s0, a0
8020347a: 03 35 05 32  	ld	a0, 0x320(a0)
8020347e: 23 34 c4 c0  	sd	a2, -0x3f8(s0)
80203482: 03 36 84 c0  	ld	a2, -0x3f8(s0)
80203486: 83 36 04 c1  	ld	a3, -0x3f0(s0)
8020348a: 97 f0 ff ff  	auipc	ra, 0xfffff
8020348e: e7 80 40 15  	jalr	0x154(ra) <ekernel+0xffc7b5de>

0000000080203492 <.Lpcrel_hi28>:
80203492: 17 e5 01 00  	auipc	a0, 0x1e
80203496: 93 05 e5 01  	addi	a1, a0, 0x1e
8020349a: 13 05 84 c1  	addi	a0, s0, -0x3e8
8020349e: 05 66        	lui	a2, 0x1
802034a0: 33 06 c4 40  	sub	a2, s0, a2
802034a4: 23 38 a6 2e  	sd	a0, 0x2f0(a2)
802034a8: 97 80 01 00  	auipc	ra, 0x18
802034ac: e7 80 60 9a  	jalr	-0x65a(ra) <_ZN4core3fmt9Arguments9new_const17hdd0dcb54612202f7E>
802034b0: 05 65        	lui	a0, 0x1
802034b2: 33 05 a4 40  	sub	a0, s0, a0
802034b6: 03 35 05 2f  	ld	a0, 0x2f0(a0)
802034ba: 97 30 00 00  	auipc	ra, 0x3
802034be: e7 80 60 75  	jalr	0x756(ra) <_ZN2os7console5print17he820b8e27323609fE>

00000000802034c2 <.Lpcrel_hi29>:
802034c2: 17 45 38 00  	auipc	a0, 0x384
802034c6: 13 05 e5 b3  	addi	a0, a0, -0x4c2

00000000802034ca <.Lpcrel_hi30>:
802034ca: 97 e5 01 00  	auipc	a1, 0x1e
802034ce: 93 85 65 ff  	addi	a1, a1, -0xa
802034d2: 97 20 01 00  	auipc	ra, 0x12
802034d6: e7 80 e0 01  	jalr	0x1e(ra) <_ZN50_$LT$T$u20$as$u20$core..convert..Into$LT$U$GT$$GT$4into17h6fa49f94f91b83d8E>
802034da: 85 65        	lui	a1, 0x1
802034dc: b3 05 b4 40  	sub	a1, s0, a1
802034e0: 23 b4 a5 30  	sd	a0, 0x308(a1)

00000000802034e4 <.Lpcrel_hi31>:
802034e4: 17 e5 01 00  	auipc	a0, 0x1e
802034e8: 93 05 45 ff  	addi	a1, a0, -0xc
802034ec: 45 45        	li	a0, 0x11
802034ee: 6e 05        	slli	a0, a0, 0x1b
802034f0: 97 20 01 00  	auipc	ra, 0x12
802034f4: e7 80 00 00  	jalr	ra <_ZN50_$LT$T$u20$as$u20$core..convert..Into$LT$U$GT$$GT$4into17h6fa49f94f91b83d8E>
802034f8: 85 65        	lui	a1, 0x1
802034fa: b3 05 b4 40  	sub	a1, s0, a1
802034fe: 83 b5 85 2f  	ld	a1, 0x2f8(a1)
80203502: 05 66        	lui	a2, 0x1
80203504: 33 06 c4 40  	sub	a2, s0, a2
80203508: 03 36 86 31  	ld	a2, 0x318(a2)
8020350c: aa 86        	mv	a3, a0
8020350e: 05 65        	lui	a0, 0x1
80203510: 33 05 a4 40  	sub	a0, s0, a0
80203514: 03 35 05 30  	ld	a0, 0x300(a0)
80203518: 05 67        	lui	a4, 0x1
8020351a: 33 07 e4 40  	sub	a4, s0, a4
8020351e: 23 38 d7 30  	sd	a3, 0x310(a4)
80203522: a3 0f c4 c6  	sb	a2, -0x381(s0)
80203526: 97 10 00 00  	auipc	ra, 0x1
8020352a: e7 80 c0 59  	jalr	0x59c(ra) <_ZN75_$LT$os..mm..memory_set..MapPermission$u20$as$u20$core..ops..bit..BitOr$GT$5bitor17h5e1241d565c824afE>
8020352e: 85 65        	lui	a1, 0x1
80203530: b3 05 b4 40  	sub	a1, s0, a1
80203534: 83 b5 85 30  	ld	a1, 0x308(a1)
80203538: 05 66        	lui	a2, 0x1
8020353a: 33 06 c4 40  	sub	a2, s0, a2
8020353e: 03 36 06 31  	ld	a2, 0x310(a2)
80203542: 2a 87        	mv	a4, a0
80203544: 03 45 f4 c7  	lbu	a0, -0x381(s0)
80203548: 93 76 15 00  	andi	a3, a0, 0x1
8020354c: 13 05 84 c4  	addi	a0, s0, -0x3b8
80203550: 85 67        	lui	a5, 0x1
80203552: b3 07 f4 40  	sub	a5, s0, a5
80203556: 23 b4 a7 32  	sd	a0, 0x328(a5)
8020355a: 97 10 00 00  	auipc	ra, 0x1
8020355e: e7 80 c0 b7  	jalr	-0x484(ra) <_ZN2os2mm10memory_set7MapArea3new17h1c7388352d3e2f1aE>
80203562: 05 65        	lui	a0, 0x1
80203564: 33 05 a4 40  	sub	a0, s0, a0
80203568: 03 36 85 31  	ld	a2, 0x318(a0)
8020356c: 05 65        	lui	a0, 0x1
8020356e: 33 05 a4 40  	sub	a0, s0, a0
80203572: 03 35 05 32  	ld	a0, 0x320(a0)
80203576: 85 65        	lui	a1, 0x1
80203578: b3 05 b4 40  	sub	a1, s0, a1
8020357c: 83 b5 85 32  	ld	a1, 0x328(a1)
80203580: 23 30 c4 c8  	sd	a2, -0x380(s0)
80203584: 03 36 04 c8  	ld	a2, -0x380(s0)
80203588: 83 36 84 c8  	ld	a3, -0x378(s0)
8020358c: 97 f0 ff ff  	auipc	ra, 0xfffff
80203590: e7 80 20 05  	jalr	0x52(ra) <ekernel+0xffc7b5de>

0000000080203594 <.Lpcrel_hi32>:
80203594: 17 e5 01 00  	auipc	a0, 0x1e
80203598: 93 05 c5 f7  	addi	a1, a0, -0x84
8020359c: 13 05 04 c9  	addi	a0, s0, -0x370
802035a0: 05 66        	lui	a2, 0x1
802035a2: 33 06 c4 40  	sub	a2, s0, a2
802035a6: 23 38 a6 32  	sd	a0, 0x330(a2)
802035aa: 97 80 01 00  	auipc	ra, 0x18
802035ae: e7 80 40 8a  	jalr	-0x75c(ra) <_ZN4core3fmt9Arguments9new_const17hdd0dcb54612202f7E>
802035b2: 05 65        	lui	a0, 0x1
802035b4: 33 05 a4 40  	sub	a0, s0, a0
802035b8: 03 35 05 33  	ld	a0, 0x330(a0)
802035bc: 97 30 00 00  	auipc	ra, 0x3
802035c0: e7 80 40 65  	jalr	0x654(ra) <_ZN2os7console5print17he820b8e27323609fE>
802035c4: 05 65        	lui	a0, 0x1
802035c6: 33 05 a4 40  	sub	a0, s0, a0
802035ca: 83 35 85 33  	ld	a1, 0x338(a0)

00000000802035ce <.Lpcrel_hi33>:
802035ce: 17 e5 01 00  	auipc	a0, 0x1e
802035d2: 13 05 a5 b3  	addi	a0, a0, -0x4c6
802035d6: 97 80 00 00  	auipc	ra, 0x8
802035da: e7 80 a0 d5  	jalr	-0x2a6(ra) <_ZN4core5slice4iter87_$LT$impl$u20$core..iter..traits..collect..IntoIterator$u20$for$u20$$RF$$u5b$T$u5d$$GT$9into_iter17hf8674b7c95e475ebE>
802035de: 23 30 a4 cc  	sd	a0, -0x340(s0)
802035e2: 23 34 b4 cc  	sd	a1, -0x338(s0)
802035e6: 09 a0        	j	0x802035e8 <.Lpcrel_hi33+0x1a>
802035e8: 13 05 04 cc  	addi	a0, s0, -0x340
802035ec: 97 80 00 00  	auipc	ra, 0x8
802035f0: e7 80 60 ea  	jalr	-0x15a(ra) <_ZN91_$LT$core..slice..iter..Iter$LT$T$GT$$u20$as$u20$core..iter..traits..iterator..Iterator$GT$4next17hfa06b7b182dffe59E>
802035f4: 23 38 a4 cc  	sd	a0, -0x330(s0)
802035f8: 03 35 04 cd  	ld	a0, -0x330(s0)
802035fc: 29 e9        	bnez	a0, 0x8020364e <.Lpcrel_hi33+0x80>
802035fe: 09 a0        	j	0x80203600 <.Lpcrel_hi33+0x32>
80203600: 05 65        	lui	a0, 0x1
80203602: 33 05 a4 40  	sub	a0, s0, a0
80203606: 83 35 05 1f  	ld	a1, 0x1f0(a0)
8020360a: 05 65        	lui	a0, 0x1
8020360c: 33 05 a4 40  	sub	a0, s0, a0
80203610: 03 35 85 20  	ld	a0, 0x208(a0)
80203614: 10 61        	ld	a2, 0x0(a0)
80203616: 90 f9        	sd	a2, 0x30(a1)
80203618: 03 36 85 ff  	ld	a2, -0x8(a0)
8020361c: 90 f5        	sd	a2, 0x28(a1)
8020361e: 03 36 05 ff  	ld	a2, -0x10(a0)
80203622: 90 f1        	sd	a2, 0x20(a1)
80203624: 03 36 85 fe  	ld	a2, -0x18(a0)
80203628: 90 ed        	sd	a2, 0x18(a1)
8020362a: 03 36 05 fe  	ld	a2, -0x20(a0)
8020362e: 90 e9        	sd	a2, 0x10(a1)
80203630: 03 36 85 fd  	ld	a2, -0x28(a0)
80203634: 90 e5        	sd	a2, 0x8(a1)
80203636: 03 35 05 fd  	ld	a0, -0x30(a0)
8020363a: 88 e1        	sd	a0, 0x0(a1)
8020363c: 13 01 01 65  	addi	sp, sp, 0x650
80203640: 83 30 81 7e  	ld	ra, 0x7e8(sp)
80203644: 03 34 01 7e  	ld	s0, 0x7e0(sp)
80203648: 13 01 01 7f  	addi	sp, sp, 0x7f0
8020364c: 82 80        	ret
8020364e: 03 35 04 cd  	ld	a0, -0x330(s0)
80203652: 85 65        	lui	a1, 0x1
80203654: b3 05 b4 40  	sub	a1, s0, a1
80203658: 23 bc a5 1c  	sd	a0, 0x1d8(a1)
8020365c: 23 30 a4 d2  	sd	a0, -0x2e0(s0)
80203660: 08 61        	ld	a0, 0x0(a0)

0000000080203662 <.Lpcrel_hi34>:
80203662: 97 e5 01 00  	auipc	a1, 0x1e
80203666: 93 85 e5 eb  	addi	a1, a1, -0x142
8020366a: 97 20 01 00  	auipc	ra, 0x12
8020366e: e7 80 60 e8  	jalr	-0x17a(ra) <_ZN50_$LT$T$u20$as$u20$core..convert..Into$LT$U$GT$$GT$4into17h6fa49f94f91b83d8E>
80203672: aa 85        	mv	a1, a0
80203674: 05 65        	lui	a0, 0x1
80203676: 33 05 a4 40  	sub	a0, s0, a0
8020367a: 03 35 85 1d  	ld	a0, 0x1d8(a0)
8020367e: 05 66        	lui	a2, 0x1
80203680: 33 06 c4 40  	sub	a2, s0, a2
80203684: 23 30 b6 1e  	sd	a1, 0x1e0(a2)
80203688: 0c 61        	ld	a1, 0x0(a0)
8020368a: 08 65        	ld	a0, 0x8(a0)
8020368c: 2e 95        	add	a0, a0, a1
8020368e: 05 66        	lui	a2, 0x1
80203690: 33 06 c4 40  	sub	a2, s0, a2
80203694: 23 34 a6 1e  	sd	a0, 0x1e8(a2)
80203698: 63 66 b5 0a  	bltu	a0, a1, 0x80203744 <.Lpcrel_hi36>
8020369c: 09 a0        	j	0x8020369e <.Lpcrel_hi34+0x3c>
8020369e: 05 65        	lui	a0, 0x1
802036a0: 33 05 a4 40  	sub	a0, s0, a0
802036a4: 03 35 85 1e  	ld	a0, 0x1e8(a0)

00000000802036a8 <.Lpcrel_hi35>:
802036a8: 97 e5 01 00  	auipc	a1, 0x1e
802036ac: 93 85 85 ea  	addi	a1, a1, -0x158
802036b0: 97 20 01 00  	auipc	ra, 0x12
802036b4: e7 80 00 e4  	jalr	-0x1c0(ra) <_ZN50_$LT$T$u20$as$u20$core..convert..Into$LT$U$GT$$GT$4into17h6fa49f94f91b83d8E>
802036b8: 85 65        	lui	a1, 0x1
802036ba: b3 05 b4 40  	sub	a1, s0, a1
802036be: 23 b0 a5 1c  	sd	a0, 0x1c0(a1)
802036c2: 01 45        	li	a0, 0x0
802036c4: 85 65        	lui	a1, 0x1
802036c6: b3 05 b4 40  	sub	a1, s0, a1
802036ca: 23 b4 a5 1c  	sd	a0, 0x1c8(a1)
802036ce: a3 07 a4 d0  	sb	a0, -0x2f1(s0)
802036d2: 09 45        	li	a0, 0x2
802036d4: 91 45        	li	a1, 0x4
802036d6: 97 10 00 00  	auipc	ra, 0x1
802036da: e7 80 c0 3e  	jalr	0x3ec(ra) <_ZN75_$LT$os..mm..memory_set..MapPermission$u20$as$u20$core..ops..bit..BitOr$GT$5bitor17h5e1241d565c824afE>
802036de: 85 65        	lui	a1, 0x1
802036e0: b3 05 b4 40  	sub	a1, s0, a1
802036e4: 83 b5 05 1e  	ld	a1, 0x1e0(a1)
802036e8: 05 66        	lui	a2, 0x1
802036ea: 33 06 c4 40  	sub	a2, s0, a2
802036ee: 03 36 06 1c  	ld	a2, 0x1c0(a2)
802036f2: 2a 87        	mv	a4, a0
802036f4: 03 45 f4 d0  	lbu	a0, -0x2f1(s0)
802036f8: 93 76 15 00  	andi	a3, a0, 0x1
802036fc: 13 05 84 cd  	addi	a0, s0, -0x328
80203700: 85 67        	lui	a5, 0x1
80203702: b3 07 f4 40  	sub	a5, s0, a5
80203706: 23 b8 a7 1c  	sd	a0, 0x1d0(a5)
8020370a: 97 10 00 00  	auipc	ra, 0x1
8020370e: e7 80 c0 9c  	jalr	-0x634(ra) <_ZN2os2mm10memory_set7MapArea3new17h1c7388352d3e2f1aE>
80203712: 05 65        	lui	a0, 0x1
80203714: 33 05 a4 40  	sub	a0, s0, a0
80203718: 03 35 85 1c  	ld	a0, 0x1c8(a0)
8020371c: 85 65        	lui	a1, 0x1
8020371e: b3 05 b4 40  	sub	a1, s0, a1
80203722: 83 b5 05 1d  	ld	a1, 0x1d0(a1)
80203726: 23 38 a4 d0  	sd	a0, -0x2f0(s0)
8020372a: 03 36 04 d1  	ld	a2, -0x2f0(s0)
8020372e: 83 36 84 d1  	ld	a3, -0x2e8(s0)
80203732: 13 05 04 80  	addi	a0, s0, -0x800
80203736: 13 05 05 b4  	addi	a0, a0, -0x4c0
8020373a: 97 f0 ff ff  	auipc	ra, 0xfffff
8020373e: e7 80 40 ea  	jalr	-0x15c(ra) <ekernel+0xffc7b5de>
80203742: 5d b5        	j	0x802035e8 <.Lpcrel_hi33+0x1a>

0000000080203744 <.Lpcrel_hi36>:
80203744: 17 e5 01 00  	auipc	a0, 0x1e
80203748: 13 05 45 df  	addi	a0, a0, -0x20c
8020374c: 97 c0 01 00  	auipc	ra, 0x1c
80203750: e7 80 60 75  	jalr	0x756(ra) <_ZN4core9panicking11panic_const24panic_const_add_overflow17h8b73966d6acdc0c6E>

0000000080203754 <_ZN2os2mm10memory_set9MemorySet8from_elf17h6cc2d3da8cb592dcE>:
80203754: 13 01 01 b0  	addi	sp, sp, -0x500
80203758: 23 3c 11 4e  	sd	ra, 0x4f8(sp)
8020375c: 23 38 81 4e  	sd	s0, 0x4f0(sp)
80203760: 13 04 01 50  	addi	s0, sp, 0x500
80203764: 23 38 c4 c0  	sd	a2, -0x3f0(s0)
80203768: 23 34 b4 c0  	sd	a1, -0x3f8(s0)
8020376c: 23 3c a4 be  	sd	a0, -0x408(s0)
80203770: 23 3c b4 ec  	sd	a1, -0x128(s0)
80203774: 23 30 c4 ee  	sd	a2, -0x120(s0)
80203778: 13 05 84 c1  	addi	a0, s0, -0x3e8
8020377c: 23 30 a4 c0  	sd	a0, -0x400(s0)
80203780: 97 f0 ff ff  	auipc	ra, 0xfffff
80203784: e7 80 60 d8  	jalr	-0x27a(ra) <ekernel+0xffc7b506>
80203788: 03 35 04 c0  	ld	a0, -0x400(s0)
8020378c: 97 f0 ff ff  	auipc	ra, 0xfffff
80203790: e7 80 a0 ee  	jalr	-0x116(ra) <ekernel+0xffc7b676>
80203794: 83 35 84 c0  	ld	a1, -0x3f8(s0)
80203798: 03 36 04 c1  	ld	a2, -0x3f0(s0)
8020379c: 13 05 84 c7  	addi	a0, s0, -0x388
802037a0: 97 70 01 00  	auipc	ra, 0x17
802037a4: e7 80 80 3b  	jalr	0x3b8(ra) <_ZN8xmas_elf7ElfFile3new17h9393bfb83ec0b220E>
802037a8: 03 35 84 c7  	ld	a0, -0x388(s0)
802037ac: 89 45        	li	a1, 0x2
802037ae: 63 1f b5 02  	bne	a0, a1, 0x802037ec <.Lpcrel_hi39+0x18>
802037b2: 09 a0        	j	0x802037b4 <_ZN2os2mm10memory_set9MemorySet8from_elf17h6cc2d3da8cb592dcE+0x60>
802037b4: 83 35 04 c8  	ld	a1, -0x380(s0)
802037b8: 03 35 84 c8  	ld	a0, -0x378(s0)
802037bc: 23 3c b4 fc  	sd	a1, -0x28(s0)
802037c0: 23 30 a4 fe  	sd	a0, -0x20(s0)

00000000802037c4 <.Lpcrel_hi37>:
802037c4: 17 e5 01 00  	auipc	a0, 0x1e
802037c8: 13 05 45 a1  	addi	a0, a0, -0x5ec

00000000802037cc <.Lpcrel_hi38>:
802037cc: 97 e5 01 00  	auipc	a1, 0x1e
802037d0: 93 86 c5 9e  	addi	a3, a1, -0x614

00000000802037d4 <.Lpcrel_hi39>:
802037d4: 97 e5 01 00  	auipc	a1, 0x1e
802037d8: 13 87 45 d9  	addi	a4, a1, -0x26c
802037dc: 93 05 b0 02  	li	a1, 0x2b
802037e0: 13 06 84 fd  	addi	a2, s0, -0x28
802037e4: 97 a0 01 00  	auipc	ra, 0x1a
802037e8: e7 80 a0 60  	jalr	0x60a(ra) <_ZN4core6result13unwrap_failed17h2ab822e5e76018a3E>
802037ec: 03 35 84 c9  	ld	a0, -0x368(s0)
802037f0: 23 38 a4 c6  	sd	a0, -0x390(s0)
802037f4: 03 35 04 c9  	ld	a0, -0x370(s0)
802037f8: 23 34 a4 c6  	sd	a0, -0x398(s0)
802037fc: 03 35 84 c8  	ld	a0, -0x378(s0)
80203800: 23 30 a4 c6  	sd	a0, -0x3a0(s0)
80203804: 03 35 04 c8  	ld	a0, -0x380(s0)
80203808: 23 3c a4 c4  	sd	a0, -0x3a8(s0)
8020380c: 03 35 84 c7  	ld	a0, -0x388(s0)
80203810: 23 38 a4 c4  	sd	a0, -0x3b0(s0)
80203814: 03 35 04 c6  	ld	a0, -0x3a0(s0)
80203818: 23 38 a4 ca  	sd	a0, -0x350(s0)
8020381c: 03 35 84 c5  	ld	a0, -0x3a8(s0)
80203820: 23 34 a4 ca  	sd	a0, -0x358(s0)
80203824: 03 35 04 c5  	ld	a0, -0x3b0(s0)
80203828: 23 30 a4 ca  	sd	a0, -0x360(s0)
8020382c: 03 35 04 cb  	ld	a0, -0x350(s0)
80203830: 03 46 05 00  	lbu	a2, 0x0(a0)
80203834: 83 45 15 00  	lbu	a1, 0x1(a0)
80203838: 9b 95 85 00  	slliw	a1, a1, 0x8
8020383c: d1 8d        	or	a1, a1, a2
8020383e: 03 46 25 00  	lbu	a2, 0x2(a0)
80203842: 1b 16 06 01  	slliw	a2, a2, 0x10
80203846: 03 45 35 00  	lbu	a0, 0x3(a0)
8020384a: 1b 15 85 01  	slliw	a0, a0, 0x18
8020384e: 51 8d        	or	a0, a0, a2
80203850: 4d 8d        	or	a0, a0, a1
80203852: 23 2c a4 ca  	sw	a0, -0x348(s0)
80203856: 13 05 84 cb  	addi	a0, s0, -0x348
8020385a: 23 34 a4 ee  	sd	a0, -0x118(s0)

000000008020385e <.Lpcrel_hi40>:
8020385e: 97 e5 01 00  	auipc	a1, 0x1e
80203862: 93 85 65 d3  	addi	a1, a1, -0x2ca
80203866: 23 38 b4 ee  	sd	a1, -0x110(s0)
8020386a: 97 60 01 00  	auipc	ra, 0x16
8020386e: e7 80 00 ec  	jalr	-0x140(ra) <_ZN4core5array8equality103_$LT$impl$u20$core..cmp..PartialEq$LT$$u5b$U$u3b$$u20$N$u5d$$GT$$u20$for$u20$$u5b$T$u3b$$u20$N$u5d$$GT$2eq17h54831e85e526320bE>
80203872: 2d e9        	bnez	a0, 0x802038e4 <.Lpcrel_hi43+0x18>
80203874: 09 a0        	j	0x80203876 <.Lpcrel_hi40+0x18>
80203876: 01 45        	li	a0, 0x0
80203878: a3 0f a4 ca  	sb	a0, -0x341(s0)

000000008020387c <.Lpcrel_hi41>:
8020387c: 17 e5 01 00  	auipc	a0, 0x1e
80203880: 93 05 45 d3  	addi	a1, a0, -0x2cc
80203884: 13 05 04 cf  	addi	a0, s0, -0x310
80203888: 97 70 01 00  	auipc	ra, 0x17
8020388c: e7 80 60 5c  	jalr	0x5c6(ra) <_ZN4core3fmt9Arguments9new_const17hdd0dcb54612202f7E>
80203890: 03 35 84 d1  	ld	a0, -0x2e8(s0)
80203894: 23 34 a4 ce  	sd	a0, -0x318(s0)
80203898: 03 35 04 d1  	ld	a0, -0x2f0(s0)
8020389c: 23 30 a4 ce  	sd	a0, -0x320(s0)
802038a0: 03 35 84 d0  	ld	a0, -0x2f8(s0)
802038a4: 23 3c a4 cc  	sd	a0, -0x328(s0)
802038a8: 03 35 04 d0  	ld	a0, -0x300(s0)
802038ac: 23 38 a4 cc  	sd	a0, -0x330(s0)
802038b0: 03 35 84 cf  	ld	a0, -0x308(s0)
802038b4: 23 34 a4 cc  	sd	a0, -0x338(s0)
802038b8: 03 35 04 cf  	ld	a0, -0x310(s0)
802038bc: 23 30 a4 cc  	sd	a0, -0x340(s0)
802038c0: 03 45 f4 cb  	lbu	a0, -0x341(s0)

00000000802038c4 <.Lpcrel_hi42>:
802038c4: 97 e5 01 00  	auipc	a1, 0x1e
802038c8: 13 86 05 cd  	addi	a2, a1, -0x330

00000000802038cc <.Lpcrel_hi43>:
802038cc: 97 e5 01 00  	auipc	a1, 0x1e
802038d0: 13 87 45 cf  	addi	a4, a1, -0x30c
802038d4: 93 05 84 cb  	addi	a1, s0, -0x348
802038d8: 93 06 04 cc  	addi	a3, s0, -0x340
802038dc: 97 40 01 00  	auipc	ra, 0x14
802038e0: e7 80 a0 f6  	jalr	-0x96(ra) <_ZN4core9panicking13assert_failed17h621e85c1968085fdE>
802038e4: 13 05 04 ca  	addi	a0, s0, -0x360
802038e8: 97 70 01 00  	auipc	ra, 0x17
802038ec: e7 80 60 87  	jalr	-0x78a(ra) <_ZN8xmas_elf6header9HeaderPt28ph_count17h9816a2e94fdfcd26E>
802038f0: aa 85        	mv	a1, a0
802038f2: 23 1f b4 ee  	sh	a1, -0x102(s0)
802038f6: 01 45        	li	a0, 0x0
802038f8: 23 30 a4 d2  	sd	a0, -0x2e0(s0)
802038fc: 97 60 01 00  	auipc	ra, 0x16
80203900: e7 80 c0 a7  	jalr	-0x584(ra) <_ZN63_$LT$I$u20$as$u20$core..iter..traits..collect..IntoIterator$GT$9into_iter17h2cea12bfcdb46be6E>
80203904: 23 14 a4 d2  	sh	a0, -0x2d8(s0)
80203908: 23 15 b4 d2  	sh	a1, -0x2d6(s0)
8020390c: 09 a0        	j	0x8020390e <.Lpcrel_hi43+0x42>
8020390e: 13 05 84 d2  	addi	a0, s0, -0x2d8
80203912: 97 60 01 00  	auipc	ra, 0x16
80203916: e7 80 40 98  	jalr	-0x67c(ra) <_ZN4core4iter5range101_$LT$impl$u20$core..iter..traits..iterator..Iterator$u20$for$u20$core..ops..range..Range$LT$A$GT$$GT$4next17h4d444abc5c67e265E>
8020391a: 23 16 a4 d2  	sh	a0, -0x2d4(s0)
8020391e: 23 17 b4 d2  	sh	a1, -0x2d2(s0)
80203922: 03 55 c4 d2  	lhu	a0, -0x2d4(s0)
80203926: 29 e1        	bnez	a0, 0x80203968 <.Lpcrel_hi45+0x26>
80203928: 09 a0        	j	0x8020392a <.Lpcrel_hi43+0x5e>
8020392a: 03 35 04 d2  	ld	a0, -0x2e0(s0)

000000008020392e <.Lpcrel_hi44>:
8020392e: 97 e5 01 00  	auipc	a1, 0x1e
80203932: 93 85 a5 ca  	addi	a1, a1, -0x356
80203936: 97 20 01 00  	auipc	ra, 0x12
8020393a: e7 80 e0 99  	jalr	-0x662(ra) <_ZN50_$LT$T$u20$as$u20$core..convert..Into$LT$U$GT$$GT$4into17hf1170fc684e4afeaE>
8020393e: 23 30 a4 f0  	sd	a0, -0x100(s0)

0000000080203942 <.Lpcrel_hi45>:
80203942: 97 e5 01 00  	auipc	a1, 0x1e
80203946: 93 85 e5 ca  	addi	a1, a1, -0x352
8020394a: 97 20 01 00  	auipc	ra, 0x12
8020394e: e7 80 20 95  	jalr	-0x6ae(ra) <_ZN50_$LT$T$u20$as$u20$core..convert..Into$LT$U$GT$$GT$4into17he1bf2fbb442c2117E>
80203952: 23 30 a4 dc  	sd	a0, -0x240(s0)
80203956: 83 35 04 dc  	ld	a1, -0x240(s0)
8020395a: 05 65        	lui	a0, 0x1
8020395c: 2e 95        	add	a0, a0, a1
8020395e: 23 38 a4 be  	sd	a0, -0x410(s0)
80203962: 63 69 b5 10  	bltu	a0, a1, 0x80203a74 <.Lpcrel_hi53>
80203966: d5 a8        	j	0x80203a5a <.Lpcrel_hi52+0x1a>
80203968: 03 16 e4 d2  	lh	a2, -0x2d2(s0)
8020396c: 23 1b c4 f0  	sh	a2, -0xea(s0)
80203970: 13 05 04 d4  	addi	a0, s0, -0x2c0
80203974: 93 05 04 c5  	addi	a1, s0, -0x3b0
80203978: 97 70 01 00  	auipc	ra, 0x17
8020397c: e7 80 60 2a  	jalr	0x2a6(ra) <_ZN8xmas_elf7ElfFile14program_header17h42077a05802f7e65E>
80203980: 03 35 04 d4  	ld	a0, -0x2c0(s0)
80203984: 15 cd        	beqz	a0, 0x802039c0 <.Lpcrel_hi48+0x18>
80203986: 09 a0        	j	0x80203988 <.Lpcrel_hi45+0x46>
80203988: 83 35 84 d4  	ld	a1, -0x2b8(s0)
8020398c: 03 35 04 d5  	ld	a0, -0x2b0(s0)
80203990: 23 30 b4 fa  	sd	a1, -0x60(s0)
80203994: 23 34 a4 fa  	sd	a0, -0x58(s0)

0000000080203998 <.Lpcrel_hi46>:
80203998: 17 e5 01 00  	auipc	a0, 0x1e
8020399c: 13 05 05 84  	addi	a0, a0, -0x7c0

00000000802039a0 <.Lpcrel_hi47>:
802039a0: 97 e5 01 00  	auipc	a1, 0x1e
802039a4: 93 86 85 81  	addi	a3, a1, -0x7e8

00000000802039a8 <.Lpcrel_hi48>:
802039a8: 97 e5 01 00  	auipc	a1, 0x1e
802039ac: 13 87 05 d2  	addi	a4, a1, -0x2e0
802039b0: 93 05 b0 02  	li	a1, 0x2b
802039b4: 13 06 04 fa  	addi	a2, s0, -0x60
802039b8: 97 a0 01 00  	auipc	ra, 0x1a
802039bc: e7 80 60 43  	jalr	0x436(ra) <_ZN4core6result13unwrap_failed17h2ab822e5e76018a3E>
802039c0: 83 35 84 d4  	ld	a1, -0x2b8(s0)
802039c4: 03 35 04 d5  	ld	a0, -0x2b0(s0)
802039c8: 23 38 b4 fa  	sd	a1, -0x50(s0)
802039cc: 23 3c a4 fa  	sd	a0, -0x48(s0)
802039d0: 23 38 b4 d2  	sd	a1, -0x2d0(s0)
802039d4: 23 3c a4 d2  	sd	a0, -0x2c8(s0)
802039d8: 13 05 04 d6  	addi	a0, s0, -0x2a0
802039dc: 93 05 04 d3  	addi	a1, s0, -0x2d0
802039e0: 97 70 01 00  	auipc	ra, 0x17
802039e4: e7 80 e0 b2  	jalr	-0x4d2(ra) <_ZN8xmas_elf7program13ProgramHeader8get_type17hf86f0553e975828cE>
802039e8: 03 35 04 d6  	ld	a0, -0x2a0(s0)
802039ec: 15 cd        	beqz	a0, 0x80203a28 <.Lpcrel_hi51+0x18>
802039ee: 09 a0        	j	0x802039f0 <.Lpcrel_hi48+0x48>
802039f0: 83 35 04 d6  	ld	a1, -0x2a0(s0)
802039f4: 03 35 84 d6  	ld	a0, -0x298(s0)
802039f8: 23 30 b4 fc  	sd	a1, -0x40(s0)
802039fc: 23 34 a4 fc  	sd	a0, -0x38(s0)

0000000080203a00 <.Lpcrel_hi49>:
80203a00: 17 d5 01 00  	auipc	a0, 0x1d
80203a04: 13 05 85 7d  	addi	a0, a0, 0x7d8

0000000080203a08 <.Lpcrel_hi50>:
80203a08: 97 d5 01 00  	auipc	a1, 0x1d
80203a0c: 93 86 05 7b  	addi	a3, a1, 0x7b0

0000000080203a10 <.Lpcrel_hi51>:
80203a10: 97 e5 01 00  	auipc	a1, 0x1e
80203a14: 13 87 05 cd  	addi	a4, a1, -0x330
80203a18: 93 05 b0 02  	li	a1, 0x2b
80203a1c: 13 06 04 fc  	addi	a2, s0, -0x40
80203a20: 97 a0 01 00  	auipc	ra, 0x1a
80203a24: e7 80 e0 3c  	jalr	0x3ce(ra) <_ZN4core6result13unwrap_failed17h2ab822e5e76018a3E>
80203a28: 83 25 84 d6  	lw	a1, -0x298(s0)
80203a2c: 03 25 c4 d6  	lw	a0, -0x294(s0)
80203a30: 23 28 b4 fc  	sw	a1, -0x30(s0)
80203a34: 23 2a a4 fc  	sw	a0, -0x2c(s0)
80203a38: 23 2c b4 d4  	sw	a1, -0x2a8(s0)
80203a3c: 23 2e a4 d4  	sw	a0, -0x2a4(s0)

0000000080203a40 <.Lpcrel_hi52>:
80203a40: 17 e5 01 00  	auipc	a0, 0x1e
80203a44: 93 05 85 cc  	addi	a1, a0, -0x338
80203a48: 13 05 84 d5  	addi	a0, s0, -0x2a8
80203a4c: 97 70 00 00  	auipc	ra, 0x7
80203a50: e7 80 c0 f5  	jalr	-0xa4(ra) <_ZN64_$LT$xmas_elf..program..Type$u20$as$u20$core..cmp..PartialEq$GT$2eq17h029b7eb2195dfe45E>
80203a54: 63 1c 05 28  	bnez	a0, 0x80203cec <.Lpcrel_hi60+0x10>
80203a58: 5d bd        	j	0x8020390e <.Lpcrel_hi43+0x42>
80203a5a: 03 35 04 bf  	ld	a0, -0x410(s0)
80203a5e: 23 30 a4 dc  	sd	a0, -0x240(s0)
80203a62: 83 35 04 dc  	ld	a1, -0x240(s0)
80203a66: 09 65        	lui	a0, 0x2
80203a68: 2e 95        	add	a0, a0, a1
80203a6a: 23 34 a4 be  	sd	a0, -0x418(s0)
80203a6e: 63 67 b5 26  	bltu	a0, a1, 0x80203cdc <.Lpcrel_hi60>
80203a72: 09 a8        	j	0x80203a84 <.Lpcrel_hi53+0x10>

0000000080203a74 <.Lpcrel_hi53>:
80203a74: 17 e5 01 00  	auipc	a0, 0x1e
80203a78: 13 05 45 b9  	addi	a0, a0, -0x46c
80203a7c: 97 c0 01 00  	auipc	ra, 0x1c
80203a80: e7 80 60 42  	jalr	0x426(ra) <_ZN4core9panicking11panic_const24panic_const_add_overflow17h8b73966d6acdc0c6E>
80203a84: 03 35 84 be  	ld	a0, -0x418(s0)
80203a88: 23 34 a4 f0  	sd	a0, -0xf8(s0)
80203a8c: 03 35 04 dc  	ld	a0, -0x240(s0)

0000000080203a90 <.Lpcrel_hi54>:
80203a90: 97 e5 01 00  	auipc	a1, 0x1e
80203a94: 93 85 85 ba  	addi	a1, a1, -0x458
80203a98: 97 20 01 00  	auipc	ra, 0x12
80203a9c: e7 80 80 a5  	jalr	-0x5a8(ra) <_ZN50_$LT$T$u20$as$u20$core..convert..Into$LT$U$GT$$GT$4into17h6fa49f94f91b83d8E>
80203aa0: aa 85        	mv	a1, a0
80203aa2: 03 35 84 be  	ld	a0, -0x418(s0)
80203aa6: 23 38 b4 b6  	sd	a1, -0x490(s0)

0000000080203aaa <.Lpcrel_hi55>:
80203aaa: 97 e5 01 00  	auipc	a1, 0x1e
80203aae: 93 85 65 ba  	addi	a1, a1, -0x45a
80203ab2: 97 20 01 00  	auipc	ra, 0x12
80203ab6: e7 80 e0 a3  	jalr	-0x5c2(ra) <_ZN50_$LT$T$u20$as$u20$core..convert..Into$LT$U$GT$$GT$4into17h6fa49f94f91b83d8E>
80203aba: 23 3c a4 b6  	sd	a0, -0x488(s0)
80203abe: 05 45        	li	a0, 0x1
80203ac0: 23 34 a4 ba  	sd	a0, -0x458(s0)
80203ac4: a3 0f a4 de  	sb	a0, -0x201(s0)
80203ac8: 09 45        	li	a0, 0x2
80203aca: 23 3c a4 ba  	sd	a0, -0x448(s0)
80203ace: 91 45        	li	a1, 0x4
80203ad0: 23 38 b4 ba  	sd	a1, -0x450(s0)
80203ad4: 97 10 00 00  	auipc	ra, 0x1
80203ad8: e7 80 e0 fe  	jalr	-0x12(ra) <_ZN75_$LT$os..mm..memory_set..MapPermission$u20$as$u20$core..ops..bit..BitOr$GT$5bitor17h5e1241d565c824afE>
80203adc: c1 45        	li	a1, 0x10
80203ade: 23 34 b4 b8  	sd	a1, -0x478(s0)
80203ae2: 97 10 00 00  	auipc	ra, 0x1
80203ae6: e7 80 00 fe  	jalr	-0x20(ra) <_ZN75_$LT$os..mm..memory_set..MapPermission$u20$as$u20$core..ops..bit..BitOr$GT$5bitor17h5e1241d565c824afE>
80203aea: 83 35 04 b7  	ld	a1, -0x490(s0)
80203aee: 03 36 84 b7  	ld	a2, -0x488(s0)
80203af2: 2a 87        	mv	a4, a0
80203af4: 03 45 f4 df  	lbu	a0, -0x201(s0)
80203af8: 93 76 15 00  	andi	a3, a0, 0x1
80203afc: 13 05 84 dc  	addi	a0, s0, -0x238
80203b00: 23 30 a4 b8  	sd	a0, -0x480(s0)
80203b04: 97 00 00 00  	auipc	ra, 0x0
80203b08: e7 80 20 5d  	jalr	0x5d2(ra) <_ZN2os2mm10memory_set7MapArea3new17h1c7388352d3e2f1aE>
80203b0c: 83 35 04 b8  	ld	a1, -0x480(s0)
80203b10: 01 45        	li	a0, 0x0
80203b12: 23 38 a4 bc  	sd	a0, -0x430(s0)
80203b16: 23 30 a4 e0  	sd	a0, -0x200(s0)
80203b1a: 03 36 04 e0  	ld	a2, -0x200(s0)
80203b1e: 83 36 84 e0  	ld	a3, -0x1f8(s0)
80203b22: 13 05 84 c1  	addi	a0, s0, -0x3e8
80203b26: 23 3c a4 bc  	sd	a0, -0x428(s0)
80203b2a: 97 f0 ff ff  	auipc	ra, 0xfffff
80203b2e: e7 80 40 ab  	jalr	-0x54c(ra) <ekernel+0xffc7b5de>
80203b32: 03 35 84 be  	ld	a0, -0x418(s0)

0000000080203b36 <.Lpcrel_hi56>:
80203b36: 97 e5 01 00  	auipc	a1, 0x1e
80203b3a: 93 85 25 b3  	addi	a1, a1, -0x4ce
80203b3e: 97 20 01 00  	auipc	ra, 0x12
80203b42: e7 80 20 9b  	jalr	-0x64e(ra) <_ZN50_$LT$T$u20$as$u20$core..convert..Into$LT$U$GT$$GT$4into17h6fa49f94f91b83d8E>
80203b46: aa 85        	mv	a1, a0
80203b48: 03 35 84 be  	ld	a0, -0x418(s0)
80203b4c: 23 38 b4 b8  	sd	a1, -0x470(s0)

0000000080203b50 <.Lpcrel_hi57>:
80203b50: 97 e5 01 00  	auipc	a1, 0x1e
80203b54: 93 85 05 b3  	addi	a1, a1, -0x4d0
80203b58: 97 20 01 00  	auipc	ra, 0x12
80203b5c: e7 80 80 99  	jalr	-0x668(ra) <_ZN50_$LT$T$u20$as$u20$core..convert..Into$LT$U$GT$$GT$4into17h6fa49f94f91b83d8E>
80203b60: 03 36 84 ba  	ld	a2, -0x458(s0)
80203b64: 83 35 04 bb  	ld	a1, -0x450(s0)
80203b68: aa 86        	mv	a3, a0
80203b6a: 03 35 84 bb  	ld	a0, -0x448(s0)
80203b6e: 23 3c d4 b8  	sd	a3, -0x468(s0)
80203b72: a3 03 c4 e4  	sb	a2, -0x1b9(s0)
80203b76: 97 10 00 00  	auipc	ra, 0x1
80203b7a: e7 80 c0 f4  	jalr	-0xb4(ra) <_ZN75_$LT$os..mm..memory_set..MapPermission$u20$as$u20$core..ops..bit..BitOr$GT$5bitor17h5e1241d565c824afE>
80203b7e: 83 35 84 b8  	ld	a1, -0x478(s0)
80203b82: 97 10 00 00  	auipc	ra, 0x1
80203b86: e7 80 00 f4  	jalr	-0xc0(ra) <_ZN75_$LT$os..mm..memory_set..MapPermission$u20$as$u20$core..ops..bit..BitOr$GT$5bitor17h5e1241d565c824afE>
80203b8a: 83 35 04 b9  	ld	a1, -0x470(s0)
80203b8e: 03 36 84 b9  	ld	a2, -0x468(s0)
80203b92: 2a 87        	mv	a4, a0
80203b94: 03 45 74 e4  	lbu	a0, -0x1b9(s0)
80203b98: 93 76 15 00  	andi	a3, a0, 0x1
80203b9c: 13 05 04 e1  	addi	a0, s0, -0x1f0
80203ba0: 23 30 a4 ba  	sd	a0, -0x460(s0)
80203ba4: 97 00 00 00  	auipc	ra, 0x0
80203ba8: e7 80 20 53  	jalr	0x532(ra) <_ZN2os2mm10memory_set7MapArea3new17h1c7388352d3e2f1aE>
80203bac: 83 35 04 ba  	ld	a1, -0x460(s0)
80203bb0: 03 36 04 bd  	ld	a2, -0x430(s0)
80203bb4: 03 35 84 bd  	ld	a0, -0x428(s0)
80203bb8: 23 34 c4 e4  	sd	a2, -0x1b8(s0)
80203bbc: 03 36 84 e4  	ld	a2, -0x1b8(s0)
80203bc0: 83 36 04 e5  	ld	a3, -0x1b0(s0)
80203bc4: 97 f0 ff ff  	auipc	ra, 0xfffff
80203bc8: e7 80 a0 a1  	jalr	-0x5e6(ra) <ekernel+0xffc7b5de>

0000000080203bcc <.Lpcrel_hi58>:
80203bcc: 17 e5 01 00  	auipc	a0, 0x1e
80203bd0: 93 05 c5 ac  	addi	a1, a0, -0x534
80203bd4: 79 75        	lui	a0, 0xffffe
80203bd6: 97 20 01 00  	auipc	ra, 0x12
80203bda: e7 80 a0 91  	jalr	-0x6e6(ra) <_ZN50_$LT$T$u20$as$u20$core..convert..Into$LT$U$GT$$GT$4into17h6fa49f94f91b83d8E>
80203bde: 23 30 a4 bc  	sd	a0, -0x440(s0)

0000000080203be2 <.Lpcrel_hi59>:
80203be2: 17 e5 01 00  	auipc	a0, 0x1e
80203be6: 93 05 e5 ac  	addi	a1, a0, -0x532
80203bea: 7d 75        	lui	a0, 0xfffff
80203bec: 97 20 01 00  	auipc	ra, 0x12
80203bf0: e7 80 40 90  	jalr	-0x6fc(ra) <_ZN50_$LT$T$u20$as$u20$core..convert..Into$LT$U$GT$$GT$4into17h6fa49f94f91b83d8E>
80203bf4: 03 36 84 ba  	ld	a2, -0x458(s0)
80203bf8: 83 35 04 bb  	ld	a1, -0x450(s0)
80203bfc: aa 86        	mv	a3, a0
80203bfe: 03 35 84 bb  	ld	a0, -0x448(s0)
80203c02: 23 34 d4 bc  	sd	a3, -0x438(s0)
80203c06: a3 07 c4 e8  	sb	a2, -0x171(s0)
80203c0a: 97 10 00 00  	auipc	ra, 0x1
80203c0e: e7 80 80 eb  	jalr	-0x148(ra) <_ZN75_$LT$os..mm..memory_set..MapPermission$u20$as$u20$core..ops..bit..BitOr$GT$5bitor17h5e1241d565c824afE>
80203c12: 83 35 04 bc  	ld	a1, -0x440(s0)
80203c16: 03 36 84 bc  	ld	a2, -0x438(s0)
80203c1a: 2a 87        	mv	a4, a0
80203c1c: 03 45 f4 e8  	lbu	a0, -0x171(s0)
80203c20: 93 76 15 00  	andi	a3, a0, 0x1
80203c24: 13 05 84 e5  	addi	a0, s0, -0x1a8
80203c28: 23 30 a4 be  	sd	a0, -0x420(s0)
80203c2c: 97 00 00 00  	auipc	ra, 0x0
80203c30: e7 80 a0 4a  	jalr	0x4aa(ra) <_ZN2os2mm10memory_set7MapArea3new17h1c7388352d3e2f1aE>
80203c34: 03 36 04 bd  	ld	a2, -0x430(s0)
80203c38: 03 35 84 bd  	ld	a0, -0x428(s0)
80203c3c: 83 35 04 be  	ld	a1, -0x420(s0)
80203c40: 23 38 c4 e8  	sd	a2, -0x170(s0)
80203c44: 03 36 04 e9  	ld	a2, -0x170(s0)
80203c48: 83 36 84 e9  	ld	a3, -0x168(s0)
80203c4c: 97 f0 ff ff  	auipc	ra, 0xfffff
80203c50: e7 80 20 99  	jalr	-0x66e(ra) <ekernel+0xffc7b5de>
80203c54: 03 35 84 c4  	ld	a0, -0x3b8(s0)
80203c58: 23 38 a4 ec  	sd	a0, -0x130(s0)
80203c5c: 03 35 04 c4  	ld	a0, -0x3c0(s0)
80203c60: 23 34 a4 ec  	sd	a0, -0x138(s0)
80203c64: 03 35 84 c3  	ld	a0, -0x3c8(s0)
80203c68: 23 30 a4 ec  	sd	a0, -0x140(s0)
80203c6c: 03 35 04 c3  	ld	a0, -0x3d0(s0)
80203c70: 23 3c a4 ea  	sd	a0, -0x148(s0)
80203c74: 03 35 84 c2  	ld	a0, -0x3d8(s0)
80203c78: 23 38 a4 ea  	sd	a0, -0x150(s0)
80203c7c: 03 35 04 c2  	ld	a0, -0x3e0(s0)
80203c80: 23 34 a4 ea  	sd	a0, -0x158(s0)
80203c84: 03 35 84 c1  	ld	a0, -0x3e8(s0)
80203c88: 23 30 a4 ea  	sd	a0, -0x160(s0)
80203c8c: 13 05 04 c5  	addi	a0, s0, -0x3b0
80203c90: 97 60 01 00  	auipc	ra, 0x16
80203c94: e7 80 40 3f  	jalr	0x3f4(ra) <_ZN8xmas_elf6header9HeaderPt211entry_point17h82654f7c16f22c5bE>
80203c98: 03 36 84 be  	ld	a2, -0x418(s0)
80203c9c: 83 35 84 bf  	ld	a1, -0x408(s0)
80203ca0: 83 36 04 ed  	ld	a3, -0x130(s0)
80203ca4: 94 f9        	sd	a3, 0x30(a1)
80203ca6: 83 36 84 ec  	ld	a3, -0x138(s0)
80203caa: 94 f5        	sd	a3, 0x28(a1)
80203cac: 83 36 04 ec  	ld	a3, -0x140(s0)
80203cb0: 94 f1        	sd	a3, 0x20(a1)
80203cb2: 83 36 84 eb  	ld	a3, -0x148(s0)
80203cb6: 94 ed        	sd	a3, 0x18(a1)
80203cb8: 83 36 04 eb  	ld	a3, -0x150(s0)
80203cbc: 94 e9        	sd	a3, 0x10(a1)
80203cbe: 83 36 84 ea  	ld	a3, -0x158(s0)
80203cc2: 94 e5        	sd	a3, 0x8(a1)
80203cc4: 83 36 04 ea  	ld	a3, -0x160(s0)
80203cc8: 94 e1        	sd	a3, 0x0(a1)
80203cca: 90 fd        	sd	a2, 0x38(a1)
80203ccc: a8 e1        	sd	a0, 0x40(a1)
80203cce: 83 30 81 4f  	ld	ra, 0x4f8(sp)
80203cd2: 03 34 01 4f  	ld	s0, 0x4f0(sp)
80203cd6: 13 01 01 50  	addi	sp, sp, 0x500
80203cda: 82 80        	ret

0000000080203cdc <.Lpcrel_hi60>:
80203cdc: 17 e5 01 00  	auipc	a0, 0x1e
80203ce0: 13 05 45 94  	addi	a0, a0, -0x6bc
80203ce4: 97 c0 01 00  	auipc	ra, 0x1c
80203ce8: e7 80 e0 1b  	jalr	0x1be(ra) <_ZN4core9panicking11panic_const24panic_const_add_overflow17h8b73966d6acdc0c6E>
80203cec: 13 05 04 d3  	addi	a0, s0, -0x2d0
80203cf0: 23 3c a4 b4  	sd	a0, -0x4a8(s0)
80203cf4: 97 70 01 00  	auipc	ra, 0x17
80203cf8: e7 80 40 be  	jalr	-0x41c(ra) <_ZN8xmas_elf7program13ProgramHeader12virtual_addr17hc6126b38ec9ee176E>

0000000080203cfc <.Lpcrel_hi61>:
80203cfc: 97 e5 01 00  	auipc	a1, 0x1e
80203d00: 93 85 c5 a2  	addi	a1, a1, -0x5d4
80203d04: 97 10 01 00  	auipc	ra, 0x11
80203d08: e7 80 c0 7e  	jalr	0x7ec(ra) <_ZN50_$LT$T$u20$as$u20$core..convert..Into$LT$U$GT$$GT$4into17h6fa49f94f91b83d8E>
80203d0c: aa 85        	mv	a1, a0
80203d0e: 03 35 84 b5  	ld	a0, -0x4a8(s0)
80203d12: 2e 86        	mv	a2, a1
80203d14: 23 38 c4 b4  	sd	a2, -0x4b0(s0)
80203d18: 23 3c b4 f0  	sd	a1, -0xe8(s0)
80203d1c: 97 70 01 00  	auipc	ra, 0x17
80203d20: e7 80 c0 bb  	jalr	-0x444(ra) <_ZN8xmas_elf7program13ProgramHeader12virtual_addr17hc6126b38ec9ee176E>
80203d24: aa 85        	mv	a1, a0
80203d26: 03 35 84 b5  	ld	a0, -0x4a8(s0)
80203d2a: 23 30 b4 b6  	sd	a1, -0x4a0(s0)
80203d2e: 97 70 01 00  	auipc	ra, 0x17
80203d32: e7 80 a0 b1  	jalr	-0x4e6(ra) <_ZN8xmas_elf7program13ProgramHeader8mem_size17h04eaa1deed86484bE>
80203d36: 83 35 04 b6  	ld	a1, -0x4a0(s0)
80203d3a: 2e 95        	add	a0, a0, a1
80203d3c: 23 34 a4 b6  	sd	a0, -0x498(s0)
80203d40: 63 65 b5 04  	bltu	a0, a1, 0x80203d8a <.Lpcrel_hi63>
80203d44: 09 a0        	j	0x80203d46 <.Lpcrel_hi61+0x4a>
80203d46: 03 35 84 b6  	ld	a0, -0x498(s0)

0000000080203d4a <.Lpcrel_hi62>:
80203d4a: 97 e5 01 00  	auipc	a1, 0x1e
80203d4e: 93 85 e5 a0  	addi	a1, a1, -0x5f2
80203d52: 97 10 01 00  	auipc	ra, 0x11
80203d56: e7 80 e0 79  	jalr	0x79e(ra) <_ZN50_$LT$T$u20$as$u20$core..convert..Into$LT$U$GT$$GT$4into17h6fa49f94f91b83d8E>
80203d5a: aa 85        	mv	a1, a0
80203d5c: 23 34 b4 b4  	sd	a1, -0x4b8(s0)
80203d60: 23 30 a4 f2  	sd	a0, -0xe0(s0)
80203d64: 41 45        	li	a0, 0x10
80203d66: a3 09 a4 d6  	sb	a0, -0x28d(s0)
80203d6a: 13 05 04 d3  	addi	a0, s0, -0x2d0
80203d6e: 97 70 01 00  	auipc	ra, 0x17
80203d72: e7 80 20 bb  	jalr	-0x44e(ra) <_ZN8xmas_elf7program13ProgramHeader5flags17hbad7bffb5df64ecdE>
80203d76: 23 2a a4 d6  	sw	a0, -0x28c(s0)
80203d7a: 13 05 44 d7  	addi	a0, s0, -0x28c
80203d7e: 97 70 01 00  	auipc	ra, 0x17
80203d82: e7 80 80 81  	jalr	-0x7e8(ra) <_ZN8xmas_elf7program5Flags7is_read17h177afd45ea6fb16bE>
80203d86: 15 e1        	bnez	a0, 0x80203daa <.Lpcrel_hi63+0x20>
80203d88: 09 a8        	j	0x80203d9a <.Lpcrel_hi63+0x10>

0000000080203d8a <.Lpcrel_hi63>:
80203d8a: 17 e5 01 00  	auipc	a0, 0x1e
80203d8e: 13 05 65 9b  	addi	a0, a0, -0x64a
80203d92: 97 c0 01 00  	auipc	ra, 0x1c
80203d96: e7 80 00 11  	jalr	0x110(ra) <_ZN4core9panicking11panic_const24panic_const_add_overflow17h8b73966d6acdc0c6E>
80203d9a: 13 05 44 d7  	addi	a0, s0, -0x28c
80203d9e: 97 60 01 00  	auipc	ra, 0x16
80203da2: e7 80 c0 7d  	jalr	0x7dc(ra) <_ZN8xmas_elf7program5Flags8is_write17h0a6bf2bf95ba426eE>
80203da6: 15 e1        	bnez	a0, 0x80203dca <.Lpcrel_hi63+0x40>
80203da8: 09 a8        	j	0x80203dba <.Lpcrel_hi63+0x30>
80203daa: 13 05 34 d7  	addi	a0, s0, -0x28d
80203dae: 89 45        	li	a1, 0x2
80203db0: 97 10 00 00  	auipc	ra, 0x1
80203db4: e7 80 c0 d2  	jalr	-0x2d4(ra) <_ZN81_$LT$os..mm..memory_set..MapPermission$u20$as$u20$core..ops..bit..BitOrAssign$GT$12bitor_assign17hc029750b9f1b35c6E>
80203db8: cd b7        	j	0x80203d9a <.Lpcrel_hi63+0x10>
80203dba: 13 05 44 d7  	addi	a0, s0, -0x28c
80203dbe: 97 60 01 00  	auipc	ra, 0x16
80203dc2: e7 80 20 7a  	jalr	0x7a2(ra) <_ZN8xmas_elf7program5Flags10is_execute17hdd08e212a98f1fc5E>
80203dc6: 4d e1        	bnez	a0, 0x80203e68 <.Lpcrel_hi63+0xde>
80203dc8: 09 a8        	j	0x80203dda <.Lpcrel_hi63+0x50>
80203dca: 13 05 34 d7  	addi	a0, s0, -0x28d
80203dce: 91 45        	li	a1, 0x4
80203dd0: 97 10 00 00  	auipc	ra, 0x1
80203dd4: e7 80 c0 d0  	jalr	-0x2f4(ra) <_ZN81_$LT$os..mm..memory_set..MapPermission$u20$as$u20$core..ops..bit..BitOrAssign$GT$12bitor_assign17hc029750b9f1b35c6E>
80203dd8: cd b7        	j	0x80203dba <.Lpcrel_hi63+0x30>
80203dda: 03 36 84 b4  	ld	a2, -0x4b8(s0)
80203dde: 83 35 04 b5  	ld	a1, -0x4b0(s0)
80203de2: 05 45        	li	a0, 0x1
80203de4: a3 07 a4 da  	sb	a0, -0x251(s0)
80203de8: 03 47 34 d7  	lbu	a4, -0x28d(s0)
80203dec: 03 45 f4 da  	lbu	a0, -0x251(s0)
80203df0: 93 76 15 00  	andi	a3, a0, 0x1
80203df4: 13 05 84 d7  	addi	a0, s0, -0x288
80203df8: 23 38 a4 b0  	sd	a0, -0x4f0(s0)
80203dfc: 97 00 00 00  	auipc	ra, 0x0
80203e00: e7 80 a0 2d  	jalr	0x2da(ra) <_ZN2os2mm10memory_set7MapArea3new17h1c7388352d3e2f1aE>
80203e04: 03 35 04 b1  	ld	a0, -0x4f0(s0)
80203e08: 97 10 01 00  	auipc	ra, 0x11
80203e0c: e7 80 c0 63  	jalr	0x63c(ra) <_ZN2os2mm7address20SimpleRange$LT$T$GT$7get_end17h81b1a7b276637b04E>
80203e10: 23 30 a4 d2  	sd	a0, -0x2e0(s0)
80203e14: 03 35 84 c6  	ld	a0, -0x398(s0)
80203e18: 23 3c a4 b0  	sd	a0, -0x4e8(s0)
80203e1c: 03 35 04 c7  	ld	a0, -0x390(s0)
80203e20: 23 30 a4 b2  	sd	a0, -0x4e0(s0)
80203e24: 13 05 04 d3  	addi	a0, s0, -0x2d0
80203e28: 23 38 a4 b2  	sd	a0, -0x4d0(s0)
80203e2c: 97 70 01 00  	auipc	ra, 0x17
80203e30: e7 80 40 a6  	jalr	-0x59c(ra) <_ZN8xmas_elf7program13ProgramHeader6offset17ha469c98f2c0e7a9aE>
80203e34: aa 85        	mv	a1, a0
80203e36: 03 35 04 b3  	ld	a0, -0x4d0(s0)
80203e3a: 23 34 b4 b2  	sd	a1, -0x4d8(s0)
80203e3e: 97 70 01 00  	auipc	ra, 0x17
80203e42: e7 80 20 a5  	jalr	-0x5ae(ra) <_ZN8xmas_elf7program13ProgramHeader6offset17ha469c98f2c0e7a9aE>
80203e46: aa 85        	mv	a1, a0
80203e48: 03 35 04 b3  	ld	a0, -0x4d0(s0)
80203e4c: 23 3c b4 b2  	sd	a1, -0x4c8(s0)
80203e50: 97 70 01 00  	auipc	ra, 0x17
80203e54: e7 80 00 9b  	jalr	-0x650(ra) <_ZN8xmas_elf7program13ProgramHeader9file_size17h14a14fac81179e9dE>
80203e58: 83 35 84 b3  	ld	a1, -0x4c8(s0)
80203e5c: 2e 95        	add	a0, a0, a1
80203e5e: 23 30 a4 b4  	sd	a0, -0x4c0(s0)
80203e62: 63 64 b5 0e  	bltu	a0, a1, 0x80203f4a <.Lpcrel_hi66>
80203e66: 09 a8        	j	0x80203e78 <.Lpcrel_hi63+0xee>
80203e68: 13 05 34 d7  	addi	a0, s0, -0x28d
80203e6c: a1 45        	li	a1, 0x8
80203e6e: 97 10 00 00  	auipc	ra, 0x1
80203e72: e7 80 e0 c6  	jalr	-0x392(ra) <_ZN81_$LT$os..mm..memory_set..MapPermission$u20$as$u20$core..ops..bit..BitOrAssign$GT$12bitor_assign17hc029750b9f1b35c6E>
80203e76: 95 b7        	j	0x80203dda <.Lpcrel_hi63+0x50>
80203e78: 03 35 04 b4  	ld	a0, -0x4c0(s0)
80203e7c: 83 35 84 b2  	ld	a1, -0x4d8(s0)
80203e80: 03 36 04 b2  	ld	a2, -0x4e0(s0)
80203e84: 83 36 84 b1  	ld	a3, -0x4e8(s0)
80203e88: 23 34 d4 f2  	sd	a3, -0xd8(s0)
80203e8c: 23 38 c4 f2  	sd	a2, -0xd0(s0)
80203e90: 23 3c b4 f2  	sd	a1, -0xc8(s0)
80203e94: 23 30 a4 f4  	sd	a0, -0xc0(s0)
80203e98: 23 3c b4 f4  	sd	a1, -0xa8(s0)
80203e9c: 23 30 a4 f6  	sd	a0, -0xa0(s0)
80203ea0: 23 34 d4 f6  	sd	a3, -0x98(s0)
80203ea4: 23 38 c4 f6  	sd	a2, -0x90(s0)
80203ea8: 23 3c a4 f6  	sd	a0, -0x88(s0)
80203eac: 23 30 b4 f8  	sd	a1, -0x80(s0)
80203eb0: 63 69 b5 02  	bltu	a0, a1, 0x80203ee2 <.Lpcrel_hi63+0x158>
80203eb4: 09 a0        	j	0x80203eb6 <.Lpcrel_hi63+0x12c>
80203eb6: 03 35 04 b2  	ld	a0, -0x4e0(s0)
80203eba: 83 35 04 b4  	ld	a1, -0x4c0(s0)
80203ebe: 03 36 84 b2  	ld	a2, -0x4d8(s0)
80203ec2: 33 86 c5 40  	sub	a2, a1, a2
80203ec6: 23 38 c4 f4  	sd	a2, -0xb0(s0)
80203eca: 05 46        	li	a2, 0x1
80203ecc: 23 34 c4 f4  	sd	a2, -0xb8(s0)
80203ed0: 03 36 04 f5  	ld	a2, -0xb0(s0)
80203ed4: 23 34 c4 b0  	sd	a2, -0x4f8(s0)
80203ed8: 23 34 c4 f8  	sd	a2, -0x78(s0)
80203edc: 63 6f b5 00  	bltu	a0, a1, 0x80203efa <.Lpcrel_hi64+0x10>
80203ee0: 0d a8        	j	0x80203f12 <.Lpcrel_hi65+0x10>
80203ee2: 83 35 04 b4  	ld	a1, -0x4c0(s0)
80203ee6: 03 35 84 b2  	ld	a0, -0x4d8(s0)

0000000080203eea <.Lpcrel_hi64>:
80203eea: 17 e6 01 00  	auipc	a2, 0x1e
80203eee: 13 06 e6 89  	addi	a2, a2, -0x762
80203ef2: 97 b0 01 00  	auipc	ra, 0x1b
80203ef6: e7 80 e0 48  	jalr	0x48e(ra) <_ZN4core5slice5index22slice_index_order_fail17hf09b0b7a53938aafE>
80203efa: 83 35 04 b2  	ld	a1, -0x4e0(s0)
80203efe: 03 35 04 b4  	ld	a0, -0x4c0(s0)

0000000080203f02 <.Lpcrel_hi65>:
80203f02: 17 e6 01 00  	auipc	a2, 0x1e
80203f06: 13 06 66 88  	addi	a2, a2, -0x77a
80203f0a: 97 b0 01 00  	auipc	ra, 0x1b
80203f0e: e7 80 60 41  	jalr	0x416(ra) <_ZN4core5slice5index24slice_end_index_len_fail17h640854624d3f09d0E>
80203f12: 03 35 84 b0  	ld	a0, -0x4f8(s0)
80203f16: 83 35 84 b1  	ld	a1, -0x4e8(s0)
80203f1a: 03 36 84 b2  	ld	a2, -0x4d8(s0)
80203f1e: 23 38 b4 f8  	sd	a1, -0x70(s0)
80203f22: b2 95        	add	a1, a1, a2
80203f24: 23 3c b4 f8  	sd	a1, -0x68(s0)
80203f28: 23 38 b4 da  	sd	a1, -0x250(s0)
80203f2c: 23 3c a4 da  	sd	a0, -0x248(s0)
80203f30: 03 36 04 db  	ld	a2, -0x250(s0)
80203f34: 83 36 84 db  	ld	a3, -0x248(s0)
80203f38: 13 05 84 c1  	addi	a0, s0, -0x3e8
80203f3c: 93 05 84 d7  	addi	a1, s0, -0x288
80203f40: 97 e0 ff ff  	auipc	ra, 0xffffe
80203f44: e7 80 e0 69  	jalr	0x69e(ra) <ekernel+0xffc7b5de>
80203f48: d9 b2        	j	0x8020390e <.Lpcrel_hi43+0x42>

0000000080203f4a <.Lpcrel_hi66>:
80203f4a: 17 e5 01 00  	auipc	a0, 0x1e
80203f4e: 13 05 65 82  	addi	a0, a0, -0x7da
80203f52: 97 c0 01 00  	auipc	ra, 0x1c
80203f56: e7 80 00 f5  	jalr	-0xb0(ra) <_ZN4core9panicking11panic_const24panic_const_add_overflow17h8b73966d6acdc0c6E>

0000000080203f5a <_ZN2os2mm10memory_set9MemorySet8activate17h73da0872b360ce5fE>:
80203f5a: 01 11        	addi	sp, sp, -0x20
80203f5c: 06 ec        	sd	ra, 0x18(sp)
80203f5e: 22 e8        	sd	s0, 0x10(sp)
80203f60: 00 10        	addi	s0, sp, 0x20
80203f62: 23 30 a4 fe  	sd	a0, -0x20(s0)
80203f66: 97 60 00 00  	auipc	ra, 0x6
80203f6a: e7 80 80 52  	jalr	0x528(ra) <_ZN2os2mm10page_table9PageTable5token17h9d52945834db24dcE>
80203f6e: 23 34 a4 fe  	sd	a0, -0x18(s0)
80203f72: 97 20 00 00  	auipc	ra, 0x2
80203f76: e7 80 00 76  	jalr	0x760(ra) <_ZN5riscv8register4satp5write17h67384f67a126f01fE>
80203f7a: 73 00 00 12  	sfence.vma
80203f7e: e2 60        	ld	ra, 0x18(sp)
80203f80: 42 64        	ld	s0, 0x10(sp)
80203f82: 05 61        	addi	sp, sp, 0x20
80203f84: 82 80        	ret

0000000080203f86 <_ZN2os2mm10memory_set9MemorySet9translate17h95d2473fb27ba889E>:
80203f86: 01 11        	addi	sp, sp, -0x20
80203f88: 06 ec        	sd	ra, 0x18(sp)
80203f8a: 22 e8        	sd	s0, 0x10(sp)
80203f8c: 00 10        	addi	s0, sp, 0x20
80203f8e: 23 30 b4 fe  	sd	a1, -0x20(s0)
80203f92: 23 34 c4 fe  	sd	a2, -0x18(s0)
80203f96: 97 60 00 00  	auipc	ra, 0x6
80203f9a: e7 80 20 4b  	jalr	0x4b2(ra) <_ZN2os2mm10page_table9PageTable9translate17h9e9b3a18c3e6b382E>
80203f9e: e2 60        	ld	ra, 0x18(sp)
80203fa0: 42 64        	ld	s0, 0x10(sp)
80203fa2: 05 61        	addi	sp, sp, 0x20
80203fa4: 82 80        	ret

0000000080203fa6 <_ZN2os2mm10memory_set9MemorySet9shrink_to17h415db7c73d47e631E>:
80203fa6: 1d 71        	addi	sp, sp, -0x60
80203fa8: 86 ec        	sd	ra, 0x58(sp)
80203faa: a2 e8        	sd	s0, 0x50(sp)
80203fac: 80 10        	addi	s0, sp, 0x60
80203fae: 23 34 a4 fa  	sd	a0, -0x58(s0)
80203fb2: 23 38 b4 fa  	sd	a1, -0x50(s0)
80203fb6: 23 3c c4 fa  	sd	a2, -0x48(s0)
80203fba: 23 30 a4 fe  	sd	a0, -0x20(s0)
80203fbe: 13 05 05 02  	addi	a0, a0, 0x20
80203fc2: 97 20 00 00  	auipc	ra, 0x2
80203fc6: e7 80 40 52  	jalr	0x524(ra) <_ZN75_$LT$alloc..vec..Vec$LT$T$C$A$GT$$u20$as$u20$core..ops..deref..DerefMut$GT$9deref_mut17h5a4ec199d8e4b8cbE>
80203fca: 97 30 01 00  	auipc	ra, 0x13
80203fce: e7 80 60 e4  	jalr	-0x1ba(ra) <_ZN4core5slice29_$LT$impl$u20$$u5b$T$u5d$$GT$8iter_mut17h269863b2f1011851E>
80203fd2: 23 38 a4 fc  	sd	a0, -0x30(s0)
80203fd6: 23 3c b4 fc  	sd	a1, -0x28(s0)
80203fda: 13 05 04 fd  	addi	a0, s0, -0x30
80203fde: 93 05 04 fb  	addi	a1, s0, -0x50
80203fe2: 97 70 00 00  	auipc	ra, 0x7
80203fe6: e7 80 60 5c  	jalr	0x5c6(ra) <_ZN94_$LT$core..slice..iter..IterMut$LT$T$GT$$u20$as$u20$core..iter..traits..iterator..Iterator$GT$4find17h892ec3cc48e047b1E>
80203fea: 23 34 a4 fc  	sd	a0, -0x38(s0)
80203fee: 03 35 84 fc  	ld	a0, -0x38(s0)
80203ff2: 1d c9        	beqz	a0, 0x80204028 <_ZN2os2mm10memory_set9MemorySet9shrink_to17h415db7c73d47e631E+0x82>
80203ff4: 09 a0        	j	0x80203ff6 <_ZN2os2mm10memory_set9MemorySet9shrink_to17h415db7c73d47e631E+0x50>
80203ff6: 03 35 84 fc  	ld	a0, -0x38(s0)
80203ffa: 23 30 a4 fa  	sd	a0, -0x60(s0)
80203ffe: 23 34 a4 fe  	sd	a0, -0x18(s0)
80204002: 13 05 84 fb  	addi	a0, s0, -0x48
80204006: 97 10 00 00  	auipc	ra, 0x1
8020400a: e7 80 00 12  	jalr	0x120(ra) <_ZN2os2mm7address8VirtAddr4ceil17hc22c4503d271cc35E>
8020400e: 83 35 84 fa  	ld	a1, -0x58(s0)
80204012: 2a 86        	mv	a2, a0
80204014: 03 35 04 fa  	ld	a0, -0x60(s0)
80204018: 97 00 00 00  	auipc	ra, 0x0
8020401c: e7 80 80 33  	jalr	0x338(ra) <_ZN2os2mm10memory_set7MapArea9shrink_to17haf62926a5c47a45cE>
80204020: 05 45        	li	a0, 0x1
80204022: a3 03 a4 fc  	sb	a0, -0x39(s0)
80204026: 29 a0        	j	0x80204030 <_ZN2os2mm10memory_set9MemorySet9shrink_to17h415db7c73d47e631E+0x8a>
80204028: 01 45        	li	a0, 0x0
8020402a: a3 03 a4 fc  	sb	a0, -0x39(s0)
8020402e: 09 a0        	j	0x80204030 <_ZN2os2mm10memory_set9MemorySet9shrink_to17h415db7c73d47e631E+0x8a>
80204030: 03 45 74 fc  	lbu	a0, -0x39(s0)
80204034: 05 89        	andi	a0, a0, 0x1
80204036: e6 60        	ld	ra, 0x58(sp)
80204038: 46 64        	ld	s0, 0x50(sp)
8020403a: 25 61        	addi	sp, sp, 0x60
8020403c: 82 80        	ret

000000008020403e <_ZN2os2mm10memory_set9MemorySet9append_to17ha8e4943780b3b4fcE>:
8020403e: 1d 71        	addi	sp, sp, -0x60
80204040: 86 ec        	sd	ra, 0x58(sp)
80204042: a2 e8        	sd	s0, 0x50(sp)
80204044: 80 10        	addi	s0, sp, 0x60
80204046: 23 34 a4 fa  	sd	a0, -0x58(s0)
8020404a: 23 38 b4 fa  	sd	a1, -0x50(s0)
8020404e: 23 3c c4 fa  	sd	a2, -0x48(s0)
80204052: 23 30 a4 fe  	sd	a0, -0x20(s0)
80204056: 13 05 05 02  	addi	a0, a0, 0x20
8020405a: 97 20 00 00  	auipc	ra, 0x2
8020405e: e7 80 c0 48  	jalr	0x48c(ra) <_ZN75_$LT$alloc..vec..Vec$LT$T$C$A$GT$$u20$as$u20$core..ops..deref..DerefMut$GT$9deref_mut17h5a4ec199d8e4b8cbE>
80204062: 97 30 01 00  	auipc	ra, 0x13
80204066: e7 80 e0 da  	jalr	-0x252(ra) <_ZN4core5slice29_$LT$impl$u20$$u5b$T$u5d$$GT$8iter_mut17h269863b2f1011851E>
8020406a: 23 38 a4 fc  	sd	a0, -0x30(s0)
8020406e: 23 3c b4 fc  	sd	a1, -0x28(s0)
80204072: 13 05 04 fd  	addi	a0, s0, -0x30
80204076: 93 05 04 fb  	addi	a1, s0, -0x50
8020407a: 97 70 00 00  	auipc	ra, 0x7
8020407e: e7 80 40 4c  	jalr	0x4c4(ra) <_ZN94_$LT$core..slice..iter..IterMut$LT$T$GT$$u20$as$u20$core..iter..traits..iterator..Iterator$GT$4find17h596f3d86716b78deE>
80204082: 23 34 a4 fc  	sd	a0, -0x38(s0)
80204086: 03 35 84 fc  	ld	a0, -0x38(s0)
8020408a: 1d c9        	beqz	a0, 0x802040c0 <_ZN2os2mm10memory_set9MemorySet9append_to17ha8e4943780b3b4fcE+0x82>
8020408c: 09 a0        	j	0x8020408e <_ZN2os2mm10memory_set9MemorySet9append_to17ha8e4943780b3b4fcE+0x50>
8020408e: 03 35 84 fc  	ld	a0, -0x38(s0)
80204092: 23 30 a4 fa  	sd	a0, -0x60(s0)
80204096: 23 34 a4 fe  	sd	a0, -0x18(s0)
8020409a: 13 05 84 fb  	addi	a0, s0, -0x48
8020409e: 97 10 00 00  	auipc	ra, 0x1
802040a2: e7 80 80 08  	jalr	0x88(ra) <_ZN2os2mm7address8VirtAddr4ceil17hc22c4503d271cc35E>
802040a6: 83 35 84 fa  	ld	a1, -0x58(s0)
802040aa: 2a 86        	mv	a2, a0
802040ac: 03 35 04 fa  	ld	a0, -0x60(s0)
802040b0: 97 00 00 00  	auipc	ra, 0x0
802040b4: e7 80 80 34  	jalr	0x348(ra) <_ZN2os2mm10memory_set7MapArea9append_to17h91a01667bc82d2e3E>
802040b8: 05 45        	li	a0, 0x1
802040ba: a3 03 a4 fc  	sb	a0, -0x39(s0)
802040be: 29 a0        	j	0x802040c8 <_ZN2os2mm10memory_set9MemorySet9append_to17ha8e4943780b3b4fcE+0x8a>
802040c0: 01 45        	li	a0, 0x0
802040c2: a3 03 a4 fc  	sb	a0, -0x39(s0)
802040c6: 09 a0        	j	0x802040c8 <_ZN2os2mm10memory_set9MemorySet9append_to17ha8e4943780b3b4fcE+0x8a>
802040c8: 03 45 74 fc  	lbu	a0, -0x39(s0)
802040cc: 05 89        	andi	a0, a0, 0x1
802040ce: e6 60        	ld	ra, 0x58(sp)
802040d0: 46 64        	ld	s0, 0x50(sp)
802040d2: 25 61        	addi	sp, sp, 0x60
802040d4: 82 80        	ret

00000000802040d6 <_ZN2os2mm10memory_set7MapArea3new17h1c7388352d3e2f1aE>:
802040d6: 19 71        	addi	sp, sp, -0x80
802040d8: 86 fc        	sd	ra, 0x78(sp)
802040da: a2 f8        	sd	s0, 0x70(sp)
802040dc: 00 01        	addi	s0, sp, 0x80
802040de: 23 34 e4 fa  	sd	a4, -0x58(s0)
802040e2: 23 3c d4 f8  	sd	a3, -0x68(s0)
802040e6: 23 30 a4 fa  	sd	a0, -0x60(s0)
802040ea: 23 38 b4 fa  	sd	a1, -0x50(s0)
802040ee: 23 3c c4 fa  	sd	a2, -0x48(s0)
802040f2: 23 0f d4 fc  	sb	a3, -0x22(s0)
802040f6: a3 0f e4 fc  	sb	a4, -0x21(s0)
802040fa: 13 05 04 fb  	addi	a0, s0, -0x50
802040fe: 97 10 00 00  	auipc	ra, 0x1
80204102: e7 80 00 01  	jalr	0x10(ra) <_ZN2os2mm7address8VirtAddr5floor17h165d09d6a6173ca0E>
80204106: 23 30 a4 f8  	sd	a0, -0x80(s0)
8020410a: 23 30 a4 fe  	sd	a0, -0x20(s0)
8020410e: 13 05 84 fb  	addi	a0, s0, -0x48
80204112: 97 10 00 00  	auipc	ra, 0x1
80204116: e7 80 40 01  	jalr	0x14(ra) <_ZN2os2mm7address8VirtAddr4ceil17hc22c4503d271cc35E>
8020411a: aa 85        	mv	a1, a0
8020411c: 03 35 04 f8  	ld	a0, -0x80(s0)
80204120: 23 34 b4 fe  	sd	a1, -0x18(s0)
80204124: 97 10 01 00  	auipc	ra, 0x11
80204128: e7 80 60 23  	jalr	0x236(ra) <_ZN2os2mm7address20SimpleRange$LT$T$GT$3new17h4b9d2cb0508948e1E>
8020412c: 23 34 a4 f8  	sd	a0, -0x78(s0)
80204130: 23 38 b4 f8  	sd	a1, -0x70(s0)
80204134: 13 05 04 fc  	addi	a0, s0, -0x40
80204138: 97 10 00 00  	auipc	ra, 0x1
8020413c: e7 80 60 2a  	jalr	0x2a6(ra) <_ZN5alloc11collections5btree3map21BTreeMap$LT$K$C$V$GT$3new17hb675fd87c3740b33E>
80204140: 03 36 84 f8  	ld	a2, -0x78(s0)
80204144: 83 35 04 f9  	ld	a1, -0x70(s0)
80204148: 83 36 84 f9  	ld	a3, -0x68(s0)
8020414c: 03 35 04 fa  	ld	a0, -0x60(s0)
80204150: 03 37 84 fa  	ld	a4, -0x58(s0)
80204154: 10 e1        	sd	a2, 0x0(a0)
80204156: 0c e5        	sd	a1, 0x8(a0)
80204158: 83 35 04 fd  	ld	a1, -0x30(s0)
8020415c: 0c f1        	sd	a1, 0x20(a0)
8020415e: 83 35 84 fc  	ld	a1, -0x38(s0)
80204162: 0c ed        	sd	a1, 0x18(a0)
80204164: 83 35 04 fc  	ld	a1, -0x40(s0)
80204168: 0c e9        	sd	a1, 0x10(a0)
8020416a: a3 04 d5 02  	sb	a3, 0x29(a0)
8020416e: 23 04 e5 02  	sb	a4, 0x28(a0)
80204172: e6 70        	ld	ra, 0x78(sp)
80204174: 46 74        	ld	s0, 0x70(sp)
80204176: 09 61        	addi	sp, sp, 0x80
80204178: 82 80        	ret

000000008020417a <_ZN2os2mm10memory_set7MapArea7map_one17h0f377d6df836f1cbE>:
8020417a: 75 71        	addi	sp, sp, -0x90
8020417c: 06 e5        	sd	ra, 0x88(sp)
8020417e: 22 e1        	sd	s0, 0x80(sp)
80204180: 00 09        	addi	s0, sp, 0x90
80204182: 23 3c c4 f6  	sd	a2, -0x88(s0)
80204186: 23 30 b4 f8  	sd	a1, -0x80(s0)
8020418a: 23 34 a4 f8  	sd	a0, -0x78(s0)
8020418e: 23 34 a4 fa  	sd	a0, -0x58(s0)
80204192: 23 38 b4 fa  	sd	a1, -0x50(s0)
80204196: 23 3c c4 fa  	sd	a2, -0x48(s0)
8020419a: 03 45 95 02  	lbu	a0, 0x29(a0)
8020419e: 05 89        	andi	a0, a0, 0x1
802041a0: 19 e5        	bnez	a0, 0x802041ae <_ZN2os2mm10memory_set7MapArea7map_one17h0f377d6df836f1cbE+0x34>
802041a2: 09 a0        	j	0x802041a4 <_ZN2os2mm10memory_set7MapArea7map_one17h0f377d6df836f1cbE+0x2a>
802041a4: 03 35 84 f7  	ld	a0, -0x88(s0)
802041a8: 23 38 a4 f8  	sd	a0, -0x70(s0)
802041ac: 8d a0        	j	0x8020420e <.Lpcrel_hi67+0x48>
802041ae: 97 20 00 00  	auipc	ra, 0x2
802041b2: e7 80 c0 df  	jalr	-0x204(ra) <_ZN2os2mm15frame_allocator11frame_alloc17h235cd4bb599a6e3aE>
802041b6: 23 38 a4 fc  	sd	a0, -0x30(s0)
802041ba: 23 3c b4 fc  	sd	a1, -0x28(s0)
802041be: 03 35 04 fd  	ld	a0, -0x30(s0)
802041c2: 11 e9        	bnez	a0, 0x802041d6 <.Lpcrel_hi67+0x10>
802041c4: 09 a0        	j	0x802041c6 <.Lpcrel_hi67>

00000000802041c6 <.Lpcrel_hi67>:
802041c6: 17 d5 01 00  	auipc	a0, 0x1d
802041ca: 13 05 a5 5d  	addi	a0, a0, 0x5da
802041ce: 97 a0 01 00  	auipc	ra, 0x1a
802041d2: e7 80 60 87  	jalr	-0x78a(ra) <_ZN4core6option13unwrap_failed17h29a7a5e83cb350cbE>
802041d6: 83 35 84 f7  	ld	a1, -0x88(s0)
802041da: 03 35 84 f8  	ld	a0, -0x78(s0)
802041de: 03 36 84 fd  	ld	a2, -0x28(s0)
802041e2: 23 30 c4 fe  	sd	a2, -0x20(s0)
802041e6: 23 30 c4 fc  	sd	a2, -0x40(s0)
802041ea: 23 38 c4 f8  	sd	a2, -0x70(s0)
802041ee: 41 05        	addi	a0, a0, 0x10
802041f0: 97 10 00 00  	auipc	ra, 0x1
802041f4: e7 80 20 4e  	jalr	0x4e2(ra) <_ZN5alloc11collections5btree3map25BTreeMap$LT$K$C$V$C$A$GT$6insert17h57df6ac9e2ec1983E>
802041f8: 23 3c a4 f8  	sd	a0, -0x68(s0)
802041fc: 23 30 b4 fa  	sd	a1, -0x60(s0)
80204200: 13 05 84 f9  	addi	a0, s0, -0x68
80204204: 97 60 00 00  	auipc	ra, 0x6
80204208: e7 80 a0 89  	jalr	-0x766(ra) <_ZN4core3ptr86drop_in_place$LT$core..option..Option$LT$os..mm..frame_allocator..FrameTracker$GT$$GT$17h1e1a647495d3d7c1E>
8020420c: 09 a0        	j	0x8020420e <.Lpcrel_hi67+0x48>
8020420e: 03 35 84 f8  	ld	a0, -0x78(s0)
80204212: 03 45 85 02  	lbu	a0, 0x28(a0)
80204216: 97 60 00 00  	auipc	ra, 0x6
8020421a: e7 80 c0 55  	jalr	0x55c(ra) <_ZN2os2mm10page_table8PTEFlags9from_bits17hc94015b902d33d40E>
8020421e: 05 89        	andi	a0, a0, 0x1
80204220: a3 06 a4 fe  	sb	a0, -0x13(s0)
80204224: 23 07 b4 fe  	sb	a1, -0x12(s0)
80204228: 03 45 d4 fe  	lbu	a0, -0x13(s0)
8020422c: 05 89        	andi	a0, a0, 0x1
8020422e: 11 e9        	bnez	a0, 0x80204242 <.Lpcrel_hi68+0x10>
80204230: 09 a0        	j	0x80204232 <.Lpcrel_hi68>

0000000080204232 <.Lpcrel_hi68>:
80204232: 17 d5 01 00  	auipc	a0, 0x1d
80204236: 13 05 65 58  	addi	a0, a0, 0x586
8020423a: 97 a0 01 00  	auipc	ra, 0x1a
8020423e: e7 80 a0 80  	jalr	-0x7f6(ra) <_ZN4core6option13unwrap_failed17h29a7a5e83cb350cbE>
80204242: 83 35 84 f7  	ld	a1, -0x88(s0)
80204246: 03 35 04 f8  	ld	a0, -0x80(s0)
8020424a: 83 46 e4 fe  	lbu	a3, -0x12(s0)
8020424e: a3 07 d4 fe  	sb	a3, -0x11(s0)
80204252: a3 07 d4 fc  	sb	a3, -0x31(s0)
80204256: 03 36 04 f9  	ld	a2, -0x70(s0)
8020425a: 97 60 00 00  	auipc	ra, 0x6
8020425e: e7 80 c0 ff  	jalr	-0x4(ra) <_ZN2os2mm10page_table9PageTable3map17h9e53dd0e41dabcb8E>
80204262: aa 60        	ld	ra, 0x88(sp)
80204264: 0a 64        	ld	s0, 0x80(sp)
80204266: 49 61        	addi	sp, sp, 0x90
80204268: 82 80        	ret

000000008020426a <_ZN2os2mm10memory_set7MapArea9unmap_one17h555e47db55114ba8E>:
8020426a: 5d 71        	addi	sp, sp, -0x50
8020426c: 86 e4        	sd	ra, 0x48(sp)
8020426e: a2 e0        	sd	s0, 0x40(sp)
80204270: 80 08        	addi	s0, sp, 0x50
80204272: 23 3c b4 fa  	sd	a1, -0x48(s0)
80204276: 23 30 a4 fc  	sd	a0, -0x40(s0)
8020427a: 23 34 c4 fc  	sd	a2, -0x38(s0)
8020427e: 23 30 a4 fe  	sd	a0, -0x20(s0)
80204282: 23 34 b4 fe  	sd	a1, -0x18(s0)
80204286: 13 05 95 02  	addi	a0, a0, 0x29

000000008020428a <.Lpcrel_hi69>:
8020428a: 97 d5 01 00  	auipc	a1, 0x1d
8020428e: 93 85 65 54  	addi	a1, a1, 0x546
80204292: 97 00 00 00  	auipc	ra, 0x0
80204296: e7 80 c0 79  	jalr	0x79c(ra) <_ZN68_$LT$os..mm..memory_set..MapType$u20$as$u20$core..cmp..PartialEq$GT$2eq17h3c4def4430d41f8dE>
8020429a: 11 ed        	bnez	a0, 0x802042b6 <.Lpcrel_hi69+0x2c>
8020429c: 09 a0        	j	0x8020429e <.Lpcrel_hi69+0x14>
8020429e: 03 35 84 fb  	ld	a0, -0x48(s0)
802042a2: 83 35 84 fc  	ld	a1, -0x38(s0)
802042a6: 97 60 00 00  	auipc	ra, 0x6
802042aa: e7 80 c0 0b  	jalr	0xbc(ra) <_ZN2os2mm10page_table9PageTable5unmap17h61940a6bc6a2e095E>
802042ae: a6 60        	ld	ra, 0x48(sp)
802042b0: 06 64        	ld	s0, 0x40(sp)
802042b2: 61 61        	addi	sp, sp, 0x50
802042b4: 82 80        	ret
802042b6: 03 35 04 fc  	ld	a0, -0x40(s0)
802042ba: 41 05        	addi	a0, a0, 0x10
802042bc: 93 05 84 fc  	addi	a1, s0, -0x38
802042c0: 97 10 00 00  	auipc	ra, 0x1
802042c4: e7 80 40 4e  	jalr	0x4e4(ra) <_ZN5alloc11collections5btree3map25BTreeMap$LT$K$C$V$C$A$GT$6remove17hf9a59a658f0d8602E>
802042c8: 23 38 a4 fc  	sd	a0, -0x30(s0)
802042cc: 23 3c b4 fc  	sd	a1, -0x28(s0)
802042d0: 13 05 04 fd  	addi	a0, s0, -0x30
802042d4: 97 50 00 00  	auipc	ra, 0x5
802042d8: e7 80 a0 7c  	jalr	0x7ca(ra) <_ZN4core3ptr86drop_in_place$LT$core..option..Option$LT$os..mm..frame_allocator..FrameTracker$GT$$GT$17h1e1a647495d3d7c1E>
802042dc: c9 b7        	j	0x8020429e <.Lpcrel_hi69+0x14>

00000000802042de <_ZN2os2mm10memory_set7MapArea3map17he5039933bd5e0cd7E>:
802042de: 1d 71        	addi	sp, sp, -0x60
802042e0: 86 ec        	sd	ra, 0x58(sp)
802042e2: a2 e8        	sd	s0, 0x50(sp)
802042e4: 80 10        	addi	s0, sp, 0x60
802042e6: 23 34 b4 fa  	sd	a1, -0x58(s0)
802042ea: aa 85        	mv	a1, a0
802042ec: 03 35 84 fa  	ld	a0, -0x58(s0)
802042f0: 23 38 b4 fa  	sd	a1, -0x50(s0)
802042f4: 23 3c b4 fc  	sd	a1, -0x28(s0)
802042f8: 23 30 a4 fe  	sd	a0, -0x20(s0)
802042fc: 88 61        	ld	a0, 0x0(a1)
802042fe: 8c 65        	ld	a1, 0x8(a1)
80204300: 97 10 01 00  	auipc	ra, 0x11
80204304: e7 80 a0 15  	jalr	0x15a(ra) <_ZN99_$LT$os..mm..address..SimpleRange$LT$T$GT$$u20$as$u20$core..iter..traits..collect..IntoIterator$GT$9into_iter17h96a7171d5c55d248E>
80204308: 23 3c a4 fa  	sd	a0, -0x48(s0)
8020430c: 23 30 b4 fc  	sd	a1, -0x40(s0)
80204310: 09 a0        	j	0x80204312 <_ZN2os2mm10memory_set7MapArea3map17he5039933bd5e0cd7E+0x34>
80204312: 13 05 84 fb  	addi	a0, s0, -0x48
80204316: 97 10 01 00  	auipc	ra, 0x11
8020431a: e7 80 c0 17  	jalr	0x17c(ra) <_ZN104_$LT$os..mm..address..SimpleRangeIterator$LT$T$GT$$u20$as$u20$core..iter..traits..iterator..Iterator$GT$4next17hcdca8ef681b8851dE>
8020431e: 23 34 a4 fc  	sd	a0, -0x38(s0)
80204322: 23 38 b4 fc  	sd	a1, -0x30(s0)
80204326: 03 35 84 fc  	ld	a0, -0x38(s0)
8020432a: 11 e5        	bnez	a0, 0x80204336 <_ZN2os2mm10memory_set7MapArea3map17he5039933bd5e0cd7E+0x58>
8020432c: 09 a0        	j	0x8020432e <_ZN2os2mm10memory_set7MapArea3map17he5039933bd5e0cd7E+0x50>
8020432e: e6 60        	ld	ra, 0x58(sp)
80204330: 46 64        	ld	s0, 0x50(sp)
80204332: 25 61        	addi	sp, sp, 0x60
80204334: 82 80        	ret
80204336: 83 35 84 fa  	ld	a1, -0x58(s0)
8020433a: 03 35 04 fb  	ld	a0, -0x50(s0)
8020433e: 03 36 04 fd  	ld	a2, -0x30(s0)
80204342: 23 34 c4 fe  	sd	a2, -0x18(s0)
80204346: 97 00 00 00  	auipc	ra, 0x0
8020434a: e7 80 40 e3  	jalr	-0x1cc(ra) <_ZN2os2mm10memory_set7MapArea7map_one17h0f377d6df836f1cbE>
8020434e: d1 b7        	j	0x80204312 <_ZN2os2mm10memory_set7MapArea3map17he5039933bd5e0cd7E+0x34>

0000000080204350 <_ZN2os2mm10memory_set7MapArea9shrink_to17haf62926a5c47a45cE>:
80204350: 59 71        	addi	sp, sp, -0x70
80204352: 86 f4        	sd	ra, 0x68(sp)
80204354: a2 f0        	sd	s0, 0x60(sp)
80204356: 80 18        	addi	s0, sp, 0x70
80204358: 23 34 c4 fa  	sd	a2, -0x58(s0)
8020435c: 23 3c b4 f8  	sd	a1, -0x68(s0)
80204360: 23 30 a4 fa  	sd	a0, -0x60(s0)
80204364: 23 38 a4 fc  	sd	a0, -0x30(s0)
80204368: 23 3c b4 fc  	sd	a1, -0x28(s0)
8020436c: 23 30 c4 fe  	sd	a2, -0x20(s0)
80204370: 97 10 01 00  	auipc	ra, 0x11
80204374: e7 80 40 0d  	jalr	0xd4(ra) <_ZN2os2mm7address20SimpleRange$LT$T$GT$7get_end17h81b1a7b276637b04E>
80204378: aa 85        	mv	a1, a0
8020437a: 03 35 84 fa  	ld	a0, -0x58(s0)
8020437e: 97 10 01 00  	auipc	ra, 0x11
80204382: e7 80 c0 fd  	jalr	-0x24(ra) <_ZN2os2mm7address20SimpleRange$LT$T$GT$3new17h4b9d2cb0508948e1E>
80204386: 97 10 01 00  	auipc	ra, 0x11
8020438a: e7 80 40 0d  	jalr	0xd4(ra) <_ZN99_$LT$os..mm..address..SimpleRange$LT$T$GT$$u20$as$u20$core..iter..traits..collect..IntoIterator$GT$9into_iter17h96a7171d5c55d248E>
8020438e: 23 38 a4 fa  	sd	a0, -0x50(s0)
80204392: 23 3c b4 fa  	sd	a1, -0x48(s0)
80204396: 09 a0        	j	0x80204398 <_ZN2os2mm10memory_set7MapArea9shrink_to17haf62926a5c47a45cE+0x48>
80204398: 13 05 04 fb  	addi	a0, s0, -0x50
8020439c: 97 10 01 00  	auipc	ra, 0x11
802043a0: e7 80 60 0f  	jalr	0xf6(ra) <_ZN104_$LT$os..mm..address..SimpleRangeIterator$LT$T$GT$$u20$as$u20$core..iter..traits..iterator..Iterator$GT$4next17hcdca8ef681b8851dE>
802043a4: 23 30 a4 fc  	sd	a0, -0x40(s0)
802043a8: 23 34 b4 fc  	sd	a1, -0x38(s0)
802043ac: 03 35 04 fc  	ld	a0, -0x40(s0)
802043b0: 1d e5        	bnez	a0, 0x802043de <_ZN2os2mm10memory_set7MapArea9shrink_to17haf62926a5c47a45cE+0x8e>
802043b2: 09 a0        	j	0x802043b4 <_ZN2os2mm10memory_set7MapArea9shrink_to17haf62926a5c47a45cE+0x64>
802043b4: 03 35 04 fa  	ld	a0, -0x60(s0)
802043b8: 97 10 01 00  	auipc	ra, 0x11
802043bc: e7 80 60 07  	jalr	0x76(ra) <_ZN2os2mm7address20SimpleRange$LT$T$GT$9get_start17h16afe3a1b72cb68cE>
802043c0: 83 35 84 fa  	ld	a1, -0x58(s0)
802043c4: 97 10 01 00  	auipc	ra, 0x11
802043c8: e7 80 60 f9  	jalr	-0x6a(ra) <_ZN2os2mm7address20SimpleRange$LT$T$GT$3new17h4b9d2cb0508948e1E>
802043cc: 2a 86        	mv	a2, a0
802043ce: 03 35 04 fa  	ld	a0, -0x60(s0)
802043d2: 10 e1        	sd	a2, 0x0(a0)
802043d4: 0c e5        	sd	a1, 0x8(a0)
802043d6: a6 70        	ld	ra, 0x68(sp)
802043d8: 06 74        	ld	s0, 0x60(sp)
802043da: 65 61        	addi	sp, sp, 0x70
802043dc: 82 80        	ret
802043de: 83 35 84 f9  	ld	a1, -0x68(s0)
802043e2: 03 35 04 fa  	ld	a0, -0x60(s0)
802043e6: 03 36 84 fc  	ld	a2, -0x38(s0)
802043ea: 23 34 c4 fe  	sd	a2, -0x18(s0)
802043ee: 97 00 00 00  	auipc	ra, 0x0
802043f2: e7 80 c0 e7  	jalr	-0x184(ra) <_ZN2os2mm10memory_set7MapArea9unmap_one17h555e47db55114ba8E>
802043f6: 4d b7        	j	0x80204398 <_ZN2os2mm10memory_set7MapArea9shrink_to17haf62926a5c47a45cE+0x48>

00000000802043f8 <_ZN2os2mm10memory_set7MapArea9append_to17h91a01667bc82d2e3E>:
802043f8: 59 71        	addi	sp, sp, -0x70
802043fa: 86 f4        	sd	ra, 0x68(sp)
802043fc: a2 f0        	sd	s0, 0x60(sp)
802043fe: 80 18        	addi	s0, sp, 0x70
80204400: 23 34 c4 fa  	sd	a2, -0x58(s0)
80204404: 23 3c b4 f8  	sd	a1, -0x68(s0)
80204408: 23 30 a4 fa  	sd	a0, -0x60(s0)
8020440c: 23 38 a4 fc  	sd	a0, -0x30(s0)
80204410: 23 3c b4 fc  	sd	a1, -0x28(s0)
80204414: 23 30 c4 fe  	sd	a2, -0x20(s0)
80204418: 97 10 01 00  	auipc	ra, 0x11
8020441c: e7 80 c0 02  	jalr	0x2c(ra) <_ZN2os2mm7address20SimpleRange$LT$T$GT$7get_end17h81b1a7b276637b04E>
80204420: 83 35 84 fa  	ld	a1, -0x58(s0)
80204424: 97 10 01 00  	auipc	ra, 0x11
80204428: e7 80 60 f3  	jalr	-0xca(ra) <_ZN2os2mm7address20SimpleRange$LT$T$GT$3new17h4b9d2cb0508948e1E>
8020442c: 97 10 01 00  	auipc	ra, 0x11
80204430: e7 80 e0 02  	jalr	0x2e(ra) <_ZN99_$LT$os..mm..address..SimpleRange$LT$T$GT$$u20$as$u20$core..iter..traits..collect..IntoIterator$GT$9into_iter17h96a7171d5c55d248E>
80204434: 23 38 a4 fa  	sd	a0, -0x50(s0)
80204438: 23 3c b4 fa  	sd	a1, -0x48(s0)
8020443c: 09 a0        	j	0x8020443e <_ZN2os2mm10memory_set7MapArea9append_to17h91a01667bc82d2e3E+0x46>
8020443e: 13 05 04 fb  	addi	a0, s0, -0x50
80204442: 97 10 01 00  	auipc	ra, 0x11
80204446: e7 80 00 05  	jalr	0x50(ra) <_ZN104_$LT$os..mm..address..SimpleRangeIterator$LT$T$GT$$u20$as$u20$core..iter..traits..iterator..Iterator$GT$4next17hcdca8ef681b8851dE>
8020444a: 23 30 a4 fc  	sd	a0, -0x40(s0)
8020444e: 23 34 b4 fc  	sd	a1, -0x38(s0)
80204452: 03 35 04 fc  	ld	a0, -0x40(s0)
80204456: 1d e5        	bnez	a0, 0x80204484 <_ZN2os2mm10memory_set7MapArea9append_to17h91a01667bc82d2e3E+0x8c>
80204458: 09 a0        	j	0x8020445a <_ZN2os2mm10memory_set7MapArea9append_to17h91a01667bc82d2e3E+0x62>
8020445a: 03 35 04 fa  	ld	a0, -0x60(s0)
8020445e: 97 10 01 00  	auipc	ra, 0x11
80204462: e7 80 00 fd  	jalr	-0x30(ra) <_ZN2os2mm7address20SimpleRange$LT$T$GT$9get_start17h16afe3a1b72cb68cE>
80204466: 83 35 84 fa  	ld	a1, -0x58(s0)
8020446a: 97 10 01 00  	auipc	ra, 0x11
8020446e: e7 80 00 ef  	jalr	-0x110(ra) <_ZN2os2mm7address20SimpleRange$LT$T$GT$3new17h4b9d2cb0508948e1E>
80204472: 2a 86        	mv	a2, a0
80204474: 03 35 04 fa  	ld	a0, -0x60(s0)
80204478: 10 e1        	sd	a2, 0x0(a0)
8020447a: 0c e5        	sd	a1, 0x8(a0)
8020447c: a6 70        	ld	ra, 0x68(sp)
8020447e: 06 74        	ld	s0, 0x60(sp)
80204480: 65 61        	addi	sp, sp, 0x70
80204482: 82 80        	ret
80204484: 83 35 84 f9  	ld	a1, -0x68(s0)
80204488: 03 35 04 fa  	ld	a0, -0x60(s0)
8020448c: 03 36 84 fc  	ld	a2, -0x38(s0)
80204490: 23 34 c4 fe  	sd	a2, -0x18(s0)
80204494: 97 00 00 00  	auipc	ra, 0x0
80204498: e7 80 60 ce  	jalr	-0x31a(ra) <_ZN2os2mm10memory_set7MapArea7map_one17h0f377d6df836f1cbE>
8020449c: 4d b7        	j	0x8020443e <_ZN2os2mm10memory_set7MapArea9append_to17h91a01667bc82d2e3E+0x46>

000000008020449e <_ZN2os2mm10memory_set7MapArea9copy_data17h3b53405329cb92f4E>:
8020449e: 05 71        	addi	sp, sp, -0x1e0
802044a0: 86 ef        	sd	ra, 0x1d8(sp)
802044a2: a2 eb        	sd	s0, 0x1d0(sp)
802044a4: 80 13        	addi	s0, sp, 0x1e0
802044a6: 23 34 d4 e6  	sd	a3, -0x198(s0)
802044aa: 23 38 c4 e6  	sd	a2, -0x190(s0)
802044ae: 23 3c b4 e6  	sd	a1, -0x188(s0)
802044b2: 23 30 a4 e8  	sd	a0, -0x180(s0)
802044b6: 23 3c a4 ee  	sd	a0, -0x108(s0)
802044ba: 23 30 b4 f0  	sd	a1, -0x100(s0)
802044be: 23 34 c4 f0  	sd	a2, -0xf8(s0)
802044c2: 23 38 d4 f0  	sd	a3, -0xf0(s0)
802044c6: 13 05 95 02  	addi	a0, a0, 0x29
802044ca: 23 34 a4 e8  	sd	a0, -0x178(s0)
802044ce: 23 3c a4 f0  	sd	a0, -0xe8(s0)

00000000802044d2 <.Lpcrel_hi70>:
802044d2: 97 d5 01 00  	auipc	a1, 0x1d
802044d6: 93 85 e5 2f  	addi	a1, a1, 0x2fe
802044da: 23 30 b4 f2  	sd	a1, -0xe0(s0)
802044de: 97 00 00 00  	auipc	ra, 0x0
802044e2: e7 80 00 55  	jalr	0x550(ra) <_ZN68_$LT$os..mm..memory_set..MapType$u20$as$u20$core..cmp..PartialEq$GT$2eq17h3c4def4430d41f8dE>
802044e6: 0d e9        	bnez	a0, 0x80204518 <.Lpcrel_hi72+0x14>
802044e8: 09 a0        	j	0x802044ea <.Lpcrel_hi70+0x18>
802044ea: 83 35 84 e8  	ld	a1, -0x178(s0)
802044ee: 01 45        	li	a0, 0x0
802044f0: a3 0b a4 e8  	sb	a0, -0x169(s0)
802044f4: 23 3c a4 e8  	sd	a0, -0x168(s0)
802044f8: 03 45 74 e9  	lbu	a0, -0x169(s0)

00000000802044fc <.Lpcrel_hi71>:
802044fc: 17 d6 01 00  	auipc	a2, 0x1d
80204500: 13 06 46 2d  	addi	a2, a2, 0x2d4

0000000080204504 <.Lpcrel_hi72>:
80204504: 97 d6 01 00  	auipc	a3, 0x1d
80204508: 13 87 46 2d  	addi	a4, a3, 0x2d4
8020450c: 93 06 84 e9  	addi	a3, s0, -0x168
80204510: 97 30 01 00  	auipc	ra, 0x13
80204514: e7 80 80 36  	jalr	0x368(ra) <_ZN4core9panicking13assert_failed17hb59738164bfa957fE>
80204518: 03 35 04 e8  	ld	a0, -0x180(s0)
8020451c: 81 45        	li	a1, 0x0
8020451e: 23 34 b4 ec  	sd	a1, -0x138(s0)
80204522: 97 10 01 00  	auipc	ra, 0x11
80204526: e7 80 c0 f0  	jalr	-0xf4(ra) <_ZN2os2mm7address20SimpleRange$LT$T$GT$9get_start17h16afe3a1b72cb68cE>
8020452a: aa 85        	mv	a1, a0
8020452c: 03 35 84 e6  	ld	a0, -0x198(s0)
80204530: 23 38 b4 ec  	sd	a1, -0x130(s0)
80204534: 23 34 a4 f2  	sd	a0, -0xd8(s0)
80204538: 09 a0        	j	0x8020453a <.Lpcrel_hi72+0x36>
8020453a: 83 35 84 ec  	ld	a1, -0x138(s0)
8020453e: 23 3c b4 e4  	sd	a1, -0x1a8(s0)
80204542: 05 65        	lui	a0, 0x1
80204544: 2e 95        	add	a0, a0, a1
80204546: 23 30 a4 e6  	sd	a0, -0x1a0(s0)
8020454a: 63 6c b5 18  	bltu	a0, a1, 0x802046e2 <.Lpcrel_hi78>
8020454e: 09 a0        	j	0x80204550 <.Lpcrel_hi72+0x4c>
80204550: 03 35 84 e6  	ld	a0, -0x198(s0)
80204554: 83 35 04 e6  	ld	a1, -0x1a0(s0)
80204558: 97 70 01 00  	auipc	ra, 0x17
8020455c: e7 80 a0 cf  	jalr	-0x306(ra) <_ZN4core3cmp3Ord3min17h571d10e5e850cd8cE>
80204560: 83 36 04 e7  	ld	a3, -0x190(s0)
80204564: 03 36 84 e6  	ld	a2, -0x198(s0)
80204568: 83 35 84 e5  	ld	a1, -0x1a8(s0)
8020456c: 2a 87        	mv	a4, a0
8020456e: 23 38 e4 e4  	sd	a4, -0x1b0(s0)
80204572: 23 3c d4 f4  	sd	a3, -0xa8(s0)
80204576: 23 30 c4 f6  	sd	a2, -0xa0(s0)
8020457a: 23 34 b4 f6  	sd	a1, -0x98(s0)
8020457e: 23 38 a4 f6  	sd	a0, -0x90(s0)
80204582: 23 34 b4 f8  	sd	a1, -0x78(s0)
80204586: 23 38 a4 f8  	sd	a0, -0x70(s0)
8020458a: 23 3c d4 f8  	sd	a3, -0x68(s0)
8020458e: 23 30 c4 fa  	sd	a2, -0x60(s0)
80204592: 23 34 a4 fa  	sd	a0, -0x58(s0)
80204596: 23 38 b4 fa  	sd	a1, -0x50(s0)
8020459a: 63 69 b5 02  	bltu	a0, a1, 0x802045cc <.Lpcrel_hi72+0xc8>
8020459e: 09 a0        	j	0x802045a0 <.Lpcrel_hi72+0x9c>
802045a0: 03 35 84 e6  	ld	a0, -0x198(s0)
802045a4: 83 35 04 e5  	ld	a1, -0x1b0(s0)
802045a8: 03 36 84 e5  	ld	a2, -0x1a8(s0)
802045ac: 33 86 c5 40  	sub	a2, a1, a2
802045b0: 23 30 c4 f8  	sd	a2, -0x80(s0)
802045b4: 05 46        	li	a2, 0x1
802045b6: 23 3c c4 f6  	sd	a2, -0x88(s0)
802045ba: 03 36 04 f8  	ld	a2, -0x80(s0)
802045be: 23 34 c4 e4  	sd	a2, -0x1b8(s0)
802045c2: 23 3c c4 fa  	sd	a2, -0x48(s0)
802045c6: 63 6f b5 00  	bltu	a0, a1, 0x802045e4 <.Lpcrel_hi73+0x10>
802045ca: 0d a8        	j	0x802045fc <.Lpcrel_hi74+0x10>
802045cc: 83 35 04 e5  	ld	a1, -0x1b0(s0)
802045d0: 03 35 84 e5  	ld	a0, -0x1a8(s0)

00000000802045d4 <.Lpcrel_hi73>:
802045d4: 17 d6 01 00  	auipc	a2, 0x1d
802045d8: 13 06 46 23  	addi	a2, a2, 0x234
802045dc: 97 b0 01 00  	auipc	ra, 0x1b
802045e0: e7 80 40 da  	jalr	-0x25c(ra) <_ZN4core5slice5index22slice_index_order_fail17hf09b0b7a53938aafE>
802045e4: 83 35 84 e6  	ld	a1, -0x198(s0)
802045e8: 03 35 04 e5  	ld	a0, -0x1b0(s0)

00000000802045ec <.Lpcrel_hi74>:
802045ec: 17 d6 01 00  	auipc	a2, 0x1d
802045f0: 13 06 c6 21  	addi	a2, a2, 0x21c
802045f4: 97 b0 01 00  	auipc	ra, 0x1b
802045f8: e7 80 c0 d2  	jalr	-0x2d4(ra) <_ZN4core5slice5index24slice_end_index_len_fail17h640854624d3f09d0E>
802045fc: 83 35 84 e7  	ld	a1, -0x188(s0)
80204600: 03 35 84 e4  	ld	a0, -0x1b8(s0)
80204604: 03 36 04 e7  	ld	a2, -0x190(s0)
80204608: 83 36 84 e5  	ld	a3, -0x1a8(s0)
8020460c: 23 30 c4 fc  	sd	a2, -0x40(s0)
80204610: 36 96        	add	a2, a2, a3
80204612: 23 3c c4 e2  	sd	a2, -0x1c8(s0)
80204616: 23 34 c4 fc  	sd	a2, -0x38(s0)
8020461a: aa 86        	mv	a3, a0
8020461c: 23 30 d4 e4  	sd	a3, -0x1c0(s0)
80204620: 23 38 c4 f2  	sd	a2, -0xd0(s0)
80204624: 23 3c a4 f2  	sd	a0, -0xc8(s0)
80204628: 03 36 04 ed  	ld	a2, -0x130(s0)
8020462c: 13 05 84 ee  	addi	a0, s0, -0x118
80204630: 97 60 00 00  	auipc	ra, 0x6
80204634: e7 80 80 e1  	jalr	-0x1e8(ra) <_ZN2os2mm10page_table9PageTable9translate17h9e9b3a18c3e6b382E>
80204638: 03 35 84 ee  	ld	a0, -0x118(s0)
8020463c: 11 e9        	bnez	a0, 0x80204650 <.Lpcrel_hi75+0x10>
8020463e: 09 a0        	j	0x80204640 <.Lpcrel_hi75>

0000000080204640 <.Lpcrel_hi75>:
80204640: 17 d5 01 00  	auipc	a0, 0x1d
80204644: 13 05 05 1e  	addi	a0, a0, 0x1e0
80204648: 97 90 01 00  	auipc	ra, 0x19
8020464c: e7 80 c0 3f  	jalr	0x3fc(ra) <_ZN4core6option13unwrap_failed17h29a7a5e83cb350cbE>
80204650: 03 35 04 ef  	ld	a0, -0x110(s0)
80204654: 23 34 a4 fe  	sd	a0, -0x18(s0)
80204658: 03 35 84 fe  	ld	a0, -0x18(s0)
8020465c: 23 30 a4 f4  	sd	a0, -0xc0(s0)
80204660: 03 35 04 f4  	ld	a0, -0xc0(s0)
80204664: 23 30 a4 ee  	sd	a0, -0x120(s0)
80204668: 13 05 04 ee  	addi	a0, s0, -0x120
8020466c: 97 50 00 00  	auipc	ra, 0x5
80204670: e7 80 40 66  	jalr	0x664(ra) <_ZN2os2mm10page_table14PageTableEntry3ppn17h946ad59a57ec7d88E>
80204674: 23 3c a4 ec  	sd	a0, -0x128(s0)
80204678: 13 05 84 ed  	addi	a0, s0, -0x128
8020467c: 97 10 00 00  	auipc	ra, 0x1
80204680: e7 80 60 8d  	jalr	-0x72a(ra) <_ZN2os2mm7address11PhysPageNum15get_bytes_array17h0fdbdbd3866c59a0E>
80204684: 2a 86        	mv	a2, a0
80204686: 03 35 04 e4  	ld	a0, -0x1c0(s0)
8020468a: 23 34 c4 e2  	sd	a2, -0x1d8(s0)
8020468e: 2e 86        	mv	a2, a1
80204690: 83 35 84 e2  	ld	a1, -0x1d8(s0)
80204694: 23 38 b4 fc  	sd	a1, -0x30(s0)
80204698: 23 3c c4 fc  	sd	a2, -0x28(s0)
8020469c: 23 30 a4 fe  	sd	a0, -0x20(s0)

00000000802046a0 <.Lpcrel_hi76>:
802046a0: 97 d6 01 00  	auipc	a3, 0x1d
802046a4: 93 86 86 19  	addi	a3, a3, 0x198
802046a8: 97 50 01 00  	auipc	ra, 0x15
802046ac: e7 80 80 b2  	jalr	-0x4d8(ra) <_ZN108_$LT$core..ops..range..RangeTo$LT$usize$GT$$u20$as$u20$core..slice..index..SliceIndex$LT$$u5b$T$u5d$$GT$$GT$9index_mut17hb4a57791f50ad262E>
802046b0: 03 36 84 e3  	ld	a2, -0x1c8(s0)
802046b4: 83 36 04 e4  	ld	a3, -0x1c0(s0)
802046b8: 23 34 a4 f4  	sd	a0, -0xb8(s0)
802046bc: 23 38 b4 f4  	sd	a1, -0xb0(s0)

00000000802046c0 <.Lpcrel_hi77>:
802046c0: 17 d7 01 00  	auipc	a4, 0x1d
802046c4: 13 07 07 19  	addi	a4, a4, 0x190
802046c8: 97 40 01 00  	auipc	ra, 0x14
802046cc: e7 80 a0 25  	jalr	0x25a(ra) <_ZN4core5slice29_$LT$impl$u20$$u5b$T$u5d$$GT$15copy_from_slice17h0a49e2a59257057fE>
802046d0: 83 35 84 ec  	ld	a1, -0x138(s0)
802046d4: 05 65        	lui	a0, 0x1
802046d6: 2e 95        	add	a0, a0, a1
802046d8: 23 38 a4 e2  	sd	a0, -0x1d0(s0)
802046dc: 63 66 b5 02  	bltu	a0, a1, 0x80204708 <.Lpcrel_hi79>
802046e0: 09 a8        	j	0x802046f2 <.Lpcrel_hi78+0x10>

00000000802046e2 <.Lpcrel_hi78>:
802046e2: 17 d5 01 00  	auipc	a0, 0x1d
802046e6: 13 05 e5 10  	addi	a0, a0, 0x10e
802046ea: 97 b0 01 00  	auipc	ra, 0x1b
802046ee: e7 80 80 7b  	jalr	0x7b8(ra) <_ZN4core9panicking11panic_const24panic_const_add_overflow17h8b73966d6acdc0c6E>
802046f2: 83 35 84 e6  	ld	a1, -0x198(s0)
802046f6: 03 35 04 e3  	ld	a0, -0x1d0(s0)
802046fa: 23 34 a4 ec  	sd	a0, -0x138(s0)
802046fe: 03 35 84 ec  	ld	a0, -0x138(s0)
80204702: 63 72 b5 02  	bgeu	a0, a1, 0x80204726 <.Lpcrel_hi79+0x1e>
80204706: 09 a8        	j	0x80204718 <.Lpcrel_hi79+0x10>

0000000080204708 <.Lpcrel_hi79>:
80204708: 17 d5 01 00  	auipc	a0, 0x1d
8020470c: 13 05 05 16  	addi	a0, a0, 0x160
80204710: 97 b0 01 00  	auipc	ra, 0x1b
80204714: e7 80 20 79  	jalr	0x792(ra) <_ZN4core9panicking11panic_const24panic_const_add_overflow17h8b73966d6acdc0c6E>
80204718: 13 05 04 ed  	addi	a0, s0, -0x130
8020471c: 97 10 00 00  	auipc	ra, 0x1
80204720: e7 80 20 c0  	jalr	-0x3fe(ra) <_ZN75_$LT$os..mm..address..VirtPageNum$u20$as$u20$os..mm..address..StepByOne$GT$4step17hdfa2309f6e259f17E>
80204724: 19 bd        	j	0x8020453a <.Lpcrel_hi72+0x36>
80204726: fe 60        	ld	ra, 0x1d8(sp)
80204728: 5e 64        	ld	s0, 0x1d0(sp)
8020472a: 3d 61        	addi	sp, sp, 0x1e0
8020472c: 82 80        	ret

000000008020472e <_ZN2os2mm10memory_set10remap_test17h3ec9cdb786757a2cE>:
8020472e: 2d 71        	addi	sp, sp, -0x120
80204730: 06 ee        	sd	ra, 0x118(sp)
80204732: 22 ea        	sd	s0, 0x110(sp)
80204734: 00 12        	addi	s0, sp, 0x120

0000000080204736 <.Lpcrel_hi80>:
80204736: 17 d5 01 00  	auipc	a0, 0x1d
8020473a: 13 05 25 3b  	addi	a0, a0, 0x3b2
8020473e: 97 00 00 00  	auipc	ra, 0x0
80204742: e7 80 80 2c  	jalr	0x2c8(ra) <_ZN76_$LT$os..mm..memory_set..KERNEL_SPACE$u20$as$u20$core..ops..deref..Deref$GT$5deref17hc847af723869bfd1E>
80204746: 97 30 01 00  	auipc	ra, 0x13
8020474a: e7 80 80 a0  	jalr	-0x5f8(ra) <_ZN73_$LT$alloc..sync..Arc$LT$T$C$A$GT$$u20$as$u20$core..ops..deref..Deref$GT$5deref17h652c9d844169364fE>
8020474e: 97 30 01 00  	auipc	ra, 0x13
80204752: e7 80 60 8b  	jalr	-0x74a(ra) <_ZN2os4sync2up19UPSafeCell$LT$T$GT$16exclusive_access17h7b67dfe7a9245e2aE>
80204756: 23 30 a4 f2  	sd	a0, -0xe0(s0)
8020475a: 23 34 b4 f2  	sd	a1, -0xd8(s0)

000000008020475e <.Lpcrel_hi81>:
8020475e: 17 d5 01 00  	auipc	a0, 0x1d
80204762: 13 05 25 8a  	addi	a0, a0, -0x75e

0000000080204766 <.Lpcrel_hi82>:
80204766: 97 c5 ff ff  	auipc	a1, 0xffffc
8020476a: 93 85 a5 89  	addi	a1, a1, -0x766
8020476e: 2e 95        	add	a0, a0, a1
80204770: 23 3c a4 f0  	sd	a0, -0xe8(s0)
80204774: 63 6e b5 02  	bltu	a0, a1, 0x802047b0 <.Lpcrel_hi86>
80204778: 09 a0        	j	0x8020477a <.Lpcrel_hi82+0x14>
8020477a: 03 35 84 f1  	ld	a0, -0xe8(s0)
8020477e: 05 81        	srli	a0, a0, 0x1

0000000080204780 <.Lpcrel_hi83>:
80204780: 97 d5 01 00  	auipc	a1, 0x1d
80204784: 93 85 85 11  	addi	a1, a1, 0x118
80204788: 97 10 01 00  	auipc	ra, 0x11
8020478c: e7 80 80 d6  	jalr	-0x298(ra) <_ZN50_$LT$T$u20$as$u20$core..convert..Into$LT$U$GT$$GT$4into17h6fa49f94f91b83d8E>
80204790: 23 38 a4 f2  	sd	a0, -0xd0(s0)

0000000080204794 <.Lpcrel_hi84>:
80204794: 17 35 02 00  	auipc	a0, 0x23
80204798: 13 05 c5 86  	addi	a0, a0, -0x794

000000008020479c <.Lpcrel_hi85>:
8020479c: 97 d5 01 00  	auipc	a1, 0x1d
802047a0: 93 85 45 86  	addi	a1, a1, -0x79c
802047a4: 2e 95        	add	a0, a0, a1
802047a6: 23 38 a4 f0  	sd	a0, -0xf0(s0)
802047aa: 63 66 b5 04  	bltu	a0, a1, 0x802047f6 <.Lpcrel_hi90>
802047ae: 09 a8        	j	0x802047c0 <.Lpcrel_hi86+0x10>

00000000802047b0 <.Lpcrel_hi86>:
802047b0: 17 d5 01 00  	auipc	a0, 0x1d
802047b4: 13 05 05 0d  	addi	a0, a0, 0xd0
802047b8: 97 b0 01 00  	auipc	ra, 0x1b
802047bc: e7 80 a0 6e  	jalr	0x6ea(ra) <_ZN4core9panicking11panic_const24panic_const_add_overflow17h8b73966d6acdc0c6E>
802047c0: 03 35 04 f1  	ld	a0, -0xf0(s0)
802047c4: 05 81        	srli	a0, a0, 0x1

00000000802047c6 <.Lpcrel_hi87>:
802047c6: 97 d5 01 00  	auipc	a1, 0x1d
802047ca: 93 85 25 10  	addi	a1, a1, 0x102
802047ce: 97 10 01 00  	auipc	ra, 0x11
802047d2: e7 80 20 d2  	jalr	-0x2de(ra) <_ZN50_$LT$T$u20$as$u20$core..convert..Into$LT$U$GT$$GT$4into17h6fa49f94f91b83d8E>
802047d6: 23 3c a4 f2  	sd	a0, -0xc8(s0)

00000000802047da <.Lpcrel_hi88>:
802047da: 17 25 07 00  	auipc	a0, 0x72
802047de: 13 05 65 82  	addi	a0, a0, -0x7da

00000000802047e2 <.Lpcrel_hi89>:
802047e2: 97 35 02 00  	auipc	a1, 0x23
802047e6: 93 85 e5 81  	addi	a1, a1, -0x7e2
802047ea: 2e 95        	add	a0, a0, a1
802047ec: 23 34 a4 f0  	sd	a0, -0xf8(s0)
802047f0: 63 6f b5 08  	bltu	a0, a1, 0x8020488e <.Lpcrel_hi93>
802047f4: 09 a8        	j	0x80204806 <.Lpcrel_hi90+0x10>

00000000802047f6 <.Lpcrel_hi90>:
802047f6: 17 d5 01 00  	auipc	a0, 0x1d
802047fa: 13 05 a5 0b  	addi	a0, a0, 0xba
802047fe: 97 b0 01 00  	auipc	ra, 0x1b
80204802: e7 80 40 6a  	jalr	0x6a4(ra) <_ZN4core9panicking11panic_const24panic_const_add_overflow17h8b73966d6acdc0c6E>
80204806: 03 35 84 f0  	ld	a0, -0xf8(s0)
8020480a: 05 81        	srli	a0, a0, 0x1

000000008020480c <.Lpcrel_hi91>:
8020480c: 97 d5 01 00  	auipc	a1, 0x1d
80204810: 93 85 c5 0e  	addi	a1, a1, 0xec
80204814: 97 10 01 00  	auipc	ra, 0x11
80204818: e7 80 c0 cd  	jalr	-0x324(ra) <_ZN50_$LT$T$u20$as$u20$core..convert..Into$LT$U$GT$$GT$4into17h6fa49f94f91b83d8E>
8020481c: 23 30 a4 f4  	sd	a0, -0xc0(s0)
80204820: 13 05 04 f2  	addi	a0, s0, -0xe0
80204824: 97 40 01 00  	auipc	ra, 0x14
80204828: e7 80 c0 9a  	jalr	-0x654(ra) <_ZN71_$LT$core..cell..RefMut$LT$T$GT$$u20$as$u20$core..ops..deref..Deref$GT$5deref17h4a2afb36d04b5b97E>
8020482c: 23 30 a4 f0  	sd	a0, -0x100(s0)
80204830: 13 05 04 f3  	addi	a0, s0, -0xd0
80204834: 97 10 00 00  	auipc	ra, 0x1
80204838: e7 80 a0 8d  	jalr	-0x726(ra) <_ZN2os2mm7address8VirtAddr5floor17h165d09d6a6173ca0E>
8020483c: 83 35 04 f0  	ld	a1, -0x100(s0)
80204840: 2a 86        	mv	a2, a0
80204842: 13 05 04 f5  	addi	a0, s0, -0xb0
80204846: 97 60 00 00  	auipc	ra, 0x6
8020484a: e7 80 20 c0  	jalr	-0x3fe(ra) <_ZN2os2mm10page_table9PageTable9translate17h9e9b3a18c3e6b382E>
8020484e: 03 35 04 f5  	ld	a0, -0xb0(s0)
80204852: 11 e9        	bnez	a0, 0x80204866 <.Lpcrel_hi92+0x10>
80204854: 09 a0        	j	0x80204856 <.Lpcrel_hi92>

0000000080204856 <.Lpcrel_hi92>:
80204856: 17 d5 01 00  	auipc	a0, 0x1d
8020485a: 13 05 a5 0b  	addi	a0, a0, 0xba
8020485e: 97 90 01 00  	auipc	ra, 0x19
80204862: e7 80 60 1e  	jalr	0x1e6(ra) <_ZN4core6option13unwrap_failed17h29a7a5e83cb350cbE>
80204866: 03 35 84 f5  	ld	a0, -0xa8(s0)
8020486a: 23 34 a4 fe  	sd	a0, -0x18(s0)
8020486e: 03 35 84 fe  	ld	a0, -0x18(s0)
80204872: 23 30 a4 fc  	sd	a0, -0x40(s0)
80204876: 03 35 04 fc  	ld	a0, -0x40(s0)
8020487a: 23 34 a4 f4  	sd	a0, -0xb8(s0)
8020487e: 13 05 84 f4  	addi	a0, s0, -0xb8
80204882: 97 50 00 00  	auipc	ra, 0x5
80204886: e7 80 80 50  	jalr	0x508(ra) <_ZN2os2mm10page_table14PageTableEntry8writable17h92ce3fd6fa012b59E>
8020488a: 49 e1        	bnez	a0, 0x8020490c <.Lpcrel_hi95>
8020488c: 09 a8        	j	0x8020489e <.Lpcrel_hi93+0x10>

000000008020488e <.Lpcrel_hi93>:
8020488e: 17 d5 01 00  	auipc	a0, 0x1d
80204892: 13 05 25 05  	addi	a0, a0, 0x52
80204896: 97 b0 01 00  	auipc	ra, 0x1b
8020489a: e7 80 c0 60  	jalr	0x60c(ra) <_ZN4core9panicking11panic_const24panic_const_add_overflow17h8b73966d6acdc0c6E>
8020489e: 13 05 04 f2  	addi	a0, s0, -0xe0
802048a2: 97 40 01 00  	auipc	ra, 0x14
802048a6: e7 80 e0 92  	jalr	-0x6d2(ra) <_ZN71_$LT$core..cell..RefMut$LT$T$GT$$u20$as$u20$core..ops..deref..Deref$GT$5deref17h4a2afb36d04b5b97E>
802048aa: 23 3c a4 ee  	sd	a0, -0x108(s0)
802048ae: 13 05 84 f3  	addi	a0, s0, -0xc8
802048b2: 97 10 00 00  	auipc	ra, 0x1
802048b6: e7 80 c0 85  	jalr	-0x7a4(ra) <_ZN2os2mm7address8VirtAddr5floor17h165d09d6a6173ca0E>
802048ba: 83 35 84 ef  	ld	a1, -0x108(s0)
802048be: 2a 86        	mv	a2, a0
802048c0: 13 05 84 f6  	addi	a0, s0, -0x98
802048c4: 97 60 00 00  	auipc	ra, 0x6
802048c8: e7 80 40 b8  	jalr	-0x47c(ra) <_ZN2os2mm10page_table9PageTable9translate17h9e9b3a18c3e6b382E>
802048cc: 03 35 84 f6  	ld	a0, -0x98(s0)
802048d0: 11 e9        	bnez	a0, 0x802048e4 <.Lpcrel_hi94+0x10>
802048d2: 09 a0        	j	0x802048d4 <.Lpcrel_hi94>

00000000802048d4 <.Lpcrel_hi94>:
802048d4: 17 d5 01 00  	auipc	a0, 0x1d
802048d8: 13 05 45 05  	addi	a0, a0, 0x54
802048dc: 97 90 01 00  	auipc	ra, 0x19
802048e0: e7 80 80 16  	jalr	0x168(ra) <_ZN4core6option13unwrap_failed17h29a7a5e83cb350cbE>
802048e4: 03 35 04 f7  	ld	a0, -0x90(s0)
802048e8: 23 30 a4 fe  	sd	a0, -0x20(s0)
802048ec: 03 35 04 fe  	ld	a0, -0x20(s0)
802048f0: 23 34 a4 fc  	sd	a0, -0x38(s0)
802048f4: 03 35 84 fc  	ld	a0, -0x38(s0)
802048f8: 23 30 a4 f6  	sd	a0, -0xa0(s0)
802048fc: 13 05 04 f6  	addi	a0, s0, -0xa0
80204900: 97 50 00 00  	auipc	ra, 0x5
80204904: e7 80 a0 48  	jalr	0x48a(ra) <_ZN2os2mm10page_table14PageTableEntry8writable17h92ce3fd6fa012b59E>
80204908: 59 e5        	bnez	a0, 0x80204996 <.Lpcrel_hi98>
8020490a: 39 a8        	j	0x80204928 <.Lpcrel_hi96+0x14>

000000008020490c <.Lpcrel_hi95>:
8020490c: 17 d5 01 00  	auipc	a0, 0x1d
80204910: 13 05 45 16  	addi	a0, a0, 0x164

0000000080204914 <.Lpcrel_hi96>:
80204914: 97 d5 01 00  	auipc	a1, 0x1d
80204918: 13 86 c5 1b  	addi	a2, a1, 0x1bc
8020491c: 93 05 a0 05  	li	a1, 0x5a
80204920: 97 90 01 00  	auipc	ra, 0x19
80204924: e7 80 c0 21  	jalr	0x21c(ra) <_ZN4core9panicking5panic17h351b32f4738cdea8E>
80204928: 13 05 04 f2  	addi	a0, s0, -0xe0
8020492c: 97 40 01 00  	auipc	ra, 0x14
80204930: e7 80 40 8a  	jalr	-0x75c(ra) <_ZN71_$LT$core..cell..RefMut$LT$T$GT$$u20$as$u20$core..ops..deref..Deref$GT$5deref17h4a2afb36d04b5b97E>
80204934: 23 38 a4 ee  	sd	a0, -0x110(s0)
80204938: 13 05 04 f4  	addi	a0, s0, -0xc0
8020493c: 97 00 00 00  	auipc	ra, 0x0
80204940: e7 80 20 7d  	jalr	0x7d2(ra) <_ZN2os2mm7address8VirtAddr5floor17h165d09d6a6173ca0E>
80204944: 83 35 04 ef  	ld	a1, -0x110(s0)
80204948: 2a 86        	mv	a2, a0
8020494a: 13 05 04 f8  	addi	a0, s0, -0x80
8020494e: 97 60 00 00  	auipc	ra, 0x6
80204952: e7 80 a0 af  	jalr	-0x506(ra) <_ZN2os2mm10page_table9PageTable9translate17h9e9b3a18c3e6b382E>
80204956: 03 35 04 f8  	ld	a0, -0x80(s0)
8020495a: 11 e9        	bnez	a0, 0x8020496e <.Lpcrel_hi97+0x10>
8020495c: 09 a0        	j	0x8020495e <.Lpcrel_hi97>

000000008020495e <.Lpcrel_hi97>:
8020495e: 17 d5 01 00  	auipc	a0, 0x1d
80204962: 13 05 25 fe  	addi	a0, a0, -0x1e
80204966: 97 90 01 00  	auipc	ra, 0x19
8020496a: e7 80 e0 0d  	jalr	0xde(ra) <_ZN4core6option13unwrap_failed17h29a7a5e83cb350cbE>
8020496e: 03 35 84 f8  	ld	a0, -0x78(s0)
80204972: 23 3c a4 fc  	sd	a0, -0x28(s0)
80204976: 03 35 84 fd  	ld	a0, -0x28(s0)
8020497a: 23 38 a4 fc  	sd	a0, -0x30(s0)
8020497e: 03 35 04 fd  	ld	a0, -0x30(s0)
80204982: 23 3c a4 f6  	sd	a0, -0x88(s0)
80204986: 13 05 84 f7  	addi	a0, s0, -0x88
8020498a: 97 50 00 00  	auipc	ra, 0x5
8020498e: e7 80 60 44  	jalr	0x446(ra) <_ZN2os2mm10page_table14PageTableEntry10executable17h0ef8c018e3d163c8E>
80204992: 21 ed        	bnez	a0, 0x802049ea <.Lpcrel_hi101>
80204994: 39 a8        	j	0x802049b2 <.Lpcrel_hi100>

0000000080204996 <.Lpcrel_hi98>:
80204996: 17 d5 01 00  	auipc	a0, 0x1d
8020499a: 13 05 25 06  	addi	a0, a0, 0x62

000000008020499e <.Lpcrel_hi99>:
8020499e: 97 d5 01 00  	auipc	a1, 0x1d
802049a2: 13 86 a5 0b  	addi	a2, a1, 0xba
802049a6: 93 05 c0 05  	li	a1, 0x5c
802049aa: 97 90 01 00  	auipc	ra, 0x19
802049ae: e7 80 20 19  	jalr	0x192(ra) <_ZN4core9panicking5panic17h351b32f4738cdea8E>

00000000802049b2 <.Lpcrel_hi100>:
802049b2: 17 d5 01 00  	auipc	a0, 0x1d
802049b6: 93 05 e5 fb  	addi	a1, a0, -0x42
802049ba: 13 05 04 f9  	addi	a0, s0, -0x70
802049be: 23 34 a4 ee  	sd	a0, -0x118(s0)
802049c2: 97 60 01 00  	auipc	ra, 0x16
802049c6: e7 80 c0 48  	jalr	0x48c(ra) <_ZN4core3fmt9Arguments9new_const17hdd0dcb54612202f7E>
802049ca: 03 35 84 ee  	ld	a0, -0x118(s0)
802049ce: 97 20 00 00  	auipc	ra, 0x2
802049d2: e7 80 20 24  	jalr	0x242(ra) <_ZN2os7console5print17he820b8e27323609fE>
802049d6: 13 05 04 f2  	addi	a0, s0, -0xe0
802049da: 97 50 00 00  	auipc	ra, 0x5
802049de: e7 80 e0 05  	jalr	0x5e(ra) <_ZN4core3ptr76drop_in_place$LT$core..cell..RefMut$LT$os..mm..memory_set..MemorySet$GT$$GT$17h157f8e08cf5e24aeE>
802049e2: f2 60        	ld	ra, 0x118(sp)
802049e4: 52 64        	ld	s0, 0x110(sp)
802049e6: 15 61        	addi	sp, sp, 0x120
802049e8: 82 80        	ret

00000000802049ea <.Lpcrel_hi101>:
802049ea: 17 d5 01 00  	auipc	a0, 0x1d
802049ee: 13 05 65 f9  	addi	a0, a0, -0x6a

00000000802049f2 <.Lpcrel_hi102>:
802049f2: 97 d5 01 00  	auipc	a1, 0x1d
802049f6: 13 86 e5 fe  	addi	a2, a1, -0x12
802049fa: 93 05 c0 05  	li	a1, 0x5c
802049fe: 97 90 01 00  	auipc	ra, 0x19
80204a02: e7 80 e0 13  	jalr	0x13e(ra) <_ZN4core9panicking5panic17h351b32f4738cdea8E>

0000000080204a06 <_ZN76_$LT$os..mm..memory_set..KERNEL_SPACE$u20$as$u20$core..ops..deref..Deref$GT$5deref17hc847af723869bfd1E>:
80204a06: 01 11        	addi	sp, sp, -0x20
80204a08: 06 ec        	sd	ra, 0x18(sp)
80204a0a: 22 e8        	sd	s0, 0x10(sp)
80204a0c: 00 10        	addi	s0, sp, 0x20
80204a0e: 23 30 a4 fe  	sd	a0, -0x20(s0)

0000000080204a12 <.Lpcrel_hi103>:
80204a12: 17 15 08 00  	auipc	a0, 0x81
80204a16: 13 05 e5 5e  	addi	a0, a0, 0x5ee
80204a1a: 23 34 a4 fe  	sd	a0, -0x18(s0)
80204a1e: 97 50 00 00  	auipc	ra, 0x5
80204a22: e7 80 e0 a6  	jalr	-0x592(ra) <_ZN4spin4once17Once$LT$T$C$R$GT$9call_once17h9179e0b1b4a5bf8fE>
80204a26: e2 60        	ld	ra, 0x18(sp)
80204a28: 42 64        	ld	s0, 0x10(sp)
80204a2a: 05 61        	addi	sp, sp, 0x20
80204a2c: 82 80        	ret

0000000080204a2e <_ZN68_$LT$os..mm..memory_set..MapType$u20$as$u20$core..cmp..PartialEq$GT$2eq17h3c4def4430d41f8dE>:
80204a2e: 79 71        	addi	sp, sp, -0x30
80204a30: 06 f4        	sd	ra, 0x28(sp)
80204a32: 22 f0        	sd	s0, 0x20(sp)
80204a34: 00 18        	addi	s0, sp, 0x30
80204a36: 23 38 a4 fc  	sd	a0, -0x30(s0)
80204a3a: 23 3c b4 fc  	sd	a1, -0x28(s0)
80204a3e: 03 45 05 00  	lbu	a0, 0x0(a0)
80204a42: 05 89        	andi	a0, a0, 0x1
80204a44: 23 30 a4 fe  	sd	a0, -0x20(s0)
80204a48: 83 c5 05 00  	lbu	a1, 0x0(a1)
80204a4c: 85 89        	andi	a1, a1, 0x1
80204a4e: 23 34 b4 fe  	sd	a1, -0x18(s0)
80204a52: 2d 8d        	xor	a0, a0, a1
80204a54: 13 35 15 00  	seqz	a0, a0
80204a58: a2 70        	ld	ra, 0x28(sp)
80204a5a: 02 74        	ld	s0, 0x20(sp)
80204a5c: 45 61        	addi	sp, sp, 0x30
80204a5e: 82 80        	ret

0000000080204a60 <_ZN64_$LT$os..mm..memory_set..MapType$u20$as$u20$core..fmt..Debug$GT$3fmt17he6a280380656d034E>:
80204a60: 39 71        	addi	sp, sp, -0x40
80204a62: 06 fc        	sd	ra, 0x38(sp)
80204a64: 22 f8        	sd	s0, 0x30(sp)
80204a66: 80 00        	addi	s0, sp, 0x40
80204a68: 23 34 b4 fc  	sd	a1, -0x38(s0)
80204a6c: 23 30 a4 fe  	sd	a0, -0x20(s0)
80204a70: 23 34 b4 fe  	sd	a1, -0x18(s0)
80204a74: 03 45 05 00  	lbu	a0, 0x0(a0)
80204a78: 05 89        	andi	a0, a0, 0x1
80204a7a: 01 ed        	bnez	a0, 0x80204a92 <.Lpcrel_hi105>
80204a7c: 09 a0        	j	0x80204a7e <.Lpcrel_hi104>

0000000080204a7e <.Lpcrel_hi104>:
80204a7e: 17 d5 01 00  	auipc	a0, 0x1d
80204a82: 13 05 a5 06  	addi	a0, a0, 0x6a
80204a86: 23 38 a4 fc  	sd	a0, -0x30(s0)
80204a8a: 25 45        	li	a0, 0x9
80204a8c: 23 3c a4 fc  	sd	a0, -0x28(s0)
80204a90: 19 a8        	j	0x80204aa6 <.Lpcrel_hi105+0x14>

0000000080204a92 <.Lpcrel_hi105>:
80204a92: 17 d5 01 00  	auipc	a0, 0x1d
80204a96: 13 05 f5 05  	addi	a0, a0, 0x5f
80204a9a: 23 38 a4 fc  	sd	a0, -0x30(s0)
80204a9e: 19 45        	li	a0, 0x6
80204aa0: 23 3c a4 fc  	sd	a0, -0x28(s0)
80204aa4: 09 a0        	j	0x80204aa6 <.Lpcrel_hi105+0x14>
80204aa6: 03 35 84 fc  	ld	a0, -0x38(s0)
80204aaa: 83 35 04 fd  	ld	a1, -0x30(s0)
80204aae: 03 36 84 fd  	ld	a2, -0x28(s0)
80204ab2: 97 a0 01 00  	auipc	ra, 0x1a
80204ab6: e7 80 40 08  	jalr	0x84(ra) <_ZN57_$LT$core..fmt..Formatter$u20$as$u20$core..fmt..Write$GT$9write_str17h53042be993fd8e60E>
80204aba: e2 70        	ld	ra, 0x38(sp)
80204abc: 42 74        	ld	s0, 0x30(sp)
80204abe: 21 61        	addi	sp, sp, 0x40
80204ac0: 82 80        	ret

0000000080204ac2 <_ZN75_$LT$os..mm..memory_set..MapPermission$u20$as$u20$core..ops..bit..BitOr$GT$5bitor17h5e1241d565c824afE>:
80204ac2: 01 11        	addi	sp, sp, -0x20
80204ac4: 06 ec        	sd	ra, 0x18(sp)
80204ac6: 22 e8        	sd	s0, 0x10(sp)
80204ac8: 00 10        	addi	s0, sp, 0x20
80204aca: 23 07 a4 fe  	sb	a0, -0x12(s0)
80204ace: a3 07 b4 fe  	sb	a1, -0x11(s0)
80204ad2: 4d 8d        	or	a0, a0, a1
80204ad4: e2 60        	ld	ra, 0x18(sp)
80204ad6: 42 64        	ld	s0, 0x10(sp)
80204ad8: 05 61        	addi	sp, sp, 0x20
80204ada: 82 80        	ret

0000000080204adc <_ZN81_$LT$os..mm..memory_set..MapPermission$u20$as$u20$core..ops..bit..BitOrAssign$GT$12bitor_assign17hc029750b9f1b35c6E>:
80204adc: 01 11        	addi	sp, sp, -0x20
80204ade: 06 ec        	sd	ra, 0x18(sp)
80204ae0: 22 e8        	sd	s0, 0x10(sp)
80204ae2: 00 10        	addi	s0, sp, 0x20
80204ae4: 2e 86        	mv	a2, a1
80204ae6: aa 85        	mv	a1, a0
80204ae8: 23 30 b4 fe  	sd	a1, -0x20(s0)
80204aec: a3 07 c4 fe  	sb	a2, -0x11(s0)
80204af0: 03 c5 05 00  	lbu	a0, 0x0(a1)
80204af4: 51 8d        	or	a0, a0, a2
80204af6: 23 80 a5 00  	sb	a0, 0x0(a1)
80204afa: e2 60        	ld	ra, 0x18(sp)
80204afc: 42 64        	ld	s0, 0x10(sp)
80204afe: 05 61        	addi	sp, sp, 0x20
80204b00: 82 80        	ret

0000000080204b02 <_ZN2os4task7context11TaskContext9zero_init17hc863565f1951933bE>:
80204b02: 75 71        	addi	sp, sp, -0x90
80204b04: 06 e5        	sd	ra, 0x88(sp)
80204b06: 22 e1        	sd	s0, 0x80(sp)
80204b08: 00 09        	addi	s0, sp, 0x90
80204b0a: 23 34 a4 f8  	sd	a0, -0x78(s0)
80204b0e: 13 05 04 f9  	addi	a0, s0, -0x70
80204b12: 23 3c a4 f6  	sd	a0, -0x88(s0)
80204b16: 81 45        	li	a1, 0x0
80204b18: 23 38 b4 f6  	sd	a1, -0x90(s0)
80204b1c: 13 06 00 06  	li	a2, 0x60
80204b20: 23 30 c4 f8  	sd	a2, -0x80(s0)
80204b24: 97 c0 01 00  	auipc	ra, 0x1c
80204b28: e7 80 20 f1  	jalr	-0xee(ra) <memset>
80204b2c: 83 36 04 f7  	ld	a3, -0x90(s0)
80204b30: 83 35 84 f7  	ld	a1, -0x88(s0)
80204b34: 03 36 04 f8  	ld	a2, -0x80(s0)
80204b38: 03 35 84 f8  	ld	a0, -0x78(s0)
80204b3c: 14 e1        	sd	a3, 0x0(a0)
80204b3e: 14 e5        	sd	a3, 0x8(a0)
80204b40: 41 05        	addi	a0, a0, 0x10
80204b42: 97 c0 01 00  	auipc	ra, 0x1c
80204b46: e7 80 40 c1  	jalr	-0x3ec(ra) <memcpy>
80204b4a: aa 60        	ld	ra, 0x88(sp)
80204b4c: 0a 64        	ld	s0, 0x80(sp)
80204b4e: 49 61        	addi	sp, sp, 0x90
80204b50: 82 80        	ret

0000000080204b52 <_ZN2os4task7context11TaskContext16goto_trap_return17hcd34edf78bdda21aE>:
80204b52: 35 71        	addi	sp, sp, -0xa0
80204b54: 06 ed        	sd	ra, 0x98(sp)
80204b56: 22 e9        	sd	s0, 0x90(sp)
80204b58: 00 11        	addi	s0, sp, 0xa0
80204b5a: 23 34 b4 f6  	sd	a1, -0x98(s0)
80204b5e: 23 30 a4 f8  	sd	a0, -0x80(s0)
80204b62: 23 34 b4 fe  	sd	a1, -0x18(s0)
80204b66: 13 05 84 f8  	addi	a0, s0, -0x78
80204b6a: 23 38 a4 f6  	sd	a0, -0x90(s0)
80204b6e: 81 45        	li	a1, 0x0
80204b70: 13 06 00 06  	li	a2, 0x60
80204b74: 23 3c c4 f6  	sd	a2, -0x88(s0)
80204b78: 97 c0 01 00  	auipc	ra, 0x1c
80204b7c: e7 80 e0 eb  	jalr	-0x142(ra) <memset>
80204b80: 83 36 84 f6  	ld	a3, -0x98(s0)
80204b84: 83 35 04 f7  	ld	a1, -0x90(s0)
80204b88: 03 36 84 f7  	ld	a2, -0x88(s0)
80204b8c: 03 35 04 f8  	ld	a0, -0x80(s0)

0000000080204b90 <.Lpcrel_hi0>:
80204b90: 17 37 01 00  	auipc	a4, 0x13
80204b94: 13 07 27 bb  	addi	a4, a4, -0x44e
80204b98: 18 e1        	sd	a4, 0x0(a0)
80204b9a: 14 e5        	sd	a3, 0x8(a0)
80204b9c: 41 05        	addi	a0, a0, 0x10
80204b9e: 97 c0 01 00  	auipc	ra, 0x1c
80204ba2: e7 80 80 bb  	jalr	-0x448(ra) <memcpy>
80204ba6: ea 60        	ld	ra, 0x98(sp)
80204ba8: 4a 64        	ld	s0, 0x90(sp)
80204baa: 0d 61        	addi	sp, sp, 0xa0
80204bac: 82 80        	ret

0000000080204bae <_ZN4core3fmt9Arguments16new_v1_formatted17hb1eceb776864e12dE>:
80204bae: 1d 71        	addi	sp, sp, -0x60
80204bb0: 86 ec        	sd	ra, 0x58(sp)
80204bb2: a2 e8        	sd	s0, 0x50(sp)
80204bb4: 80 10        	addi	s0, sp, 0x60
80204bb6: 23 3c b4 fa  	sd	a1, -0x48(s0)
80204bba: 23 30 c4 fc  	sd	a2, -0x40(s0)
80204bbe: 23 34 d4 fc  	sd	a3, -0x38(s0)
80204bc2: 23 38 e4 fc  	sd	a4, -0x30(s0)
80204bc6: 23 3c f4 fc  	sd	a5, -0x28(s0)
80204bca: 23 30 04 ff  	sd	a6, -0x20(s0)
80204bce: 23 34 f4 fa  	sd	a5, -0x58(s0)
80204bd2: 23 38 04 fb  	sd	a6, -0x50(s0)
80204bd6: 0c e1        	sd	a1, 0x0(a0)
80204bd8: 10 e5        	sd	a2, 0x8(a0)
80204bda: 03 36 84 fa  	ld	a2, -0x58(s0)
80204bde: 83 35 04 fb  	ld	a1, -0x50(s0)
80204be2: 10 f1        	sd	a2, 0x20(a0)
80204be4: 0c f5        	sd	a1, 0x28(a0)
80204be6: 14 e9        	sd	a3, 0x10(a0)
80204be8: 18 ed        	sd	a4, 0x18(a0)
80204bea: e6 60        	ld	ra, 0x58(sp)
80204bec: 46 64        	ld	s0, 0x50(sp)
80204bee: 25 61        	addi	sp, sp, 0x60
80204bf0: 82 80        	ret

0000000080204bf2 <_ZN4core3fmt9Arguments23as_statically_known_str17h87b8bcec685b5491E>:
80204bf2: 59 71        	addi	sp, sp, -0x70
80204bf4: 86 f4        	sd	ra, 0x68(sp)
80204bf6: a2 f0        	sd	s0, 0x60(sp)
80204bf8: 80 18        	addi	s0, sp, 0x70
80204bfa: aa 85        	mv	a1, a0
80204bfc: 23 38 b4 fc  	sd	a1, -0x30(s0)
80204c00: 88 61        	ld	a0, 0x0(a1)
80204c02: 23 38 a4 f8  	sd	a0, -0x70(s0)
80204c06: 88 65        	ld	a0, 0x8(a1)
80204c08: 23 3c a4 f8  	sd	a0, -0x68(s0)
80204c0c: 8c 6d        	ld	a1, 0x18(a1)
80204c0e: 23 30 b4 fa  	sd	a1, -0x60(s0)
80204c12: 11 e5        	bnez	a0, 0x80204c1e <_ZN4core3fmt9Arguments23as_statically_known_str17h87b8bcec685b5491E+0x2c>
80204c14: 09 a0        	j	0x80204c16 <_ZN4core3fmt9Arguments23as_statically_known_str17h87b8bcec685b5491E+0x24>
80204c16: 03 35 04 fa  	ld	a0, -0x60(s0)
80204c1a: 01 c9        	beqz	a0, 0x80204c2a <_ZN4core3fmt9Arguments23as_statically_known_str17h87b8bcec685b5491E+0x38>
80204c1c: 31 a8        	j	0x80204c38 <.Lpcrel_hi0>
80204c1e: 03 35 84 f9  	ld	a0, -0x68(s0)
80204c22: 85 45        	li	a1, 0x1
80204c24: 63 0d b5 02  	beq	a0, a1, 0x80204c5e <.Lpcrel_hi0+0x26>
80204c28: 01 a8        	j	0x80204c38 <.Lpcrel_hi0>
80204c2a: 05 45        	li	a0, 0x1
80204c2c: 23 3c a4 fa  	sd	a0, -0x48(s0)
80204c30: 01 45        	li	a0, 0x0
80204c32: 23 30 a4 fc  	sd	a0, -0x40(s0)
80204c36: 21 a8        	j	0x80204c4e <.Lpcrel_hi0+0x16>

0000000080204c38 <.Lpcrel_hi0>:
80204c38: 17 c5 01 00  	auipc	a0, 0x1c
80204c3c: 13 05 05 55  	addi	a0, a0, 0x550
80204c40: 0c 61        	ld	a1, 0x0(a0)
80204c42: 08 65        	ld	a0, 0x8(a0)
80204c44: 23 3c b4 fa  	sd	a1, -0x48(s0)
80204c48: 23 30 a4 fc  	sd	a0, -0x40(s0)
80204c4c: 09 a0        	j	0x80204c4e <.Lpcrel_hi0+0x16>
80204c4e: 13 05 84 fb  	addi	a0, s0, -0x48
80204c52: 23 30 a4 fe  	sd	a0, -0x20(s0)
80204c56: 03 35 84 fb  	ld	a0, -0x48(s0)
80204c5a: 0d e1        	bnez	a0, 0x80204c7c <.Lpcrel_hi0+0x44>
80204c5c: 25 a0        	j	0x80204c84 <.Lpcrel_hi0+0x4c>
80204c5e: 03 35 04 fa  	ld	a0, -0x60(s0)
80204c62: 79 f9        	bnez	a0, 0x80204c38 <.Lpcrel_hi0>
80204c64: 09 a0        	j	0x80204c66 <.Lpcrel_hi0+0x2e>
80204c66: 03 35 04 f9  	ld	a0, -0x70(s0)
80204c6a: 23 3c a4 fc  	sd	a0, -0x28(s0)
80204c6e: 0c 61        	ld	a1, 0x0(a0)
80204c70: 08 65        	ld	a0, 0x8(a0)
80204c72: 23 3c b4 fa  	sd	a1, -0x48(s0)
80204c76: 23 30 a4 fc  	sd	a0, -0x40(s0)
80204c7a: d1 bf        	j	0x80204c4e <.Lpcrel_hi0+0x16>
80204c7c: 05 45        	li	a0, 0x1
80204c7e: a3 07 a4 fc  	sb	a0, -0x31(s0)
80204c82: 29 a0        	j	0x80204c8c <.Lpcrel_hi0+0x54>
80204c84: 01 45        	li	a0, 0x0
80204c86: a3 07 a4 fc  	sb	a0, -0x31(s0)
80204c8a: 09 a0        	j	0x80204c8c <.Lpcrel_hi0+0x54>
80204c8c: 01 45        	li	a0, 0x0
80204c8e: a3 07 a4 fe  	sb	a0, -0x11(s0)
80204c92: 03 45 f4 fe  	lbu	a0, -0x11(s0)
80204c96: 05 89        	andi	a0, a0, 0x1
80204c98: 09 ed        	bnez	a0, 0x80204cb2 <.Lpcrel_hi1+0x16>
80204c9a: 09 a0        	j	0x80204c9c <.Lpcrel_hi1>

0000000080204c9c <.Lpcrel_hi1>:
80204c9c: 17 c5 01 00  	auipc	a0, 0x1c
80204ca0: 13 05 c5 4e  	addi	a0, a0, 0x4ec
80204ca4: 0c 61        	ld	a1, 0x0(a0)
80204ca6: 08 65        	ld	a0, 0x8(a0)
80204ca8: 23 34 b4 fa  	sd	a1, -0x58(s0)
80204cac: 23 38 a4 fa  	sd	a0, -0x50(s0)
80204cb0: 11 a8        	j	0x80204cc4 <.Lpcrel_hi1+0x28>
80204cb2: 83 35 84 fb  	ld	a1, -0x48(s0)
80204cb6: 03 35 04 fc  	ld	a0, -0x40(s0)
80204cba: 23 34 b4 fa  	sd	a1, -0x58(s0)
80204cbe: 23 38 a4 fa  	sd	a0, -0x50(s0)
80204cc2: 09 a0        	j	0x80204cc4 <.Lpcrel_hi1+0x28>
80204cc4: 03 35 84 fa  	ld	a0, -0x58(s0)
80204cc8: 83 35 04 fb  	ld	a1, -0x50(s0)
80204ccc: a6 70        	ld	ra, 0x68(sp)
80204cce: 06 74        	ld	s0, 0x60(sp)
80204cd0: 65 61        	addi	sp, sp, 0x70
80204cd2: 82 80        	ret

0000000080204cd4 <_ZN4core3fmt9Formatter9write_fmt17hbb5448173c2cf5faE>:
80204cd4: 19 71        	addi	sp, sp, -0x80
80204cd6: 86 fc        	sd	ra, 0x78(sp)
80204cd8: a2 f8        	sd	s0, 0x70(sp)
80204cda: 00 01        	addi	s0, sp, 0x80
80204cdc: 23 30 b4 f8  	sd	a1, -0x80(s0)
80204ce0: aa 85        	mv	a1, a0
80204ce2: 03 35 04 f8  	ld	a0, -0x80(s0)
80204ce6: 23 34 b4 f8  	sd	a1, -0x78(s0)
80204cea: 23 34 b4 fa  	sd	a1, -0x58(s0)
80204cee: 97 00 00 00  	auipc	ra, 0x0
80204cf2: e7 80 40 f0  	jalr	-0xfc(ra) <_ZN4core3fmt9Arguments23as_statically_known_str17h87b8bcec685b5491E>
80204cf6: 23 3c a4 f8  	sd	a0, -0x68(s0)
80204cfa: 23 30 b4 fa  	sd	a1, -0x60(s0)
80204cfe: 03 35 84 f9  	ld	a0, -0x68(s0)
80204d02: 1d c1        	beqz	a0, 0x80204d28 <_ZN4core3fmt9Formatter9write_fmt17hbb5448173c2cf5faE+0x54>
80204d04: 09 a0        	j	0x80204d06 <_ZN4core3fmt9Formatter9write_fmt17hbb5448173c2cf5faE+0x32>
80204d06: 83 36 84 f8  	ld	a3, -0x78(s0)
80204d0a: 83 35 84 f9  	ld	a1, -0x68(s0)
80204d0e: 03 36 04 fa  	ld	a2, -0x60(s0)
80204d12: 23 38 b4 fa  	sd	a1, -0x50(s0)
80204d16: 23 3c c4 fa  	sd	a2, -0x48(s0)
80204d1a: 88 72        	ld	a0, 0x20(a3)
80204d1c: 94 76        	ld	a3, 0x28(a3)
80204d1e: 94 6e        	ld	a3, 0x18(a3)
80204d20: 82 96        	jalr	a3
80204d22: a3 0b a4 f8  	sb	a0, -0x69(s0)
80204d26: 91 a0        	j	0x80204d6a <_ZN4core3fmt9Formatter9write_fmt17hbb5448173c2cf5faE+0x96>
80204d28: 03 36 04 f8  	ld	a2, -0x80(s0)
80204d2c: 83 35 84 f8  	ld	a1, -0x78(s0)
80204d30: 88 71        	ld	a0, 0x20(a1)
80204d32: 8c 75        	ld	a1, 0x28(a1)
80204d34: 14 76        	ld	a3, 0x28(a2)
80204d36: 23 34 d4 fe  	sd	a3, -0x18(s0)
80204d3a: 14 72        	ld	a3, 0x20(a2)
80204d3c: 23 30 d4 fe  	sd	a3, -0x20(s0)
80204d40: 14 6e        	ld	a3, 0x18(a2)
80204d42: 23 3c d4 fc  	sd	a3, -0x28(s0)
80204d46: 14 6a        	ld	a3, 0x10(a2)
80204d48: 23 38 d4 fc  	sd	a3, -0x30(s0)
80204d4c: 14 66        	ld	a3, 0x8(a2)
80204d4e: 23 34 d4 fc  	sd	a3, -0x38(s0)
80204d52: 10 62        	ld	a2, 0x0(a2)
80204d54: 23 30 c4 fc  	sd	a2, -0x40(s0)
80204d58: 13 06 04 fc  	addi	a2, s0, -0x40
80204d5c: 97 90 01 00  	auipc	ra, 0x19
80204d60: e7 80 00 7e  	jalr	0x7e0(ra) <_ZN4core3fmt5write17h15fc89594c97b366E>
80204d64: a3 0b a4 f8  	sb	a0, -0x69(s0)
80204d68: 09 a0        	j	0x80204d6a <_ZN4core3fmt9Formatter9write_fmt17hbb5448173c2cf5faE+0x96>
80204d6a: 03 45 74 f9  	lbu	a0, -0x69(s0)
80204d6e: 05 89        	andi	a0, a0, 0x1
80204d70: e6 70        	ld	ra, 0x78(sp)
80204d72: 46 74        	ld	s0, 0x70(sp)
80204d74: 09 61        	addi	sp, sp, 0x80
80204d76: 82 80        	ret

0000000080204d78 <_ZN53_$LT$core..fmt..Error$u20$as$u20$core..fmt..Debug$GT$3fmt17h20f879033b203cf0E>:
80204d78: 79 71        	addi	sp, sp, -0x30
80204d7a: 06 f4        	sd	ra, 0x28(sp)
80204d7c: 22 f0        	sd	s0, 0x20(sp)
80204d7e: 00 18        	addi	s0, sp, 0x30
80204d80: 23 3c b4 fc  	sd	a1, -0x28(s0)
80204d84: aa 85        	mv	a1, a0
80204d86: 03 35 84 fd  	ld	a0, -0x28(s0)
80204d8a: 23 30 b4 fe  	sd	a1, -0x20(s0)
80204d8e: 23 34 a4 fe  	sd	a0, -0x18(s0)

0000000080204d92 <.Lpcrel_hi2>:
80204d92: 97 d5 01 00  	auipc	a1, 0x1d
80204d96: 93 85 55 d6  	addi	a1, a1, -0x29b
80204d9a: 15 46        	li	a2, 0x5
80204d9c: 97 a0 01 00  	auipc	ra, 0x1a
80204da0: e7 80 a0 d9  	jalr	-0x266(ra) <_ZN57_$LT$core..fmt..Formatter$u20$as$u20$core..fmt..Write$GT$9write_str17h53042be993fd8e60E>
80204da4: a2 70        	ld	ra, 0x28(sp)
80204da6: 02 74        	ld	s0, 0x20(sp)
80204da8: 45 61        	addi	sp, sp, 0x30
80204daa: 82 80        	ret

0000000080204dac <_ZN78_$LT$os..mm..address..PhysAddr$u20$as$u20$core..convert..From$LT$usize$GT$$GT$4from17h1a7c21e2be50f779E>:
80204dac: 01 11        	addi	sp, sp, -0x20
80204dae: 06 ec        	sd	ra, 0x18(sp)
80204db0: 22 e8        	sd	s0, 0x10(sp)
80204db2: 00 10        	addi	s0, sp, 0x20
80204db4: 23 34 a4 fe  	sd	a0, -0x18(s0)
80204db8: 22 05        	slli	a0, a0, 0x8
80204dba: 21 81        	srli	a0, a0, 0x8
80204dbc: e2 60        	ld	ra, 0x18(sp)
80204dbe: 42 64        	ld	s0, 0x10(sp)
80204dc0: 05 61        	addi	sp, sp, 0x20
80204dc2: 82 80        	ret

0000000080204dc4 <_ZN81_$LT$os..mm..address..PhysPageNum$u20$as$u20$core..convert..From$LT$usize$GT$$GT$4from17hafac0bae9dca8500E>:
80204dc4: 01 11        	addi	sp, sp, -0x20
80204dc6: 06 ec        	sd	ra, 0x18(sp)
80204dc8: 22 e8        	sd	s0, 0x10(sp)
80204dca: 00 10        	addi	s0, sp, 0x20
80204dcc: 23 34 a4 fe  	sd	a0, -0x18(s0)
80204dd0: 52 05        	slli	a0, a0, 0x14
80204dd2: 51 81        	srli	a0, a0, 0x14
80204dd4: e2 60        	ld	ra, 0x18(sp)
80204dd6: 42 64        	ld	s0, 0x10(sp)
80204dd8: 05 61        	addi	sp, sp, 0x20
80204dda: 82 80        	ret

0000000080204ddc <_ZN2os2mm7address8PhysAddr5floor17h5aa9857a95b08320E>:
80204ddc: 01 11        	addi	sp, sp, -0x20
80204dde: 06 ec        	sd	ra, 0x18(sp)
80204de0: 22 e8        	sd	s0, 0x10(sp)
80204de2: 00 10        	addi	s0, sp, 0x20
80204de4: 23 34 a4 fe  	sd	a0, -0x18(s0)
80204de8: 08 61        	ld	a0, 0x0(a0)
80204dea: 31 81        	srli	a0, a0, 0xc
80204dec: e2 60        	ld	ra, 0x18(sp)
80204dee: 42 64        	ld	s0, 0x10(sp)
80204df0: 05 61        	addi	sp, sp, 0x20
80204df2: 82 80        	ret

0000000080204df4 <_ZN2os2mm7address8PhysAddr4ceil17h526becf8264bf4ebE>:
80204df4: 39 71        	addi	sp, sp, -0x40
80204df6: 06 fc        	sd	ra, 0x38(sp)
80204df8: 22 f8        	sd	s0, 0x30(sp)
80204dfa: 80 00        	addi	s0, sp, 0x40
80204dfc: 23 3c a4 fc  	sd	a0, -0x28(s0)
80204e00: 23 34 a4 fe  	sd	a0, -0x18(s0)
80204e04: 08 61        	ld	a0, 0x0(a0)
80204e06: 11 e5        	bnez	a0, 0x80204e12 <_ZN2os2mm7address8PhysAddr4ceil17h526becf8264bf4ebE+0x1e>
80204e08: 09 a0        	j	0x80204e0a <_ZN2os2mm7address8PhysAddr4ceil17h526becf8264bf4ebE+0x16>
80204e0a: 01 45        	li	a0, 0x0
80204e0c: 23 30 a4 fe  	sd	a0, -0x20(s0)
80204e10: 11 a8        	j	0x80204e24 <_ZN2os2mm7address8PhysAddr4ceil17h526becf8264bf4ebE+0x30>
80204e12: 03 35 84 fd  	ld	a0, -0x28(s0)
80204e16: 08 61        	ld	a0, 0x0(a0)
80204e18: 93 05 f5 ff  	addi	a1, a0, -0x1
80204e1c: 23 38 b4 fc  	sd	a1, -0x30(s0)
80204e20: 0d c1        	beqz	a0, 0x80204e42 <.Lpcrel_hi0>
80204e22: 39 a0        	j	0x80204e30 <_ZN2os2mm7address8PhysAddr4ceil17h526becf8264bf4ebE+0x3c>
80204e24: 03 35 04 fe  	ld	a0, -0x20(s0)
80204e28: e2 70        	ld	ra, 0x38(sp)
80204e2a: 42 74        	ld	s0, 0x30(sp)
80204e2c: 21 61        	addi	sp, sp, 0x40
80204e2e: 82 80        	ret
80204e30: 83 35 04 fd  	ld	a1, -0x30(s0)
80204e34: 05 65        	lui	a0, 0x1
80204e36: 2e 95        	add	a0, a0, a1
80204e38: 23 34 a4 fc  	sd	a0, -0x38(s0)
80204e3c: 63 61 b5 02  	bltu	a0, a1, 0x80204e5e <.Lpcrel_hi1>
80204e40: 09 a8        	j	0x80204e52 <.Lpcrel_hi0+0x10>

0000000080204e42 <.Lpcrel_hi0>:
80204e42: 17 d5 01 00  	auipc	a0, 0x1d
80204e46: 13 05 e5 cc  	addi	a0, a0, -0x332
80204e4a: 97 b0 01 00  	auipc	ra, 0x1b
80204e4e: e7 80 e0 08  	jalr	0x8e(ra) <_ZN4core9panicking11panic_const24panic_const_sub_overflow17h34ff3c728e06a4d3E>
80204e52: 03 35 84 fc  	ld	a0, -0x38(s0)
80204e56: 31 81        	srli	a0, a0, 0xc
80204e58: 23 30 a4 fe  	sd	a0, -0x20(s0)
80204e5c: e1 b7        	j	0x80204e24 <_ZN2os2mm7address8PhysAddr4ceil17h526becf8264bf4ebE+0x30>

0000000080204e5e <.Lpcrel_hi1>:
80204e5e: 17 d5 01 00  	auipc	a0, 0x1d
80204e62: 13 05 a5 cc  	addi	a0, a0, -0x336
80204e66: 97 b0 01 00  	auipc	ra, 0x1b
80204e6a: e7 80 c0 03  	jalr	0x3c(ra) <_ZN4core9panicking11panic_const24panic_const_add_overflow17h8b73966d6acdc0c6E>

0000000080204e6e <_ZN2os2mm7address8PhysAddr11page_offset17he71ab6023cfacd54E>:
80204e6e: 01 11        	addi	sp, sp, -0x20
80204e70: 06 ec        	sd	ra, 0x18(sp)
80204e72: 22 e8        	sd	s0, 0x10(sp)
80204e74: 00 10        	addi	s0, sp, 0x20
80204e76: 23 34 a4 fe  	sd	a0, -0x18(s0)
80204e7a: 08 61        	ld	a0, 0x0(a0)
80204e7c: 52 15        	slli	a0, a0, 0x34
80204e7e: 51 91        	srli	a0, a0, 0x34
80204e80: e2 60        	ld	ra, 0x18(sp)
80204e82: 42 64        	ld	s0, 0x10(sp)
80204e84: 05 61        	addi	sp, sp, 0x20
80204e86: 82 80        	ret

0000000080204e88 <_ZN101_$LT$os..mm..address..PhysPageNum$u20$as$u20$core..convert..From$LT$os..mm..address..PhysAddr$GT$$GT$4from17hf005ac5b9675b991E>:
80204e88: 59 71        	addi	sp, sp, -0x70
80204e8a: 86 f4        	sd	ra, 0x68(sp)
80204e8c: a2 f0        	sd	s0, 0x60(sp)
80204e8e: 80 18        	addi	s0, sp, 0x70
80204e90: 23 3c a4 f8  	sd	a0, -0x68(s0)
80204e94: 13 05 84 f9  	addi	a0, s0, -0x68
80204e98: 97 00 00 00  	auipc	ra, 0x0
80204e9c: e7 80 60 fd  	jalr	-0x2a(ra) <_ZN2os2mm7address8PhysAddr11page_offset17he71ab6023cfacd54E>
80204ea0: 23 30 a4 fa  	sd	a0, -0x60(s0)
80204ea4: 13 05 04 fa  	addi	a0, s0, -0x60
80204ea8: 23 30 a4 fe  	sd	a0, -0x20(s0)

0000000080204eac <.Lpcrel_hi2>:
80204eac: 17 d5 01 00  	auipc	a0, 0x1d
80204eb0: 93 05 45 86  	addi	a1, a0, -0x79c
80204eb4: 23 34 b4 fe  	sd	a1, -0x18(s0)
80204eb8: 03 35 04 fa  	ld	a0, -0x60(s0)
80204ebc: 8c 61        	ld	a1, 0x0(a1)
80204ebe: 63 0a b5 02  	beq	a0, a1, 0x80204ef2 <.Lpcrel_hi4+0x18>
80204ec2: 09 a0        	j	0x80204ec4 <.Lpcrel_hi2+0x18>
80204ec4: 01 45        	li	a0, 0x0
80204ec6: a3 07 a4 fa  	sb	a0, -0x51(s0)
80204eca: 23 38 a4 fa  	sd	a0, -0x50(s0)
80204ece: 03 45 f4 fa  	lbu	a0, -0x51(s0)

0000000080204ed2 <.Lpcrel_hi3>:
80204ed2: 97 d5 01 00  	auipc	a1, 0x1d
80204ed6: 13 86 e5 83  	addi	a2, a1, -0x7c2

0000000080204eda <.Lpcrel_hi4>:
80204eda: 97 d5 01 00  	auipc	a1, 0x1d
80204ede: 13 87 65 c6  	addi	a4, a1, -0x39a
80204ee2: 93 05 04 fa  	addi	a1, s0, -0x60
80204ee6: 93 06 04 fb  	addi	a3, s0, -0x50
80204eea: 97 50 01 00  	auipc	ra, 0x15
80204eee: e7 80 00 88  	jalr	-0x780(ra) <_ZN4core9panicking13assert_failed17hb82faaa5d151f885E>
80204ef2: 13 05 84 f9  	addi	a0, s0, -0x68
80204ef6: 97 00 00 00  	auipc	ra, 0x0
80204efa: e7 80 60 ee  	jalr	-0x11a(ra) <_ZN2os2mm7address8PhysAddr5floor17h5aa9857a95b08320E>
80204efe: a6 70        	ld	ra, 0x68(sp)
80204f00: 06 74        	ld	s0, 0x60(sp)
80204f02: 65 61        	addi	sp, sp, 0x70
80204f04: 82 80        	ret

0000000080204f06 <_ZN101_$LT$os..mm..address..PhysAddr$u20$as$u20$core..convert..From$LT$os..mm..address..PhysPageNum$GT$$GT$4from17h2555d5dcc6d06fa7E>:
80204f06: 01 11        	addi	sp, sp, -0x20
80204f08: 06 ec        	sd	ra, 0x18(sp)
80204f0a: 22 e8        	sd	s0, 0x10(sp)
80204f0c: 00 10        	addi	s0, sp, 0x20
80204f0e: 23 34 a4 fe  	sd	a0, -0x18(s0)
80204f12: 32 05        	slli	a0, a0, 0xc
80204f14: e2 60        	ld	ra, 0x18(sp)
80204f16: 42 64        	ld	s0, 0x10(sp)
80204f18: 05 61        	addi	sp, sp, 0x20
80204f1a: 82 80        	ret

0000000080204f1c <_ZN2os2mm7address11PhysPageNum13get_pte_array17h3de34c3922220b95E>:
80204f1c: 01 11        	addi	sp, sp, -0x20
80204f1e: 06 ec        	sd	ra, 0x18(sp)
80204f20: 22 e8        	sd	s0, 0x10(sp)
80204f22: 00 10        	addi	s0, sp, 0x20
80204f24: 23 30 a4 fe  	sd	a0, -0x20(s0)
80204f28: 08 61        	ld	a0, 0x0(a0)

0000000080204f2a <.Lpcrel_hi5>:
80204f2a: 97 d5 01 00  	auipc	a1, 0x1d
80204f2e: 93 85 e5 c2  	addi	a1, a1, -0x3d2
80204f32: 97 00 01 00  	auipc	ra, 0x10
80204f36: e7 80 20 33  	jalr	0x332(ra) <_ZN50_$LT$T$u20$as$u20$core..convert..Into$LT$U$GT$$GT$4into17ha24c7dc50b8056dcE>
80204f3a: 23 34 a4 fe  	sd	a0, -0x18(s0)
80204f3e: 93 05 00 20  	li	a1, 0x200
80204f42: 97 30 01 00  	auipc	ra, 0x13
80204f46: e7 80 e0 c3  	jalr	-0x3c2(ra) <_ZN4core5slice3raw18from_raw_parts_mut17h0e27fcf027a9cdd5E>
80204f4a: e2 60        	ld	ra, 0x18(sp)
80204f4c: 42 64        	ld	s0, 0x10(sp)
80204f4e: 05 61        	addi	sp, sp, 0x20
80204f50: 82 80        	ret

0000000080204f52 <_ZN2os2mm7address11PhysPageNum15get_bytes_array17h0fdbdbd3866c59a0E>:
80204f52: 01 11        	addi	sp, sp, -0x20
80204f54: 06 ec        	sd	ra, 0x18(sp)
80204f56: 22 e8        	sd	s0, 0x10(sp)
80204f58: 00 10        	addi	s0, sp, 0x20
80204f5a: 23 30 a4 fe  	sd	a0, -0x20(s0)
80204f5e: 08 61        	ld	a0, 0x0(a0)

0000000080204f60 <.Lpcrel_hi6>:
80204f60: 97 d5 01 00  	auipc	a1, 0x1d
80204f64: 93 85 05 c1  	addi	a1, a1, -0x3f0
80204f68: 97 00 01 00  	auipc	ra, 0x10
80204f6c: e7 80 c0 2f  	jalr	0x2fc(ra) <_ZN50_$LT$T$u20$as$u20$core..convert..Into$LT$U$GT$$GT$4into17ha24c7dc50b8056dcE>
80204f70: 23 34 a4 fe  	sd	a0, -0x18(s0)
80204f74: 85 65        	lui	a1, 0x1
80204f76: 97 30 01 00  	auipc	ra, 0x13
80204f7a: e7 80 a0 c4  	jalr	-0x3b6(ra) <_ZN4core5slice3raw18from_raw_parts_mut17h3a9d9a44f5775ba0E>
80204f7e: e2 60        	ld	ra, 0x18(sp)
80204f80: 42 64        	ld	s0, 0x10(sp)
80204f82: 05 61        	addi	sp, sp, 0x20
80204f84: 82 80        	ret

0000000080204f86 <_ZN65_$LT$os..mm..address..VirtPageNum$u20$as$u20$core..fmt..Debug$GT$3fmt17hee4e800d3c128582E>:
80204f86: 49 71        	addi	sp, sp, -0x170
80204f88: 86 f6        	sd	ra, 0x168(sp)
80204f8a: a2 f2        	sd	s0, 0x160(sp)
80204f8c: 80 1a        	addi	s0, sp, 0x170
80204f8e: 23 38 b4 e8  	sd	a1, -0x170(s0)
80204f92: aa 85        	mv	a1, a0
80204f94: 03 35 04 e9  	ld	a0, -0x170(s0)
80204f98: 23 34 b4 f8  	sd	a1, -0x78(s0)
80204f9c: 23 38 a4 f8  	sd	a0, -0x70(s0)
80204fa0: 23 30 b4 fe  	sd	a1, -0x20(s0)

0000000080204fa4 <.Lpcrel_hi7>:
80204fa4: 17 b5 01 00  	auipc	a0, 0x1b
80204fa8: 13 05 e5 1a  	addi	a0, a0, 0x1ae
80204fac: 23 34 a4 fe  	sd	a0, -0x18(s0)
80204fb0: 23 38 b4 fc  	sd	a1, -0x30(s0)
80204fb4: 23 3c a4 fc  	sd	a0, -0x28(s0)
80204fb8: 03 35 84 fd  	ld	a0, -0x28(s0)
80204fbc: 23 34 a4 ee  	sd	a0, -0x118(s0)
80204fc0: 03 35 04 fd  	ld	a0, -0x30(s0)
80204fc4: 23 30 a4 ee  	sd	a0, -0x120(s0)
80204fc8: 03 35 84 ee  	ld	a0, -0x118(s0)
80204fcc: 23 3c a4 ec  	sd	a0, -0x128(s0)
80204fd0: 03 35 04 ee  	ld	a0, -0x120(s0)
80204fd4: 23 38 a4 ec  	sd	a0, -0x130(s0)
80204fd8: 0d 45        	li	a0, 0x3
80204fda: a3 03 a4 f6  	sb	a0, -0x99(s0)
80204fde: 09 45        	li	a0, 0x2
80204fe0: 23 34 a4 f6  	sd	a0, -0x98(s0)
80204fe4: 23 3c a4 f6  	sd	a0, -0x88(s0)
80204fe8: 83 47 74 f6  	lbu	a5, -0x99(s0)
80204fec: 83 36 84 f6  	ld	a3, -0x98(s0)
80204ff0: 03 36 04 f7  	ld	a2, -0x90(s0)
80204ff4: 83 35 84 f7  	ld	a1, -0x88(s0)
80204ff8: 03 35 04 f8  	ld	a0, -0x80(s0)
80204ffc: 81 48        	li	a7, 0x0
80204ffe: 23 3c 14 f9  	sd	a7, -0x68(s0)
80205002: 13 08 00 02  	li	a6, 0x20
80205006: 23 22 04 fb  	sw	a6, -0x5c(s0)
8020500a: a3 05 f4 fa  	sb	a5, -0x55(s0)
8020500e: 11 47        	li	a4, 0x4
80205010: 23 26 e4 fa  	sw	a4, -0x54(s0)
80205014: 23 38 d4 fa  	sd	a3, -0x50(s0)
80205018: 23 3c c4 fa  	sd	a2, -0x48(s0)
8020501c: 23 30 b4 fc  	sd	a1, -0x40(s0)
80205020: 23 34 a4 fc  	sd	a0, -0x38(s0)
80205024: 23 34 14 f5  	sd	a7, -0xb8(s0)
80205028: 23 28 04 f5  	sw	a6, -0xb0(s0)
8020502c: 23 0c f4 f4  	sb	a5, -0xa8(s0)
80205030: 23 2a e4 f4  	sw	a4, -0xac(s0)
80205034: 23 34 d4 f2  	sd	a3, -0xd8(s0)
80205038: 23 38 c4 f2  	sd	a2, -0xd0(s0)
8020503c: 23 3c b4 f2  	sd	a1, -0xc8(s0)
80205040: 23 30 a4 f4  	sd	a0, -0xc0(s0)
80205044: 03 35 84 f5  	ld	a0, -0xa8(s0)
80205048: 23 30 a4 f2  	sd	a0, -0xe0(s0)
8020504c: 03 35 04 f5  	ld	a0, -0xb0(s0)
80205050: 23 3c a4 f0  	sd	a0, -0xe8(s0)
80205054: 03 35 84 f4  	ld	a0, -0xb8(s0)
80205058: 23 38 a4 f0  	sd	a0, -0xf0(s0)
8020505c: 03 35 04 f4  	ld	a0, -0xc0(s0)
80205060: 23 34 a4 f0  	sd	a0, -0xf8(s0)
80205064: 03 35 84 f3  	ld	a0, -0xc8(s0)
80205068: 23 30 a4 f0  	sd	a0, -0x100(s0)
8020506c: 03 35 04 f3  	ld	a0, -0xd0(s0)
80205070: 23 3c a4 ee  	sd	a0, -0x108(s0)
80205074: 03 35 84 f2  	ld	a0, -0xd8(s0)
80205078: 23 38 a4 ee  	sd	a0, -0x110(s0)

000000008020507c <.Lpcrel_hi8>:
8020507c: 17 d5 01 00  	auipc	a0, 0x1d
80205080: 93 05 c5 b0  	addi	a1, a0, -0x4f4
80205084: 13 05 04 ea  	addi	a0, s0, -0x160
80205088: 23 3c a4 e8  	sd	a0, -0x168(s0)
8020508c: 93 06 04 ed  	addi	a3, s0, -0x130
80205090: 93 07 04 ef  	addi	a5, s0, -0x110
80205094: 05 48        	li	a6, 0x1
80205096: 42 86        	mv	a2, a6
80205098: 42 87        	mv	a4, a6
8020509a: 97 00 00 00  	auipc	ra, 0x0
8020509e: e7 80 40 b1  	jalr	-0x4ec(ra) <_ZN4core3fmt9Arguments16new_v1_formatted17hb1eceb776864e12dE>
802050a2: 03 35 04 e9  	ld	a0, -0x170(s0)
802050a6: 83 35 84 e9  	ld	a1, -0x168(s0)
802050aa: 97 00 00 00  	auipc	ra, 0x0
802050ae: e7 80 a0 c2  	jalr	-0x3d6(ra) <_ZN4core3fmt9Formatter9write_fmt17hbb5448173c2cf5faE>
802050b2: b6 70        	ld	ra, 0x168(sp)
802050b4: 16 74        	ld	s0, 0x160(sp)
802050b6: 75 61        	addi	sp, sp, 0x170
802050b8: 82 80        	ret

00000000802050ba <_ZN78_$LT$os..mm..address..VirtAddr$u20$as$u20$core..convert..From$LT$usize$GT$$GT$4from17h1c295d1a0d39bef5E>:
802050ba: 01 11        	addi	sp, sp, -0x20
802050bc: 06 ec        	sd	ra, 0x18(sp)
802050be: 22 e8        	sd	s0, 0x10(sp)
802050c0: 00 10        	addi	s0, sp, 0x20
802050c2: 23 34 a4 fe  	sd	a0, -0x18(s0)
802050c6: 66 05        	slli	a0, a0, 0x19
802050c8: 65 81        	srli	a0, a0, 0x19
802050ca: e2 60        	ld	ra, 0x18(sp)
802050cc: 42 64        	ld	s0, 0x10(sp)
802050ce: 05 61        	addi	sp, sp, 0x20
802050d0: 82 80        	ret

00000000802050d2 <_ZN2os2mm7address88_$LT$impl$u20$core..convert..From$LT$os..mm..address..VirtAddr$GT$$u20$for$u20$usize$GT$4from17hde5bfda8cced9dbbE>:
802050d2: 79 71        	addi	sp, sp, -0x30
802050d4: 06 f4        	sd	ra, 0x28(sp)
802050d6: 22 f0        	sd	s0, 0x20(sp)
802050d8: 00 18        	addi	s0, sp, 0x30
802050da: 23 3c a4 fc  	sd	a0, -0x28(s0)
802050de: 23 34 a4 fe  	sd	a0, -0x18(s0)
802050e2: 19 91        	srli	a0, a0, 0x26
802050e4: 19 e5        	bnez	a0, 0x802050f2 <_ZN2os2mm7address88_$LT$impl$u20$core..convert..From$LT$os..mm..address..VirtAddr$GT$$u20$for$u20$usize$GT$4from17hde5bfda8cced9dbbE+0x20>
802050e6: 09 a0        	j	0x802050e8 <_ZN2os2mm7address88_$LT$impl$u20$core..convert..From$LT$os..mm..address..VirtAddr$GT$$u20$for$u20$usize$GT$4from17hde5bfda8cced9dbbE+0x16>
802050e8: 03 35 84 fd  	ld	a0, -0x28(s0)
802050ec: 23 30 a4 fe  	sd	a0, -0x20(s0)
802050f0: 09 a8        	j	0x80205102 <_ZN2os2mm7address88_$LT$impl$u20$core..convert..From$LT$os..mm..address..VirtAddr$GT$$u20$for$u20$usize$GT$4from17hde5bfda8cced9dbbE+0x30>
802050f2: 03 35 84 fd  	ld	a0, -0x28(s0)
802050f6: fd 55        	li	a1, -0x1
802050f8: 9e 15        	slli	a1, a1, 0x27
802050fa: 4d 8d        	or	a0, a0, a1
802050fc: 23 30 a4 fe  	sd	a0, -0x20(s0)
80205100: 09 a0        	j	0x80205102 <_ZN2os2mm7address88_$LT$impl$u20$core..convert..From$LT$os..mm..address..VirtAddr$GT$$u20$for$u20$usize$GT$4from17hde5bfda8cced9dbbE+0x30>
80205102: 03 35 04 fe  	ld	a0, -0x20(s0)
80205106: a2 70        	ld	ra, 0x28(sp)
80205108: 02 74        	ld	s0, 0x20(sp)
8020510a: 45 61        	addi	sp, sp, 0x30
8020510c: 82 80        	ret

000000008020510e <_ZN2os2mm7address8VirtAddr5floor17h165d09d6a6173ca0E>:
8020510e: 01 11        	addi	sp, sp, -0x20
80205110: 06 ec        	sd	ra, 0x18(sp)
80205112: 22 e8        	sd	s0, 0x10(sp)
80205114: 00 10        	addi	s0, sp, 0x20
80205116: 23 34 a4 fe  	sd	a0, -0x18(s0)
8020511a: 08 61        	ld	a0, 0x0(a0)
8020511c: 31 81        	srli	a0, a0, 0xc
8020511e: e2 60        	ld	ra, 0x18(sp)
80205120: 42 64        	ld	s0, 0x10(sp)
80205122: 05 61        	addi	sp, sp, 0x20
80205124: 82 80        	ret

0000000080205126 <_ZN2os2mm7address8VirtAddr4ceil17hc22c4503d271cc35E>:
80205126: 39 71        	addi	sp, sp, -0x40
80205128: 06 fc        	sd	ra, 0x38(sp)
8020512a: 22 f8        	sd	s0, 0x30(sp)
8020512c: 80 00        	addi	s0, sp, 0x40
8020512e: 23 3c a4 fc  	sd	a0, -0x28(s0)
80205132: 23 34 a4 fe  	sd	a0, -0x18(s0)
80205136: 08 61        	ld	a0, 0x0(a0)
80205138: 11 e5        	bnez	a0, 0x80205144 <_ZN2os2mm7address8VirtAddr4ceil17hc22c4503d271cc35E+0x1e>
8020513a: 09 a0        	j	0x8020513c <_ZN2os2mm7address8VirtAddr4ceil17hc22c4503d271cc35E+0x16>
8020513c: 01 45        	li	a0, 0x0
8020513e: 23 30 a4 fe  	sd	a0, -0x20(s0)
80205142: 11 a8        	j	0x80205156 <_ZN2os2mm7address8VirtAddr4ceil17hc22c4503d271cc35E+0x30>
80205144: 03 35 84 fd  	ld	a0, -0x28(s0)
80205148: 08 61        	ld	a0, 0x0(a0)
8020514a: 93 05 f5 ff  	addi	a1, a0, -0x1
8020514e: 23 38 b4 fc  	sd	a1, -0x30(s0)
80205152: 0d c1        	beqz	a0, 0x80205174 <.Lpcrel_hi9>
80205154: 39 a0        	j	0x80205162 <_ZN2os2mm7address8VirtAddr4ceil17hc22c4503d271cc35E+0x3c>
80205156: 03 35 04 fe  	ld	a0, -0x20(s0)
8020515a: e2 70        	ld	ra, 0x38(sp)
8020515c: 42 74        	ld	s0, 0x30(sp)
8020515e: 21 61        	addi	sp, sp, 0x40
80205160: 82 80        	ret
80205162: 83 35 04 fd  	ld	a1, -0x30(s0)
80205166: 05 65        	lui	a0, 0x1
80205168: 2e 95        	add	a0, a0, a1
8020516a: 23 34 a4 fc  	sd	a0, -0x38(s0)
8020516e: 63 61 b5 02  	bltu	a0, a1, 0x80205190 <.Lpcrel_hi10>
80205172: 09 a8        	j	0x80205184 <.Lpcrel_hi9+0x10>

0000000080205174 <.Lpcrel_hi9>:
80205174: 17 d5 01 00  	auipc	a0, 0x1d
80205178: 13 05 45 a2  	addi	a0, a0, -0x5dc
8020517c: 97 b0 01 00  	auipc	ra, 0x1b
80205180: e7 80 c0 d5  	jalr	-0x2a4(ra) <_ZN4core9panicking11panic_const24panic_const_sub_overflow17h34ff3c728e06a4d3E>
80205184: 03 35 84 fc  	ld	a0, -0x38(s0)
80205188: 31 81        	srli	a0, a0, 0xc
8020518a: 23 30 a4 fe  	sd	a0, -0x20(s0)
8020518e: e1 b7        	j	0x80205156 <_ZN2os2mm7address8VirtAddr4ceil17hc22c4503d271cc35E+0x30>

0000000080205190 <.Lpcrel_hi10>:
80205190: 17 d5 01 00  	auipc	a0, 0x1d
80205194: 13 05 05 a2  	addi	a0, a0, -0x5e0
80205198: 97 b0 01 00  	auipc	ra, 0x1b
8020519c: e7 80 a0 d0  	jalr	-0x2f6(ra) <_ZN4core9panicking11panic_const24panic_const_add_overflow17h8b73966d6acdc0c6E>

00000000802051a0 <_ZN2os2mm7address8VirtAddr11page_offset17h34cf8642106bf2f9E>:
802051a0: 01 11        	addi	sp, sp, -0x20
802051a2: 06 ec        	sd	ra, 0x18(sp)
802051a4: 22 e8        	sd	s0, 0x10(sp)
802051a6: 00 10        	addi	s0, sp, 0x20
802051a8: 23 34 a4 fe  	sd	a0, -0x18(s0)
802051ac: 08 61        	ld	a0, 0x0(a0)
802051ae: 52 15        	slli	a0, a0, 0x34
802051b0: 51 91        	srli	a0, a0, 0x34
802051b2: e2 60        	ld	ra, 0x18(sp)
802051b4: 42 64        	ld	s0, 0x10(sp)
802051b6: 05 61        	addi	sp, sp, 0x20
802051b8: 82 80        	ret

00000000802051ba <_ZN101_$LT$os..mm..address..VirtPageNum$u20$as$u20$core..convert..From$LT$os..mm..address..VirtAddr$GT$$GT$4from17hecc8190481ce5fb8E>:
802051ba: 59 71        	addi	sp, sp, -0x70
802051bc: 86 f4        	sd	ra, 0x68(sp)
802051be: a2 f0        	sd	s0, 0x60(sp)
802051c0: 80 18        	addi	s0, sp, 0x70
802051c2: 23 3c a4 f8  	sd	a0, -0x68(s0)
802051c6: 13 05 84 f9  	addi	a0, s0, -0x68
802051ca: 97 00 00 00  	auipc	ra, 0x0
802051ce: e7 80 60 fd  	jalr	-0x2a(ra) <_ZN2os2mm7address8VirtAddr11page_offset17h34cf8642106bf2f9E>
802051d2: 23 30 a4 fa  	sd	a0, -0x60(s0)
802051d6: 13 05 04 fa  	addi	a0, s0, -0x60
802051da: 23 30 a4 fe  	sd	a0, -0x20(s0)

00000000802051de <.Lpcrel_hi11>:
802051de: 17 c5 01 00  	auipc	a0, 0x1c
802051e2: 93 05 25 53  	addi	a1, a0, 0x532
802051e6: 23 34 b4 fe  	sd	a1, -0x18(s0)
802051ea: 03 35 04 fa  	ld	a0, -0x60(s0)
802051ee: 8c 61        	ld	a1, 0x0(a1)
802051f0: 63 0a b5 02  	beq	a0, a1, 0x80205224 <.Lpcrel_hi13+0x18>
802051f4: 09 a0        	j	0x802051f6 <.Lpcrel_hi11+0x18>
802051f6: 01 45        	li	a0, 0x0
802051f8: a3 07 a4 fa  	sb	a0, -0x51(s0)
802051fc: 23 38 a4 fa  	sd	a0, -0x50(s0)
80205200: 03 45 f4 fa  	lbu	a0, -0x51(s0)

0000000080205204 <.Lpcrel_hi12>:
80205204: 97 c5 01 00  	auipc	a1, 0x1c
80205208: 13 86 c5 50  	addi	a2, a1, 0x50c

000000008020520c <.Lpcrel_hi13>:
8020520c: 97 d5 01 00  	auipc	a1, 0x1d
80205210: 13 87 c5 9b  	addi	a4, a1, -0x644
80205214: 93 05 04 fa  	addi	a1, s0, -0x60
80205218: 93 06 04 fb  	addi	a3, s0, -0x50
8020521c: 97 40 01 00  	auipc	ra, 0x14
80205220: e7 80 e0 54  	jalr	0x54e(ra) <_ZN4core9panicking13assert_failed17hb82faaa5d151f885E>
80205224: 13 05 84 f9  	addi	a0, s0, -0x68
80205228: 97 00 00 00  	auipc	ra, 0x0
8020522c: e7 80 60 ee  	jalr	-0x11a(ra) <_ZN2os2mm7address8VirtAddr5floor17h165d09d6a6173ca0E>
80205230: a6 70        	ld	ra, 0x68(sp)
80205232: 06 74        	ld	s0, 0x60(sp)
80205234: 65 61        	addi	sp, sp, 0x70
80205236: 82 80        	ret

0000000080205238 <_ZN101_$LT$os..mm..address..VirtAddr$u20$as$u20$core..convert..From$LT$os..mm..address..VirtPageNum$GT$$GT$4from17h80c20a4619a1c551E>:
80205238: 01 11        	addi	sp, sp, -0x20
8020523a: 06 ec        	sd	ra, 0x18(sp)
8020523c: 22 e8        	sd	s0, 0x10(sp)
8020523e: 00 10        	addi	s0, sp, 0x20
80205240: 23 34 a4 fe  	sd	a0, -0x18(s0)
80205244: 32 05        	slli	a0, a0, 0xc
80205246: e2 60        	ld	ra, 0x18(sp)
80205248: 42 64        	ld	s0, 0x10(sp)
8020524a: 05 61        	addi	sp, sp, 0x20
8020524c: 82 80        	ret

000000008020524e <_ZN2os2mm7address11VirtPageNum7indexes17hf14f6ebf00d20dc2E>:
8020524e: 19 71        	addi	sp, sp, -0x80
80205250: 86 fc        	sd	ra, 0x78(sp)
80205252: a2 f8        	sd	s0, 0x70(sp)
80205254: 00 01        	addi	s0, sp, 0x80
80205256: 23 3c a4 f8  	sd	a0, -0x68(s0)
8020525a: 23 30 b4 fe  	sd	a1, -0x20(s0)
8020525e: 88 61        	ld	a0, 0x0(a1)
80205260: 23 30 a4 fa  	sd	a0, -0x60(s0)
80205264: 01 45        	li	a0, 0x0
80205266: 23 3c a4 fa  	sd	a0, -0x48(s0)
8020526a: 23 38 a4 fa  	sd	a0, -0x50(s0)
8020526e: 23 34 a4 fa  	sd	a0, -0x58(s0)
80205272: 8d 45        	li	a1, 0x3
80205274: 97 60 01 00  	auipc	ra, 0x16
80205278: e7 80 a0 42  	jalr	0x42a(ra) <_ZN4core4iter6traits8iterator8Iterator3rev17h3c1ab20c44fd02c8E>
8020527c: 97 60 01 00  	auipc	ra, 0x16
80205280: e7 80 20 69  	jalr	0x692(ra) <_ZN63_$LT$I$u20$as$u20$core..iter..traits..collect..IntoIterator$GT$9into_iter17hb49928356c8d3400E>
80205284: 23 30 a4 fc  	sd	a0, -0x40(s0)
80205288: 23 34 b4 fc  	sd	a1, -0x38(s0)
8020528c: 09 a0        	j	0x8020528e <_ZN2os2mm7address11VirtPageNum7indexes17hf14f6ebf00d20dc2E+0x40>
8020528e: 13 05 04 fc  	addi	a0, s0, -0x40
80205292: 97 70 01 00  	auipc	ra, 0x17
80205296: e7 80 80 8a  	jalr	-0x758(ra) <_ZN98_$LT$core..iter..adapters..rev..Rev$LT$I$GT$$u20$as$u20$core..iter..traits..iterator..Iterator$GT$4next17h357fd91e030e16d4E>
8020529a: 23 38 a4 fc  	sd	a0, -0x30(s0)
8020529e: 23 3c b4 fc  	sd	a1, -0x28(s0)
802052a2: 03 35 04 fd  	ld	a0, -0x30(s0)
802052a6: 0d e1        	bnez	a0, 0x802052c8 <_ZN2os2mm7address11VirtPageNum7indexes17hf14f6ebf00d20dc2E+0x7a>
802052a8: 09 a0        	j	0x802052aa <_ZN2os2mm7address11VirtPageNum7indexes17hf14f6ebf00d20dc2E+0x5c>
802052aa: 83 35 84 f9  	ld	a1, -0x68(s0)
802052ae: 03 35 84 fb  	ld	a0, -0x48(s0)
802052b2: 88 e9        	sd	a0, 0x10(a1)
802052b4: 03 35 04 fb  	ld	a0, -0x50(s0)
802052b8: 88 e5        	sd	a0, 0x8(a1)
802052ba: 03 35 84 fa  	ld	a0, -0x58(s0)
802052be: 88 e1        	sd	a0, 0x0(a1)
802052c0: e6 70        	ld	ra, 0x78(sp)
802052c2: 46 74        	ld	s0, 0x70(sp)
802052c4: 09 61        	addi	sp, sp, 0x80
802052c6: 82 80        	ret
802052c8: 83 35 84 fd  	ld	a1, -0x28(s0)
802052cc: 23 34 b4 f8  	sd	a1, -0x78(s0)
802052d0: 23 34 b4 fe  	sd	a1, -0x18(s0)
802052d4: 03 35 04 fa  	ld	a0, -0x60(s0)
802052d8: 23 38 a4 f8  	sd	a0, -0x70(s0)
802052dc: 09 45        	li	a0, 0x2
802052de: 63 65 b5 02  	bltu	a0, a1, 0x80205308 <_ZN2os2mm7address11VirtPageNum7indexes17hf14f6ebf00d20dc2E+0xba>
802052e2: 09 a0        	j	0x802052e4 <_ZN2os2mm7address11VirtPageNum7indexes17hf14f6ebf00d20dc2E+0x96>
802052e4: 03 35 04 f9  	ld	a0, -0x70(s0)
802052e8: 83 35 84 f8  	ld	a1, -0x78(s0)
802052ec: 13 96 35 00  	slli	a2, a1, 0x3
802052f0: 93 05 84 fa  	addi	a1, s0, -0x58
802052f4: b2 95        	add	a1, a1, a2
802052f6: 13 75 f5 1f  	andi	a0, a0, 0x1ff
802052fa: 88 e1        	sd	a0, 0x0(a1)
802052fc: 03 35 04 fa  	ld	a0, -0x60(s0)
80205300: 25 81        	srli	a0, a0, 0x9
80205302: 23 30 a4 fa  	sd	a0, -0x60(s0)
80205306: 61 b7        	j	0x8020528e <_ZN2os2mm7address11VirtPageNum7indexes17hf14f6ebf00d20dc2E+0x40>
80205308: 03 35 84 f8  	ld	a0, -0x78(s0)

000000008020530c <.Lpcrel_hi14>:
8020530c: 97 d5 01 00  	auipc	a1, 0x1d
80205310: 13 86 45 8d  	addi	a2, a1, -0x72c
80205314: 8d 45        	li	a1, 0x3
80205316: 97 90 01 00  	auipc	ra, 0x19
8020531a: e7 80 20 8a  	jalr	-0x75e(ra) <_ZN4core9panicking18panic_bounds_check17hb972d6a16c7a7b5eE>

000000008020531e <_ZN75_$LT$os..mm..address..VirtPageNum$u20$as$u20$os..mm..address..StepByOne$GT$4step17hdfa2309f6e259f17E>:
8020531e: 79 71        	addi	sp, sp, -0x30
80205320: 06 f4        	sd	ra, 0x28(sp)
80205322: 22 f0        	sd	s0, 0x20(sp)
80205324: 00 18        	addi	s0, sp, 0x30
80205326: 23 3c a4 fc  	sd	a0, -0x28(s0)
8020532a: 23 34 a4 fe  	sd	a0, -0x18(s0)
8020532e: 08 61        	ld	a0, 0x0(a0)
80205330: 05 05        	addi	a0, a0, 0x1
80205332: 23 30 a4 fe  	sd	a0, -0x20(s0)
80205336: 19 c9        	beqz	a0, 0x8020534c <.Lpcrel_hi15>
80205338: 09 a0        	j	0x8020533a <_ZN75_$LT$os..mm..address..VirtPageNum$u20$as$u20$os..mm..address..StepByOne$GT$4step17hdfa2309f6e259f17E+0x1c>
8020533a: 03 35 04 fe  	ld	a0, -0x20(s0)
8020533e: 83 35 84 fd  	ld	a1, -0x28(s0)
80205342: 88 e1        	sd	a0, 0x0(a1)
80205344: a2 70        	ld	ra, 0x28(sp)
80205346: 02 74        	ld	s0, 0x20(sp)
80205348: 45 61        	addi	sp, sp, 0x30
8020534a: 82 80        	ret

000000008020534c <.Lpcrel_hi15>:
8020534c: 17 d5 01 00  	auipc	a0, 0x1d
80205350: 13 05 c5 8a  	addi	a0, a0, -0x754
80205354: 97 b0 01 00  	auipc	ra, 0x1b
80205358: e7 80 e0 b4  	jalr	-0x4b2(ra) <_ZN4core9panicking11panic_const24panic_const_add_overflow17h8b73966d6acdc0c6E>

000000008020535c <_ZN60_$LT$os..mm..address..VirtAddr$u20$as$u20$core..cmp..Ord$GT$3cmp17hf1e1ab4bd3c448e5E>:
8020535c: 01 11        	addi	sp, sp, -0x20
8020535e: 06 ec        	sd	ra, 0x18(sp)
80205360: 22 e8        	sd	s0, 0x10(sp)
80205362: 00 10        	addi	s0, sp, 0x20
80205364: 23 30 a4 fe  	sd	a0, -0x20(s0)
80205368: 23 34 b4 fe  	sd	a1, -0x18(s0)
8020536c: 97 10 00 00  	auipc	ra, 0x1
80205370: e7 80 20 56  	jalr	0x562(ra) <_ZN4core3cmp5impls50_$LT$impl$u20$core..cmp..Ord$u20$for$u20$usize$GT$3cmp17ha6fb918e31618e63E>
80205374: e2 60        	ld	ra, 0x18(sp)
80205376: 42 64        	ld	s0, 0x10(sp)
80205378: 05 61        	addi	sp, sp, 0x20
8020537a: 82 80        	ret

000000008020537c <_ZN63_$LT$os..mm..address..VirtPageNum$u20$as$u20$core..cmp..Ord$GT$3cmp17h2f65ced957d840f0E>:
8020537c: 01 11        	addi	sp, sp, -0x20
8020537e: 06 ec        	sd	ra, 0x18(sp)
80205380: 22 e8        	sd	s0, 0x10(sp)
80205382: 00 10        	addi	s0, sp, 0x20
80205384: 23 30 a4 fe  	sd	a0, -0x20(s0)
80205388: 23 34 b4 fe  	sd	a1, -0x18(s0)
8020538c: 97 10 00 00  	auipc	ra, 0x1
80205390: e7 80 20 54  	jalr	0x542(ra) <_ZN4core3cmp5impls50_$LT$impl$u20$core..cmp..Ord$u20$for$u20$usize$GT$3cmp17ha6fb918e31618e63E>
80205394: e2 60        	ld	ra, 0x18(sp)
80205396: 42 64        	ld	s0, 0x10(sp)
80205398: 05 61        	addi	sp, sp, 0x20
8020539a: 82 80        	ret

000000008020539c <_ZN70_$LT$os..mm..address..VirtPageNum$u20$as$u20$core..cmp..PartialOrd$GT$11partial_cmp17h4ebecc35a8f97ad9E>:
8020539c: 01 11        	addi	sp, sp, -0x20
8020539e: 06 ec        	sd	ra, 0x18(sp)
802053a0: 22 e8        	sd	s0, 0x10(sp)
802053a2: 00 10        	addi	s0, sp, 0x20
802053a4: 23 30 a4 fe  	sd	a0, -0x20(s0)
802053a8: 23 34 b4 fe  	sd	a1, -0x18(s0)
802053ac: 97 10 00 00  	auipc	ra, 0x1
802053b0: e7 80 20 55  	jalr	0x552(ra) <_ZN4core3cmp5impls57_$LT$impl$u20$core..cmp..PartialOrd$u20$for$u20$usize$GT$11partial_cmp17hed80a2ec30f2be56E>
802053b4: e2 60        	ld	ra, 0x18(sp)
802053b6: 42 64        	ld	s0, 0x10(sp)
802053b8: 05 61        	addi	sp, sp, 0x20
802053ba: 82 80        	ret

00000000802053bc <_ZN69_$LT$os..mm..address..VirtPageNum$u20$as$u20$core..cmp..PartialEq$GT$2eq17hcd0a0e911b7da6b7E>:
802053bc: 01 11        	addi	sp, sp, -0x20
802053be: 06 ec        	sd	ra, 0x18(sp)
802053c0: 22 e8        	sd	s0, 0x10(sp)
802053c2: 00 10        	addi	s0, sp, 0x20
802053c4: 23 30 a4 fe  	sd	a0, -0x20(s0)
802053c8: 23 34 b4 fe  	sd	a1, -0x18(s0)
802053cc: 08 61        	ld	a0, 0x0(a0)
802053ce: 8c 61        	ld	a1, 0x0(a1)
802053d0: 2d 8d        	xor	a0, a0, a1
802053d2: 13 35 15 00  	seqz	a0, a0
802053d6: e2 60        	ld	ra, 0x18(sp)
802053d8: 42 64        	ld	s0, 0x10(sp)
802053da: 05 61        	addi	sp, sp, 0x20
802053dc: 82 80        	ret

00000000802053de <_ZN5alloc11collections5btree3map21BTreeMap$LT$K$C$V$GT$3new17hb675fd87c3740b33E>:
802053de: 01 11        	addi	sp, sp, -0x20
802053e0: 06 ec        	sd	ra, 0x18(sp)
802053e2: 22 e8        	sd	s0, 0x10(sp)
802053e4: 00 10        	addi	s0, sp, 0x20
802053e6: aa 85        	mv	a1, a0

00000000802053e8 <.Lpcrel_hi1>:
802053e8: 17 c5 01 00  	auipc	a0, 0x1c
802053ec: 13 05 05 da  	addi	a0, a0, -0x260
802053f0: 10 61        	ld	a2, 0x0(a0)
802053f2: 08 65        	ld	a0, 0x8(a0)
802053f4: 90 e1        	sd	a2, 0x0(a1)
802053f6: 88 e5        	sd	a0, 0x8(a1)
802053f8: 01 45        	li	a0, 0x0
802053fa: 88 e9        	sd	a0, 0x10(a1)
802053fc: e2 60        	ld	ra, 0x18(sp)
802053fe: 42 64        	ld	s0, 0x10(sp)
80205400: 05 61        	addi	sp, sp, 0x20
80205402: 82 80        	ret

0000000080205404 <_ZN5alloc11collections5btree3map25BTreeMap$LT$K$C$V$C$A$GT$12remove_entry17h5c8a1275c7ab29a5E>:
80205404: 11 71        	addi	sp, sp, -0x100
80205406: 86 fd        	sd	ra, 0xf8(sp)
80205408: a2 f9        	sd	s0, 0xf0(sp)
8020540a: 00 02        	addi	s0, sp, 0x100
8020540c: 23 30 c4 f0  	sd	a2, -0x100(s0)
80205410: 23 34 b4 f0  	sd	a1, -0xf8(s0)
80205414: 23 38 a4 f0  	sd	a0, -0xf0(s0)
80205418: 23 34 b4 f8  	sd	a1, -0x78(s0)
8020541c: 23 38 c4 f8  	sd	a2, -0x70(s0)
80205420: 23 3c b4 f8  	sd	a1, -0x68(s0)
80205424: 23 30 b4 fa  	sd	a1, -0x60(s0)
80205428: 23 34 b4 fa  	sd	a1, -0x58(s0)
8020542c: 23 38 b4 fa  	sd	a1, -0x50(s0)
80205430: 23 3c b4 fa  	sd	a1, -0x48(s0)
80205434: 88 61        	ld	a0, 0x0(a1)
80205436: 09 e9        	bnez	a0, 0x80205448 <_ZN5alloc11collections5btree3map25BTreeMap$LT$K$C$V$C$A$GT$12remove_entry17h5c8a1275c7ab29a5E+0x44>
80205438: 09 a0        	j	0x8020543a <_ZN5alloc11collections5btree3map25BTreeMap$LT$K$C$V$C$A$GT$12remove_entry17h5c8a1275c7ab29a5E+0x36>
8020543a: 83 35 04 f1  	ld	a1, -0xf0(s0)
8020543e: 01 45        	li	a0, 0x0
80205440: 23 34 a4 f2  	sd	a0, -0xd8(s0)
80205444: 88 e1        	sd	a0, 0x0(a1)
80205446: 99 a0        	j	0x8020548c <_ZN5alloc11collections5btree3map25BTreeMap$LT$K$C$V$C$A$GT$12remove_entry17h5c8a1275c7ab29a5E+0x88>
80205448: 83 36 04 f0  	ld	a3, -0x100(s0)
8020544c: 03 35 84 f0  	ld	a0, -0xf8(s0)
80205450: 23 30 a4 fc  	sd	a0, -0x40(s0)
80205454: 23 34 a4 f2  	sd	a0, -0xd8(s0)
80205458: 03 35 84 f2  	ld	a0, -0xd8(s0)
8020545c: 23 34 a4 fc  	sd	a0, -0x38(s0)
80205460: 23 30 a4 f2  	sd	a0, -0xe0(s0)
80205464: 03 35 04 f2  	ld	a0, -0xe0(s0)
80205468: 23 38 a4 fc  	sd	a0, -0x30(s0)
8020546c: 10 65        	ld	a2, 0x8(a0)
8020546e: 0c 61        	ld	a1, 0x0(a0)
80205470: 23 3c b4 fc  	sd	a1, -0x28(s0)
80205474: 23 30 c4 fe  	sd	a2, -0x20(s0)
80205478: 13 05 04 f3  	addi	a0, s0, -0xd0
8020547c: 97 e0 00 00  	auipc	ra, 0xe
80205480: e7 80 20 d8  	jalr	-0x27e(ra) <_ZN5alloc11collections5btree6search142_$LT$impl$u20$alloc..collections..btree..node..NodeRef$LT$BorrowType$C$K$C$V$C$alloc..collections..btree..node..marker..LeafOrInternal$GT$$GT$11search_tree17h7bca346412a83200E>
80205484: 03 35 04 f3  	ld	a0, -0xd0(s0)
80205488: 11 c5        	beqz	a0, 0x80205494 <_ZN5alloc11collections5btree3map25BTreeMap$LT$K$C$V$C$A$GT$12remove_entry17h5c8a1275c7ab29a5E+0x90>
8020548a: 8d a8        	j	0x802054fc <_ZN5alloc11collections5btree3map25BTreeMap$LT$K$C$V$C$A$GT$12remove_entry17h5c8a1275c7ab29a5E+0xf8>
8020548c: ee 70        	ld	ra, 0xf8(sp)
8020548e: 4e 74        	ld	s0, 0xf0(sp)
80205490: 11 61        	addi	sp, sp, 0x100
80205492: 82 80        	ret
80205494: 03 35 84 f0  	ld	a0, -0xf8(s0)
80205498: 83 35 84 f4  	ld	a1, -0xb8(s0)
8020549c: 23 30 b4 f6  	sd	a1, -0xa0(s0)
802054a0: 83 35 04 f4  	ld	a1, -0xc0(s0)
802054a4: 23 3c b4 f4  	sd	a1, -0xa8(s0)
802054a8: 83 35 84 f3  	ld	a1, -0xc8(s0)
802054ac: 23 38 b4 f4  	sd	a1, -0xb0(s0)
802054b0: 61 05        	addi	a0, a0, 0x18
802054b2: 23 34 a4 fe  	sd	a0, -0x18(s0)
802054b6: 97 00 01 00  	auipc	ra, 0x10
802054ba: e7 80 20 63  	jalr	0x632(ra) <_ZN59_$LT$alloc..alloc..Global$u20$as$u20$core..clone..Clone$GT$5clone17h47dd613f0bc5b609E>
802054be: 03 35 84 f0  	ld	a0, -0xf8(s0)
802054c2: 83 35 04 f6  	ld	a1, -0xa0(s0)
802054c6: 23 3c b4 f6  	sd	a1, -0x88(s0)
802054ca: 83 35 84 f5  	ld	a1, -0xa8(s0)
802054ce: 23 38 b4 f6  	sd	a1, -0x90(s0)
802054d2: 83 35 04 f5  	ld	a1, -0xb0(s0)
802054d6: 23 34 b4 f6  	sd	a1, -0x98(s0)
802054da: 23 30 a4 f8  	sd	a0, -0x80(s0)
802054de: 13 05 84 f6  	addi	a0, s0, -0x98
802054e2: 97 d0 ff ff  	auipc	ra, 0xffffd
802054e6: e7 80 a0 de  	jalr	-0x216(ra) <ekernel+0xffc7b2cc>
802054ea: 2a 86        	mv	a2, a0
802054ec: 2e 85        	mv	a0, a1
802054ee: 83 35 04 f1  	ld	a1, -0xf0(s0)
802054f2: 90 e5        	sd	a2, 0x8(a1)
802054f4: 88 e9        	sd	a0, 0x10(a1)
802054f6: 05 45        	li	a0, 0x1
802054f8: 88 e1        	sd	a0, 0x0(a1)
802054fa: 31 a0        	j	0x80205506 <_ZN5alloc11collections5btree3map25BTreeMap$LT$K$C$V$C$A$GT$12remove_entry17h5c8a1275c7ab29a5E+0x102>
802054fc: 83 35 04 f1  	ld	a1, -0xf0(s0)
80205500: 01 45        	li	a0, 0x0
80205502: 88 e1        	sd	a0, 0x0(a1)
80205504: 09 a0        	j	0x80205506 <_ZN5alloc11collections5btree3map25BTreeMap$LT$K$C$V$C$A$GT$12remove_entry17h5c8a1275c7ab29a5E+0x102>
80205506: 59 b7        	j	0x8020548c <_ZN5alloc11collections5btree3map25BTreeMap$LT$K$C$V$C$A$GT$12remove_entry17h5c8a1275c7ab29a5E+0x88>

0000000080205508 <_ZN5alloc11collections5btree3map25BTreeMap$LT$K$C$V$C$A$GT$5entry17h564ae66621de0b87E>:
80205508: 49 71        	addi	sp, sp, -0x170
8020550a: 86 f6        	sd	ra, 0x168(sp)
8020550c: a2 f2        	sd	s0, 0x160(sp)
8020550e: 80 1a        	addi	s0, sp, 0x170
80205510: 23 30 b4 ea  	sd	a1, -0x160(s0)
80205514: 23 34 a4 ea  	sd	a0, -0x158(s0)
80205518: 23 38 c4 ea  	sd	a2, -0x150(s0)
8020551c: 23 34 b4 fa  	sd	a1, -0x58(s0)
80205520: 23 38 b4 fa  	sd	a1, -0x50(s0)
80205524: 23 3c b4 fa  	sd	a1, -0x48(s0)
80205528: 23 30 b4 fc  	sd	a1, -0x40(s0)
8020552c: 23 34 b4 fc  	sd	a1, -0x38(s0)
80205530: 88 61        	ld	a0, 0x0(a1)
80205532: 25 e9        	bnez	a0, 0x802055a2 <_ZN5alloc11collections5btree3map25BTreeMap$LT$K$C$V$C$A$GT$5entry17h564ae66621de0b87E+0x9a>
80205534: 09 a0        	j	0x80205536 <_ZN5alloc11collections5btree3map25BTreeMap$LT$K$C$V$C$A$GT$5entry17h564ae66621de0b87E+0x2e>
80205536: 03 35 04 ea  	ld	a0, -0x160(s0)
8020553a: 83 35 04 eb  	ld	a1, -0x150(s0)
8020553e: 23 3c b4 e8  	sd	a1, -0x168(s0)
80205542: 81 45        	li	a1, 0x0
80205544: 23 30 b4 ee  	sd	a1, -0x120(s0)
80205548: 61 05        	addi	a0, a0, 0x18
8020554a: 23 38 a4 fc  	sd	a0, -0x30(s0)
8020554e: 97 00 01 00  	auipc	ra, 0x10
80205552: e7 80 a0 59  	jalr	0x59a(ra) <_ZN59_$LT$alloc..alloc..Global$u20$as$u20$core..clone..Clone$GT$5clone17h47dd613f0bc5b609E>
80205556: 03 36 84 e9  	ld	a2, -0x168(s0)
8020555a: 03 35 04 ea  	ld	a0, -0x160(s0)
8020555e: 83 35 84 ea  	ld	a1, -0x158(s0)
80205562: 23 30 c4 ec  	sd	a2, -0x140(s0)
80205566: 03 36 04 ef  	ld	a2, -0x110(s0)
8020556a: 23 3c c4 ec  	sd	a2, -0x128(s0)
8020556e: 03 36 84 ee  	ld	a2, -0x118(s0)
80205572: 23 38 c4 ec  	sd	a2, -0x130(s0)
80205576: 03 36 04 ee  	ld	a2, -0x120(s0)
8020557a: 23 34 c4 ec  	sd	a2, -0x138(s0)
8020557e: 23 3c a4 ea  	sd	a0, -0x148(s0)
80205582: 03 35 84 ed  	ld	a0, -0x128(s0)
80205586: 88 f1        	sd	a0, 0x20(a1)
80205588: 03 35 04 ed  	ld	a0, -0x130(s0)
8020558c: 88 ed        	sd	a0, 0x18(a1)
8020558e: 03 35 84 ec  	ld	a0, -0x138(s0)
80205592: 88 e9        	sd	a0, 0x10(a1)
80205594: 03 35 04 ec  	ld	a0, -0x140(s0)
80205598: 88 e5        	sd	a0, 0x8(a1)
8020559a: 03 35 84 eb  	ld	a0, -0x148(s0)
8020559e: 88 e1        	sd	a0, 0x0(a1)
802055a0: 1d a0        	j	0x802055c6 <_ZN5alloc11collections5btree3map25BTreeMap$LT$K$C$V$C$A$GT$5entry17h564ae66621de0b87E+0xbe>
802055a2: 03 35 04 ea  	ld	a0, -0x160(s0)
802055a6: 23 3c a4 fc  	sd	a0, -0x28(s0)
802055aa: 10 65        	ld	a2, 0x8(a0)
802055ac: 0c 61        	ld	a1, 0x0(a0)
802055ae: 13 05 84 ef  	addi	a0, s0, -0x108
802055b2: 93 06 04 eb  	addi	a3, s0, -0x150
802055b6: 97 e0 00 00  	auipc	ra, 0xe
802055ba: e7 80 80 c4  	jalr	-0x3b8(ra) <_ZN5alloc11collections5btree6search142_$LT$impl$u20$alloc..collections..btree..node..NodeRef$LT$BorrowType$C$K$C$V$C$alloc..collections..btree..node..marker..LeafOrInternal$GT$$GT$11search_tree17h7bca346412a83200E>
802055be: 03 35 84 ef  	ld	a0, -0x108(s0)
802055c2: 11 c5        	beqz	a0, 0x802055ce <_ZN5alloc11collections5btree3map25BTreeMap$LT$K$C$V$C$A$GT$5entry17h564ae66621de0b87E+0xc6>
802055c4: 9d a8        	j	0x8020563a <_ZN5alloc11collections5btree3map25BTreeMap$LT$K$C$V$C$A$GT$5entry17h564ae66621de0b87E+0x132>
802055c6: b6 70        	ld	ra, 0x168(sp)
802055c8: 16 74        	ld	s0, 0x160(sp)
802055ca: 75 61        	addi	sp, sp, 0x170
802055cc: 82 80        	ret
802055ce: 03 35 04 ea  	ld	a0, -0x160(s0)
802055d2: 83 35 04 f1  	ld	a1, -0xf0(s0)
802055d6: 23 34 b4 f2  	sd	a1, -0xd8(s0)
802055da: 83 35 84 f0  	ld	a1, -0xf8(s0)
802055de: 23 30 b4 f2  	sd	a1, -0xe0(s0)
802055e2: 83 35 04 f0  	ld	a1, -0x100(s0)
802055e6: 23 3c b4 f0  	sd	a1, -0xe8(s0)
802055ea: 61 05        	addi	a0, a0, 0x18
802055ec: 23 30 a4 fe  	sd	a0, -0x20(s0)
802055f0: 97 00 01 00  	auipc	ra, 0x10
802055f4: e7 80 80 4f  	jalr	0x4f8(ra) <_ZN59_$LT$alloc..alloc..Global$u20$as$u20$core..clone..Clone$GT$5clone17h47dd613f0bc5b609E>
802055f8: 03 35 04 ea  	ld	a0, -0x160(s0)
802055fc: 83 35 84 ea  	ld	a1, -0x158(s0)
80205600: 03 36 84 f2  	ld	a2, -0xd8(s0)
80205604: 23 30 c4 f4  	sd	a2, -0xc0(s0)
80205608: 03 36 04 f2  	ld	a2, -0xe0(s0)
8020560c: 23 3c c4 f2  	sd	a2, -0xc8(s0)
80205610: 03 36 84 f1  	ld	a2, -0xe8(s0)
80205614: 23 38 c4 f2  	sd	a2, -0xd0(s0)
80205618: 23 34 a4 f4  	sd	a0, -0xb8(s0)
8020561c: 03 35 84 f4  	ld	a0, -0xb8(s0)
80205620: 88 f1        	sd	a0, 0x20(a1)
80205622: 03 35 04 f4  	ld	a0, -0xc0(s0)
80205626: 88 ed        	sd	a0, 0x18(a1)
80205628: 03 35 84 f3  	ld	a0, -0xc8(s0)
8020562c: 88 e9        	sd	a0, 0x10(a1)
8020562e: 03 35 04 f3  	ld	a0, -0xd0(s0)
80205632: 88 e5        	sd	a0, 0x8(a1)
80205634: 01 45        	li	a0, 0x0
80205636: 88 e1        	sd	a0, 0x0(a1)
80205638: 61 a8        	j	0x802056d0 <_ZN5alloc11collections5btree3map25BTreeMap$LT$K$C$V$C$A$GT$5entry17h564ae66621de0b87E+0x1c8>
8020563a: 03 35 04 ea  	ld	a0, -0x160(s0)
8020563e: 83 35 04 f1  	ld	a1, -0xf0(s0)
80205642: 23 30 b4 f6  	sd	a1, -0xa0(s0)
80205646: 83 35 84 f0  	ld	a1, -0xf8(s0)
8020564a: 23 3c b4 f4  	sd	a1, -0xa8(s0)
8020564e: 83 35 04 f0  	ld	a1, -0x100(s0)
80205652: 23 38 b4 f4  	sd	a1, -0xb0(s0)
80205656: 83 35 04 eb  	ld	a1, -0x150(s0)
8020565a: 23 38 b4 e8  	sd	a1, -0x170(s0)
8020565e: 83 35 04 f6  	ld	a1, -0xa0(s0)
80205662: 23 30 b4 fa  	sd	a1, -0x60(s0)
80205666: 83 35 84 f5  	ld	a1, -0xa8(s0)
8020566a: 23 3c b4 f8  	sd	a1, -0x68(s0)
8020566e: 83 35 04 f5  	ld	a1, -0xb0(s0)
80205672: 23 38 b4 f8  	sd	a1, -0x70(s0)
80205676: 61 05        	addi	a0, a0, 0x18
80205678: 23 34 a4 fe  	sd	a0, -0x18(s0)
8020567c: 97 00 01 00  	auipc	ra, 0x10
80205680: e7 80 c0 46  	jalr	0x46c(ra) <_ZN59_$LT$alloc..alloc..Global$u20$as$u20$core..clone..Clone$GT$5clone17h47dd613f0bc5b609E>
80205684: 03 36 04 e9  	ld	a2, -0x170(s0)
80205688: 03 35 04 ea  	ld	a0, -0x160(s0)
8020568c: 83 35 84 ea  	ld	a1, -0x158(s0)
80205690: 23 38 c4 f6  	sd	a2, -0x90(s0)
80205694: 03 36 04 fa  	ld	a2, -0x60(s0)
80205698: 23 34 c4 f8  	sd	a2, -0x78(s0)
8020569c: 03 36 84 f9  	ld	a2, -0x68(s0)
802056a0: 23 30 c4 f8  	sd	a2, -0x80(s0)
802056a4: 03 36 04 f9  	ld	a2, -0x70(s0)
802056a8: 23 3c c4 f6  	sd	a2, -0x88(s0)
802056ac: 23 34 a4 f6  	sd	a0, -0x98(s0)
802056b0: 03 35 84 f8  	ld	a0, -0x78(s0)
802056b4: 88 f1        	sd	a0, 0x20(a1)
802056b6: 03 35 04 f8  	ld	a0, -0x80(s0)
802056ba: 88 ed        	sd	a0, 0x18(a1)
802056bc: 03 35 84 f7  	ld	a0, -0x88(s0)
802056c0: 88 e9        	sd	a0, 0x10(a1)
802056c2: 03 35 04 f7  	ld	a0, -0x90(s0)
802056c6: 88 e5        	sd	a0, 0x8(a1)
802056c8: 03 35 84 f6  	ld	a0, -0x98(s0)
802056cc: 88 e1        	sd	a0, 0x0(a1)
802056ce: e5 bd        	j	0x802055c6 <_ZN5alloc11collections5btree3map25BTreeMap$LT$K$C$V$C$A$GT$5entry17h564ae66621de0b87E+0xbe>
802056d0: dd bd        	j	0x802055c6 <_ZN5alloc11collections5btree3map25BTreeMap$LT$K$C$V$C$A$GT$5entry17h564ae66621de0b87E+0xbe>

00000000802056d2 <_ZN5alloc11collections5btree3map25BTreeMap$LT$K$C$V$C$A$GT$6insert17h57df6ac9e2ec1983E>:
802056d2: 55 71        	addi	sp, sp, -0xd0
802056d4: 86 e5        	sd	ra, 0xc8(sp)
802056d6: a2 e1        	sd	s0, 0xc0(sp)
802056d8: 80 09        	addi	s0, sp, 0xd0
802056da: 23 3c c4 f2  	sd	a2, -0xc8(s0)
802056de: 2e 86        	mv	a2, a1
802056e0: aa 85        	mv	a1, a0
802056e2: 03 35 84 f3  	ld	a0, -0xc8(s0)
802056e6: 23 30 b4 fc  	sd	a1, -0x40(s0)
802056ea: 23 34 c4 fc  	sd	a2, -0x38(s0)
802056ee: 23 38 a4 fc  	sd	a0, -0x30(s0)
802056f2: 13 05 04 f5  	addi	a0, s0, -0xb0
802056f6: 97 00 00 00  	auipc	ra, 0x0
802056fa: e7 80 20 e1  	jalr	-0x1ee(ra) <_ZN5alloc11collections5btree3map25BTreeMap$LT$K$C$V$C$A$GT$5entry17h564ae66621de0b87E>
802056fe: 03 35 04 f5  	ld	a0, -0xb0(s0)
80205702: 31 c1        	beqz	a0, 0x80205746 <_ZN5alloc11collections5btree3map25BTreeMap$LT$K$C$V$C$A$GT$6insert17h57df6ac9e2ec1983E+0x74>
80205704: 09 a0        	j	0x80205706 <_ZN5alloc11collections5btree3map25BTreeMap$LT$K$C$V$C$A$GT$6insert17h57df6ac9e2ec1983E+0x34>
80205706: 83 35 84 f3  	ld	a1, -0xc8(s0)
8020570a: 03 35 04 f7  	ld	a0, -0x90(s0)
8020570e: 23 3c a4 fa  	sd	a0, -0x48(s0)
80205712: 03 35 84 f6  	ld	a0, -0x98(s0)
80205716: 23 38 a4 fa  	sd	a0, -0x50(s0)
8020571a: 03 35 04 f6  	ld	a0, -0xa0(s0)
8020571e: 23 34 a4 fa  	sd	a0, -0x58(s0)
80205722: 03 35 84 f5  	ld	a0, -0xa8(s0)
80205726: 23 30 a4 fa  	sd	a0, -0x60(s0)
8020572a: 03 35 04 f5  	ld	a0, -0xb0(s0)
8020572e: 23 3c a4 f8  	sd	a0, -0x68(s0)
80205732: 13 05 84 f9  	addi	a0, s0, -0x68
80205736: 97 d0 ff ff  	auipc	ra, 0xffffd
8020573a: e7 80 00 99  	jalr	-0x670(ra) <ekernel+0xffc7b0c6>
8020573e: 01 45        	li	a0, 0x0
80205740: 23 30 a4 f4  	sd	a0, -0xc0(s0)
80205744: 81 a8        	j	0x80205794 <_ZN5alloc11collections5btree3map25BTreeMap$LT$K$C$V$C$A$GT$6insert17h57df6ac9e2ec1983E+0xc2>
80205746: 03 35 04 f7  	ld	a0, -0x90(s0)
8020574a: 23 38 a4 f8  	sd	a0, -0x70(s0)
8020574e: 03 35 84 f6  	ld	a0, -0x98(s0)
80205752: 23 34 a4 f8  	sd	a0, -0x78(s0)
80205756: 03 35 04 f6  	ld	a0, -0xa0(s0)
8020575a: 23 30 a4 f8  	sd	a0, -0x80(s0)
8020575e: 03 35 84 f5  	ld	a0, -0xa8(s0)
80205762: 23 3c a4 f6  	sd	a0, -0x88(s0)
80205766: 13 05 84 f7  	addi	a0, s0, -0x88
8020576a: 23 3c a4 fc  	sd	a0, -0x28(s0)
8020576e: 97 80 00 00  	auipc	ra, 0x8
80205772: e7 80 00 da  	jalr	-0x260(ra) <_ZN5alloc11collections5btree4node171Handle$LT$alloc..collections..btree..node..NodeRef$LT$alloc..collections..btree..node..marker..Mut$C$K$C$V$C$NodeType$GT$$C$alloc..collections..btree..node..marker..KV$GT$6kv_mut17haee0924f59fbfa35E>
80205776: 2e 86        	mv	a2, a1
80205778: 83 35 84 f3  	ld	a1, -0xc8(s0)
8020577c: 23 30 c4 fe  	sd	a2, -0x20(s0)
80205780: 08 62        	ld	a0, 0x0(a2)
80205782: 23 34 a4 fe  	sd	a0, -0x18(s0)
80205786: 0c e2        	sd	a1, 0x0(a2)
80205788: 23 34 a4 f4  	sd	a0, -0xb8(s0)
8020578c: 05 45        	li	a0, 0x1
8020578e: 23 30 a4 f4  	sd	a0, -0xc0(s0)
80205792: 09 a0        	j	0x80205794 <_ZN5alloc11collections5btree3map25BTreeMap$LT$K$C$V$C$A$GT$6insert17h57df6ac9e2ec1983E+0xc2>
80205794: 03 35 04 f4  	ld	a0, -0xc0(s0)
80205798: 83 35 84 f4  	ld	a1, -0xb8(s0)
8020579c: ae 60        	ld	ra, 0xc8(sp)
8020579e: 0e 64        	ld	s0, 0xc0(sp)
802057a0: 69 61        	addi	sp, sp, 0xd0
802057a2: 82 80        	ret

00000000802057a4 <_ZN5alloc11collections5btree3map25BTreeMap$LT$K$C$V$C$A$GT$6remove17hf9a59a658f0d8602E>:
802057a4: 19 71        	addi	sp, sp, -0x80
802057a6: 86 fc        	sd	ra, 0x78(sp)
802057a8: a2 f8        	sd	s0, 0x70(sp)
802057aa: 00 01        	addi	s0, sp, 0x80
802057ac: 2e 86        	mv	a2, a1
802057ae: aa 85        	mv	a1, a0
802057b0: 23 34 b4 fc  	sd	a1, -0x38(s0)
802057b4: 23 38 c4 fc  	sd	a2, -0x30(s0)
802057b8: 13 05 04 fa  	addi	a0, s0, -0x60
802057bc: 97 00 00 00  	auipc	ra, 0x0
802057c0: e7 80 80 c4  	jalr	-0x3b8(ra) <_ZN5alloc11collections5btree3map25BTreeMap$LT$K$C$V$C$A$GT$12remove_entry17h5c8a1275c7ab29a5E>
802057c4: 03 35 04 fa  	ld	a0, -0x60(s0)
802057c8: 11 e5        	bnez	a0, 0x802057d4 <_ZN5alloc11collections5btree3map25BTreeMap$LT$K$C$V$C$A$GT$6remove17hf9a59a658f0d8602E+0x30>
802057ca: 09 a0        	j	0x802057cc <_ZN5alloc11collections5btree3map25BTreeMap$LT$K$C$V$C$A$GT$6remove17hf9a59a658f0d8602E+0x28>
802057cc: 01 45        	li	a0, 0x0
802057ce: 23 38 a4 f8  	sd	a0, -0x70(s0)
802057d2: 3d a0        	j	0x80205800 <_ZN5alloc11collections5btree3map25BTreeMap$LT$K$C$V$C$A$GT$6remove17hf9a59a658f0d8602E+0x5c>
802057d4: 83 35 84 fa  	ld	a1, -0x58(s0)
802057d8: 03 35 04 fb  	ld	a0, -0x50(s0)
802057dc: 23 3c b4 fc  	sd	a1, -0x28(s0)
802057e0: 23 30 a4 fe  	sd	a0, -0x20(s0)
802057e4: 23 3c b4 fa  	sd	a1, -0x48(s0)
802057e8: 23 30 a4 fc  	sd	a0, -0x40(s0)
802057ec: 03 35 04 fc  	ld	a0, -0x40(s0)
802057f0: 23 34 a4 fe  	sd	a0, -0x18(s0)
802057f4: 23 3c a4 f8  	sd	a0, -0x68(s0)
802057f8: 05 45        	li	a0, 0x1
802057fa: 23 38 a4 f8  	sd	a0, -0x70(s0)
802057fe: 09 a0        	j	0x80205800 <_ZN5alloc11collections5btree3map25BTreeMap$LT$K$C$V$C$A$GT$6remove17hf9a59a658f0d8602E+0x5c>
80205800: 03 35 04 f9  	ld	a0, -0x70(s0)
80205804: 83 35 84 f9  	ld	a1, -0x68(s0)
80205808: e6 70        	ld	ra, 0x78(sp)
8020580a: 46 74        	ld	s0, 0x70(sp)
8020580c: 09 61        	addi	sp, sp, 0x80
8020580e: 82 80        	ret

0000000080205810 <_ZN4core3num21_$LT$impl$u20$u16$GT$13unchecked_add18precondition_check17h1d79b8af74c38c09E>:
80205810: 01 11        	addi	sp, sp, -0x20
80205812: 06 ec        	sd	ra, 0x18(sp)
80205814: 22 e8        	sd	s0, 0x10(sp)
80205816: 00 10        	addi	s0, sp, 0x20
80205818: ae 86        	mv	a3, a1
8020581a: 2a 87        	mv	a4, a0
8020581c: 41 65        	lui	a0, 0x10
8020581e: 7d 35        	addiw	a0, a0, -0x1
80205820: 33 f6 a6 00  	and	a2, a3, a0
80205824: b3 75 a7 00  	and	a1, a4, a0
80205828: 23 14 e4 fe  	sh	a4, -0x18(s0)
8020582c: 23 15 d4 fe  	sh	a3, -0x16(s0)
80205830: b2 95        	add	a1, a1, a2
80205832: 6d 8d        	and	a0, a0, a1
80205834: 33 46 b5 00  	xor	a2, a0, a1
80205838: 33 36 c0 00  	snez	a2, a2
8020583c: 23 16 b4 fe  	sh	a1, -0x14(s0)
80205840: a3 07 c4 fe  	sb	a2, -0x11(s0)
80205844: 63 17 b5 00  	bne	a0, a1, 0x80205852 <.Lpcrel_hi0>
80205848: 09 a0        	j	0x8020584a <_ZN4core3num21_$LT$impl$u20$u16$GT$13unchecked_add18precondition_check17h1d79b8af74c38c09E+0x3a>
8020584a: e2 60        	ld	ra, 0x18(sp)
8020584c: 42 64        	ld	s0, 0x10(sp)
8020584e: 05 61        	addi	sp, sp, 0x20
80205850: 82 80        	ret

0000000080205852 <.Lpcrel_hi0>:
80205852: 17 c5 01 00  	auipc	a0, 0x1c
80205856: 13 05 e5 3b  	addi	a0, a0, 0x3be
8020585a: 93 05 30 04  	li	a1, 0x43
8020585e: 97 80 01 00  	auipc	ra, 0x18
80205862: e7 80 80 31  	jalr	0x318(ra) <_ZN4core9panicking14panic_nounwind17h62d35424a89e55acE>

0000000080205866 <_ZN4core3num23_$LT$impl$u20$usize$GT$13unchecked_mul18precondition_check17h3a0a8f63cf52f5e2E>:
80205866: 79 71        	addi	sp, sp, -0x30
80205868: 06 f4        	sd	ra, 0x28(sp)
8020586a: 22 f0        	sd	s0, 0x20(sp)
8020586c: 00 18        	addi	s0, sp, 0x30
8020586e: ae 86        	mv	a3, a1
80205870: 2a 86        	mv	a2, a0
80205872: 23 38 c4 fc  	sd	a2, -0x30(s0)
80205876: 23 3c d4 fc  	sd	a3, -0x28(s0)
8020587a: 33 35 d6 02  	mulhu	a0, a2, a3
8020587e: b3 35 a0 00  	snez	a1, a0
80205882: 33 06 d6 02  	mul	a2, a2, a3
80205886: 23 30 c4 fe  	sd	a2, -0x20(s0)
8020588a: a3 07 b4 fe  	sb	a1, -0x11(s0)
8020588e: 11 e5        	bnez	a0, 0x8020589a <.Lpcrel_hi1>
80205890: 09 a0        	j	0x80205892 <_ZN4core3num23_$LT$impl$u20$usize$GT$13unchecked_mul18precondition_check17h3a0a8f63cf52f5e2E+0x2c>
80205892: a2 70        	ld	ra, 0x28(sp)
80205894: 02 74        	ld	s0, 0x20(sp)
80205896: 45 61        	addi	sp, sp, 0x30
80205898: 82 80        	ret

000000008020589a <.Lpcrel_hi1>:
8020589a: 17 c5 01 00  	auipc	a0, 0x1c
8020589e: 13 05 95 3b  	addi	a0, a0, 0x3b9
802058a2: 93 05 50 04  	li	a1, 0x45
802058a6: 97 80 01 00  	auipc	ra, 0x18
802058aa: e7 80 00 2d  	jalr	0x2d0(ra) <_ZN4core9panicking14panic_nounwind17h62d35424a89e55acE>

00000000802058ae <_ZN45_$LT$usize$u20$as$u20$bit_field..BitField$GT$7get_bit17h005721477dceb581E>:
802058ae: 39 71        	addi	sp, sp, -0x40
802058b0: 06 fc        	sd	ra, 0x38(sp)
802058b2: 22 f8        	sd	s0, 0x30(sp)
802058b4: 80 00        	addi	s0, sp, 0x40
802058b6: 23 34 c4 fc  	sd	a2, -0x38(s0)
802058ba: 23 38 b4 fc  	sd	a1, -0x30(s0)
802058be: 23 3c a4 fc  	sd	a0, -0x28(s0)
802058c2: 23 30 a4 fe  	sd	a0, -0x20(s0)
802058c6: 23 34 b4 fe  	sd	a1, -0x18(s0)
802058ca: 13 05 00 04  	li	a0, 0x40
802058ce: 63 ef a5 00  	bltu	a1, a0, 0x802058ec <.Lpcrel_hi0+0x14>
802058d2: 09 a0        	j	0x802058d4 <_ZN45_$LT$usize$u20$as$u20$bit_field..BitField$GT$7get_bit17h005721477dceb581E+0x26>
802058d4: 03 36 84 fc  	ld	a2, -0x38(s0)

00000000802058d8 <.Lpcrel_hi0>:
802058d8: 17 c5 01 00  	auipc	a0, 0x1c
802058dc: 13 05 05 3c  	addi	a0, a0, 0x3c0
802058e0: 93 05 80 02  	li	a1, 0x28
802058e4: 97 80 01 00  	auipc	ra, 0x18
802058e8: e7 80 80 25  	jalr	0x258(ra) <_ZN4core9panicking5panic17h351b32f4738cdea8E>
802058ec: 83 35 04 fd  	ld	a1, -0x30(s0)
802058f0: 03 35 84 fd  	ld	a0, -0x28(s0)
802058f4: 08 61        	ld	a0, 0x0(a0)
802058f6: 23 30 a4 fc  	sd	a0, -0x40(s0)
802058fa: 13 05 f0 03  	li	a0, 0x3f
802058fe: 63 6e b5 00  	bltu	a0, a1, 0x8020591a <.Lpcrel_hi0+0x42>
80205902: 09 a0        	j	0x80205904 <.Lpcrel_hi0+0x2c>
80205904: 03 35 04 fc  	ld	a0, -0x40(s0)
80205908: 83 35 04 fd  	ld	a1, -0x30(s0)
8020590c: 33 55 b5 00  	srl	a0, a0, a1
80205910: 05 89        	andi	a0, a0, 0x1
80205912: e2 70        	ld	ra, 0x38(sp)
80205914: 42 74        	ld	s0, 0x30(sp)
80205916: 21 61        	addi	sp, sp, 0x40
80205918: 82 80        	ret
8020591a: 03 35 84 fc  	ld	a0, -0x38(s0)
8020591e: 97 a0 01 00  	auipc	ra, 0x1a
80205922: e7 80 60 62  	jalr	0x626(ra) <_ZN4core9panicking11panic_const24panic_const_shl_overflow17h63b2f04f3de92b28E>

0000000080205926 <_ZN45_$LT$usize$u20$as$u20$bit_field..BitField$GT$7set_bit17h78ef2d4793c7ba2eE>:
80205926: 5d 71        	addi	sp, sp, -0x50
80205928: 86 e4        	sd	ra, 0x48(sp)
8020592a: a2 e0        	sd	s0, 0x40(sp)
8020592c: 80 08        	addi	s0, sp, 0x50
8020592e: 23 3c d4 fa  	sd	a3, -0x48(s0)
80205932: 23 30 b4 fc  	sd	a1, -0x40(s0)
80205936: 23 34 a4 fc  	sd	a0, -0x38(s0)
8020593a: b2 86        	mv	a3, a2
8020593c: 23 38 d4 fc  	sd	a3, -0x30(s0)
80205940: 23 3c a4 fc  	sd	a0, -0x28(s0)
80205944: 23 30 b4 fe  	sd	a1, -0x20(s0)
80205948: a3 07 c4 fe  	sb	a2, -0x11(s0)
8020594c: 13 05 00 04  	li	a0, 0x40
80205950: 63 ef a5 00  	bltu	a1, a0, 0x8020596e <.Lpcrel_hi1+0x14>
80205954: 09 a0        	j	0x80205956 <_ZN45_$LT$usize$u20$as$u20$bit_field..BitField$GT$7set_bit17h78ef2d4793c7ba2eE+0x30>
80205956: 03 36 84 fb  	ld	a2, -0x48(s0)

000000008020595a <.Lpcrel_hi1>:
8020595a: 17 c5 01 00  	auipc	a0, 0x1c
8020595e: 13 05 e5 33  	addi	a0, a0, 0x33e
80205962: 93 05 80 02  	li	a1, 0x28
80205966: 97 80 01 00  	auipc	ra, 0x18
8020596a: e7 80 60 1d  	jalr	0x1d6(ra) <_ZN4core9panicking5panic17h351b32f4738cdea8E>
8020596e: 03 35 04 fd  	ld	a0, -0x30(s0)
80205972: 05 89        	andi	a0, a0, 0x1
80205974: 09 e9        	bnez	a0, 0x80205986 <.Lpcrel_hi1+0x2c>
80205976: 09 a0        	j	0x80205978 <.Lpcrel_hi1+0x1e>
80205978: 03 35 04 fc  	ld	a0, -0x40(s0)
8020597c: 93 05 00 04  	li	a1, 0x40
80205980: 63 6a b5 00  	bltu	a0, a1, 0x80205994 <.Lpcrel_hi1+0x3a>
80205984: 2d a0        	j	0x802059ae <.Lpcrel_hi1+0x54>
80205986: 03 35 04 fc  	ld	a0, -0x40(s0)
8020598a: 93 05 00 04  	li	a1, 0x40
8020598e: 63 6c b5 02  	bltu	a0, a1, 0x802059c6 <.Lpcrel_hi1+0x6c>
80205992: a9 a0        	j	0x802059dc <.Lpcrel_hi1+0x82>
80205994: 83 35 84 fc  	ld	a1, -0x38(s0)
80205998: 03 36 04 fc  	ld	a2, -0x40(s0)
8020599c: 05 45        	li	a0, 0x1
8020599e: 33 15 c5 00  	sll	a0, a0, a2
802059a2: 13 46 f5 ff  	not	a2, a0
802059a6: 88 61        	ld	a0, 0x0(a1)
802059a8: 71 8d        	and	a0, a0, a2
802059aa: 88 e1        	sd	a0, 0x0(a1)
802059ac: 39 a0        	j	0x802059ba <.Lpcrel_hi1+0x60>
802059ae: 03 35 84 fb  	ld	a0, -0x48(s0)
802059b2: 97 a0 01 00  	auipc	ra, 0x1a
802059b6: e7 80 20 59  	jalr	0x592(ra) <_ZN4core9panicking11panic_const24panic_const_shl_overflow17h63b2f04f3de92b28E>
802059ba: 03 35 84 fc  	ld	a0, -0x38(s0)
802059be: a6 60        	ld	ra, 0x48(sp)
802059c0: 06 64        	ld	s0, 0x40(sp)
802059c2: 61 61        	addi	sp, sp, 0x50
802059c4: 82 80        	ret
802059c6: 83 35 84 fc  	ld	a1, -0x38(s0)
802059ca: 03 36 04 fc  	ld	a2, -0x40(s0)
802059ce: 05 45        	li	a0, 0x1
802059d0: 33 16 c5 00  	sll	a2, a0, a2
802059d4: 88 61        	ld	a0, 0x0(a1)
802059d6: 51 8d        	or	a0, a0, a2
802059d8: 88 e1        	sd	a0, 0x0(a1)
802059da: c5 b7        	j	0x802059ba <.Lpcrel_hi1+0x60>
802059dc: 03 35 84 fb  	ld	a0, -0x48(s0)
802059e0: 97 a0 01 00  	auipc	ra, 0x1a
802059e4: e7 80 40 56  	jalr	0x564(ra) <_ZN4core9panicking11panic_const24panic_const_shl_overflow17h63b2f04f3de92b28E>

00000000802059e8 <_ZN4core5panic8location8Location4file17h7e890e79102383dbE>:
802059e8: 01 11        	addi	sp, sp, -0x20
802059ea: 06 ec        	sd	ra, 0x18(sp)
802059ec: 22 e8        	sd	s0, 0x10(sp)
802059ee: 00 10        	addi	s0, sp, 0x20
802059f0: aa 85        	mv	a1, a0
802059f2: 23 34 b4 fe  	sd	a1, -0x18(s0)
802059f6: 88 61        	ld	a0, 0x0(a1)
802059f8: 8c 65        	ld	a1, 0x8(a1)
802059fa: e2 60        	ld	ra, 0x18(sp)
802059fc: 42 64        	ld	s0, 0x10(sp)
802059fe: 05 61        	addi	sp, sp, 0x20
80205a00: 82 80        	ret

0000000080205a02 <_ZN4core5panic8location8Location4line17h9b837028ed18ca9eE>:
80205a02: 01 11        	addi	sp, sp, -0x20
80205a04: 06 ec        	sd	ra, 0x18(sp)
80205a06: 22 e8        	sd	s0, 0x10(sp)
80205a08: 00 10        	addi	s0, sp, 0x20
80205a0a: 23 34 a4 fe  	sd	a0, -0x18(s0)
80205a0e: 08 49        	lw	a0, 0x10(a0)
80205a10: e2 60        	ld	ra, 0x18(sp)
80205a12: 42 64        	ld	s0, 0x10(sp)
80205a14: 05 61        	addi	sp, sp, 0x20
80205a16: 82 80        	ret

0000000080205a18 <_ZN47_$LT$u16$u20$as$u20$core..iter..range..Step$GT$17forward_unchecked17h1418cf96bba88ef5E>:
80205a18: 39 71        	addi	sp, sp, -0x40
80205a1a: 06 fc        	sd	ra, 0x38(sp)
80205a1c: 22 f8        	sd	s0, 0x30(sp)
80205a1e: 80 00        	addi	s0, sp, 0x40
80205a20: 2a 86        	mv	a2, a0
80205a22: 23 34 c4 fc  	sd	a2, -0x38(s0)
80205a26: 23 1f a4 fc  	sh	a0, -0x22(s0)
80205a2a: 23 30 b4 fe  	sd	a1, -0x20(s0)
80205a2e: 2e 85        	mv	a0, a1
80205a30: 23 38 a4 fc  	sd	a0, -0x30(s0)
80205a34: 23 17 b4 fe  	sh	a1, -0x12(s0)
80205a38: 09 a0        	j	0x80205a3a <_ZN47_$LT$u16$u20$as$u20$core..iter..range..Step$GT$17forward_unchecked17h1418cf96bba88ef5E+0x22>
80205a3a: 83 35 04 fd  	ld	a1, -0x30(s0)
80205a3e: 03 35 84 fc  	ld	a0, -0x38(s0)
80205a42: 97 00 00 00  	auipc	ra, 0x0
80205a46: e7 80 e0 dc  	jalr	-0x232(ra) <_ZN4core3num21_$LT$impl$u20$u16$GT$13unchecked_add18precondition_check17h1d79b8af74c38c09E>
80205a4a: 09 a0        	j	0x80205a4c <_ZN47_$LT$u16$u20$as$u20$core..iter..range..Step$GT$17forward_unchecked17h1418cf96bba88ef5E+0x34>
80205a4c: 03 35 84 fc  	ld	a0, -0x38(s0)
80205a50: 83 35 04 fd  	ld	a1, -0x30(s0)
80205a54: 2e 95        	add	a0, a0, a1
80205a56: e2 70        	ld	ra, 0x38(sp)
80205a58: 42 74        	ld	s0, 0x30(sp)
80205a5a: 21 61        	addi	sp, sp, 0x40
80205a5c: 82 80        	ret

0000000080205a5e <_ZN4core3str11validations15next_code_point17hc8c97f41eeb86878E>:
80205a5e: 55 71        	addi	sp, sp, -0xd0
80205a60: 86 e5        	sd	ra, 0xc8(sp)
80205a62: a2 e1        	sd	s0, 0xc0(sp)
80205a64: 80 09        	addi	s0, sp, 0xd0
80205a66: 23 3c a4 f4  	sd	a0, -0xa8(s0)
80205a6a: 89 45        	li	a1, 0x2
80205a6c: 23 22 b4 f6  	sw	a1, -0x9c(s0)
80205a70: 23 30 a4 fa  	sd	a0, -0x60(s0)
80205a74: 97 50 01 00  	auipc	ra, 0x15
80205a78: e7 80 e0 32  	jalr	0x32e(ra) <_ZN91_$LT$core..slice..iter..Iter$LT$T$GT$$u20$as$u20$core..iter..traits..iterator..Iterator$GT$4next17h0e54955714396ac2E>
80205a7c: 23 3c a4 f6  	sd	a0, -0x88(s0)
80205a80: 03 35 84 f7  	ld	a0, -0x88(s0)
80205a84: 09 ed        	bnez	a0, 0x80205a9e <.Lpcrel_hi0+0x16>
80205a86: 09 a0        	j	0x80205a88 <.Lpcrel_hi0>

0000000080205a88 <.Lpcrel_hi0>:
80205a88: 17 c5 01 00  	auipc	a0, 0x1c
80205a8c: 13 05 85 c8  	addi	a0, a0, -0x378
80205a90: 0c 41        	lw	a1, 0x0(a0)
80205a92: 48 41        	lw	a0, 0x4(a0)
80205a94: 23 24 b4 f6  	sw	a1, -0x98(s0)
80205a98: 23 26 a4 f6  	sw	a0, -0x94(s0)
80205a9c: 35 a0        	j	0x80205ac8 <.Lpcrel_hi0+0x40>
80205a9e: 03 35 84 f7  	ld	a0, -0x88(s0)
80205aa2: 23 34 a4 fa  	sd	a0, -0x58(s0)
80205aa6: 23 38 a4 f6  	sd	a0, -0x90(s0)
80205aaa: 03 35 04 f7  	ld	a0, -0x90(s0)
80205aae: 23 38 a4 fa  	sd	a0, -0x50(s0)
80205ab2: 03 05 05 00  	lb	a0, 0x0(a0)
80205ab6: 93 75 f5 0f  	andi	a1, a0, 0xff
80205aba: 23 38 b4 f4  	sd	a1, -0xb0(s0)
80205abe: a3 0d a4 fa  	sb	a0, -0x45(s0)
80205ac2: 63 5e 05 02  	bgez	a0, 0x80205afe <.Lpcrel_hi0+0x76>
80205ac6: 09 a8        	j	0x80205ad8 <.Lpcrel_hi0+0x50>
80205ac8: 03 25 84 f6  	lw	a0, -0x98(s0)
80205acc: 83 25 c4 f6  	lw	a1, -0x94(s0)
80205ad0: ae 60        	ld	ra, 0xc8(sp)
80205ad2: 0e 64        	ld	s0, 0xc0(sp)
80205ad4: 69 61        	addi	sp, sp, 0xd0
80205ad6: 82 80        	ret
80205ad8: 03 35 84 f5  	ld	a0, -0xa8(s0)
80205adc: 83 35 04 f5  	ld	a1, -0xb0(s0)
80205ae0: fd 89        	andi	a1, a1, 0x1f
80205ae2: 23 34 b4 f4  	sd	a1, -0xb8(s0)
80205ae6: 23 2e b4 fa  	sw	a1, -0x44(s0)
80205aea: 97 50 01 00  	auipc	ra, 0x15
80205aee: e7 80 80 2b  	jalr	0x2b8(ra) <_ZN91_$LT$core..slice..iter..Iter$LT$T$GT$$u20$as$u20$core..iter..traits..iterator..Iterator$GT$4next17h0e54955714396ac2E>
80205af2: 23 30 a4 f8  	sd	a0, -0x80(s0)
80205af6: 03 35 04 f8  	ld	a0, -0x80(s0)
80205afa: 01 cd        	beqz	a0, 0x80205b12 <.Lpcrel_hi0+0x8a>
80205afc: 05 a0        	j	0x80205b1c <.Lpcrel_hi0+0x94>
80205afe: 03 35 04 f5  	ld	a0, -0xb0(s0)
80205b02: 13 75 f5 0f  	andi	a0, a0, 0xff
80205b06: 23 26 a4 f6  	sw	a0, -0x94(s0)
80205b0a: 05 45        	li	a0, 0x1
80205b0c: 23 24 a4 f6  	sw	a0, -0x98(s0)
80205b10: 65 bf        	j	0x80205ac8 <.Lpcrel_hi0+0x40>
80205b12: 97 30 01 00  	auipc	ra, 0x13
80205b16: e7 80 20 9b  	jalr	-0x64e(ra) <_ZN4core4hint21unreachable_unchecked18precondition_check17h42e9e110ff91df58E>
80205b1a: 3d a8        	j	0x80205b58 <.Lpcrel_hi0+0xd0>
80205b1c: 03 35 04 f5  	ld	a0, -0xb0(s0)
80205b20: 83 35 84 f4  	ld	a1, -0xb8(s0)
80205b24: 03 36 04 f8  	ld	a2, -0x80(s0)
80205b28: 23 30 c4 fc  	sd	a2, -0x40(s0)
80205b2c: 03 46 06 00  	lbu	a2, 0x0(a2)
80205b30: a3 05 c4 fc  	sb	a2, -0x35(s0)
80205b34: 9b 95 65 00  	slliw	a1, a1, 0x6
80205b38: 13 76 f6 03  	andi	a2, a2, 0x3f
80205b3c: 23 30 c4 f4  	sd	a2, -0xc0(s0)
80205b40: 23 26 c4 fc  	sw	a2, -0x34(s0)
80205b44: d1 8d        	or	a1, a1, a2
80205b46: 23 26 b4 f8  	sw	a1, -0x74(s0)
80205b4a: 93 75 f5 0f  	andi	a1, a0, 0xff
80205b4e: 13 05 f0 0d  	li	a0, 0xdf
80205b52: 63 6c b5 00  	bltu	a0, a1, 0x80205b6a <.Lpcrel_hi0+0xe2>
80205b56: 11 a0        	j	0x80205b5a <.Lpcrel_hi0+0xd2>
80205b58: 00 00        	unimp
80205b5a: 03 25 c4 f8  	lw	a0, -0x74(s0)
80205b5e: 23 26 a4 f6  	sw	a0, -0x94(s0)
80205b62: 05 45        	li	a0, 0x1
80205b64: 23 24 a4 f6  	sw	a0, -0x98(s0)
80205b68: 85 b7        	j	0x80205ac8 <.Lpcrel_hi0+0x40>
80205b6a: 03 35 84 f5  	ld	a0, -0xa8(s0)
80205b6e: 97 50 01 00  	auipc	ra, 0x15
80205b72: e7 80 40 23  	jalr	0x234(ra) <_ZN91_$LT$core..slice..iter..Iter$LT$T$GT$$u20$as$u20$core..iter..traits..iterator..Iterator$GT$4next17h0e54955714396ac2E>
80205b76: 23 38 a4 f8  	sd	a0, -0x70(s0)
80205b7a: 03 35 04 f9  	ld	a0, -0x70(s0)
80205b7e: 19 e5        	bnez	a0, 0x80205b8c <.Lpcrel_hi0+0x104>
80205b80: 09 a0        	j	0x80205b82 <.Lpcrel_hi0+0xfa>
80205b82: 97 30 01 00  	auipc	ra, 0x13
80205b86: e7 80 20 94  	jalr	-0x6be(ra) <_ZN4core4hint21unreachable_unchecked18precondition_check17h42e9e110ff91df58E>
80205b8a: f9 b7        	j	0x80205b58 <.Lpcrel_hi0+0xd0>
80205b8c: 03 35 04 f5  	ld	a0, -0xb0(s0)
80205b90: 83 35 84 f4  	ld	a1, -0xb8(s0)
80205b94: 03 36 04 f4  	ld	a2, -0xc0(s0)
80205b98: 83 36 04 f9  	ld	a3, -0x70(s0)
80205b9c: 23 38 d4 fc  	sd	a3, -0x30(s0)
80205ba0: 83 c6 06 00  	lbu	a3, 0x0(a3)
80205ba4: a3 0d d4 fc  	sb	a3, -0x25(s0)
80205ba8: 1b 16 66 00  	slliw	a2, a2, 0x6
80205bac: 93 f6 f6 03  	andi	a3, a3, 0x3f
80205bb0: 55 8e        	or	a2, a2, a3
80205bb2: 23 3c c4 f2  	sd	a2, -0xc8(s0)
80205bb6: 23 2e c4 fc  	sw	a2, -0x24(s0)
80205bba: 9b 95 c5 00  	slliw	a1, a1, 0xc
80205bbe: d1 8d        	or	a1, a1, a2
80205bc0: 23 26 b4 f8  	sw	a1, -0x74(s0)
80205bc4: 93 75 f5 0f  	andi	a1, a0, 0xff
80205bc8: 13 05 f0 0e  	li	a0, 0xef
80205bcc: 63 64 b5 00  	bltu	a0, a1, 0x80205bd4 <.Lpcrel_hi0+0x14c>
80205bd0: 09 a0        	j	0x80205bd2 <.Lpcrel_hi0+0x14a>
80205bd2: 61 b7        	j	0x80205b5a <.Lpcrel_hi0+0xd2>
80205bd4: 03 35 84 f5  	ld	a0, -0xa8(s0)
80205bd8: 97 50 01 00  	auipc	ra, 0x15
80205bdc: e7 80 a0 1c  	jalr	0x1ca(ra) <_ZN91_$LT$core..slice..iter..Iter$LT$T$GT$$u20$as$u20$core..iter..traits..iterator..Iterator$GT$4next17h0e54955714396ac2E>
80205be0: 23 3c a4 f8  	sd	a0, -0x68(s0)
80205be4: 03 35 84 f9  	ld	a0, -0x68(s0)
80205be8: 19 e5        	bnez	a0, 0x80205bf6 <.Lpcrel_hi0+0x16e>
80205bea: 09 a0        	j	0x80205bec <.Lpcrel_hi0+0x164>
80205bec: 97 30 01 00  	auipc	ra, 0x13
80205bf0: e7 80 80 8d  	jalr	-0x728(ra) <_ZN4core4hint21unreachable_unchecked18precondition_check17h42e9e110ff91df58E>
80205bf4: 95 b7        	j	0x80205b58 <.Lpcrel_hi0+0xd0>
80205bf6: 83 35 84 f3  	ld	a1, -0xc8(s0)
80205bfa: 03 35 84 f4  	ld	a0, -0xb8(s0)
80205bfe: 03 36 84 f9  	ld	a2, -0x68(s0)
80205c02: 23 30 c4 fe  	sd	a2, -0x20(s0)
80205c06: 03 46 06 00  	lbu	a2, 0x0(a2)
80205c0a: a3 07 c4 fe  	sb	a2, -0x11(s0)
80205c0e: 1d 89        	andi	a0, a0, 0x7
80205c10: 1b 15 25 01  	slliw	a0, a0, 0x12
80205c14: 9b 95 65 00  	slliw	a1, a1, 0x6
80205c18: 13 76 f6 03  	andi	a2, a2, 0x3f
80205c1c: d1 8d        	or	a1, a1, a2
80205c1e: 4d 8d        	or	a0, a0, a1
80205c20: 23 26 a4 f8  	sw	a0, -0x74(s0)
80205c24: 7d b7        	j	0x80205bd2 <.Lpcrel_hi0+0x14a>

0000000080205c26 <_ZN2os2mm15frame_allocator12FrameTracker3new17h439e6f0f65134d4aE>:
80205c26: 79 71        	addi	sp, sp, -0x30
80205c28: 06 f4        	sd	ra, 0x28(sp)
80205c2a: 22 f0        	sd	s0, 0x20(sp)
80205c2c: 00 18        	addi	s0, sp, 0x30
80205c2e: 23 3c a4 fc  	sd	a0, -0x28(s0)
80205c32: 13 05 84 fd  	addi	a0, s0, -0x28
80205c36: 97 f0 ff ff  	auipc	ra, 0xfffff
80205c3a: e7 80 c0 31  	jalr	0x31c(ra) <ekernel+0xffc7df52>
80205c3e: 23 30 a4 fe  	sd	a0, -0x20(s0)
80205c42: 23 34 b4 fe  	sd	a1, -0x18(s0)
80205c46: 01 46        	li	a2, 0x0
80205c48: 97 30 01 00  	auipc	ra, 0x13
80205c4c: e7 80 c0 d6  	jalr	-0x294(ra) <_ZN4core5slice29_$LT$impl$u20$$u5b$T$u5d$$GT$4fill17h57394444f292f9a3E>
80205c50: 03 35 84 fd  	ld	a0, -0x28(s0)
80205c54: a2 70        	ld	ra, 0x28(sp)
80205c56: 02 74        	ld	s0, 0x20(sp)
80205c58: 45 61        	addi	sp, sp, 0x30
80205c5a: 82 80        	ret

0000000080205c5c <_ZN2os2mm15frame_allocator19StackFrameAllocator4init17h4cf24cce1a50ab10E>:
80205c5c: 79 71        	addi	sp, sp, -0x30
80205c5e: 06 f4        	sd	ra, 0x28(sp)
80205c60: 22 f0        	sd	s0, 0x20(sp)
80205c62: 00 18        	addi	s0, sp, 0x30
80205c64: 23 3c a4 fc  	sd	a0, -0x28(s0)
80205c68: 23 30 b4 fe  	sd	a1, -0x20(s0)
80205c6c: 23 34 c4 fe  	sd	a2, -0x18(s0)
80205c70: 0c ed        	sd	a1, 0x18(a0)
80205c72: 10 f1        	sd	a2, 0x20(a0)
80205c74: a2 70        	ld	ra, 0x28(sp)
80205c76: 02 74        	ld	s0, 0x20(sp)
80205c78: 45 61        	addi	sp, sp, 0x30
80205c7a: 82 80        	ret

0000000080205c7c <_ZN104_$LT$os..mm..frame_allocator..StackFrameAllocator$u20$as$u20$os..mm..frame_allocator..FrameAllocator$GT$3new17h85cbc99f31827709E>:
80205c7c: 79 71        	addi	sp, sp, -0x30
80205c7e: 06 f4        	sd	ra, 0x28(sp)
80205c80: 22 f0        	sd	s0, 0x20(sp)
80205c82: 00 18        	addi	s0, sp, 0x30
80205c84: 23 38 a4 fc  	sd	a0, -0x30(s0)
80205c88: 13 05 84 fd  	addi	a0, s0, -0x28
80205c8c: 97 00 00 00  	auipc	ra, 0x0
80205c90: e7 80 c0 44  	jalr	0x44c(ra) <_ZN5alloc3vec12Vec$LT$T$GT$3new17h8194e6739e4054e9E>
80205c94: 83 35 04 fd  	ld	a1, -0x30(s0)
80205c98: 01 45        	li	a0, 0x0
80205c9a: 88 ed        	sd	a0, 0x18(a1)
80205c9c: 88 f1        	sd	a0, 0x20(a1)
80205c9e: 03 35 84 fe  	ld	a0, -0x18(s0)
80205ca2: 88 e9        	sd	a0, 0x10(a1)
80205ca4: 03 35 04 fe  	ld	a0, -0x20(s0)
80205ca8: 88 e5        	sd	a0, 0x8(a1)
80205caa: 03 35 84 fd  	ld	a0, -0x28(s0)
80205cae: 88 e1        	sd	a0, 0x0(a1)
80205cb0: a2 70        	ld	ra, 0x28(sp)
80205cb2: 02 74        	ld	s0, 0x20(sp)
80205cb4: 45 61        	addi	sp, sp, 0x30
80205cb6: 82 80        	ret

0000000080205cb8 <_ZN104_$LT$os..mm..frame_allocator..StackFrameAllocator$u20$as$u20$os..mm..frame_allocator..FrameAllocator$GT$5alloc17hb124807f0eb6b413E>:
80205cb8: 1d 71        	addi	sp, sp, -0x60
80205cba: 86 ec        	sd	ra, 0x58(sp)
80205cbc: a2 e8        	sd	s0, 0x50(sp)
80205cbe: 80 10        	addi	s0, sp, 0x60
80205cc0: 23 38 a4 fa  	sd	a0, -0x50(s0)
80205cc4: 23 3c a4 fc  	sd	a0, -0x28(s0)
80205cc8: 97 00 00 00  	auipc	ra, 0x0
80205ccc: e7 80 40 46  	jalr	0x464(ra) <_ZN5alloc3vec16Vec$LT$T$C$A$GT$3pop17h71936ed3ce4a8dcaE>
80205cd0: 23 34 a4 fc  	sd	a0, -0x38(s0)
80205cd4: 23 38 b4 fc  	sd	a1, -0x30(s0)
80205cd8: 03 35 84 fc  	ld	a0, -0x38(s0)
80205cdc: 85 45        	li	a1, 0x1
80205cde: 63 15 b5 02  	bne	a0, a1, 0x80205d08 <.Lpcrel_hi0+0x1c>
80205ce2: 09 a0        	j	0x80205ce4 <_ZN104_$LT$os..mm..frame_allocator..StackFrameAllocator$u20$as$u20$os..mm..frame_allocator..FrameAllocator$GT$5alloc17hb124807f0eb6b413E+0x2c>
80205ce4: 03 35 04 fd  	ld	a0, -0x30(s0)
80205ce8: 23 30 a4 fe  	sd	a0, -0x20(s0)

0000000080205cec <.Lpcrel_hi0>:
80205cec: 97 c5 01 00  	auipc	a1, 0x1c
80205cf0: 93 85 45 ff  	addi	a1, a1, -0xc
80205cf4: 97 00 01 00  	auipc	ra, 0x10
80205cf8: e7 80 80 81  	jalr	-0x7e8(ra) <_ZN50_$LT$T$u20$as$u20$core..convert..Into$LT$U$GT$$GT$4into17ha137a8a5b871a956E>
80205cfc: 23 30 a4 fc  	sd	a0, -0x40(s0)
80205d00: 05 45        	li	a0, 0x1
80205d02: 23 3c a4 fa  	sd	a0, -0x48(s0)
80205d06: 01 a8        	j	0x80205d16 <.Lpcrel_hi0+0x2a>
80205d08: 83 35 04 fb  	ld	a1, -0x50(s0)
80205d0c: 88 6d        	ld	a0, 0x18(a1)
80205d0e: 8c 71        	ld	a1, 0x20(a1)
80205d10: 63 08 b5 02  	beq	a0, a1, 0x80205d40 <.Lpcrel_hi0+0x54>
80205d14: 09 a8        	j	0x80205d26 <.Lpcrel_hi0+0x3a>
80205d16: 03 35 84 fb  	ld	a0, -0x48(s0)
80205d1a: 83 35 04 fc  	ld	a1, -0x40(s0)
80205d1e: e6 60        	ld	ra, 0x58(sp)
80205d20: 46 64        	ld	s0, 0x50(sp)
80205d22: 25 61        	addi	sp, sp, 0x60
80205d24: 82 80        	ret
80205d26: 03 35 04 fb  	ld	a0, -0x50(s0)
80205d2a: 0c 6d        	ld	a1, 0x18(a0)
80205d2c: 23 30 b4 fa  	sd	a1, -0x60(s0)
80205d30: 23 34 b4 fe  	sd	a1, -0x18(s0)
80205d34: 08 6d        	ld	a0, 0x18(a0)
80205d36: 05 05        	addi	a0, a0, 0x1
80205d38: 23 34 a4 fa  	sd	a0, -0x58(s0)
80205d3c: 1d c9        	beqz	a0, 0x80205d72 <.Lpcrel_hi2>
80205d3e: 29 a0        	j	0x80205d48 <.Lpcrel_hi0+0x5c>
80205d40: 01 45        	li	a0, 0x0
80205d42: 23 3c a4 fa  	sd	a0, -0x48(s0)
80205d46: c1 bf        	j	0x80205d16 <.Lpcrel_hi0+0x2a>
80205d48: 03 35 04 fa  	ld	a0, -0x60(s0)
80205d4c: 83 35 84 fa  	ld	a1, -0x58(s0)
80205d50: 03 36 04 fb  	ld	a2, -0x50(s0)
80205d54: 0c ee        	sd	a1, 0x18(a2)

0000000080205d56 <.Lpcrel_hi1>:
80205d56: 97 c5 01 00  	auipc	a1, 0x1c
80205d5a: 93 85 a5 fb  	addi	a1, a1, -0x46
80205d5e: 97 f0 00 00  	auipc	ra, 0xf
80205d62: e7 80 e0 7a  	jalr	0x7ae(ra) <_ZN50_$LT$T$u20$as$u20$core..convert..Into$LT$U$GT$$GT$4into17ha137a8a5b871a956E>
80205d66: 23 30 a4 fc  	sd	a0, -0x40(s0)
80205d6a: 05 45        	li	a0, 0x1
80205d6c: 23 3c a4 fa  	sd	a0, -0x48(s0)
80205d70: 5d b7        	j	0x80205d16 <.Lpcrel_hi0+0x2a>

0000000080205d72 <.Lpcrel_hi2>:
80205d72: 17 c5 01 00  	auipc	a0, 0x1c
80205d76: 13 05 65 f8  	addi	a0, a0, -0x7a
80205d7a: 97 a0 01 00  	auipc	ra, 0x1a
80205d7e: e7 80 80 12  	jalr	0x128(ra) <_ZN4core9panicking11panic_const24panic_const_add_overflow17h8b73966d6acdc0c6E>

0000000080205d82 <_ZN104_$LT$os..mm..frame_allocator..StackFrameAllocator$u20$as$u20$os..mm..frame_allocator..FrameAllocator$GT$7dealloc17h9685b97de398fa01E>:
80205d82: 65 71        	addi	sp, sp, -0x190
80205d84: 06 e7        	sd	ra, 0x188(sp)
80205d86: 22 e3        	sd	s0, 0x180(sp)
80205d88: 00 0b        	addi	s0, sp, 0x190
80205d8a: 23 30 a4 e8  	sd	a0, -0x180(s0)
80205d8e: 23 34 a4 f8  	sd	a0, -0x78(s0)
80205d92: 23 38 b4 f8  	sd	a1, -0x70(s0)
80205d96: 23 34 b4 e8  	sd	a1, -0x178(s0)
80205d9a: 0c 6d        	ld	a1, 0x18(a0)
80205d9c: 03 35 84 e8  	ld	a0, -0x178(s0)
80205da0: 63 7c b5 02  	bgeu	a0, a1, 0x80205dd8 <_ZN104_$LT$os..mm..frame_allocator..StackFrameAllocator$u20$as$u20$os..mm..frame_allocator..FrameAllocator$GT$7dealloc17h9685b97de398fa01E+0x56>
80205da4: 09 a0        	j	0x80205da6 <_ZN104_$LT$os..mm..frame_allocator..StackFrameAllocator$u20$as$u20$os..mm..frame_allocator..FrameAllocator$GT$7dealloc17h9685b97de398fa01E+0x24>
80205da6: 03 35 04 e8  	ld	a0, -0x180(s0)
80205daa: 97 00 00 00  	auipc	ra, 0x0
80205dae: e7 80 c0 6e  	jalr	0x6ec(ra) <_ZN72_$LT$alloc..vec..Vec$LT$T$C$A$GT$$u20$as$u20$core..ops..deref..Deref$GT$5deref17hd7e156bc6bab9aecE>
80205db2: 97 30 01 00  	auipc	ra, 0x13
80205db6: e7 80 60 c2  	jalr	-0x3da(ra) <_ZN4core5slice29_$LT$impl$u20$$u5b$T$u5d$$GT$4iter17h5d5f5d86f6bb97efE>
80205dba: 23 38 a4 e8  	sd	a0, -0x170(s0)
80205dbe: 23 3c b4 e8  	sd	a1, -0x168(s0)
80205dc2: 13 05 04 e9  	addi	a0, s0, -0x170
80205dc6: 93 05 84 e8  	addi	a1, s0, -0x178
80205dca: 97 50 00 00  	auipc	ra, 0x5
80205dce: e7 80 60 5b  	jalr	0x5b6(ra) <_ZN91_$LT$core..slice..iter..Iter$LT$T$GT$$u20$as$u20$core..iter..traits..iterator..Iterator$GT$3any17h72ed44c2de8463c4E>
80205dd2: 63 0f 05 10  	beqz	a0, 0x80205ef0 <.Lpcrel_hi5+0x10>
80205dd6: 09 a0        	j	0x80205dd8 <_ZN104_$LT$os..mm..frame_allocator..StackFrameAllocator$u20$as$u20$os..mm..frame_allocator..FrameAllocator$GT$7dealloc17h9685b97de398fa01E+0x56>
80205dd8: 93 05 84 e8  	addi	a1, s0, -0x178
80205ddc: 23 30 b4 fe  	sd	a1, -0x20(s0)

0000000080205de0 <.Lpcrel_hi3>:
80205de0: 17 a5 01 00  	auipc	a0, 0x1a
80205de4: 13 05 25 37  	addi	a0, a0, 0x372
80205de8: 23 34 a4 fe  	sd	a0, -0x18(s0)
80205dec: 23 38 b4 fc  	sd	a1, -0x30(s0)
80205df0: 23 3c a4 fc  	sd	a0, -0x28(s0)
80205df4: 03 35 84 fd  	ld	a0, -0x28(s0)
80205df8: 23 34 a4 ee  	sd	a0, -0x118(s0)
80205dfc: 03 35 04 fd  	ld	a0, -0x30(s0)
80205e00: 23 30 a4 ee  	sd	a0, -0x120(s0)
80205e04: 03 35 84 ee  	ld	a0, -0x118(s0)
80205e08: 23 3c a4 ec  	sd	a0, -0x128(s0)
80205e0c: 03 35 04 ee  	ld	a0, -0x120(s0)
80205e10: 23 38 a4 ec  	sd	a0, -0x130(s0)
80205e14: 0d 45        	li	a0, 0x3
80205e16: a3 03 a4 f6  	sb	a0, -0x99(s0)
80205e1a: 09 46        	li	a2, 0x2
80205e1c: 23 34 c4 f6  	sd	a2, -0x98(s0)
80205e20: 23 3c c4 f6  	sd	a2, -0x88(s0)
80205e24: 03 48 74 f6  	lbu	a6, -0x99(s0)
80205e28: 03 37 84 f6  	ld	a4, -0x98(s0)
80205e2c: 83 36 04 f7  	ld	a3, -0x90(s0)
80205e30: 83 35 84 f7  	ld	a1, -0x88(s0)
80205e34: 03 35 04 f8  	ld	a0, -0x80(s0)
80205e38: 81 42        	li	t0, 0x0
80205e3a: 23 3c 54 f8  	sd	t0, -0x68(s0)
80205e3e: 93 08 00 02  	li	a7, 0x20
80205e42: 23 22 14 fb  	sw	a7, -0x5c(s0)
80205e46: a3 05 04 fb  	sb	a6, -0x55(s0)
80205e4a: 91 47        	li	a5, 0x4
80205e4c: 23 26 f4 fa  	sw	a5, -0x54(s0)
80205e50: 23 38 e4 fa  	sd	a4, -0x50(s0)
80205e54: 23 3c d4 fa  	sd	a3, -0x48(s0)
80205e58: 23 30 b4 fc  	sd	a1, -0x40(s0)
80205e5c: 23 34 a4 fc  	sd	a0, -0x38(s0)
80205e60: 23 34 54 f4  	sd	t0, -0xb8(s0)
80205e64: 23 28 14 f5  	sw	a7, -0xb0(s0)
80205e68: 23 0c 04 f5  	sb	a6, -0xa8(s0)
80205e6c: 23 2a f4 f4  	sw	a5, -0xac(s0)
80205e70: 23 34 e4 f2  	sd	a4, -0xd8(s0)
80205e74: 23 38 d4 f2  	sd	a3, -0xd0(s0)
80205e78: 23 3c b4 f2  	sd	a1, -0xc8(s0)
80205e7c: 23 30 a4 f4  	sd	a0, -0xc0(s0)
80205e80: 03 35 84 f5  	ld	a0, -0xa8(s0)
80205e84: 23 30 a4 f2  	sd	a0, -0xe0(s0)
80205e88: 03 35 04 f5  	ld	a0, -0xb0(s0)
80205e8c: 23 3c a4 f0  	sd	a0, -0xe8(s0)
80205e90: 03 35 84 f4  	ld	a0, -0xb8(s0)
80205e94: 23 38 a4 f0  	sd	a0, -0xf0(s0)
80205e98: 03 35 04 f4  	ld	a0, -0xc0(s0)
80205e9c: 23 34 a4 f0  	sd	a0, -0xf8(s0)
80205ea0: 03 35 84 f3  	ld	a0, -0xc8(s0)
80205ea4: 23 30 a4 f0  	sd	a0, -0x100(s0)
80205ea8: 03 35 04 f3  	ld	a0, -0xd0(s0)
80205eac: 23 3c a4 ee  	sd	a0, -0x108(s0)
80205eb0: 03 35 84 f2  	ld	a0, -0xd8(s0)
80205eb4: 23 38 a4 ee  	sd	a0, -0x110(s0)

0000000080205eb8 <.Lpcrel_hi4>:
80205eb8: 17 c5 01 00  	auipc	a0, 0x1c
80205ebc: 93 05 85 e9  	addi	a1, a0, -0x168
80205ec0: 13 05 04 ea  	addi	a0, s0, -0x160
80205ec4: 23 3c a4 e6  	sd	a0, -0x188(s0)
80205ec8: 93 06 04 ed  	addi	a3, s0, -0x130
80205ecc: 93 07 04 ef  	addi	a5, s0, -0x110
80205ed0: 05 48        	li	a6, 0x1
80205ed2: 42 87        	mv	a4, a6
80205ed4: 97 f0 ff ff  	auipc	ra, 0xfffff
80205ed8: e7 80 a0 cd  	jalr	-0x326(ra) <ekernel+0xffc7dbae>
80205edc: 03 35 84 e7  	ld	a0, -0x188(s0)

0000000080205ee0 <.Lpcrel_hi5>:
80205ee0: 97 c5 01 00  	auipc	a1, 0x1c
80205ee4: 93 85 05 e9  	addi	a1, a1, -0x170
80205ee8: 97 80 01 00  	auipc	ra, 0x18
80205eec: e7 80 e0 bc  	jalr	-0x432(ra) <_ZN4core9panicking9panic_fmt17h62e38808e12e8cecE>
80205ef0: 03 35 04 e8  	ld	a0, -0x180(s0)
80205ef4: 83 35 84 e8  	ld	a1, -0x178(s0)
80205ef8: 97 00 00 00  	auipc	ra, 0x0
80205efc: e7 80 a0 51  	jalr	0x51a(ra) <_ZN5alloc3vec16Vec$LT$T$C$A$GT$4push17hf833fcb47c13724aE>
80205f00: ba 60        	ld	ra, 0x188(sp)
80205f02: 1a 64        	ld	s0, 0x180(sp)
80205f04: 59 61        	addi	sp, sp, 0x190
80205f06: 82 80        	ret

0000000080205f08 <_ZN2os2mm15frame_allocator20init_frame_allocator17h5955db4721ae45f7E>:
80205f08: 5d 71        	addi	sp, sp, -0x50
80205f0a: 86 e4        	sd	ra, 0x48(sp)
80205f0c: a2 e0        	sd	s0, 0x40(sp)
80205f0e: 80 08        	addi	s0, sp, 0x50

0000000080205f10 <.Lpcrel_hi6>:
80205f10: 17 c5 01 00  	auipc	a0, 0x1c
80205f14: 13 05 85 e7  	addi	a0, a0, -0x188
80205f18: 97 00 00 00  	auipc	ra, 0x0
80205f1c: e7 80 00 16  	jalr	0x160(ra) <_ZN84_$LT$os..mm..frame_allocator..FRAME_ALLOCATOR$u20$as$u20$core..ops..deref..Deref$GT$5deref17hce32979eac4b67afE>
80205f20: 97 10 01 00  	auipc	ra, 0x11
80205f24: e7 80 00 0c  	jalr	0xc0(ra) <_ZN2os4sync2up19UPSafeCell$LT$T$GT$16exclusive_access17h5407c922261d4b50E>
80205f28: 23 38 a4 fc  	sd	a0, -0x30(s0)
80205f2c: 23 3c b4 fc  	sd	a1, -0x28(s0)
80205f30: 13 05 04 fd  	addi	a0, s0, -0x30
80205f34: 23 34 a4 fc  	sd	a0, -0x38(s0)
80205f38: 97 20 01 00  	auipc	ra, 0x12
80205f3c: e7 80 c0 2d  	jalr	0x2dc(ra) <_ZN74_$LT$core..cell..RefMut$LT$T$GT$$u20$as$u20$core..ops..deref..DerefMut$GT$9deref_mut17h03d38759effa0a29E>
80205f40: 23 30 a4 fc  	sd	a0, -0x40(s0)

0000000080205f44 <.Lpcrel_hi7>:
80205f44: 17 15 38 00  	auipc	a0, 0x381
80205f48: 13 05 c5 0b  	addi	a0, a0, 0xbc
80205f4c: 97 f0 ff ff  	auipc	ra, 0xfffff
80205f50: e7 80 00 e6  	jalr	-0x1a0(ra) <ekernel+0xffc7ddac>
80205f54: 23 30 a4 fe  	sd	a0, -0x20(s0)
80205f58: 13 05 04 fe  	addi	a0, s0, -0x20
80205f5c: 97 f0 ff ff  	auipc	ra, 0xfffff
80205f60: e7 80 80 e9  	jalr	-0x168(ra) <ekernel+0xffc7ddf4>
80205f64: 23 3c a4 fa  	sd	a0, -0x48(s0)
80205f68: 45 45        	li	a0, 0x11
80205f6a: 6e 05        	slli	a0, a0, 0x1b
80205f6c: 97 f0 ff ff  	auipc	ra, 0xfffff
80205f70: e7 80 00 e4  	jalr	-0x1c0(ra) <ekernel+0xffc7ddac>
80205f74: 23 34 a4 fe  	sd	a0, -0x18(s0)
80205f78: 13 05 84 fe  	addi	a0, s0, -0x18
80205f7c: 97 f0 ff ff  	auipc	ra, 0xfffff
80205f80: e7 80 00 e6  	jalr	-0x1a0(ra) <ekernel+0xffc7dddc>
80205f84: 83 35 84 fb  	ld	a1, -0x48(s0)
80205f88: 2a 86        	mv	a2, a0
80205f8a: 03 35 04 fc  	ld	a0, -0x40(s0)
80205f8e: 97 00 00 00  	auipc	ra, 0x0
80205f92: e7 80 e0 cc  	jalr	-0x332(ra) <_ZN2os2mm15frame_allocator19StackFrameAllocator4init17h4cf24cce1a50ab10E>
80205f96: 03 35 84 fc  	ld	a0, -0x38(s0)
80205f9a: 97 40 00 00  	auipc	ra, 0x4
80205f9e: e7 80 e0 b4  	jalr	-0x4b2(ra) <_ZN4core3ptr91drop_in_place$LT$core..cell..RefMut$LT$os..mm..frame_allocator..StackFrameAllocator$GT$$GT$17h45d0681ab3d612b6E>
80205fa2: a6 60        	ld	ra, 0x48(sp)
80205fa4: 06 64        	ld	s0, 0x40(sp)
80205fa6: 61 61        	addi	sp, sp, 0x50
80205fa8: 82 80        	ret

0000000080205faa <_ZN2os2mm15frame_allocator11frame_alloc17h235cd4bb599a6e3aE>:
80205faa: 39 71        	addi	sp, sp, -0x40
80205fac: 06 fc        	sd	ra, 0x38(sp)
80205fae: 22 f8        	sd	s0, 0x30(sp)
80205fb0: 80 00        	addi	s0, sp, 0x40

0000000080205fb2 <.Lpcrel_hi8>:
80205fb2: 17 c5 01 00  	auipc	a0, 0x1c
80205fb6: 13 05 65 dd  	addi	a0, a0, -0x22a
80205fba: 97 00 00 00  	auipc	ra, 0x0
80205fbe: e7 80 e0 0b  	jalr	0xbe(ra) <_ZN84_$LT$os..mm..frame_allocator..FRAME_ALLOCATOR$u20$as$u20$core..ops..deref..Deref$GT$5deref17hce32979eac4b67afE>
80205fc2: 97 10 01 00  	auipc	ra, 0x11
80205fc6: e7 80 e0 01  	jalr	0x1e(ra) <_ZN2os4sync2up19UPSafeCell$LT$T$GT$16exclusive_access17h5407c922261d4b50E>
80205fca: 23 30 a4 fe  	sd	a0, -0x20(s0)
80205fce: 23 34 b4 fe  	sd	a1, -0x18(s0)
80205fd2: 13 05 04 fe  	addi	a0, s0, -0x20
80205fd6: 23 34 a4 fc  	sd	a0, -0x38(s0)
80205fda: 97 20 01 00  	auipc	ra, 0x12
80205fde: e7 80 a0 23  	jalr	0x23a(ra) <_ZN74_$LT$core..cell..RefMut$LT$T$GT$$u20$as$u20$core..ops..deref..DerefMut$GT$9deref_mut17h03d38759effa0a29E>
80205fe2: 97 00 00 00  	auipc	ra, 0x0
80205fe6: e7 80 60 cd  	jalr	-0x32a(ra) <_ZN104_$LT$os..mm..frame_allocator..StackFrameAllocator$u20$as$u20$os..mm..frame_allocator..FrameAllocator$GT$5alloc17hb124807f0eb6b413E>
80205fea: 97 e0 00 00  	auipc	ra, 0xe
80205fee: e7 80 a0 ce  	jalr	-0x316(ra) <_ZN4core6option15Option$LT$T$GT$3map17h88422c72d7b148b6E>
80205ff2: 2a 86        	mv	a2, a0
80205ff4: 03 35 84 fc  	ld	a0, -0x38(s0)
80205ff8: 23 38 c4 fc  	sd	a2, -0x30(s0)
80205ffc: 23 3c b4 fc  	sd	a1, -0x28(s0)
80206000: 97 40 00 00  	auipc	ra, 0x4
80206004: e7 80 80 ae  	jalr	-0x518(ra) <_ZN4core3ptr91drop_in_place$LT$core..cell..RefMut$LT$os..mm..frame_allocator..StackFrameAllocator$GT$$GT$17h45d0681ab3d612b6E>
80206008: 03 35 04 fd  	ld	a0, -0x30(s0)
8020600c: 83 35 84 fd  	ld	a1, -0x28(s0)
80206010: e2 70        	ld	ra, 0x38(sp)
80206012: 42 74        	ld	s0, 0x30(sp)
80206014: 21 61        	addi	sp, sp, 0x40
80206016: 82 80        	ret

0000000080206018 <_ZN2os2mm15frame_allocator13frame_dealloc17haf01e5215fa3f51cE>:
80206018: 39 71        	addi	sp, sp, -0x40
8020601a: 06 fc        	sd	ra, 0x38(sp)
8020601c: 22 f8        	sd	s0, 0x30(sp)
8020601e: 80 00        	addi	s0, sp, 0x40
80206020: 23 34 a4 fc  	sd	a0, -0x38(s0)
80206024: 23 34 a4 fe  	sd	a0, -0x18(s0)

0000000080206028 <.Lpcrel_hi9>:
80206028: 17 c5 01 00  	auipc	a0, 0x1c
8020602c: 13 05 05 d6  	addi	a0, a0, -0x2a0
80206030: 97 00 00 00  	auipc	ra, 0x0
80206034: e7 80 80 04  	jalr	0x48(ra) <_ZN84_$LT$os..mm..frame_allocator..FRAME_ALLOCATOR$u20$as$u20$core..ops..deref..Deref$GT$5deref17hce32979eac4b67afE>
80206038: 97 10 01 00  	auipc	ra, 0x11
8020603c: e7 80 80 fa  	jalr	-0x58(ra) <_ZN2os4sync2up19UPSafeCell$LT$T$GT$16exclusive_access17h5407c922261d4b50E>
80206040: 23 3c a4 fc  	sd	a0, -0x28(s0)
80206044: 23 30 b4 fe  	sd	a1, -0x20(s0)
80206048: 13 05 84 fd  	addi	a0, s0, -0x28
8020604c: 23 38 a4 fc  	sd	a0, -0x30(s0)
80206050: 97 20 01 00  	auipc	ra, 0x12
80206054: e7 80 40 1c  	jalr	0x1c4(ra) <_ZN74_$LT$core..cell..RefMut$LT$T$GT$$u20$as$u20$core..ops..deref..DerefMut$GT$9deref_mut17h03d38759effa0a29E>
80206058: 83 35 84 fc  	ld	a1, -0x38(s0)
8020605c: 97 00 00 00  	auipc	ra, 0x0
80206060: e7 80 60 d2  	jalr	-0x2da(ra) <_ZN104_$LT$os..mm..frame_allocator..StackFrameAllocator$u20$as$u20$os..mm..frame_allocator..FrameAllocator$GT$7dealloc17h9685b97de398fa01E>
80206064: 03 35 04 fd  	ld	a0, -0x30(s0)
80206068: 97 40 00 00  	auipc	ra, 0x4
8020606c: e7 80 00 a8  	jalr	-0x580(ra) <_ZN4core3ptr91drop_in_place$LT$core..cell..RefMut$LT$os..mm..frame_allocator..StackFrameAllocator$GT$$GT$17h45d0681ab3d612b6E>
80206070: e2 70        	ld	ra, 0x38(sp)
80206072: 42 74        	ld	s0, 0x30(sp)
80206074: 21 61        	addi	sp, sp, 0x40
80206076: 82 80        	ret

0000000080206078 <_ZN84_$LT$os..mm..frame_allocator..FRAME_ALLOCATOR$u20$as$u20$core..ops..deref..Deref$GT$5deref17hce32979eac4b67afE>:
80206078: 01 11        	addi	sp, sp, -0x20
8020607a: 06 ec        	sd	ra, 0x18(sp)
8020607c: 22 e8        	sd	s0, 0x10(sp)
8020607e: 00 10        	addi	s0, sp, 0x20
80206080: 23 30 a4 fe  	sd	a0, -0x20(s0)

0000000080206084 <.Lpcrel_hi10>:
80206084: 17 05 08 00  	auipc	a0, 0x80
80206088: 13 05 c5 f8  	addi	a0, a0, -0x74
8020608c: 23 34 a4 fe  	sd	a0, -0x18(s0)
80206090: 97 30 00 00  	auipc	ra, 0x3
80206094: e7 80 20 3d  	jalr	0x3d2(ra) <_ZN4spin4once17Once$LT$T$C$R$GT$9call_once17h2c5f18e916ecfd25E>
80206098: e2 60        	ld	ra, 0x18(sp)
8020609a: 42 64        	ld	s0, 0x10(sp)
8020609c: 05 61        	addi	sp, sp, 0x20
8020609e: 82 80        	ret

00000000802060a0 <_ZN5alloc3vec12Vec$LT$T$GT$3new17h04505eda1bac928dE>:
802060a0: 41 11        	addi	sp, sp, -0x10
802060a2: 06 e4        	sd	ra, 0x8(sp)
802060a4: 22 e0        	sd	s0, 0x0(sp)
802060a6: 00 08        	addi	s0, sp, 0x10
802060a8: aa 85        	mv	a1, a0
802060aa: 01 45        	li	a0, 0x0
802060ac: 88 e1        	sd	a0, 0x0(a1)
802060ae: 21 46        	li	a2, 0x8
802060b0: 90 e5        	sd	a2, 0x8(a1)
802060b2: 88 e9        	sd	a0, 0x10(a1)
802060b4: a2 60        	ld	ra, 0x8(sp)
802060b6: 02 64        	ld	s0, 0x0(sp)
802060b8: 41 01        	addi	sp, sp, 0x10
802060ba: 82 80        	ret

00000000802060bc <_ZN5alloc3vec12Vec$LT$T$GT$3new17h7bf9637a9ad3d08bE>:
802060bc: 41 11        	addi	sp, sp, -0x10
802060be: 06 e4        	sd	ra, 0x8(sp)
802060c0: 22 e0        	sd	s0, 0x0(sp)
802060c2: 00 08        	addi	s0, sp, 0x10
802060c4: aa 85        	mv	a1, a0
802060c6: 01 45        	li	a0, 0x0
802060c8: 88 e1        	sd	a0, 0x0(a1)
802060ca: 21 46        	li	a2, 0x8
802060cc: 90 e5        	sd	a2, 0x8(a1)
802060ce: 88 e9        	sd	a0, 0x10(a1)
802060d0: a2 60        	ld	ra, 0x8(sp)
802060d2: 02 64        	ld	s0, 0x0(sp)
802060d4: 41 01        	addi	sp, sp, 0x10
802060d6: 82 80        	ret

00000000802060d8 <_ZN5alloc3vec12Vec$LT$T$GT$3new17h8194e6739e4054e9E>:
802060d8: 41 11        	addi	sp, sp, -0x10
802060da: 06 e4        	sd	ra, 0x8(sp)
802060dc: 22 e0        	sd	s0, 0x0(sp)
802060de: 00 08        	addi	s0, sp, 0x10
802060e0: aa 85        	mv	a1, a0
802060e2: 01 45        	li	a0, 0x0
802060e4: 88 e1        	sd	a0, 0x0(a1)
802060e6: 21 46        	li	a2, 0x8
802060e8: 90 e5        	sd	a2, 0x8(a1)
802060ea: 88 e9        	sd	a0, 0x10(a1)
802060ec: a2 60        	ld	ra, 0x8(sp)
802060ee: 02 64        	ld	s0, 0x0(sp)
802060f0: 41 01        	addi	sp, sp, 0x10
802060f2: 82 80        	ret

00000000802060f4 <_ZN5alloc3vec12Vec$LT$T$GT$3new17hc5c89782f31b2ef4E>:
802060f4: 41 11        	addi	sp, sp, -0x10
802060f6: 06 e4        	sd	ra, 0x8(sp)
802060f8: 22 e0        	sd	s0, 0x0(sp)
802060fa: 00 08        	addi	s0, sp, 0x10
802060fc: aa 85        	mv	a1, a0
802060fe: 01 45        	li	a0, 0x0
80206100: 88 e1        	sd	a0, 0x0(a1)
80206102: 21 46        	li	a2, 0x8
80206104: 90 e5        	sd	a2, 0x8(a1)
80206106: 88 e9        	sd	a0, 0x10(a1)
80206108: a2 60        	ld	ra, 0x8(sp)
8020610a: 02 64        	ld	s0, 0x0(sp)
8020610c: 41 01        	addi	sp, sp, 0x10
8020610e: 82 80        	ret

0000000080206110 <_ZN5alloc3vec12Vec$LT$T$GT$3new17hffa0dc1aecdbefafE>:
80206110: 41 11        	addi	sp, sp, -0x10
80206112: 06 e4        	sd	ra, 0x8(sp)
80206114: 22 e0        	sd	s0, 0x0(sp)
80206116: 00 08        	addi	s0, sp, 0x10
80206118: aa 85        	mv	a1, a0
8020611a: 01 45        	li	a0, 0x0
8020611c: 88 e1        	sd	a0, 0x0(a1)
8020611e: 21 46        	li	a2, 0x8
80206120: 90 e5        	sd	a2, 0x8(a1)
80206122: 88 e9        	sd	a0, 0x10(a1)
80206124: a2 60        	ld	ra, 0x8(sp)
80206126: 02 64        	ld	s0, 0x0(sp)
80206128: 41 01        	addi	sp, sp, 0x10
8020612a: 82 80        	ret

000000008020612c <_ZN5alloc3vec16Vec$LT$T$C$A$GT$3pop17h71936ed3ce4a8dcaE>:
8020612c: 19 71        	addi	sp, sp, -0x80
8020612e: 86 fc        	sd	ra, 0x78(sp)
80206130: a2 f8        	sd	s0, 0x70(sp)
80206132: 00 01        	addi	s0, sp, 0x80
80206134: 23 38 a4 f8  	sd	a0, -0x70(s0)
80206138: 23 38 a4 fa  	sd	a0, -0x50(s0)
8020613c: 08 69        	ld	a0, 0x10(a0)
8020613e: 11 e5        	bnez	a0, 0x8020614a <_ZN5alloc3vec16Vec$LT$T$C$A$GT$3pop17h71936ed3ce4a8dcaE+0x1e>
80206140: 09 a0        	j	0x80206142 <_ZN5alloc3vec16Vec$LT$T$C$A$GT$3pop17h71936ed3ce4a8dcaE+0x16>
80206142: 01 45        	li	a0, 0x0
80206144: 23 3c a4 f8  	sd	a0, -0x68(s0)
80206148: 21 a8        	j	0x80206160 <_ZN5alloc3vec16Vec$LT$T$C$A$GT$3pop17h71936ed3ce4a8dcaE+0x34>
8020614a: 03 35 04 f9  	ld	a0, -0x70(s0)
8020614e: 0c 69        	ld	a1, 0x10(a0)
80206150: fd 15        	addi	a1, a1, -0x1
80206152: 0c e9        	sd	a1, 0x10(a0)
80206154: 0c 69        	ld	a1, 0x10(a0)
80206156: 23 34 b4 f8  	sd	a1, -0x78(s0)
8020615a: 23 3c a4 fa  	sd	a0, -0x48(s0)
8020615e: 09 a8        	j	0x80206170 <_ZN5alloc3vec16Vec$LT$T$C$A$GT$3pop17h71936ed3ce4a8dcaE+0x44>
80206160: 03 35 84 f9  	ld	a0, -0x68(s0)
80206164: 83 35 04 fa  	ld	a1, -0x60(s0)
80206168: e6 70        	ld	ra, 0x78(sp)
8020616a: 46 74        	ld	s0, 0x70(sp)
8020616c: 09 61        	addi	sp, sp, 0x80
8020616e: 82 80        	ret
80206170: 03 35 04 f9  	ld	a0, -0x70(s0)
80206174: 08 61        	ld	a0, 0x0(a0)
80206176: 23 34 a4 fa  	sd	a0, -0x58(s0)
8020617a: 09 a0        	j	0x8020617c <_ZN5alloc3vec16Vec$LT$T$C$A$GT$3pop17h71936ed3ce4a8dcaE+0x50>
8020617c: 03 35 84 f8  	ld	a0, -0x78(s0)
80206180: 83 35 84 fa  	ld	a1, -0x58(s0)
80206184: 33 35 b5 00  	sltu	a0, a0, a1
80206188: 23 30 a4 f8  	sd	a0, -0x80(s0)
8020618c: a3 03 a4 fc  	sb	a0, -0x39(s0)
80206190: 09 a0        	j	0x80206192 <_ZN5alloc3vec16Vec$LT$T$C$A$GT$3pop17h71936ed3ce4a8dcaE+0x66>
80206192: 03 35 04 f8  	ld	a0, -0x80(s0)
80206196: 05 89        	andi	a0, a0, 0x1
80206198: 97 20 01 00  	auipc	ra, 0x12
8020619c: e7 80 00 30  	jalr	0x300(ra) <_ZN4core4hint16assert_unchecked18precondition_check17he7e18b384d3b8458E>
802061a0: 09 a0        	j	0x802061a2 <_ZN5alloc3vec16Vec$LT$T$C$A$GT$3pop17h71936ed3ce4a8dcaE+0x76>
802061a2: 83 35 04 f9  	ld	a1, -0x70(s0)
802061a6: 23 34 b4 fc  	sd	a1, -0x38(s0)
802061aa: 88 65        	ld	a0, 0x8(a1)
802061ac: 23 38 a4 fc  	sd	a0, -0x30(s0)
802061b0: 23 3c a4 fc  	sd	a0, -0x28(s0)
802061b4: 8c 69        	ld	a1, 0x10(a1)
802061b6: 23 30 b4 fe  	sd	a1, -0x20(s0)
802061ba: 8e 05        	slli	a1, a1, 0x3
802061bc: 2e 95        	add	a0, a0, a1
802061be: 23 34 a4 fe  	sd	a0, -0x18(s0)
802061c2: 08 61        	ld	a0, 0x0(a0)
802061c4: 23 30 a4 fa  	sd	a0, -0x60(s0)
802061c8: 05 45        	li	a0, 0x1
802061ca: 23 3c a4 f8  	sd	a0, -0x68(s0)
802061ce: 49 bf        	j	0x80206160 <_ZN5alloc3vec16Vec$LT$T$C$A$GT$3pop17h71936ed3ce4a8dcaE+0x34>

00000000802061d0 <_ZN5alloc3vec16Vec$LT$T$C$A$GT$4push17h191a31c6101bee18E>:
802061d0: 59 71        	addi	sp, sp, -0x70
802061d2: 86 f4        	sd	ra, 0x68(sp)
802061d4: a2 f0        	sd	s0, 0x60(sp)
802061d6: 80 18        	addi	s0, sp, 0x70
802061d8: 23 38 b4 f8  	sd	a1, -0x70(s0)
802061dc: 23 3c a4 f8  	sd	a0, -0x68(s0)
802061e0: 23 38 a4 fa  	sd	a0, -0x50(s0)
802061e4: 23 3c b4 fa  	sd	a1, -0x48(s0)
802061e8: 0c 69        	ld	a1, 0x10(a0)
802061ea: 23 30 b4 fa  	sd	a1, -0x60(s0)
802061ee: 23 30 b4 fc  	sd	a1, -0x40(s0)
802061f2: 23 34 a4 fc  	sd	a0, -0x38(s0)
802061f6: 09 a0        	j	0x802061f8 <_ZN5alloc3vec16Vec$LT$T$C$A$GT$4push17h191a31c6101bee18E+0x28>
802061f8: 03 35 84 f9  	ld	a0, -0x68(s0)
802061fc: 08 61        	ld	a0, 0x0(a0)
802061fe: 23 34 a4 fa  	sd	a0, -0x58(s0)
80206202: 09 a0        	j	0x80206204 <_ZN5alloc3vec16Vec$LT$T$C$A$GT$4push17h191a31c6101bee18E+0x34>
80206204: 03 35 04 fa  	ld	a0, -0x60(s0)
80206208: 83 35 84 fa  	ld	a1, -0x58(s0)
8020620c: 63 04 b5 00  	beq	a0, a1, 0x80206214 <_ZN5alloc3vec16Vec$LT$T$C$A$GT$4push17h191a31c6101bee18E+0x44>
80206210: 09 a0        	j	0x80206212 <_ZN5alloc3vec16Vec$LT$T$C$A$GT$4push17h191a31c6101bee18E+0x42>
80206212: 01 a8        	j	0x80206222 <_ZN5alloc3vec16Vec$LT$T$C$A$GT$4push17h191a31c6101bee18E+0x52>
80206214: 03 35 84 f9  	ld	a0, -0x68(s0)
80206218: 97 20 00 00  	auipc	ra, 0x2
8020621c: e7 80 00 f9  	jalr	-0x70(ra) <_ZN5alloc7raw_vec19RawVec$LT$T$C$A$GT$8grow_one17hb1604b869962fcccE>
80206220: 09 a0        	j	0x80206222 <_ZN5alloc3vec16Vec$LT$T$C$A$GT$4push17h191a31c6101bee18E+0x52>
80206222: 83 35 84 f9  	ld	a1, -0x68(s0)
80206226: 03 35 04 fa  	ld	a0, -0x60(s0)
8020622a: 03 36 04 f9  	ld	a2, -0x70(s0)
8020622e: 23 38 b4 fc  	sd	a1, -0x30(s0)
80206232: 94 65        	ld	a3, 0x8(a1)
80206234: 23 3c d4 fc  	sd	a3, -0x28(s0)
80206238: 23 30 d4 fe  	sd	a3, -0x20(s0)
8020623c: 13 17 35 00  	slli	a4, a0, 0x3
80206240: ba 96        	add	a3, a3, a4
80206242: 23 34 d4 fe  	sd	a3, -0x18(s0)
80206246: 90 e2        	sd	a2, 0x0(a3)
80206248: 05 05        	addi	a0, a0, 0x1
8020624a: 88 e9        	sd	a0, 0x10(a1)
8020624c: a6 70        	ld	ra, 0x68(sp)
8020624e: 06 74        	ld	s0, 0x60(sp)
80206250: 65 61        	addi	sp, sp, 0x70
80206252: 82 80        	ret

0000000080206254 <_ZN5alloc3vec16Vec$LT$T$C$A$GT$4push17h25c83a5e6bbab8c4E>:
80206254: 59 71        	addi	sp, sp, -0x70
80206256: 86 f4        	sd	ra, 0x68(sp)
80206258: a2 f0        	sd	s0, 0x60(sp)
8020625a: 80 18        	addi	s0, sp, 0x70
8020625c: 23 3c b4 f8  	sd	a1, -0x68(s0)
80206260: 23 30 a4 fa  	sd	a0, -0x60(s0)
80206264: 23 3c a4 fa  	sd	a0, -0x48(s0)
80206268: 0c 69        	ld	a1, 0x10(a0)
8020626a: 23 34 b4 fa  	sd	a1, -0x58(s0)
8020626e: 23 30 b4 fc  	sd	a1, -0x40(s0)
80206272: 23 34 a4 fc  	sd	a0, -0x38(s0)
80206276: 09 a0        	j	0x80206278 <_ZN5alloc3vec16Vec$LT$T$C$A$GT$4push17h25c83a5e6bbab8c4E+0x24>
80206278: 03 35 04 fa  	ld	a0, -0x60(s0)
8020627c: 08 61        	ld	a0, 0x0(a0)
8020627e: 23 38 a4 fa  	sd	a0, -0x50(s0)
80206282: 09 a0        	j	0x80206284 <_ZN5alloc3vec16Vec$LT$T$C$A$GT$4push17h25c83a5e6bbab8c4E+0x30>
80206284: 03 35 84 fa  	ld	a0, -0x58(s0)
80206288: 83 35 04 fb  	ld	a1, -0x50(s0)
8020628c: 63 04 b5 00  	beq	a0, a1, 0x80206294 <_ZN5alloc3vec16Vec$LT$T$C$A$GT$4push17h25c83a5e6bbab8c4E+0x40>
80206290: 09 a0        	j	0x80206292 <_ZN5alloc3vec16Vec$LT$T$C$A$GT$4push17h25c83a5e6bbab8c4E+0x3e>
80206292: 01 a8        	j	0x802062a2 <_ZN5alloc3vec16Vec$LT$T$C$A$GT$4push17h25c83a5e6bbab8c4E+0x4e>
80206294: 03 35 04 fa  	ld	a0, -0x60(s0)
80206298: 97 20 00 00  	auipc	ra, 0x2
8020629c: e7 80 00 ec  	jalr	-0x140(ra) <_ZN5alloc7raw_vec19RawVec$LT$T$C$A$GT$8grow_one17h8175708f63d408c8E>
802062a0: 09 a0        	j	0x802062a2 <_ZN5alloc3vec16Vec$LT$T$C$A$GT$4push17h25c83a5e6bbab8c4E+0x4e>
802062a2: 83 35 04 fa  	ld	a1, -0x60(s0)
802062a6: 03 35 84 fa  	ld	a0, -0x58(s0)
802062aa: 03 36 84 f9  	ld	a2, -0x68(s0)
802062ae: 23 38 b4 fc  	sd	a1, -0x30(s0)
802062b2: 94 65        	ld	a3, 0x8(a1)
802062b4: 23 3c d4 fc  	sd	a3, -0x28(s0)
802062b8: 23 30 d4 fe  	sd	a3, -0x20(s0)
802062bc: 13 07 00 03  	li	a4, 0x30
802062c0: 33 07 e5 02  	mul	a4, a0, a4
802062c4: ba 96        	add	a3, a3, a4
802062c6: 23 34 d4 fe  	sd	a3, -0x18(s0)
802062ca: 18 76        	ld	a4, 0x28(a2)
802062cc: 98 f6        	sd	a4, 0x28(a3)
802062ce: 18 72        	ld	a4, 0x20(a2)
802062d0: 98 f2        	sd	a4, 0x20(a3)
802062d2: 18 6e        	ld	a4, 0x18(a2)
802062d4: 98 ee        	sd	a4, 0x18(a3)
802062d6: 18 6a        	ld	a4, 0x10(a2)
802062d8: 98 ea        	sd	a4, 0x10(a3)
802062da: 18 66        	ld	a4, 0x8(a2)
802062dc: 98 e6        	sd	a4, 0x8(a3)
802062de: 10 62        	ld	a2, 0x0(a2)
802062e0: 90 e2        	sd	a2, 0x0(a3)
802062e2: 05 05        	addi	a0, a0, 0x1
802062e4: 88 e9        	sd	a0, 0x10(a1)
802062e6: a6 70        	ld	ra, 0x68(sp)
802062e8: 06 74        	ld	s0, 0x60(sp)
802062ea: 65 61        	addi	sp, sp, 0x70
802062ec: 82 80        	ret

00000000802062ee <_ZN5alloc3vec16Vec$LT$T$C$A$GT$4push17h9225b0b98061fb58E>:
802062ee: 19 71        	addi	sp, sp, -0x80
802062f0: 86 fc        	sd	ra, 0x78(sp)
802062f2: a2 f8        	sd	s0, 0x70(sp)
802062f4: 00 01        	addi	s0, sp, 0x80
802062f6: 23 30 c4 f8  	sd	a2, -0x80(s0)
802062fa: 23 34 b4 f8  	sd	a1, -0x78(s0)
802062fe: 23 38 a4 f8  	sd	a0, -0x70(s0)
80206302: 23 34 a4 fa  	sd	a0, -0x58(s0)
80206306: 23 38 b4 fa  	sd	a1, -0x50(s0)
8020630a: 23 3c c4 fa  	sd	a2, -0x48(s0)
8020630e: 0c 69        	ld	a1, 0x10(a0)
80206310: 23 3c b4 f8  	sd	a1, -0x68(s0)
80206314: 23 30 b4 fc  	sd	a1, -0x40(s0)
80206318: 23 34 a4 fc  	sd	a0, -0x38(s0)
8020631c: 09 a0        	j	0x8020631e <_ZN5alloc3vec16Vec$LT$T$C$A$GT$4push17h9225b0b98061fb58E+0x30>
8020631e: 03 35 04 f9  	ld	a0, -0x70(s0)
80206322: 08 61        	ld	a0, 0x0(a0)
80206324: 23 30 a4 fa  	sd	a0, -0x60(s0)
80206328: 09 a0        	j	0x8020632a <_ZN5alloc3vec16Vec$LT$T$C$A$GT$4push17h9225b0b98061fb58E+0x3c>
8020632a: 03 35 84 f9  	ld	a0, -0x68(s0)
8020632e: 83 35 04 fa  	ld	a1, -0x60(s0)
80206332: 63 04 b5 00  	beq	a0, a1, 0x8020633a <_ZN5alloc3vec16Vec$LT$T$C$A$GT$4push17h9225b0b98061fb58E+0x4c>
80206336: 09 a0        	j	0x80206338 <_ZN5alloc3vec16Vec$LT$T$C$A$GT$4push17h9225b0b98061fb58E+0x4a>
80206338: 01 a8        	j	0x80206348 <_ZN5alloc3vec16Vec$LT$T$C$A$GT$4push17h9225b0b98061fb58E+0x5a>
8020633a: 03 35 04 f9  	ld	a0, -0x70(s0)
8020633e: 97 20 00 00  	auipc	ra, 0x2
80206342: e7 80 a0 f0  	jalr	-0xf6(ra) <_ZN5alloc7raw_vec19RawVec$LT$T$C$A$GT$8grow_one17hd498d91fa45a5eafE>
80206346: 09 a0        	j	0x80206348 <_ZN5alloc3vec16Vec$LT$T$C$A$GT$4push17h9225b0b98061fb58E+0x5a>
80206348: 83 35 04 f9  	ld	a1, -0x70(s0)
8020634c: 03 35 84 f9  	ld	a0, -0x68(s0)
80206350: 03 36 04 f8  	ld	a2, -0x80(s0)
80206354: 03 37 84 f8  	ld	a4, -0x78(s0)
80206358: 23 38 b4 fc  	sd	a1, -0x30(s0)
8020635c: 94 65        	ld	a3, 0x8(a1)
8020635e: 23 3c d4 fc  	sd	a3, -0x28(s0)
80206362: 23 30 d4 fe  	sd	a3, -0x20(s0)
80206366: 93 17 45 00  	slli	a5, a0, 0x4
8020636a: be 96        	add	a3, a3, a5
8020636c: 23 34 d4 fe  	sd	a3, -0x18(s0)
80206370: 98 e2        	sd	a4, 0x0(a3)
80206372: 90 e6        	sd	a2, 0x8(a3)
80206374: 05 05        	addi	a0, a0, 0x1
80206376: 88 e9        	sd	a0, 0x10(a1)
80206378: e6 70        	ld	ra, 0x78(sp)
8020637a: 46 74        	ld	s0, 0x70(sp)
8020637c: 09 61        	addi	sp, sp, 0x80
8020637e: 82 80        	ret

0000000080206380 <_ZN5alloc3vec16Vec$LT$T$C$A$GT$4push17haff8ec929ad3690eE>:
80206380: 59 71        	addi	sp, sp, -0x70
80206382: 86 f4        	sd	ra, 0x68(sp)
80206384: a2 f0        	sd	s0, 0x60(sp)
80206386: 80 18        	addi	s0, sp, 0x70
80206388: 23 3c b4 f8  	sd	a1, -0x68(s0)
8020638c: 23 30 a4 fa  	sd	a0, -0x60(s0)
80206390: 23 3c a4 fa  	sd	a0, -0x48(s0)
80206394: 0c 69        	ld	a1, 0x10(a0)
80206396: 23 34 b4 fa  	sd	a1, -0x58(s0)
8020639a: 23 30 b4 fc  	sd	a1, -0x40(s0)
8020639e: 23 34 a4 fc  	sd	a0, -0x38(s0)
802063a2: 09 a0        	j	0x802063a4 <_ZN5alloc3vec16Vec$LT$T$C$A$GT$4push17haff8ec929ad3690eE+0x24>
802063a4: 03 35 04 fa  	ld	a0, -0x60(s0)
802063a8: 08 61        	ld	a0, 0x0(a0)
802063aa: 23 38 a4 fa  	sd	a0, -0x50(s0)
802063ae: 09 a0        	j	0x802063b0 <_ZN5alloc3vec16Vec$LT$T$C$A$GT$4push17haff8ec929ad3690eE+0x30>
802063b0: 03 35 84 fa  	ld	a0, -0x58(s0)
802063b4: 83 35 04 fb  	ld	a1, -0x50(s0)
802063b8: 63 04 b5 00  	beq	a0, a1, 0x802063c0 <_ZN5alloc3vec16Vec$LT$T$C$A$GT$4push17haff8ec929ad3690eE+0x40>
802063bc: 09 a0        	j	0x802063be <_ZN5alloc3vec16Vec$LT$T$C$A$GT$4push17haff8ec929ad3690eE+0x3e>
802063be: 01 a8        	j	0x802063ce <_ZN5alloc3vec16Vec$LT$T$C$A$GT$4push17haff8ec929ad3690eE+0x4e>
802063c0: 03 35 04 fa  	ld	a0, -0x60(s0)
802063c4: 97 20 00 00  	auipc	ra, 0x2
802063c8: e7 80 40 e3  	jalr	-0x1cc(ra) <_ZN5alloc7raw_vec19RawVec$LT$T$C$A$GT$8grow_one17hc4246c48202e0989E>
802063cc: 09 a0        	j	0x802063ce <_ZN5alloc3vec16Vec$LT$T$C$A$GT$4push17haff8ec929ad3690eE+0x4e>
802063ce: 03 35 04 fa  	ld	a0, -0x60(s0)
802063d2: 83 36 84 fa  	ld	a3, -0x58(s0)
802063d6: 83 35 84 f9  	ld	a1, -0x68(s0)
802063da: 23 38 a4 fc  	sd	a0, -0x30(s0)
802063de: 08 65        	ld	a0, 0x8(a0)
802063e0: 23 3c a4 fc  	sd	a0, -0x28(s0)
802063e4: 23 30 a4 fe  	sd	a0, -0x20(s0)
802063e8: 13 06 00 0d  	li	a2, 0xd0
802063ec: b3 86 c6 02  	mul	a3, a3, a2
802063f0: 36 95        	add	a0, a0, a3
802063f2: 23 34 a4 fe  	sd	a0, -0x18(s0)
802063f6: 97 a0 01 00  	auipc	ra, 0x1a
802063fa: e7 80 00 36  	jalr	0x360(ra) <memcpy>
802063fe: 83 35 04 fa  	ld	a1, -0x60(s0)
80206402: 03 35 84 fa  	ld	a0, -0x58(s0)
80206406: 05 05        	addi	a0, a0, 0x1
80206408: 88 e9        	sd	a0, 0x10(a1)
8020640a: a6 70        	ld	ra, 0x68(sp)
8020640c: 06 74        	ld	s0, 0x60(sp)
8020640e: 65 61        	addi	sp, sp, 0x70
80206410: 82 80        	ret

0000000080206412 <_ZN5alloc3vec16Vec$LT$T$C$A$GT$4push17hf833fcb47c13724aE>:
80206412: 59 71        	addi	sp, sp, -0x70
80206414: 86 f4        	sd	ra, 0x68(sp)
80206416: a2 f0        	sd	s0, 0x60(sp)
80206418: 80 18        	addi	s0, sp, 0x70
8020641a: 23 38 b4 f8  	sd	a1, -0x70(s0)
8020641e: 23 3c a4 f8  	sd	a0, -0x68(s0)
80206422: 23 38 a4 fa  	sd	a0, -0x50(s0)
80206426: 23 3c b4 fa  	sd	a1, -0x48(s0)
8020642a: 0c 69        	ld	a1, 0x10(a0)
8020642c: 23 30 b4 fa  	sd	a1, -0x60(s0)
80206430: 23 30 b4 fc  	sd	a1, -0x40(s0)
80206434: 23 34 a4 fc  	sd	a0, -0x38(s0)
80206438: 09 a0        	j	0x8020643a <_ZN5alloc3vec16Vec$LT$T$C$A$GT$4push17hf833fcb47c13724aE+0x28>
8020643a: 03 35 84 f9  	ld	a0, -0x68(s0)
8020643e: 08 61        	ld	a0, 0x0(a0)
80206440: 23 34 a4 fa  	sd	a0, -0x58(s0)
80206444: 09 a0        	j	0x80206446 <_ZN5alloc3vec16Vec$LT$T$C$A$GT$4push17hf833fcb47c13724aE+0x34>
80206446: 03 35 04 fa  	ld	a0, -0x60(s0)
8020644a: 83 35 84 fa  	ld	a1, -0x58(s0)
8020644e: 63 04 b5 00  	beq	a0, a1, 0x80206456 <_ZN5alloc3vec16Vec$LT$T$C$A$GT$4push17hf833fcb47c13724aE+0x44>
80206452: 09 a0        	j	0x80206454 <_ZN5alloc3vec16Vec$LT$T$C$A$GT$4push17hf833fcb47c13724aE+0x42>
80206454: 01 a8        	j	0x80206464 <_ZN5alloc3vec16Vec$LT$T$C$A$GT$4push17hf833fcb47c13724aE+0x52>
80206456: 03 35 84 f9  	ld	a0, -0x68(s0)
8020645a: 97 20 00 00  	auipc	ra, 0x2
8020645e: e7 80 e0 ca  	jalr	-0x352(ra) <_ZN5alloc7raw_vec19RawVec$LT$T$C$A$GT$8grow_one17h456b1c5637de5149E>
80206462: 09 a0        	j	0x80206464 <_ZN5alloc3vec16Vec$LT$T$C$A$GT$4push17hf833fcb47c13724aE+0x52>
80206464: 83 35 84 f9  	ld	a1, -0x68(s0)
80206468: 03 35 04 fa  	ld	a0, -0x60(s0)
8020646c: 03 36 04 f9  	ld	a2, -0x70(s0)
80206470: 23 38 b4 fc  	sd	a1, -0x30(s0)
80206474: 94 65        	ld	a3, 0x8(a1)
80206476: 23 3c d4 fc  	sd	a3, -0x28(s0)
8020647a: 23 30 d4 fe  	sd	a3, -0x20(s0)
8020647e: 13 17 35 00  	slli	a4, a0, 0x3
80206482: ba 96        	add	a3, a3, a4
80206484: 23 34 d4 fe  	sd	a3, -0x18(s0)
80206488: 90 e2        	sd	a2, 0x0(a3)
8020648a: 05 05        	addi	a0, a0, 0x1
8020648c: 88 e9        	sd	a0, 0x10(a1)
8020648e: a6 70        	ld	ra, 0x68(sp)
80206490: 06 74        	ld	s0, 0x60(sp)
80206492: 65 61        	addi	sp, sp, 0x70
80206494: 82 80        	ret

0000000080206496 <_ZN72_$LT$alloc..vec..Vec$LT$T$C$A$GT$$u20$as$u20$core..ops..deref..Deref$GT$5deref17hd7e156bc6bab9aecE>:
80206496: 5d 71        	addi	sp, sp, -0x50
80206498: 86 e4        	sd	ra, 0x48(sp)
8020649a: a2 e0        	sd	s0, 0x40(sp)
8020649c: 80 08        	addi	s0, sp, 0x50
8020649e: 23 34 a4 fc  	sd	a0, -0x38(s0)
802064a2: 23 38 a4 fc  	sd	a0, -0x30(s0)
802064a6: 0c 65        	ld	a1, 0x8(a0)
802064a8: 23 3c b4 fa  	sd	a1, -0x48(s0)
802064ac: 23 3c b4 fc  	sd	a1, -0x28(s0)
802064b0: 23 30 b4 fe  	sd	a1, -0x20(s0)
802064b4: 08 69        	ld	a0, 0x10(a0)
802064b6: 23 30 a4 fc  	sd	a0, -0x40(s0)
802064ba: 23 34 a4 fe  	sd	a0, -0x18(s0)
802064be: 09 a0        	j	0x802064c0 <_ZN72_$LT$alloc..vec..Vec$LT$T$C$A$GT$$u20$as$u20$core..ops..deref..Deref$GT$5deref17hd7e156bc6bab9aecE+0x2a>
802064c0: 83 36 04 fc  	ld	a3, -0x40(s0)
802064c4: 03 35 84 fb  	ld	a0, -0x48(s0)
802064c8: 21 46        	li	a2, 0x8
802064ca: b2 85        	mv	a1, a2
802064cc: 97 f0 00 00  	auipc	ra, 0xf
802064d0: e7 80 40 16  	jalr	0x164(ra) <_ZN4core5slice3raw14from_raw_parts18precondition_check17h4a0e0850179c4d55E>
802064d4: 09 a0        	j	0x802064d6 <_ZN72_$LT$alloc..vec..Vec$LT$T$C$A$GT$$u20$as$u20$core..ops..deref..Deref$GT$5deref17hd7e156bc6bab9aecE+0x40>
802064d6: 83 35 04 fc  	ld	a1, -0x40(s0)
802064da: 03 35 84 fb  	ld	a0, -0x48(s0)
802064de: a6 60        	ld	ra, 0x48(sp)
802064e0: 06 64        	ld	s0, 0x40(sp)
802064e2: 61 61        	addi	sp, sp, 0x50
802064e4: 82 80        	ret

00000000802064e6 <_ZN75_$LT$alloc..vec..Vec$LT$T$C$A$GT$$u20$as$u20$core..ops..deref..DerefMut$GT$9deref_mut17h5a4ec199d8e4b8cbE>:
802064e6: 5d 71        	addi	sp, sp, -0x50
802064e8: 86 e4        	sd	ra, 0x48(sp)
802064ea: a2 e0        	sd	s0, 0x40(sp)
802064ec: 80 08        	addi	s0, sp, 0x50
802064ee: 23 34 a4 fc  	sd	a0, -0x38(s0)
802064f2: 23 38 a4 fc  	sd	a0, -0x30(s0)
802064f6: 0c 65        	ld	a1, 0x8(a0)
802064f8: 23 3c b4 fa  	sd	a1, -0x48(s0)
802064fc: 23 3c b4 fc  	sd	a1, -0x28(s0)
80206500: 23 30 b4 fe  	sd	a1, -0x20(s0)
80206504: 08 69        	ld	a0, 0x10(a0)
80206506: 23 30 a4 fc  	sd	a0, -0x40(s0)
8020650a: 23 34 a4 fe  	sd	a0, -0x18(s0)
8020650e: 09 a0        	j	0x80206510 <_ZN75_$LT$alloc..vec..Vec$LT$T$C$A$GT$$u20$as$u20$core..ops..deref..DerefMut$GT$9deref_mut17h5a4ec199d8e4b8cbE+0x2a>
80206510: 83 36 04 fc  	ld	a3, -0x40(s0)
80206514: 03 35 84 fb  	ld	a0, -0x48(s0)
80206518: 93 05 00 03  	li	a1, 0x30
8020651c: 21 46        	li	a2, 0x8
8020651e: 97 f0 00 00  	auipc	ra, 0xf
80206522: e7 80 c0 28  	jalr	0x28c(ra) <_ZN4core5slice3raw18from_raw_parts_mut18precondition_check17h0904aa3f2a606c57E>
80206526: 09 a0        	j	0x80206528 <_ZN75_$LT$alloc..vec..Vec$LT$T$C$A$GT$$u20$as$u20$core..ops..deref..DerefMut$GT$9deref_mut17h5a4ec199d8e4b8cbE+0x42>
80206528: 83 35 04 fc  	ld	a1, -0x40(s0)
8020652c: 03 35 84 fb  	ld	a0, -0x48(s0)
80206530: a6 60        	ld	ra, 0x48(sp)
80206532: 06 64        	ld	s0, 0x40(sp)
80206534: 61 61        	addi	sp, sp, 0x50
80206536: 82 80        	ret

0000000080206538 <_ZN81_$LT$alloc..vec..Vec$LT$T$C$A$GT$$u20$as$u20$core..ops..index..Index$LT$I$GT$$GT$5index17hcaddbac3e9d412f6E>:
80206538: 59 71        	addi	sp, sp, -0x70
8020653a: 86 f4        	sd	ra, 0x68(sp)
8020653c: a2 f0        	sd	s0, 0x60(sp)
8020653e: 80 18        	addi	s0, sp, 0x70
80206540: 23 38 c4 f8  	sd	a2, -0x70(s0)
80206544: 23 3c b4 f8  	sd	a1, -0x68(s0)
80206548: 23 38 a4 fa  	sd	a0, -0x50(s0)
8020654c: 23 3c b4 fa  	sd	a1, -0x48(s0)
80206550: 23 30 a4 fc  	sd	a0, -0x40(s0)
80206554: 0c 65        	ld	a1, 0x8(a0)
80206556: 23 30 b4 fa  	sd	a1, -0x60(s0)
8020655a: 23 34 b4 fc  	sd	a1, -0x38(s0)
8020655e: 23 38 b4 fc  	sd	a1, -0x30(s0)
80206562: 08 69        	ld	a0, 0x10(a0)
80206564: 23 34 a4 fa  	sd	a0, -0x58(s0)
80206568: 23 3c a4 fc  	sd	a0, -0x28(s0)
8020656c: 09 a0        	j	0x8020656e <_ZN81_$LT$alloc..vec..Vec$LT$T$C$A$GT$$u20$as$u20$core..ops..index..Index$LT$I$GT$$GT$5index17hcaddbac3e9d412f6E+0x36>
8020656e: 83 36 84 fa  	ld	a3, -0x58(s0)
80206572: 03 35 04 fa  	ld	a0, -0x60(s0)
80206576: 93 05 00 0d  	li	a1, 0xd0
8020657a: 21 46        	li	a2, 0x8
8020657c: 97 f0 00 00  	auipc	ra, 0xf
80206580: e7 80 40 0b  	jalr	0xb4(ra) <_ZN4core5slice3raw14from_raw_parts18precondition_check17h4a0e0850179c4d55E>
80206584: 09 a0        	j	0x80206586 <_ZN81_$LT$alloc..vec..Vec$LT$T$C$A$GT$$u20$as$u20$core..ops..index..Index$LT$I$GT$$GT$5index17hcaddbac3e9d412f6E+0x4e>
80206586: 83 36 04 f9  	ld	a3, -0x70(s0)
8020658a: 03 36 84 fa  	ld	a2, -0x58(s0)
8020658e: 83 35 04 fa  	ld	a1, -0x60(s0)
80206592: 03 35 84 f9  	ld	a0, -0x68(s0)
80206596: 23 30 b4 fe  	sd	a1, -0x20(s0)
8020659a: 23 34 c4 fe  	sd	a2, -0x18(s0)
8020659e: 97 20 00 00  	auipc	ra, 0x2
802065a2: e7 80 a0 cf  	jalr	-0x306(ra) <_ZN75_$LT$usize$u20$as$u20$core..slice..index..SliceIndex$LT$$u5b$T$u5d$$GT$$GT$5index17h12fe6347edc99a9bE>
802065a6: a6 70        	ld	ra, 0x68(sp)
802065a8: 06 74        	ld	s0, 0x60(sp)
802065aa: 65 61        	addi	sp, sp, 0x70
802065ac: 82 80        	ret

00000000802065ae <_ZN84_$LT$alloc..vec..Vec$LT$T$C$A$GT$$u20$as$u20$core..ops..index..IndexMut$LT$I$GT$$GT$9index_mut17hc05eb887cdfc53ddE>:
802065ae: 59 71        	addi	sp, sp, -0x70
802065b0: 86 f4        	sd	ra, 0x68(sp)
802065b2: a2 f0        	sd	s0, 0x60(sp)
802065b4: 80 18        	addi	s0, sp, 0x70
802065b6: 23 38 c4 f8  	sd	a2, -0x70(s0)
802065ba: 23 3c b4 f8  	sd	a1, -0x68(s0)
802065be: 23 38 a4 fa  	sd	a0, -0x50(s0)
802065c2: 23 3c b4 fa  	sd	a1, -0x48(s0)
802065c6: 23 30 a4 fc  	sd	a0, -0x40(s0)
802065ca: 0c 65        	ld	a1, 0x8(a0)
802065cc: 23 30 b4 fa  	sd	a1, -0x60(s0)
802065d0: 23 34 b4 fc  	sd	a1, -0x38(s0)
802065d4: 23 38 b4 fc  	sd	a1, -0x30(s0)
802065d8: 08 69        	ld	a0, 0x10(a0)
802065da: 23 34 a4 fa  	sd	a0, -0x58(s0)
802065de: 23 3c a4 fc  	sd	a0, -0x28(s0)
802065e2: 09 a0        	j	0x802065e4 <_ZN84_$LT$alloc..vec..Vec$LT$T$C$A$GT$$u20$as$u20$core..ops..index..IndexMut$LT$I$GT$$GT$9index_mut17hc05eb887cdfc53ddE+0x36>
802065e4: 83 36 84 fa  	ld	a3, -0x58(s0)
802065e8: 03 35 04 fa  	ld	a0, -0x60(s0)
802065ec: 93 05 00 0d  	li	a1, 0xd0
802065f0: 21 46        	li	a2, 0x8
802065f2: 97 f0 00 00  	auipc	ra, 0xf
802065f6: e7 80 80 1b  	jalr	0x1b8(ra) <_ZN4core5slice3raw18from_raw_parts_mut18precondition_check17h0904aa3f2a606c57E>
802065fa: 09 a0        	j	0x802065fc <_ZN84_$LT$alloc..vec..Vec$LT$T$C$A$GT$$u20$as$u20$core..ops..index..IndexMut$LT$I$GT$$GT$9index_mut17hc05eb887cdfc53ddE+0x4e>
802065fc: 83 36 04 f9  	ld	a3, -0x70(s0)
80206600: 03 36 84 fa  	ld	a2, -0x58(s0)
80206604: 83 35 04 fa  	ld	a1, -0x60(s0)
80206608: 03 35 84 f9  	ld	a0, -0x68(s0)
8020660c: 23 30 b4 fe  	sd	a1, -0x20(s0)
80206610: 23 34 c4 fe  	sd	a2, -0x18(s0)
80206614: 97 20 00 00  	auipc	ra, 0x2
80206618: e7 80 c0 cd  	jalr	-0x324(ra) <_ZN75_$LT$usize$u20$as$u20$core..slice..index..SliceIndex$LT$$u5b$T$u5d$$GT$$GT$9index_mut17h310447ed67a800ebE>
8020661c: a6 70        	ld	ra, 0x68(sp)
8020661e: 06 74        	ld	s0, 0x60(sp)
80206620: 65 61        	addi	sp, sp, 0x70
80206622: 82 80        	ret

0000000080206624 <_ZN90_$LT$alloc..vec..Vec$LT$T$C$A$GT$$u20$as$u20$core..iter..traits..collect..IntoIterator$GT$9into_iter17hc431738a62e428b0E>:
80206624: 55 71        	addi	sp, sp, -0xd0
80206626: 86 e5        	sd	ra, 0xc8(sp)
80206628: a2 e1        	sd	s0, 0xc0(sp)
8020662a: 80 09        	addi	s0, sp, 0xd0
8020662c: 23 3c a4 f2  	sd	a0, -0xc8(s0)
80206630: 88 69        	ld	a0, 0x10(a1)
80206632: 23 30 a4 f6  	sd	a0, -0xa0(s0)
80206636: 88 65        	ld	a0, 0x8(a1)
80206638: 23 3c a4 f4  	sd	a0, -0xa8(s0)
8020663c: 88 61        	ld	a0, 0x0(a1)
8020663e: 23 38 a4 f4  	sd	a0, -0xb0(s0)
80206642: 93 05 04 f6  	addi	a1, s0, -0xa0
80206646: 13 05 04 f5  	addi	a0, s0, -0xb0
8020664a: 23 30 a4 f8  	sd	a0, -0x80(s0)
8020664e: 23 34 a4 f8  	sd	a0, -0x78(s0)
80206652: 23 38 a4 f8  	sd	a0, -0x70(s0)
80206656: 23 3c b4 f8  	sd	a1, -0x68(s0)
8020665a: 23 30 a4 fa  	sd	a0, -0x60(s0)
8020665e: 23 34 a4 fa  	sd	a0, -0x58(s0)
80206662: 03 35 84 f5  	ld	a0, -0xa8(s0)
80206666: 23 30 a4 f4  	sd	a0, -0xc0(s0)
8020666a: 23 38 a4 fa  	sd	a0, -0x50(s0)
8020666e: 23 3c a4 fa  	sd	a0, -0x48(s0)
80206672: 23 30 a4 fc  	sd	a0, -0x40(s0)
80206676: 09 a0        	j	0x80206678 <_ZN90_$LT$alloc..vec..Vec$LT$T$C$A$GT$$u20$as$u20$core..iter..traits..collect..IntoIterator$GT$9into_iter17hc431738a62e428b0E+0x54>
80206678: 03 35 04 f4  	ld	a0, -0xc0(s0)
8020667c: 93 05 04 f5  	addi	a1, s0, -0xb0
80206680: 23 34 b4 fc  	sd	a1, -0x38(s0)
80206684: 23 38 b4 fc  	sd	a1, -0x30(s0)
80206688: 83 35 04 f6  	ld	a1, -0xa0(s0)
8020668c: 23 3c b4 fc  	sd	a1, -0x28(s0)
80206690: 92 05        	slli	a1, a1, 0x4
80206692: 2e 95        	add	a0, a0, a1
80206694: 23 34 a4 f6  	sd	a0, -0x98(s0)
80206698: 09 a0        	j	0x8020669a <_ZN90_$LT$alloc..vec..Vec$LT$T$C$A$GT$$u20$as$u20$core..iter..traits..collect..IntoIterator$GT$9into_iter17hc431738a62e428b0E+0x76>
8020669a: 13 05 04 f5  	addi	a0, s0, -0xb0
8020669e: 23 30 a4 fe  	sd	a0, -0x20(s0)
802066a2: 23 34 a4 fe  	sd	a0, -0x18(s0)
802066a6: 09 a0        	j	0x802066a8 <_ZN90_$LT$alloc..vec..Vec$LT$T$C$A$GT$$u20$as$u20$core..iter..traits..collect..IntoIterator$GT$9into_iter17hc431738a62e428b0E+0x84>
802066a8: 03 35 04 f5  	ld	a0, -0xb0(s0)
802066ac: 23 38 a4 f6  	sd	a0, -0x90(s0)
802066b0: 09 a0        	j	0x802066b2 <_ZN90_$LT$alloc..vec..Vec$LT$T$C$A$GT$$u20$as$u20$core..iter..traits..collect..IntoIterator$GT$9into_iter17hc431738a62e428b0E+0x8e>
802066b2: 83 35 84 f3  	ld	a1, -0xc8(s0)
802066b6: 03 36 04 f4  	ld	a2, -0xc0(s0)
802066ba: 83 36 04 f7  	ld	a3, -0x90(s0)
802066be: 03 35 84 f6  	ld	a0, -0x98(s0)
802066c2: 90 e1        	sd	a2, 0x0(a1)
802066c4: 94 e9        	sd	a3, 0x10(a1)
802066c6: 90 e5        	sd	a2, 0x8(a1)
802066c8: 88 ed        	sd	a0, 0x18(a1)
802066ca: ae 60        	ld	ra, 0xc8(sp)
802066cc: 0e 64        	ld	s0, 0xc0(sp)
802066ce: 69 61        	addi	sp, sp, 0xd0
802066d0: 82 80        	ret

00000000802066d2 <_ZN5riscv8register4satp5write17h67384f67a126f01fE>:
802066d2: 01 11        	addi	sp, sp, -0x20
802066d4: 06 ec        	sd	ra, 0x18(sp)
802066d6: 22 e8        	sd	s0, 0x10(sp)
802066d8: 00 10        	addi	s0, sp, 0x20
802066da: 23 34 a4 fe  	sd	a0, -0x18(s0)
802066de: 97 00 00 00  	auipc	ra, 0x0
802066e2: e7 80 00 01  	jalr	0x10(ra) <_ZN5riscv8register4satp6_write17h6118a5015f4e8d46E>
802066e6: e2 60        	ld	ra, 0x18(sp)
802066e8: 42 64        	ld	s0, 0x10(sp)
802066ea: 05 61        	addi	sp, sp, 0x20
802066ec: 82 80        	ret

00000000802066ee <_ZN5riscv8register4satp6_write17h6118a5015f4e8d46E>:
802066ee: 01 11        	addi	sp, sp, -0x20
802066f0: 06 ec        	sd	ra, 0x18(sp)
802066f2: 22 e8        	sd	s0, 0x10(sp)
802066f4: 00 10        	addi	s0, sp, 0x20
802066f6: 23 34 a4 fe  	sd	a0, -0x18(s0)
802066fa: 73 10 05 18  	csrw	satp, a0
802066fe: e2 60        	ld	ra, 0x18(sp)
80206700: 42 64        	ld	s0, 0x10(sp)
80206702: 05 61        	addi	sp, sp, 0x20
80206704: 82 80        	ret

0000000080206706 <_ZN4core5alloc6layout6Layout25from_size_align_unchecked17h2d15785a9096cc76E>:
80206706: 79 71        	addi	sp, sp, -0x30
80206708: 06 f4        	sd	ra, 0x28(sp)
8020670a: 22 f0        	sd	s0, 0x20(sp)
8020670c: 00 18        	addi	s0, sp, 0x30
8020670e: 23 3c b4 fc  	sd	a1, -0x28(s0)
80206712: aa 85        	mv	a1, a0
80206714: 03 35 84 fd  	ld	a0, -0x28(s0)
80206718: 23 30 b4 fe  	sd	a1, -0x20(s0)
8020671c: 23 34 a4 fe  	sd	a0, -0x18(s0)
80206720: a2 70        	ld	ra, 0x28(sp)
80206722: 02 74        	ld	s0, 0x20(sp)
80206724: 45 61        	addi	sp, sp, 0x30
80206726: 82 80        	ret

0000000080206728 <_ZN4core5alloc6layout6Layout5array5inner17h2ab9d94a0333d419E>:
80206728: 19 71        	addi	sp, sp, -0x80
8020672a: 86 fc        	sd	ra, 0x78(sp)
8020672c: a2 f8        	sd	s0, 0x70(sp)
8020672e: 00 01        	addi	s0, sp, 0x80
80206730: 23 38 c4 f8  	sd	a2, -0x70(s0)
80206734: 23 3c b4 f8  	sd	a1, -0x68(s0)
80206738: 23 30 a4 fa  	sd	a0, -0x60(s0)
8020673c: 23 34 a4 fc  	sd	a0, -0x38(s0)
80206740: 23 38 b4 fc  	sd	a1, -0x30(s0)
80206744: 23 3c c4 fc  	sd	a2, -0x28(s0)
80206748: 19 e1        	bnez	a0, 0x8020674e <_ZN4core5alloc6layout6Layout5array5inner17h2ab9d94a0333d419E+0x26>
8020674a: 09 a0        	j	0x8020674c <_ZN4core5alloc6layout6Layout5array5inner17h2ab9d94a0333d419E+0x24>
8020674c: b9 a8        	j	0x802067aa <.Lpcrel_hi1+0x16>
8020674e: 03 35 04 fa  	ld	a0, -0x60(s0)
80206752: 83 35 84 f9  	ld	a1, -0x68(s0)
80206756: 23 3c b4 fa  	sd	a1, -0x48(s0)
8020675a: 03 36 84 fb  	ld	a2, -0x48(s0)
8020675e: fd 55        	li	a1, -0x1
80206760: fe 15        	slli	a1, a1, 0x3f
80206762: 91 8d        	sub	a1, a1, a2
80206764: 23 34 b4 f8  	sd	a1, -0x78(s0)
80206768: 09 cd        	beqz	a0, 0x80206782 <.Lpcrel_hi0>
8020676a: 09 a0        	j	0x8020676c <_ZN4core5alloc6layout6Layout5array5inner17h2ab9d94a0333d419E+0x44>
8020676c: 83 35 04 f9  	ld	a1, -0x70(s0)
80206770: 03 35 84 f8  	ld	a0, -0x78(s0)
80206774: 03 36 04 fa  	ld	a2, -0x60(s0)
80206778: 33 55 c5 02  	divu	a0, a0, a2
8020677c: 63 6c b5 00  	bltu	a0, a1, 0x80206794 <.Lpcrel_hi1>
80206780: 09 a8        	j	0x80206792 <.Lpcrel_hi0+0x10>

0000000080206782 <.Lpcrel_hi0>:
80206782: 17 b5 01 00  	auipc	a0, 0x1b
80206786: 13 05 65 65  	addi	a0, a0, 0x656
8020678a: 97 90 01 00  	auipc	ra, 0x19
8020678e: e7 80 00 7f  	jalr	0x7f0(ra) <_ZN4core9panicking11panic_const23panic_const_div_by_zero17h492262c8214d383dE>
80206792: 6d bf        	j	0x8020674c <_ZN4core5alloc6layout6Layout5array5inner17h2ab9d94a0333d419E+0x24>

0000000080206794 <.Lpcrel_hi1>:
80206794: 17 b5 01 00  	auipc	a0, 0x1b
80206798: 13 05 45 9f  	addi	a0, a0, -0x60c
8020679c: 0c 61        	ld	a1, 0x0(a0)
8020679e: 08 65        	ld	a0, 0x8(a0)
802067a0: 23 34 b4 fa  	sd	a1, -0x58(s0)
802067a4: 23 38 a4 fa  	sd	a0, -0x50(s0)
802067a8: 3d a8        	j	0x802067e6 <.Lpcrel_hi1+0x52>
802067aa: 83 35 04 f9  	ld	a1, -0x70(s0)
802067ae: 03 35 04 fa  	ld	a0, -0x60(s0)
802067b2: 97 f0 ff ff  	auipc	ra, 0xfffff
802067b6: e7 80 40 0b  	jalr	0xb4(ra) <ekernel+0xffc7e866>
802067ba: 09 a0        	j	0x802067bc <.Lpcrel_hi1+0x28>
802067bc: 83 35 84 f9  	ld	a1, -0x68(s0)
802067c0: 03 35 04 fa  	ld	a0, -0x60(s0)
802067c4: 03 36 04 f9  	ld	a2, -0x70(s0)
802067c8: 33 05 c5 02  	mul	a0, a0, a2
802067cc: 23 30 a4 fe  	sd	a0, -0x20(s0)
802067d0: 23 30 b4 fc  	sd	a1, -0x40(s0)
802067d4: 83 35 04 fc  	ld	a1, -0x40(s0)
802067d8: 23 34 b4 fe  	sd	a1, -0x18(s0)
802067dc: 23 34 b4 fa  	sd	a1, -0x58(s0)
802067e0: 23 38 a4 fa  	sd	a0, -0x50(s0)
802067e4: 09 a0        	j	0x802067e6 <.Lpcrel_hi1+0x52>
802067e6: 03 35 84 fa  	ld	a0, -0x58(s0)
802067ea: 83 35 04 fb  	ld	a1, -0x50(s0)
802067ee: e6 70        	ld	ra, 0x78(sp)
802067f0: 46 74        	ld	s0, 0x70(sp)
802067f2: 09 61        	addi	sp, sp, 0x80
802067f4: 82 80        	ret

00000000802067f6 <_ZN64_$LT$core..alloc..layout..Layout$u20$as$u20$core..fmt..Debug$GT$3fmt17hd87aee685d17240eE>:
802067f6: 5d 71        	addi	sp, sp, -0x50
802067f8: 86 e4        	sd	ra, 0x48(sp)
802067fa: a2 e0        	sd	s0, 0x40(sp)
802067fc: 80 08        	addi	s0, sp, 0x50
802067fe: 23 38 b4 fc  	sd	a1, -0x30(s0)
80206802: aa 85        	mv	a1, a0
80206804: 03 35 04 fd  	ld	a0, -0x30(s0)
80206808: 23 30 b4 fe  	sd	a1, -0x20(s0)
8020680c: 23 34 a4 fe  	sd	a0, -0x18(s0)
80206810: 93 87 85 00  	addi	a5, a1, 0x8
80206814: 23 3c b4 fc  	sd	a1, -0x28(s0)

0000000080206818 <.Lpcrel_hi2>:
80206818: 97 b5 01 00  	auipc	a1, 0x1b
8020681c: 93 85 85 5f  	addi	a1, a1, 0x5f8
80206820: 0a 86        	mv	a2, sp
80206822: 0c ea        	sd	a1, 0x10(a2)
80206824: 93 05 84 fd  	addi	a1, s0, -0x28
80206828: 0c e6        	sd	a1, 0x8(a2)
8020682a: 95 45        	li	a1, 0x5
8020682c: 0c e2        	sd	a1, 0x0(a2)

000000008020682e <.Lpcrel_hi3>:
8020682e: 97 b5 01 00  	auipc	a1, 0x1b
80206832: 93 85 25 60  	addi	a1, a1, 0x602

0000000080206836 <.Lpcrel_hi4>:
80206836: 17 b6 01 00  	auipc	a2, 0x1b
8020683a: 93 06 66 d6  	addi	a3, a2, -0x29a

000000008020683e <.Lpcrel_hi5>:
8020683e: 17 b6 01 00  	auipc	a2, 0x1b
80206842: 13 08 26 5b  	addi	a6, a2, 0x5b2

0000000080206846 <.Lpcrel_hi6>:
80206846: 17 b6 01 00  	auipc	a2, 0x1b
8020684a: 93 08 06 5f  	addi	a7, a2, 0x5f0
8020684e: 19 46        	li	a2, 0x6
80206850: 11 47        	li	a4, 0x4
80206852: 97 80 01 00  	auipc	ra, 0x18
80206856: e7 80 a0 2f  	jalr	0x2fa(ra) <_ZN4core3fmt9Formatter26debug_struct_field2_finish17h6535ad0df5d7069fE>
8020685a: a6 60        	ld	ra, 0x48(sp)
8020685c: 06 64        	ld	s0, 0x40(sp)
8020685e: 61 61        	addi	sp, sp, 0x50
80206860: 82 80        	ret

0000000080206862 <_ZN2os2mm4init17h6b84a80ae9818c30E>:
80206862: 79 71        	addi	sp, sp, -0x30
80206864: 06 f4        	sd	ra, 0x28(sp)
80206866: 22 f0        	sd	s0, 0x20(sp)
80206868: 00 18        	addi	s0, sp, 0x30
8020686a: 97 20 00 00  	auipc	ra, 0x2
8020686e: e7 80 20 bf  	jalr	-0x40e(ra) <_ZN2os2mm14heap_allocator9init_heap17he17d1efc97c9b580E>
80206872: 97 f0 ff ff  	auipc	ra, 0xfffff
80206876: e7 80 60 69  	jalr	0x696(ra) <ekernel+0xffc7ef08>

000000008020687a <.Lpcrel_hi0>:
8020687a: 17 b5 01 00  	auipc	a0, 0x1b
8020687e: 13 05 e5 26  	addi	a0, a0, 0x26e
80206882: 97 e0 ff ff  	auipc	ra, 0xffffe
80206886: e7 80 40 18  	jalr	0x184(ra) <ekernel+0xffc7da06>
8020688a: 97 10 01 00  	auipc	ra, 0x11
8020688e: e7 80 40 8c  	jalr	-0x73c(ra) <_ZN73_$LT$alloc..sync..Arc$LT$T$C$A$GT$$u20$as$u20$core..ops..deref..Deref$GT$5deref17h652c9d844169364fE>
80206892: 97 00 01 00  	auipc	ra, 0x10
80206896: e7 80 20 77  	jalr	0x772(ra) <_ZN2os4sync2up19UPSafeCell$LT$T$GT$16exclusive_access17h7b67dfe7a9245e2aE>
8020689a: 23 30 a4 fe  	sd	a0, -0x20(s0)
8020689e: 23 34 b4 fe  	sd	a1, -0x18(s0)
802068a2: 13 05 04 fe  	addi	a0, s0, -0x20
802068a6: 23 3c a4 fc  	sd	a0, -0x28(s0)
802068aa: 97 20 01 00  	auipc	ra, 0x12
802068ae: e7 80 60 92  	jalr	-0x6da(ra) <_ZN71_$LT$core..cell..RefMut$LT$T$GT$$u20$as$u20$core..ops..deref..Deref$GT$5deref17h4a2afb36d04b5b97E>
802068b2: 97 d0 ff ff  	auipc	ra, 0xffffd
802068b6: e7 80 80 6a  	jalr	0x6a8(ra) <ekernel+0xffc7cf5a>
802068ba: 03 35 84 fd  	ld	a0, -0x28(s0)
802068be: 97 30 00 00  	auipc	ra, 0x3
802068c2: e7 80 a0 17  	jalr	0x17a(ra) <_ZN4core3ptr76drop_in_place$LT$core..cell..RefMut$LT$os..mm..memory_set..MemorySet$GT$$GT$17h157f8e08cf5e24aeE>
802068c6: a2 70        	ld	ra, 0x28(sp)
802068c8: 02 74        	ld	s0, 0x20(sp)
802068ca: 45 61        	addi	sp, sp, 0x30
802068cc: 82 80        	ret

00000000802068ce <_ZN4core3cmp5impls50_$LT$impl$u20$core..cmp..Ord$u20$for$u20$usize$GT$3cmp17ha6fb918e31618e63E>:
802068ce: 79 71        	addi	sp, sp, -0x30
802068d0: 06 f4        	sd	ra, 0x28(sp)
802068d2: 22 f0        	sd	s0, 0x20(sp)
802068d4: 00 18        	addi	s0, sp, 0x30
802068d6: 23 3c b4 fc  	sd	a1, -0x28(s0)
802068da: aa 85        	mv	a1, a0
802068dc: 03 35 84 fd  	ld	a0, -0x28(s0)
802068e0: 23 30 b4 fe  	sd	a1, -0x20(s0)
802068e4: 23 34 a4 fe  	sd	a0, -0x18(s0)
802068e8: 8c 61        	ld	a1, 0x0(a1)
802068ea: 10 61        	ld	a2, 0x0(a0)
802068ec: 33 35 b6 00  	sltu	a0, a2, a1
802068f0: b3 b5 c5 00  	sltu	a1, a1, a2
802068f4: 0d 8d        	sub	a0, a0, a1
802068f6: a2 70        	ld	ra, 0x28(sp)
802068f8: 02 74        	ld	s0, 0x20(sp)
802068fa: 45 61        	addi	sp, sp, 0x30
802068fc: 82 80        	ret

00000000802068fe <_ZN4core3cmp5impls57_$LT$impl$u20$core..cmp..PartialOrd$u20$for$u20$usize$GT$11partial_cmp17hed80a2ec30f2be56E>:
802068fe: 79 71        	addi	sp, sp, -0x30
80206900: 06 f4        	sd	ra, 0x28(sp)
80206902: 22 f0        	sd	s0, 0x20(sp)
80206904: 00 18        	addi	s0, sp, 0x30
80206906: 23 38 b4 fc  	sd	a1, -0x30(s0)
8020690a: aa 85        	mv	a1, a0
8020690c: 03 35 04 fd  	ld	a0, -0x30(s0)
80206910: 23 30 b4 fe  	sd	a1, -0x20(s0)
80206914: 23 34 a4 fe  	sd	a0, -0x18(s0)
80206918: 8c 61        	ld	a1, 0x0(a1)
8020691a: 10 61        	ld	a2, 0x0(a0)
8020691c: 33 35 b6 00  	sltu	a0, a2, a1
80206920: b3 b5 c5 00  	sltu	a1, a1, a2
80206924: 0d 9d        	subw	a0, a0, a1
80206926: a3 0f a4 fc  	sb	a0, -0x21(s0)
8020692a: 03 45 f4 fd  	lbu	a0, -0x21(s0)
8020692e: a2 70        	ld	ra, 0x28(sp)
80206930: 02 74        	ld	s0, 0x20(sp)
80206932: 45 61        	addi	sp, sp, 0x30
80206934: 82 80        	ret

0000000080206936 <_ZN4core4char7convert18from_u32_unchecked18precondition_check17h80d73912859f1aefE>:
80206936: 79 71        	addi	sp, sp, -0x30
80206938: 06 f4        	sd	ra, 0x28(sp)
8020693a: 22 f0        	sd	s0, 0x20(sp)
8020693c: 00 18        	addi	s0, sp, 0x30
8020693e: aa 85        	mv	a1, a0
80206940: 23 38 b4 fc  	sd	a1, -0x30(s0)
80206944: 85 45        	li	a1, 0x1
80206946: ae 05        	slli	a1, a1, 0xb
80206948: 23 2c b4 fc  	sw	a1, -0x28(s0)
8020694c: 23 20 a4 fe  	sw	a0, -0x20(s0)
80206950: ed 45        	li	a1, 0x1b
80206952: ae 05        	slli	a1, a1, 0xb
80206954: 2d 8d        	xor	a0, a0, a1
80206956: 23 22 a4 fe  	sw	a0, -0x1c(s0)
8020695a: 1b 05 05 80  	addiw	a0, a0, -0x800
8020695e: 9b 55 b5 00  	srliw	a1, a0, 0xb
80206962: 13 05 e0 21  	li	a0, 0x21e
80206966: 63 68 b5 00  	bltu	a0, a1, 0x80206976 <_ZN4core4char7convert18from_u32_unchecked18precondition_check17h80d73912859f1aefE+0x40>
8020696a: 09 a0        	j	0x8020696c <_ZN4core4char7convert18from_u32_unchecked18precondition_check17h80d73912859f1aefE+0x36>
8020696c: 03 35 04 fd  	ld	a0, -0x30(s0)
80206970: 23 2e a4 fc  	sw	a0, -0x24(s0)
80206974: 31 a0        	j	0x80206980 <_ZN4core4char7convert18from_u32_unchecked18precondition_check17h80d73912859f1aefE+0x4a>
80206976: 37 05 11 00  	lui	a0, 0x110
8020697a: 23 2e a4 fc  	sw	a0, -0x24(s0)
8020697e: 09 a0        	j	0x80206980 <_ZN4core4char7convert18from_u32_unchecked18precondition_check17h80d73912859f1aefE+0x4a>
80206980: 13 05 c4 fd  	addi	a0, s0, -0x24
80206984: 23 34 a4 fe  	sd	a0, -0x18(s0)
80206988: 03 25 c4 fd  	lw	a0, -0x24(s0)
8020698c: b7 05 11 00  	lui	a1, 0x110
80206990: 63 07 b5 00  	beq	a0, a1, 0x8020699e <.Lpcrel_hi0>
80206994: 09 a0        	j	0x80206996 <_ZN4core4char7convert18from_u32_unchecked18precondition_check17h80d73912859f1aefE+0x60>
80206996: a2 70        	ld	ra, 0x28(sp)
80206998: 02 74        	ld	s0, 0x20(sp)
8020699a: 45 61        	addi	sp, sp, 0x30
8020699c: 82 80        	ret

000000008020699e <.Lpcrel_hi0>:
8020699e: 17 b5 01 00  	auipc	a0, 0x1b
802069a2: 13 05 d5 49  	addi	a0, a0, 0x49d
802069a6: 93 05 90 03  	li	a1, 0x39
802069aa: 97 70 01 00  	auipc	ra, 0x17
802069ae: e7 80 c0 1c  	jalr	0x1cc(ra) <_ZN4core9panicking14panic_nounwind17h62d35424a89e55acE>

00000000802069b2 <_ZN4core9ub_checks17is_nonoverlapping7runtime17hd614380ed9cba672E>:
802069b2: 35 71        	addi	sp, sp, -0xa0
802069b4: 06 ed        	sd	ra, 0x98(sp)
802069b6: 22 e9        	sd	s0, 0x90(sp)
802069b8: 00 11        	addi	s0, sp, 0xa0
802069ba: 23 3c a4 f8  	sd	a0, -0x68(s0)
802069be: 23 30 b4 fa  	sd	a1, -0x60(s0)
802069c2: 23 34 c4 fa  	sd	a2, -0x58(s0)
802069c6: 23 38 d4 fa  	sd	a3, -0x50(s0)
802069ca: 2a 87        	mv	a4, a0
802069cc: 23 34 e4 f6  	sd	a4, -0x98(s0)
802069d0: 23 3c a4 fa  	sd	a0, -0x48(s0)
802069d4: 2e 85        	mv	a0, a1
802069d6: 23 38 a4 f6  	sd	a0, -0x90(s0)
802069da: 23 30 b4 fc  	sd	a1, -0x40(s0)
802069de: 33 35 d6 02  	mulhu	a0, a2, a3
802069e2: 33 35 a0 00  	snez	a0, a0
802069e6: b3 05 d6 02  	mul	a1, a2, a3
802069ea: 23 3c b4 f6  	sd	a1, -0x88(s0)
802069ee: 23 34 b4 fc  	sd	a1, -0x38(s0)
802069f2: a3 0b a4 fc  	sb	a0, -0x29(s0)
802069f6: 23 3c b4 fc  	sd	a1, -0x28(s0)
802069fa: a3 03 a4 fe  	sb	a0, -0x19(s0)
802069fe: 03 45 74 fe  	lbu	a0, -0x19(s0)
80206a02: 05 89        	andi	a0, a0, 0x1
80206a04: 15 e5        	bnez	a0, 0x80206a30 <.Lpcrel_hi0>
80206a06: 09 a0        	j	0x80206a08 <_ZN4core9ub_checks17is_nonoverlapping7runtime17hd614380ed9cba672E+0x56>
80206a08: 03 35 84 f6  	ld	a0, -0x98(s0)
80206a0c: 83 35 04 f7  	ld	a1, -0x90(s0)
80206a10: 03 36 84 f7  	ld	a2, -0x88(s0)
80206a14: 23 34 c4 f8  	sd	a2, -0x78(s0)
80206a18: 05 46        	li	a2, 0x1
80206a1a: 23 30 c4 f8  	sd	a2, -0x80(s0)
80206a1e: 03 36 84 f8  	ld	a2, -0x78(s0)
80206a22: 23 30 c4 f6  	sd	a2, -0xa0(s0)
80206a26: 23 34 c4 fe  	sd	a2, -0x18(s0)
80206a2a: 63 65 b5 02  	bltu	a0, a1, 0x80206a54 <.Lpcrel_hi0+0x24>
80206a2e: 19 a8        	j	0x80206a44 <.Lpcrel_hi0+0x14>

0000000080206a30 <.Lpcrel_hi0>:
80206a30: 17 b5 01 00  	auipc	a0, 0x1b
80206a34: 13 05 45 44  	addi	a0, a0, 0x444
80206a38: 93 05 d0 03  	li	a1, 0x3d
80206a3c: 97 70 01 00  	auipc	ra, 0x17
80206a40: e7 80 a0 13  	jalr	0x13a(ra) <_ZN4core9panicking14panic_nounwind17h62d35424a89e55acE>
80206a44: 03 35 84 f6  	ld	a0, -0x98(s0)
80206a48: 83 35 04 f7  	ld	a1, -0x90(s0)
80206a4c: 0d 8d        	sub	a0, a0, a1
80206a4e: 23 38 a4 f8  	sd	a0, -0x70(s0)
80206a52: 09 a8        	j	0x80206a64 <.Lpcrel_hi0+0x34>
80206a54: 03 35 04 f7  	ld	a0, -0x90(s0)
80206a58: 83 35 84 f6  	ld	a1, -0x98(s0)
80206a5c: 0d 8d        	sub	a0, a0, a1
80206a5e: 23 38 a4 f8  	sd	a0, -0x70(s0)
80206a62: 09 a0        	j	0x80206a64 <.Lpcrel_hi0+0x34>
80206a64: 83 35 04 f6  	ld	a1, -0xa0(s0)
80206a68: 03 35 04 f9  	ld	a0, -0x70(s0)
80206a6c: 33 35 b5 00  	sltu	a0, a0, a1
80206a70: 13 45 15 00  	xori	a0, a0, 0x1
80206a74: ea 60        	ld	ra, 0x98(sp)
80206a76: 4a 64        	ld	s0, 0x90(sp)
80206a78: 0d 61        	addi	sp, sp, 0xa0
80206a7a: 82 80        	ret

0000000080206a7c <_ZN4core3fmt3num52_$LT$impl$u20$core..fmt..Debug$u20$for$u20$usize$GT$3fmt17hbdb39544cf23214aE>:
80206a7c: 39 71        	addi	sp, sp, -0x40
80206a7e: 06 fc        	sd	ra, 0x38(sp)
80206a80: 22 f8        	sd	s0, 0x30(sp)
80206a82: 80 00        	addi	s0, sp, 0x40
80206a84: 23 34 b4 fc  	sd	a1, -0x38(s0)
80206a88: 23 38 a4 fc  	sd	a0, -0x30(s0)
80206a8c: 23 30 a4 fe  	sd	a0, -0x20(s0)
80206a90: 23 34 b4 fe  	sd	a1, -0x18(s0)
80206a94: 03 c5 45 03  	lbu	a0, 0x34(a1)
80206a98: 41 89        	andi	a0, a0, 0x10
80206a9a: 11 e9        	bnez	a0, 0x80206aae <_ZN4core3fmt3num52_$LT$impl$u20$core..fmt..Debug$u20$for$u20$usize$GT$3fmt17hbdb39544cf23214aE+0x32>
80206a9c: 09 a0        	j	0x80206a9e <_ZN4core3fmt3num52_$LT$impl$u20$core..fmt..Debug$u20$for$u20$usize$GT$3fmt17hbdb39544cf23214aE+0x22>
80206a9e: 03 35 84 fc  	ld	a0, -0x38(s0)
80206aa2: 03 45 45 03  	lbu	a0, 0x34(a0)
80206aa6: 13 75 05 02  	andi	a0, a0, 0x20
80206aaa: 09 cd        	beqz	a0, 0x80206ac4 <_ZN4core3fmt3num52_$LT$impl$u20$core..fmt..Debug$u20$for$u20$usize$GT$3fmt17hbdb39544cf23214aE+0x48>
80206aac: 3d a0        	j	0x80206ada <_ZN4core3fmt3num52_$LT$impl$u20$core..fmt..Debug$u20$for$u20$usize$GT$3fmt17hbdb39544cf23214aE+0x5e>
80206aae: 83 35 84 fc  	ld	a1, -0x38(s0)
80206ab2: 03 35 04 fd  	ld	a0, -0x30(s0)
80206ab6: 97 90 01 00  	auipc	ra, 0x19
80206aba: e7 80 c0 69  	jalr	0x69c(ra) <_ZN4core3fmt3num55_$LT$impl$u20$core..fmt..LowerHex$u20$for$u20$usize$GT$3fmt17hdead20008dc93b05E>
80206abe: a3 0f a4 fc  	sb	a0, -0x21(s0)
80206ac2: 05 a8        	j	0x80206af2 <_ZN4core3fmt3num52_$LT$impl$u20$core..fmt..Debug$u20$for$u20$usize$GT$3fmt17hbdb39544cf23214aE+0x76>
80206ac4: 83 35 84 fc  	ld	a1, -0x38(s0)
80206ac8: 03 35 04 fd  	ld	a0, -0x30(s0)
80206acc: 97 a0 01 00  	auipc	ra, 0x1a
80206ad0: e7 80 c0 b2  	jalr	-0x4d4(ra) <_ZN4core3fmt3num3imp54_$LT$impl$u20$core..fmt..Display$u20$for$u20$usize$GT$3fmt17h588b8a171a0edc47E>
80206ad4: a3 0f a4 fc  	sb	a0, -0x21(s0)
80206ad8: 21 a8        	j	0x80206af0 <_ZN4core3fmt3num52_$LT$impl$u20$core..fmt..Debug$u20$for$u20$usize$GT$3fmt17hbdb39544cf23214aE+0x74>
80206ada: 83 35 84 fc  	ld	a1, -0x38(s0)
80206ade: 03 35 04 fd  	ld	a0, -0x30(s0)
80206ae2: 97 90 01 00  	auipc	ra, 0x19
80206ae6: e7 80 60 6e  	jalr	0x6e6(ra) <_ZN4core3fmt3num55_$LT$impl$u20$core..fmt..UpperHex$u20$for$u20$usize$GT$3fmt17hcb0e7a422f6d8be2E>
80206aea: a3 0f a4 fc  	sb	a0, -0x21(s0)
80206aee: 09 a0        	j	0x80206af0 <_ZN4core3fmt3num52_$LT$impl$u20$core..fmt..Debug$u20$for$u20$usize$GT$3fmt17hbdb39544cf23214aE+0x74>
80206af0: 09 a0        	j	0x80206af2 <_ZN4core3fmt3num52_$LT$impl$u20$core..fmt..Debug$u20$for$u20$usize$GT$3fmt17hbdb39544cf23214aE+0x76>
80206af2: 03 45 f4 fd  	lbu	a0, -0x21(s0)
80206af6: 05 89        	andi	a0, a0, 0x1
80206af8: e2 70        	ld	ra, 0x38(sp)
80206afa: 42 74        	ld	s0, 0x30(sp)
80206afc: 21 61        	addi	sp, sp, 0x40
80206afe: 82 80        	ret

0000000080206b00 <_ZN5alloc5slice4hack8into_vec17h5c8b4e92858a010bE>:
80206b00: 75 71        	addi	sp, sp, -0x90
80206b02: 06 e5        	sd	ra, 0x88(sp)
80206b04: 22 e1        	sd	s0, 0x80(sp)
80206b06: 00 09        	addi	s0, sp, 0x90
80206b08: 23 38 c4 f6  	sd	a2, -0x90(s0)
80206b0c: 23 3c a4 f6  	sd	a0, -0x88(s0)
80206b10: 23 30 b4 fa  	sd	a1, -0x60(s0)
80206b14: 23 34 c4 fa  	sd	a2, -0x58(s0)
80206b18: 23 3c c4 fa  	sd	a2, -0x48(s0)
80206b1c: 23 34 b4 f8  	sd	a1, -0x78(s0)
80206b20: 23 38 c4 f8  	sd	a2, -0x70(s0)
80206b24: 93 05 84 f8  	addi	a1, s0, -0x78
80206b28: 23 30 b4 fc  	sd	a1, -0x40(s0)
80206b2c: 03 35 84 f8  	ld	a0, -0x78(s0)
80206b30: 23 30 a4 f8  	sd	a0, -0x80(s0)
80206b34: 03 36 04 f9  	ld	a2, -0x70(s0)
80206b38: 23 34 a4 fc  	sd	a0, -0x38(s0)
80206b3c: 23 38 c4 fc  	sd	a2, -0x30(s0)
80206b40: 23 3c b4 fc  	sd	a1, -0x28(s0)
80206b44: 93 05 84 f9  	addi	a1, s0, -0x68
80206b48: 23 30 b4 fe  	sd	a1, -0x20(s0)
80206b4c: 23 34 a4 fe  	sd	a0, -0x18(s0)
80206b50: 09 a0        	j	0x80206b52 <_ZN5alloc5slice4hack8into_vec17h5c8b4e92858a010bE+0x52>
80206b52: 03 35 04 f7  	ld	a0, -0x90(s0)
80206b56: 23 3c a4 f8  	sd	a0, -0x68(s0)
80206b5a: 09 a0        	j	0x80206b5c <_ZN5alloc5slice4hack8into_vec17h5c8b4e92858a010bE+0x5c>
80206b5c: 09 a0        	j	0x80206b5e <_ZN5alloc5slice4hack8into_vec17h5c8b4e92858a010bE+0x5e>
80206b5e: 03 35 04 f8  	ld	a0, -0x80(s0)
80206b62: 97 e0 00 00  	auipc	ra, 0xe
80206b66: e7 80 80 65  	jalr	0x658(ra) <_ZN4core3ptr8non_null16NonNull$LT$T$GT$13new_unchecked18precondition_check17h3d217dc81bfcd405E>
80206b6a: 09 a0        	j	0x80206b6c <_ZN5alloc5slice4hack8into_vec17h5c8b4e92858a010bE+0x6c>
80206b6c: 03 35 04 f7  	ld	a0, -0x90(s0)
80206b70: 83 35 84 f7  	ld	a1, -0x88(s0)
80206b74: 03 36 04 f8  	ld	a2, -0x80(s0)
80206b78: 83 36 84 f9  	ld	a3, -0x68(s0)
80206b7c: 94 e1        	sd	a3, 0x0(a1)
80206b7e: 90 e5        	sd	a2, 0x8(a1)
80206b80: 88 e9        	sd	a0, 0x10(a1)
80206b82: aa 60        	ld	ra, 0x88(sp)
80206b84: 0a 64        	ld	s0, 0x80(sp)
80206b86: 49 61        	addi	sp, sp, 0x90
80206b88: 82 80        	ret

0000000080206b8a <_ZN56_$LT$os..console..Stdout$u20$as$u20$core..fmt..Write$GT$9write_str17hb1b3d2998c5bc08fE>:
80206b8a: 1d 71        	addi	sp, sp, -0x60
80206b8c: 86 ec        	sd	ra, 0x58(sp)
80206b8e: a2 e8        	sd	s0, 0x50(sp)
80206b90: 80 10        	addi	s0, sp, 0x60
80206b92: 23 30 c4 fa  	sd	a2, -0x60(s0)
80206b96: 2e 86        	mv	a2, a1
80206b98: 83 35 04 fa  	ld	a1, -0x60(s0)
80206b9c: 23 34 c4 fa  	sd	a2, -0x58(s0)
80206ba0: 2a 86        	mv	a2, a0
80206ba2: 03 35 84 fa  	ld	a0, -0x58(s0)
80206ba6: 23 38 c4 fc  	sd	a2, -0x30(s0)
80206baa: 23 3c a4 fc  	sd	a0, -0x28(s0)
80206bae: 23 30 b4 fe  	sd	a1, -0x20(s0)
80206bb2: 97 d0 00 00  	auipc	ra, 0xd
80206bb6: e7 80 60 28  	jalr	0x286(ra) <_ZN4core3str21_$LT$impl$u20$str$GT$5chars17h9eb919166e15a348E>
80206bba: 97 b0 ff ff  	auipc	ra, 0xffffb
80206bbe: e7 80 60 44  	jalr	0x446(ra) <ekernel+0xffc7b000>
80206bc2: 23 3c a4 fa  	sd	a0, -0x48(s0)
80206bc6: 23 30 b4 fc  	sd	a1, -0x40(s0)
80206bca: 09 a0        	j	0x80206bcc <_ZN56_$LT$os..console..Stdout$u20$as$u20$core..fmt..Write$GT$9write_str17hb1b3d2998c5bc08fE+0x42>
80206bcc: 13 05 84 fb  	addi	a0, s0, -0x48
80206bd0: 97 c0 ff ff  	auipc	ra, 0xffffc
80206bd4: e7 80 c0 80  	jalr	-0x7f4(ra) <ekernel+0xffc7b3dc>
80206bd8: 23 26 a4 fc  	sw	a0, -0x34(s0)
80206bdc: 03 25 c4 fc  	lw	a0, -0x34(s0)
80206be0: b7 05 11 00  	lui	a1, 0x110
80206be4: 63 1d b5 00  	bne	a0, a1, 0x80206bfe <_ZN56_$LT$os..console..Stdout$u20$as$u20$core..fmt..Write$GT$9write_str17hb1b3d2998c5bc08fE+0x74>
80206be8: 09 a0        	j	0x80206bea <_ZN56_$LT$os..console..Stdout$u20$as$u20$core..fmt..Write$GT$9write_str17hb1b3d2998c5bc08fE+0x60>
80206bea: 01 45        	li	a0, 0x0
80206bec: a3 0b a4 fa  	sb	a0, -0x49(s0)
80206bf0: 03 45 74 fb  	lbu	a0, -0x49(s0)
80206bf4: 05 89        	andi	a0, a0, 0x1
80206bf6: e6 60        	ld	ra, 0x58(sp)
80206bf8: 46 64        	ld	s0, 0x50(sp)
80206bfa: 25 61        	addi	sp, sp, 0x60
80206bfc: 82 80        	ret
80206bfe: 03 65 c4 fc  	lwu	a0, -0x34(s0)
80206c02: 23 26 a4 fe  	sw	a0, -0x14(s0)
80206c06: 97 10 01 00  	auipc	ra, 0x11
80206c0a: e7 80 80 66  	jalr	0x668(ra) <_ZN2os3sbi15console_putchar17ha240dd7e1a7d633cE>
80206c0e: 7d bf        	j	0x80206bcc <_ZN56_$LT$os..console..Stdout$u20$as$u20$core..fmt..Write$GT$9write_str17hb1b3d2998c5bc08fE+0x42>

0000000080206c10 <_ZN2os7console5print17he820b8e27323609fE>:
80206c10: 5d 71        	addi	sp, sp, -0x50
80206c12: 86 e4        	sd	ra, 0x48(sp)
80206c14: a2 e0        	sd	s0, 0x40(sp)
80206c16: 80 08        	addi	s0, sp, 0x50
80206c18: 0c 75        	ld	a1, 0x28(a0)
80206c1a: 23 30 b4 fe  	sd	a1, -0x20(s0)
80206c1e: 0c 71        	ld	a1, 0x20(a0)
80206c20: 23 3c b4 fc  	sd	a1, -0x28(s0)
80206c24: 0c 6d        	ld	a1, 0x18(a0)
80206c26: 23 38 b4 fc  	sd	a1, -0x30(s0)
80206c2a: 0c 69        	ld	a1, 0x10(a0)
80206c2c: 23 34 b4 fc  	sd	a1, -0x38(s0)
80206c30: 0c 65        	ld	a1, 0x8(a0)
80206c32: 23 30 b4 fc  	sd	a1, -0x40(s0)
80206c36: 08 61        	ld	a0, 0x0(a0)
80206c38: 23 3c a4 fa  	sd	a0, -0x48(s0)
80206c3c: 13 05 74 fb  	addi	a0, s0, -0x49
80206c40: 93 05 84 fb  	addi	a1, s0, -0x48
80206c44: 97 40 00 00  	auipc	ra, 0x4
80206c48: e7 80 20 58  	jalr	0x582(ra) <_ZN4core3fmt5Write9write_fmt17haee8f1e3828ff9cdE>
80206c4c: 23 07 a4 fe  	sb	a0, -0x12(s0)
80206c50: 03 45 e4 fe  	lbu	a0, -0x12(s0)
80206c54: 05 89        	andi	a0, a0, 0x1
80206c56: 15 c5        	beqz	a0, 0x80206c82 <.Lpcrel_hi2+0x18>
80206c58: 09 a0        	j	0x80206c5a <.Lpcrel_hi0>

0000000080206c5a <.Lpcrel_hi0>:
80206c5a: 17 b5 01 00  	auipc	a0, 0x1b
80206c5e: 13 05 e5 27  	addi	a0, a0, 0x27e

0000000080206c62 <.Lpcrel_hi1>:
80206c62: 97 b5 01 00  	auipc	a1, 0x1b
80206c66: 93 86 65 25  	addi	a3, a1, 0x256

0000000080206c6a <.Lpcrel_hi2>:
80206c6a: 97 b5 01 00  	auipc	a1, 0x1b
80206c6e: 13 87 e5 2a  	addi	a4, a1, 0x2ae
80206c72: 93 05 b0 02  	li	a1, 0x2b
80206c76: 13 06 f4 fe  	addi	a2, s0, -0x11
80206c7a: 97 70 01 00  	auipc	ra, 0x17
80206c7e: e7 80 40 17  	jalr	0x174(ra) <_ZN4core6result13unwrap_failed17h2ab822e5e76018a3E>
80206c82: a6 60        	ld	ra, 0x48(sp)
80206c84: 06 64        	ld	s0, 0x40(sp)
80206c86: 61 61        	addi	sp, sp, 0x50
80206c88: 82 80        	ret

0000000080206c8a <_ZN5alloc7raw_vec11finish_grow17hb16b7d70a580e042E>:
80206c8a: 13 01 01 df  	addi	sp, sp, -0x210
80206c8e: 23 34 11 20  	sd	ra, 0x208(sp)
80206c92: 23 30 81 20  	sd	s0, 0x200(sp)
80206c96: 00 0c        	addi	s0, sp, 0x210
80206c98: 23 38 e4 e0  	sd	a4, -0x1f0(s0)
80206c9c: 23 3c d4 e0  	sd	a3, -0x1e8(s0)
80206ca0: 23 30 a4 e2  	sd	a0, -0x1e0(s0)
80206ca4: 01 45        	li	a0, 0x0
80206ca6: a3 06 a4 e2  	sb	a0, -0x1d3(s0)

0000000080206caa <.Lpcrel_hi0>:
80206caa: 17 a5 01 00  	auipc	a0, 0x1a
80206cae: 13 05 e5 4d  	addi	a0, a0, 0x4de
80206cb2: 1c 61        	ld	a5, 0x0(a0)
80206cb4: 14 65        	ld	a3, 0x8(a0)
80206cb6: 23 38 f4 e2  	sd	a5, -0x1d0(s0)
80206cba: 23 3c d4 e2  	sd	a3, -0x1c8(s0)
80206cbe: 14 61        	ld	a3, 0x0(a0)
80206cc0: 08 65        	ld	a0, 0x8(a0)
80206cc2: 23 30 d4 e4  	sd	a3, -0x1c0(s0)
80206cc6: 23 34 a4 e4  	sd	a0, -0x1b8(s0)

0000000080206cca <.Lpcrel_hi1>:
80206cca: 17 a5 01 00  	auipc	a0, 0x1a
80206cce: 13 05 e5 49  	addi	a0, a0, 0x49e
80206cd2: 1c 61        	ld	a5, 0x0(a0)
80206cd4: 14 65        	ld	a3, 0x8(a0)
80206cd6: 23 38 f4 e4  	sd	a5, -0x1b0(s0)
80206cda: 23 3c d4 e4  	sd	a3, -0x1a8(s0)
80206cde: 14 61        	ld	a3, 0x0(a0)
80206ce0: 08 65        	ld	a0, 0x8(a0)
80206ce2: 23 34 d4 e6  	sd	a3, -0x198(s0)
80206ce6: 23 38 a4 e6  	sd	a0, -0x190(s0)
80206cea: 23 30 b4 e8  	sd	a1, -0x180(s0)
80206cee: 23 34 c4 e8  	sd	a2, -0x178(s0)
80206cf2: 23 30 e4 f4  	sd	a4, -0xc0(s0)
80206cf6: 03 35 04 e8  	ld	a0, -0x180(s0)
80206cfa: 35 c9        	beqz	a0, 0x80206d6e <.Lpcrel_hi1+0xa4>
80206cfc: 09 a0        	j	0x80206cfe <.Lpcrel_hi1+0x34>
80206cfe: 03 35 84 e1  	ld	a0, -0x1e8(s0)
80206d02: 03 36 04 e8  	ld	a2, -0x180(s0)
80206d06: 83 35 84 e8  	ld	a1, -0x178(s0)
80206d0a: 23 34 c4 f4  	sd	a2, -0xb8(s0)
80206d0e: 23 38 b4 f4  	sd	a1, -0xb0(s0)
80206d12: 23 30 c4 ec  	sd	a2, -0x140(s0)
80206d16: 23 34 b4 ec  	sd	a1, -0x138(s0)
80206d1a: 81 45        	li	a1, 0x0
80206d1c: 23 3c b4 ea  	sd	a1, -0x148(s0)
80206d20: 83 36 04 ec  	ld	a3, -0x140(s0)
80206d24: 03 36 84 ec  	ld	a2, -0x138(s0)
80206d28: 23 3c d4 f4  	sd	a3, -0xa8(s0)
80206d2c: 23 30 c4 f6  	sd	a2, -0xa0(s0)
80206d30: 23 34 d4 ea  	sd	a3, -0x158(s0)
80206d34: 23 38 c4 ea  	sd	a2, -0x150(s0)
80206d38: 23 30 b4 ea  	sd	a1, -0x160(s0)
80206d3c: 03 36 84 ea  	ld	a2, -0x158(s0)
80206d40: 23 30 c4 e0  	sd	a2, -0x200(s0)
80206d44: 83 35 04 eb  	ld	a1, -0x150(s0)
80206d48: 23 34 b4 e0  	sd	a1, -0x1f8(s0)
80206d4c: 23 34 c4 f6  	sd	a2, -0x98(s0)
80206d50: 23 38 b4 f6  	sd	a1, -0x90(s0)
80206d54: 23 38 c4 e8  	sd	a2, -0x170(s0)
80206d58: 23 3c b4 e8  	sd	a1, -0x168(s0)
80206d5c: 13 06 04 e9  	addi	a2, s0, -0x170
80206d60: 23 3c c4 f6  	sd	a2, -0x88(s0)
80206d64: 23 30 b4 f8  	sd	a1, -0x80(s0)
80206d68: 08 65        	ld	a0, 0x8(a0)
80206d6a: 3d e9        	bnez	a0, 0x80206de0 <.Lpcrel_hi2+0x6e>
80206d6c: f9 a0        	j	0x80206e3a <.Lpcrel_hi2+0xc8>
80206d6e: 83 35 04 e2  	ld	a1, -0x1e0(s0)

0000000080206d72 <.Lpcrel_hi2>:
80206d72: 17 a5 01 00  	auipc	a0, 0x1a
80206d76: 13 05 65 41  	addi	a0, a0, 0x416
80206d7a: 10 61        	ld	a2, 0x0(a0)
80206d7c: 08 65        	ld	a0, 0x8(a0)
80206d7e: 23 30 c4 ec  	sd	a2, -0x140(s0)
80206d82: 23 34 a4 ec  	sd	a0, -0x138(s0)
80206d86: 05 45        	li	a0, 0x1
80206d88: 23 3c a4 ea  	sd	a0, -0x148(s0)
80206d8c: 83 36 04 ec  	ld	a3, -0x140(s0)
80206d90: 03 36 84 ec  	ld	a2, -0x138(s0)
80206d94: 23 38 d4 fc  	sd	a3, -0x30(s0)
80206d98: 23 3c c4 fc  	sd	a2, -0x28(s0)
80206d9c: 23 38 d4 f0  	sd	a3, -0xf0(s0)
80206da0: 23 3c c4 f0  	sd	a2, -0xe8(s0)
80206da4: 83 36 04 f1  	ld	a3, -0xf0(s0)
80206da8: 03 36 84 f1  	ld	a2, -0xe8(s0)
80206dac: 23 34 d4 ea  	sd	a3, -0x158(s0)
80206db0: 23 38 c4 ea  	sd	a2, -0x150(s0)
80206db4: 23 30 a4 ea  	sd	a0, -0x160(s0)
80206db8: 83 36 84 ea  	ld	a3, -0x158(s0)
80206dbc: 03 36 04 eb  	ld	a2, -0x150(s0)
80206dc0: 23 38 d4 ec  	sd	a3, -0x130(s0)
80206dc4: 23 3c c4 ec  	sd	a2, -0x128(s0)
80206dc8: 83 36 04 ed  	ld	a3, -0x130(s0)
80206dcc: 03 36 84 ed  	ld	a2, -0x128(s0)
80206dd0: 23 30 d4 fe  	sd	a3, -0x20(s0)
80206dd4: 23 34 c4 fe  	sd	a2, -0x18(s0)
80206dd8: 94 e5        	sd	a3, 0x8(a1)
80206dda: 90 e9        	sd	a2, 0x10(a1)
80206ddc: 88 e1        	sd	a0, 0x0(a1)
80206dde: 29 aa        	j	0x80206ef8 <.Lpcrel_hi2+0x186>
80206de0: 83 35 04 e0  	ld	a1, -0x200(s0)
80206de4: 03 35 84 e1  	ld	a0, -0x1e8(s0)
80206de8: 10 61        	ld	a2, 0x0(a0)
80206dea: 23 38 c4 de  	sd	a2, -0x210(s0)
80206dee: 23 34 c4 f8  	sd	a2, -0x78(s0)
80206df2: 10 65        	ld	a2, 0x8(a0)
80206df4: 08 69        	ld	a0, 0x10(a0)
80206df6: 23 38 c4 ee  	sd	a2, -0x110(s0)
80206dfa: 23 3c a4 ee  	sd	a0, -0x108(s0)
80206dfe: 13 05 04 ef  	addi	a0, s0, -0x110
80206e02: 23 38 a4 f8  	sd	a0, -0x70(s0)
80206e06: 03 35 04 ef  	ld	a0, -0x110(s0)
80206e0a: 23 3c a4 f8  	sd	a0, -0x68(s0)
80206e0e: 23 30 a4 f2  	sd	a0, -0xe0(s0)
80206e12: 03 35 04 f2  	ld	a0, -0xe0(s0)
80206e16: 13 06 04 e9  	addi	a2, s0, -0x170
80206e1a: 23 30 c4 fa  	sd	a2, -0x60(s0)
80206e1e: 23 34 b4 fa  	sd	a1, -0x58(s0)
80206e22: 23 34 b4 f2  	sd	a1, -0xd8(s0)
80206e26: 83 35 84 f2  	ld	a1, -0xd8(s0)
80206e2a: 2d 8d        	xor	a0, a0, a1
80206e2c: 13 35 15 00  	seqz	a0, a0
80206e30: 23 3c a4 de  	sd	a0, -0x208(s0)
80206e34: a3 0b a4 fa  	sb	a0, -0x49(s0)
80206e38: 05 a0        	j	0x80206e58 <.Lpcrel_hi2+0xe6>
80206e3a: 03 36 84 e0  	ld	a2, -0x1f8(s0)
80206e3e: 83 35 04 e0  	ld	a1, -0x200(s0)
80206e42: 03 35 04 e1  	ld	a0, -0x1f0(s0)
80206e46: 97 f0 00 00  	auipc	ra, 0xf
80206e4a: e7 80 40 3a  	jalr	0x3a4(ra) <_ZN63_$LT$alloc..alloc..Global$u20$as$u20$core..alloc..Allocator$GT$8allocate17h4c6aaba1841e2e5bE>
80206e4e: 23 30 a4 ee  	sd	a0, -0x120(s0)
80206e52: 23 34 b4 ee  	sd	a1, -0x118(s0)
80206e56: 35 a8        	j	0x80206e92 <.Lpcrel_hi2+0x120>
80206e58: 03 35 84 df  	ld	a0, -0x208(s0)
80206e5c: 05 89        	andi	a0, a0, 0x1
80206e5e: 97 10 01 00  	auipc	ra, 0x11
80206e62: e7 80 a0 63  	jalr	0x63a(ra) <_ZN4core4hint16assert_unchecked18precondition_check17he7e18b384d3b8458E>
80206e66: 09 a0        	j	0x80206e68 <.Lpcrel_hi2+0xf6>
80206e68: 83 37 84 e0  	ld	a5, -0x1f8(s0)
80206e6c: 03 37 04 e0  	ld	a4, -0x200(s0)
80206e70: 83 35 04 df  	ld	a1, -0x210(s0)
80206e74: 03 35 04 e1  	ld	a0, -0x1f0(s0)
80206e78: 03 36 04 ef  	ld	a2, -0x110(s0)
80206e7c: 83 36 84 ef  	ld	a3, -0x108(s0)
80206e80: 97 f0 00 00  	auipc	ra, 0xf
80206e84: e7 80 80 33  	jalr	0x338(ra) <_ZN63_$LT$alloc..alloc..Global$u20$as$u20$core..alloc..Allocator$GT$4grow17hbf6cfe6d90ef63c4E>
80206e88: 23 30 a4 ee  	sd	a0, -0x120(s0)
80206e8c: 23 34 b4 ee  	sd	a1, -0x118(s0)
80206e90: 09 a0        	j	0x80206e92 <.Lpcrel_hi2+0x120>
80206e92: 83 35 04 ee  	ld	a1, -0x120(s0)
80206e96: 03 35 84 ee  	ld	a0, -0x118(s0)
80206e9a: 23 30 b4 f0  	sd	a1, -0x100(s0)
80206e9e: 23 34 a4 f0  	sd	a0, -0xf8(s0)
80206ea2: 13 05 04 e9  	addi	a0, s0, -0x170
80206ea6: 23 3c a4 fa  	sd	a0, -0x48(s0)
80206eaa: 03 35 04 f0  	ld	a0, -0x100(s0)
80206eae: 0d c1        	beqz	a0, 0x80206ed0 <.Lpcrel_hi2+0x15e>
80206eb0: 09 a0        	j	0x80206eb2 <.Lpcrel_hi2+0x140>
80206eb2: 83 35 04 e2  	ld	a1, -0x1e0(s0)
80206eb6: 03 36 04 f0  	ld	a2, -0x100(s0)
80206eba: 03 35 84 f0  	ld	a0, -0xf8(s0)
80206ebe: 23 30 c4 fc  	sd	a2, -0x40(s0)
80206ec2: 23 34 a4 fc  	sd	a0, -0x38(s0)
80206ec6: 90 e5        	sd	a2, 0x8(a1)
80206ec8: 88 e9        	sd	a0, 0x10(a1)
80206eca: 01 45        	li	a0, 0x0
80206ecc: 88 e1        	sd	a0, 0x0(a1)
80206ece: 25 a0        	j	0x80206ef6 <.Lpcrel_hi2+0x184>
80206ed0: 83 35 04 e2  	ld	a1, -0x1e0(s0)
80206ed4: 03 35 84 e0  	ld	a0, -0x1f8(s0)
80206ed8: 03 36 04 e0  	ld	a2, -0x200(s0)
80206edc: 23 38 c4 f2  	sd	a2, -0xd0(s0)
80206ee0: 23 3c a4 f2  	sd	a0, -0xc8(s0)
80206ee4: 03 36 04 f3  	ld	a2, -0xd0(s0)
80206ee8: 03 35 84 f3  	ld	a0, -0xc8(s0)
80206eec: 90 e5        	sd	a2, 0x8(a1)
80206eee: 88 e9        	sd	a0, 0x10(a1)
80206ef0: 05 45        	li	a0, 0x1
80206ef2: 88 e1        	sd	a0, 0x0(a1)
80206ef4: 09 a0        	j	0x80206ef6 <.Lpcrel_hi2+0x184>
80206ef6: 09 a0        	j	0x80206ef8 <.Lpcrel_hi2+0x186>
80206ef8: 83 30 81 20  	ld	ra, 0x208(sp)
80206efc: 03 34 01 20  	ld	s0, 0x200(sp)
80206f00: 13 01 01 21  	addi	sp, sp, 0x210
80206f04: 82 80        	ret

0000000080206f06 <_ZN5alloc7raw_vec19RawVec$LT$T$C$A$GT$14current_memory17h070d21306f8bb9c9E>:
80206f06: 75 71        	addi	sp, sp, -0x90
80206f08: 06 e5        	sd	ra, 0x88(sp)
80206f0a: 22 e1        	sd	s0, 0x80(sp)
80206f0c: 00 09        	addi	s0, sp, 0x90
80206f0e: 23 30 b4 f8  	sd	a1, -0x80(s0)
80206f12: 23 34 a4 f8  	sd	a0, -0x78(s0)
80206f16: 23 34 b4 fa  	sd	a1, -0x58(s0)
80206f1a: 09 a0        	j	0x80206f1c <_ZN5alloc7raw_vec19RawVec$LT$T$C$A$GT$14current_memory17h070d21306f8bb9c9E+0x16>
80206f1c: 03 35 04 f8  	ld	a0, -0x80(s0)
80206f20: 08 61        	ld	a0, 0x0(a0)
80206f22: 19 e1        	bnez	a0, 0x80206f28 <_ZN5alloc7raw_vec19RawVec$LT$T$C$A$GT$14current_memory17h070d21306f8bb9c9E+0x22>
80206f24: 09 a0        	j	0x80206f26 <_ZN5alloc7raw_vec19RawVec$LT$T$C$A$GT$14current_memory17h070d21306f8bb9c9E+0x20>
80206f26: 39 a8        	j	0x80206f44 <_ZN5alloc7raw_vec19RawVec$LT$T$C$A$GT$14current_memory17h070d21306f8bb9c9E+0x3e>
80206f28: 03 35 04 f8  	ld	a0, -0x80(s0)
80206f2c: a1 45        	li	a1, 0x8
80206f2e: 23 38 b4 fa  	sd	a1, -0x50(s0)
80206f32: c1 45        	li	a1, 0x10
80206f34: 23 3c b4 fa  	sd	a1, -0x48(s0)
80206f38: 08 61        	ld	a0, 0x0(a0)
80206f3a: 23 3c a4 f6  	sd	a0, -0x88(s0)
80206f3e: 23 30 a4 fc  	sd	a0, -0x40(s0)
80206f42: 31 a0        	j	0x80206f4e <_ZN5alloc7raw_vec19RawVec$LT$T$C$A$GT$14current_memory17h070d21306f8bb9c9E+0x48>
80206f44: 83 35 84 f8  	ld	a1, -0x78(s0)
80206f48: 01 45        	li	a0, 0x0
80206f4a: 88 e5        	sd	a0, 0x8(a1)
80206f4c: a1 a8        	j	0x80206fa4 <_ZN5alloc7raw_vec19RawVec$LT$T$C$A$GT$14current_memory17h070d21306f8bb9c9E+0x9e>
80206f4e: 83 35 84 f7  	ld	a1, -0x88(s0)
80206f52: 41 45        	li	a0, 0x10
80206f54: 97 f0 ff ff  	auipc	ra, 0xfffff
80206f58: e7 80 20 91  	jalr	-0x6ee(ra) <ekernel+0xffc7e866>
80206f5c: 09 a0        	j	0x80206f5e <_ZN5alloc7raw_vec19RawVec$LT$T$C$A$GT$14current_memory17h070d21306f8bb9c9E+0x58>
80206f5e: 83 35 84 f8  	ld	a1, -0x78(s0)
80206f62: 83 36 04 f8  	ld	a3, -0x80(s0)
80206f66: 03 35 84 f7  	ld	a0, -0x88(s0)
80206f6a: 12 05        	slli	a0, a0, 0x4
80206f6c: 23 34 a4 fc  	sd	a0, -0x38(s0)
80206f70: 21 46        	li	a2, 0x8
80206f72: 23 38 c4 fc  	sd	a2, -0x30(s0)
80206f76: 23 3c a4 fc  	sd	a0, -0x28(s0)
80206f7a: 94 66        	ld	a3, 0x8(a3)
80206f7c: 23 30 d4 fe  	sd	a3, -0x20(s0)
80206f80: 23 34 d4 fe  	sd	a3, -0x18(s0)
80206f84: 23 38 d4 f8  	sd	a3, -0x70(s0)
80206f88: 23 3c c4 f8  	sd	a2, -0x68(s0)
80206f8c: 23 30 a4 fa  	sd	a0, -0x60(s0)
80206f90: 03 35 04 fa  	ld	a0, -0x60(s0)
80206f94: 88 e9        	sd	a0, 0x10(a1)
80206f96: 03 35 84 f9  	ld	a0, -0x68(s0)
80206f9a: 88 e5        	sd	a0, 0x8(a1)
80206f9c: 03 35 04 f9  	ld	a0, -0x70(s0)
80206fa0: 88 e1        	sd	a0, 0x0(a1)
80206fa2: 09 a0        	j	0x80206fa4 <_ZN5alloc7raw_vec19RawVec$LT$T$C$A$GT$14current_memory17h070d21306f8bb9c9E+0x9e>
80206fa4: aa 60        	ld	ra, 0x88(sp)
80206fa6: 0a 64        	ld	s0, 0x80(sp)
80206fa8: 49 61        	addi	sp, sp, 0x90
80206faa: 82 80        	ret

0000000080206fac <_ZN5alloc7raw_vec19RawVec$LT$T$C$A$GT$14current_memory17h254d4abe249e6fa0E>:
80206fac: 75 71        	addi	sp, sp, -0x90
80206fae: 06 e5        	sd	ra, 0x88(sp)
80206fb0: 22 e1        	sd	s0, 0x80(sp)
80206fb2: 00 09        	addi	s0, sp, 0x90
80206fb4: 23 30 b4 f8  	sd	a1, -0x80(s0)
80206fb8: 23 34 a4 f8  	sd	a0, -0x78(s0)
80206fbc: 23 34 b4 fa  	sd	a1, -0x58(s0)
80206fc0: 09 a0        	j	0x80206fc2 <_ZN5alloc7raw_vec19RawVec$LT$T$C$A$GT$14current_memory17h254d4abe249e6fa0E+0x16>
80206fc2: 03 35 04 f8  	ld	a0, -0x80(s0)
80206fc6: 08 61        	ld	a0, 0x0(a0)
80206fc8: 19 e1        	bnez	a0, 0x80206fce <_ZN5alloc7raw_vec19RawVec$LT$T$C$A$GT$14current_memory17h254d4abe249e6fa0E+0x22>
80206fca: 09 a0        	j	0x80206fcc <_ZN5alloc7raw_vec19RawVec$LT$T$C$A$GT$14current_memory17h254d4abe249e6fa0E+0x20>
80206fcc: 05 a0        	j	0x80206fec <_ZN5alloc7raw_vec19RawVec$LT$T$C$A$GT$14current_memory17h254d4abe249e6fa0E+0x40>
80206fce: 03 35 04 f8  	ld	a0, -0x80(s0)
80206fd2: a1 45        	li	a1, 0x8
80206fd4: 23 38 b4 fa  	sd	a1, -0x50(s0)
80206fd8: 93 05 00 03  	li	a1, 0x30
80206fdc: 23 3c b4 fa  	sd	a1, -0x48(s0)
80206fe0: 08 61        	ld	a0, 0x0(a0)
80206fe2: 23 3c a4 f6  	sd	a0, -0x88(s0)
80206fe6: 23 30 a4 fc  	sd	a0, -0x40(s0)
80206fea: 31 a0        	j	0x80206ff6 <_ZN5alloc7raw_vec19RawVec$LT$T$C$A$GT$14current_memory17h254d4abe249e6fa0E+0x4a>
80206fec: 83 35 84 f8  	ld	a1, -0x78(s0)
80206ff0: 01 45        	li	a0, 0x0
80206ff2: 88 e5        	sd	a0, 0x8(a1)
80206ff4: 85 a0        	j	0x80207054 <_ZN5alloc7raw_vec19RawVec$LT$T$C$A$GT$14current_memory17h254d4abe249e6fa0E+0xa8>
80206ff6: 83 35 84 f7  	ld	a1, -0x88(s0)
80206ffa: 13 05 00 03  	li	a0, 0x30
80206ffe: 97 f0 ff ff  	auipc	ra, 0xfffff
80207002: e7 80 80 86  	jalr	-0x798(ra) <ekernel+0xffc7e866>
80207006: 09 a0        	j	0x80207008 <_ZN5alloc7raw_vec19RawVec$LT$T$C$A$GT$14current_memory17h254d4abe249e6fa0E+0x5c>
80207008: 83 35 84 f8  	ld	a1, -0x78(s0)
8020700c: 83 36 04 f8  	ld	a3, -0x80(s0)
80207010: 03 35 84 f7  	ld	a0, -0x88(s0)
80207014: 13 06 00 03  	li	a2, 0x30
80207018: 33 05 c5 02  	mul	a0, a0, a2
8020701c: 23 34 a4 fc  	sd	a0, -0x38(s0)
80207020: 21 46        	li	a2, 0x8
80207022: 23 38 c4 fc  	sd	a2, -0x30(s0)
80207026: 23 3c a4 fc  	sd	a0, -0x28(s0)
8020702a: 94 66        	ld	a3, 0x8(a3)
8020702c: 23 30 d4 fe  	sd	a3, -0x20(s0)
80207030: 23 34 d4 fe  	sd	a3, -0x18(s0)
80207034: 23 38 d4 f8  	sd	a3, -0x70(s0)
80207038: 23 3c c4 f8  	sd	a2, -0x68(s0)
8020703c: 23 30 a4 fa  	sd	a0, -0x60(s0)
80207040: 03 35 04 fa  	ld	a0, -0x60(s0)
80207044: 88 e9        	sd	a0, 0x10(a1)
80207046: 03 35 84 f9  	ld	a0, -0x68(s0)
8020704a: 88 e5        	sd	a0, 0x8(a1)
8020704c: 03 35 04 f9  	ld	a0, -0x70(s0)
80207050: 88 e1        	sd	a0, 0x0(a1)
80207052: 09 a0        	j	0x80207054 <_ZN5alloc7raw_vec19RawVec$LT$T$C$A$GT$14current_memory17h254d4abe249e6fa0E+0xa8>
80207054: aa 60        	ld	ra, 0x88(sp)
80207056: 0a 64        	ld	s0, 0x80(sp)
80207058: 49 61        	addi	sp, sp, 0x90
8020705a: 82 80        	ret

000000008020705c <_ZN5alloc7raw_vec19RawVec$LT$T$C$A$GT$14current_memory17h9b064c0f15d46cd6E>:
8020705c: 75 71        	addi	sp, sp, -0x90
8020705e: 06 e5        	sd	ra, 0x88(sp)
80207060: 22 e1        	sd	s0, 0x80(sp)
80207062: 00 09        	addi	s0, sp, 0x90
80207064: 23 30 b4 f8  	sd	a1, -0x80(s0)
80207068: 23 34 a4 f8  	sd	a0, -0x78(s0)
8020706c: 23 34 b4 fa  	sd	a1, -0x58(s0)
80207070: 09 a0        	j	0x80207072 <_ZN5alloc7raw_vec19RawVec$LT$T$C$A$GT$14current_memory17h9b064c0f15d46cd6E+0x16>
80207072: 03 35 04 f8  	ld	a0, -0x80(s0)
80207076: 08 61        	ld	a0, 0x0(a0)
80207078: 19 e1        	bnez	a0, 0x8020707e <_ZN5alloc7raw_vec19RawVec$LT$T$C$A$GT$14current_memory17h9b064c0f15d46cd6E+0x22>
8020707a: 09 a0        	j	0x8020707c <_ZN5alloc7raw_vec19RawVec$LT$T$C$A$GT$14current_memory17h9b064c0f15d46cd6E+0x20>
8020707c: 31 a8        	j	0x80207098 <_ZN5alloc7raw_vec19RawVec$LT$T$C$A$GT$14current_memory17h9b064c0f15d46cd6E+0x3c>
8020707e: 03 35 04 f8  	ld	a0, -0x80(s0)
80207082: a1 45        	li	a1, 0x8
80207084: 23 38 b4 fa  	sd	a1, -0x50(s0)
80207088: 23 3c b4 fa  	sd	a1, -0x48(s0)
8020708c: 08 61        	ld	a0, 0x0(a0)
8020708e: 23 3c a4 f6  	sd	a0, -0x88(s0)
80207092: 23 30 a4 fc  	sd	a0, -0x40(s0)
80207096: 31 a0        	j	0x802070a2 <_ZN5alloc7raw_vec19RawVec$LT$T$C$A$GT$14current_memory17h9b064c0f15d46cd6E+0x46>
80207098: 83 35 84 f8  	ld	a1, -0x78(s0)
8020709c: 01 45        	li	a0, 0x0
8020709e: 88 e5        	sd	a0, 0x8(a1)
802070a0: a1 a8        	j	0x802070f8 <_ZN5alloc7raw_vec19RawVec$LT$T$C$A$GT$14current_memory17h9b064c0f15d46cd6E+0x9c>
802070a2: 83 35 84 f7  	ld	a1, -0x88(s0)
802070a6: 21 45        	li	a0, 0x8
802070a8: 97 e0 ff ff  	auipc	ra, 0xffffe
802070ac: e7 80 e0 7b  	jalr	0x7be(ra) <ekernel+0xffc7e866>
802070b0: 09 a0        	j	0x802070b2 <_ZN5alloc7raw_vec19RawVec$LT$T$C$A$GT$14current_memory17h9b064c0f15d46cd6E+0x56>
802070b2: 83 35 84 f8  	ld	a1, -0x78(s0)
802070b6: 83 36 04 f8  	ld	a3, -0x80(s0)
802070ba: 03 35 84 f7  	ld	a0, -0x88(s0)
802070be: 0e 05        	slli	a0, a0, 0x3
802070c0: 23 34 a4 fc  	sd	a0, -0x38(s0)
802070c4: 21 46        	li	a2, 0x8
802070c6: 23 38 c4 fc  	sd	a2, -0x30(s0)
802070ca: 23 3c a4 fc  	sd	a0, -0x28(s0)
802070ce: 94 66        	ld	a3, 0x8(a3)
802070d0: 23 30 d4 fe  	sd	a3, -0x20(s0)
802070d4: 23 34 d4 fe  	sd	a3, -0x18(s0)
802070d8: 23 38 d4 f8  	sd	a3, -0x70(s0)
802070dc: 23 3c c4 f8  	sd	a2, -0x68(s0)
802070e0: 23 30 a4 fa  	sd	a0, -0x60(s0)
802070e4: 03 35 04 fa  	ld	a0, -0x60(s0)
802070e8: 88 e9        	sd	a0, 0x10(a1)
802070ea: 03 35 84 f9  	ld	a0, -0x68(s0)
802070ee: 88 e5        	sd	a0, 0x8(a1)
802070f0: 03 35 04 f9  	ld	a0, -0x70(s0)
802070f4: 88 e1        	sd	a0, 0x0(a1)
802070f6: 09 a0        	j	0x802070f8 <_ZN5alloc7raw_vec19RawVec$LT$T$C$A$GT$14current_memory17h9b064c0f15d46cd6E+0x9c>
802070f8: aa 60        	ld	ra, 0x88(sp)
802070fa: 0a 64        	ld	s0, 0x80(sp)
802070fc: 49 61        	addi	sp, sp, 0x90
802070fe: 82 80        	ret

0000000080207100 <_ZN5alloc7raw_vec19RawVec$LT$T$C$A$GT$14current_memory17hb294803ef6e0ebf6E>:
80207100: 75 71        	addi	sp, sp, -0x90
80207102: 06 e5        	sd	ra, 0x88(sp)
80207104: 22 e1        	sd	s0, 0x80(sp)
80207106: 00 09        	addi	s0, sp, 0x90
80207108: 23 30 b4 f8  	sd	a1, -0x80(s0)
8020710c: 23 34 a4 f8  	sd	a0, -0x78(s0)
80207110: 23 34 b4 fa  	sd	a1, -0x58(s0)
80207114: 09 a0        	j	0x80207116 <_ZN5alloc7raw_vec19RawVec$LT$T$C$A$GT$14current_memory17hb294803ef6e0ebf6E+0x16>
80207116: 03 35 04 f8  	ld	a0, -0x80(s0)
8020711a: 08 61        	ld	a0, 0x0(a0)
8020711c: 19 e1        	bnez	a0, 0x80207122 <_ZN5alloc7raw_vec19RawVec$LT$T$C$A$GT$14current_memory17hb294803ef6e0ebf6E+0x22>
8020711e: 09 a0        	j	0x80207120 <_ZN5alloc7raw_vec19RawVec$LT$T$C$A$GT$14current_memory17hb294803ef6e0ebf6E+0x20>
80207120: 05 a0        	j	0x80207140 <_ZN5alloc7raw_vec19RawVec$LT$T$C$A$GT$14current_memory17hb294803ef6e0ebf6E+0x40>
80207122: 03 35 04 f8  	ld	a0, -0x80(s0)
80207126: a1 45        	li	a1, 0x8
80207128: 23 38 b4 fa  	sd	a1, -0x50(s0)
8020712c: 93 05 00 0d  	li	a1, 0xd0
80207130: 23 3c b4 fa  	sd	a1, -0x48(s0)
80207134: 08 61        	ld	a0, 0x0(a0)
80207136: 23 3c a4 f6  	sd	a0, -0x88(s0)
8020713a: 23 30 a4 fc  	sd	a0, -0x40(s0)
8020713e: 31 a0        	j	0x8020714a <_ZN5alloc7raw_vec19RawVec$LT$T$C$A$GT$14current_memory17hb294803ef6e0ebf6E+0x4a>
80207140: 83 35 84 f8  	ld	a1, -0x78(s0)
80207144: 01 45        	li	a0, 0x0
80207146: 88 e5        	sd	a0, 0x8(a1)
80207148: 85 a0        	j	0x802071a8 <_ZN5alloc7raw_vec19RawVec$LT$T$C$A$GT$14current_memory17hb294803ef6e0ebf6E+0xa8>
8020714a: 83 35 84 f7  	ld	a1, -0x88(s0)
8020714e: 13 05 00 0d  	li	a0, 0xd0
80207152: 97 e0 ff ff  	auipc	ra, 0xffffe
80207156: e7 80 40 71  	jalr	0x714(ra) <ekernel+0xffc7e866>
8020715a: 09 a0        	j	0x8020715c <_ZN5alloc7raw_vec19RawVec$LT$T$C$A$GT$14current_memory17hb294803ef6e0ebf6E+0x5c>
8020715c: 83 35 84 f8  	ld	a1, -0x78(s0)
80207160: 83 36 04 f8  	ld	a3, -0x80(s0)
80207164: 03 35 84 f7  	ld	a0, -0x88(s0)
80207168: 13 06 00 0d  	li	a2, 0xd0
8020716c: 33 05 c5 02  	mul	a0, a0, a2
80207170: 23 34 a4 fc  	sd	a0, -0x38(s0)
80207174: 21 46        	li	a2, 0x8
80207176: 23 38 c4 fc  	sd	a2, -0x30(s0)
8020717a: 23 3c a4 fc  	sd	a0, -0x28(s0)
8020717e: 94 66        	ld	a3, 0x8(a3)
80207180: 23 30 d4 fe  	sd	a3, -0x20(s0)
80207184: 23 34 d4 fe  	sd	a3, -0x18(s0)
80207188: 23 38 d4 f8  	sd	a3, -0x70(s0)
8020718c: 23 3c c4 f8  	sd	a2, -0x68(s0)
80207190: 23 30 a4 fa  	sd	a0, -0x60(s0)
80207194: 03 35 04 fa  	ld	a0, -0x60(s0)
80207198: 88 e9        	sd	a0, 0x10(a1)
8020719a: 03 35 84 f9  	ld	a0, -0x68(s0)
8020719e: 88 e5        	sd	a0, 0x8(a1)
802071a0: 03 35 04 f9  	ld	a0, -0x70(s0)
802071a4: 88 e1        	sd	a0, 0x0(a1)
802071a6: 09 a0        	j	0x802071a8 <_ZN5alloc7raw_vec19RawVec$LT$T$C$A$GT$14current_memory17hb294803ef6e0ebf6E+0xa8>
802071a8: aa 60        	ld	ra, 0x88(sp)
802071aa: 0a 64        	ld	s0, 0x80(sp)
802071ac: 49 61        	addi	sp, sp, 0x90
802071ae: 82 80        	ret

00000000802071b0 <_ZN5alloc7raw_vec19RawVec$LT$T$C$A$GT$14current_memory17hcbc188f8c26cf0e6E>:
802071b0: 75 71        	addi	sp, sp, -0x90
802071b2: 06 e5        	sd	ra, 0x88(sp)
802071b4: 22 e1        	sd	s0, 0x80(sp)
802071b6: 00 09        	addi	s0, sp, 0x90
802071b8: 23 30 b4 f8  	sd	a1, -0x80(s0)
802071bc: 23 34 a4 f8  	sd	a0, -0x78(s0)
802071c0: 23 34 b4 fa  	sd	a1, -0x58(s0)
802071c4: 09 a0        	j	0x802071c6 <_ZN5alloc7raw_vec19RawVec$LT$T$C$A$GT$14current_memory17hcbc188f8c26cf0e6E+0x16>
802071c6: 03 35 04 f8  	ld	a0, -0x80(s0)
802071ca: 08 61        	ld	a0, 0x0(a0)
802071cc: 19 e1        	bnez	a0, 0x802071d2 <_ZN5alloc7raw_vec19RawVec$LT$T$C$A$GT$14current_memory17hcbc188f8c26cf0e6E+0x22>
802071ce: 09 a0        	j	0x802071d0 <_ZN5alloc7raw_vec19RawVec$LT$T$C$A$GT$14current_memory17hcbc188f8c26cf0e6E+0x20>
802071d0: 31 a8        	j	0x802071ec <_ZN5alloc7raw_vec19RawVec$LT$T$C$A$GT$14current_memory17hcbc188f8c26cf0e6E+0x3c>
802071d2: 03 35 04 f8  	ld	a0, -0x80(s0)
802071d6: a1 45        	li	a1, 0x8
802071d8: 23 38 b4 fa  	sd	a1, -0x50(s0)
802071dc: 23 3c b4 fa  	sd	a1, -0x48(s0)
802071e0: 08 61        	ld	a0, 0x0(a0)
802071e2: 23 3c a4 f6  	sd	a0, -0x88(s0)
802071e6: 23 30 a4 fc  	sd	a0, -0x40(s0)
802071ea: 31 a0        	j	0x802071f6 <_ZN5alloc7raw_vec19RawVec$LT$T$C$A$GT$14current_memory17hcbc188f8c26cf0e6E+0x46>
802071ec: 83 35 84 f8  	ld	a1, -0x78(s0)
802071f0: 01 45        	li	a0, 0x0
802071f2: 88 e5        	sd	a0, 0x8(a1)
802071f4: a1 a8        	j	0x8020724c <_ZN5alloc7raw_vec19RawVec$LT$T$C$A$GT$14current_memory17hcbc188f8c26cf0e6E+0x9c>
802071f6: 83 35 84 f7  	ld	a1, -0x88(s0)
802071fa: 21 45        	li	a0, 0x8
802071fc: 97 e0 ff ff  	auipc	ra, 0xffffe
80207200: e7 80 a0 66  	jalr	0x66a(ra) <ekernel+0xffc7e866>
80207204: 09 a0        	j	0x80207206 <_ZN5alloc7raw_vec19RawVec$LT$T$C$A$GT$14current_memory17hcbc188f8c26cf0e6E+0x56>
80207206: 83 35 84 f8  	ld	a1, -0x78(s0)
8020720a: 83 36 04 f8  	ld	a3, -0x80(s0)
8020720e: 03 35 84 f7  	ld	a0, -0x88(s0)
80207212: 0e 05        	slli	a0, a0, 0x3
80207214: 23 34 a4 fc  	sd	a0, -0x38(s0)
80207218: 21 46        	li	a2, 0x8
8020721a: 23 38 c4 fc  	sd	a2, -0x30(s0)
8020721e: 23 3c a4 fc  	sd	a0, -0x28(s0)
80207222: 94 66        	ld	a3, 0x8(a3)
80207224: 23 30 d4 fe  	sd	a3, -0x20(s0)
80207228: 23 34 d4 fe  	sd	a3, -0x18(s0)
8020722c: 23 38 d4 f8  	sd	a3, -0x70(s0)
80207230: 23 3c c4 f8  	sd	a2, -0x68(s0)
80207234: 23 30 a4 fa  	sd	a0, -0x60(s0)
80207238: 03 35 04 fa  	ld	a0, -0x60(s0)
8020723c: 88 e9        	sd	a0, 0x10(a1)
8020723e: 03 35 84 f9  	ld	a0, -0x68(s0)
80207242: 88 e5        	sd	a0, 0x8(a1)
80207244: 03 35 04 f9  	ld	a0, -0x70(s0)
80207248: 88 e1        	sd	a0, 0x0(a1)
8020724a: 09 a0        	j	0x8020724c <_ZN5alloc7raw_vec19RawVec$LT$T$C$A$GT$14current_memory17hcbc188f8c26cf0e6E+0x9c>
8020724c: aa 60        	ld	ra, 0x88(sp)
8020724e: 0a 64        	ld	s0, 0x80(sp)
80207250: 49 61        	addi	sp, sp, 0x90
80207252: 82 80        	ret

0000000080207254 <_ZN5alloc7raw_vec19RawVec$LT$T$C$A$GT$14grow_amortized17h06463b94703e7a5dE>:
80207254: 13 01 01 db  	addi	sp, sp, -0x250
80207258: 23 34 11 24  	sd	ra, 0x248(sp)
8020725c: 23 30 81 24  	sd	s0, 0x240(sp)
80207260: 80 0c        	addi	s0, sp, 0x250
80207262: 23 38 c4 dc  	sd	a2, -0x230(s0)
80207266: 23 3c b4 dc  	sd	a1, -0x228(s0)
8020726a: 23 30 a4 de  	sd	a0, -0x220(s0)

000000008020726e <.Lpcrel_hi3>:
8020726e: 97 a6 01 00  	auipc	a3, 0x1a
80207272: 93 86 a6 f1  	addi	a3, a3, -0xe6
80207276: 9c 62        	ld	a5, 0x0(a3)
80207278: 98 66        	ld	a4, 0x8(a3)
8020727a: 23 34 f4 de  	sd	a5, -0x218(s0)
8020727e: 23 38 e4 de  	sd	a4, -0x210(s0)
80207282: 9c 62        	ld	a5, 0x0(a3)
80207284: 98 66        	ld	a4, 0x8(a3)
80207286: 23 3c f4 de  	sd	a5, -0x208(s0)
8020728a: 23 30 e4 e0  	sd	a4, -0x200(s0)
8020728e: 98 62        	ld	a4, 0x0(a3)
80207290: 94 66        	ld	a3, 0x8(a3)
80207292: 23 34 e4 e0  	sd	a4, -0x1f8(s0)
80207296: 23 38 d4 e0  	sd	a3, -0x1f0(s0)
8020729a: 23 34 a4 f2  	sd	a0, -0xd8(s0)
8020729e: 23 38 b4 f2  	sd	a1, -0xd0(s0)
802072a2: 23 3c c4 f2  	sd	a2, -0xc8(s0)
802072a6: 09 a0        	j	0x802072a8 <.Lpcrel_hi3+0x3a>
802072a8: 83 35 84 dd  	ld	a1, -0x228(s0)
802072ac: 03 35 04 dd  	ld	a0, -0x230(s0)
802072b0: 2e 95        	add	a0, a0, a1
802072b2: 33 35 b5 00  	sltu	a0, a0, a1
802072b6: a3 03 a4 f4  	sb	a0, -0xb9(s0)
802072ba: 03 45 74 f4  	lbu	a0, -0xb9(s0)
802072be: 05 89        	andi	a0, a0, 0x1
802072c0: 49 e1        	bnez	a0, 0x80207342 <.Lpcrel_hi4>
802072c2: 09 a0        	j	0x802072c4 <.Lpcrel_hi3+0x56>
802072c4: 83 35 04 de  	ld	a1, -0x220(s0)
802072c8: 03 35 84 dd  	ld	a0, -0x228(s0)
802072cc: 03 36 04 dd  	ld	a2, -0x230(s0)
802072d0: 32 95        	add	a0, a0, a2
802072d2: 23 3c a4 e4  	sd	a0, -0x1a8(s0)
802072d6: 05 45        	li	a0, 0x1
802072d8: 23 38 a4 e4  	sd	a0, -0x1b0(s0)
802072dc: 03 35 84 e5  	ld	a0, -0x1a8(s0)
802072e0: 23 34 a4 f4  	sd	a0, -0xb8(s0)
802072e4: 23 34 a4 e4  	sd	a0, -0x1b8(s0)
802072e8: 7d 55        	li	a0, -0x1
802072ea: 7e 15        	slli	a0, a0, 0x3f
802072ec: 05 05        	addi	a0, a0, 0x1
802072ee: 23 30 a4 e4  	sd	a0, -0x1c0(s0)
802072f2: 03 36 84 e4  	ld	a2, -0x1b8(s0)
802072f6: 23 38 c4 f4  	sd	a2, -0xb0(s0)
802072fa: 23 3c c4 e2  	sd	a2, -0x1c8(s0)
802072fe: 23 38 a4 e2  	sd	a0, -0x1d0(s0)
80207302: 03 35 84 e3  	ld	a0, -0x1c8(s0)
80207306: 23 34 a4 dc  	sd	a0, -0x238(s0)
8020730a: 23 3c a4 f4  	sd	a0, -0xa8(s0)
8020730e: 8c 61        	ld	a1, 0x0(a1)
80207310: 86 05        	slli	a1, a1, 0x1
80207312: 23 3c b4 e6  	sd	a1, -0x188(s0)
80207316: 23 30 a4 e8  	sd	a0, -0x180(s0)
8020731a: 13 05 84 e7  	addi	a0, s0, -0x188
8020731e: 93 05 04 e8  	addi	a1, s0, -0x180
80207322: 97 20 00 00  	auipc	ra, 0x2
80207326: e7 80 00 5d  	jalr	0x5d0(ra) <_ZN4core3ops8function6FnOnce9call_once17hcc41db28e2e13373E>
8020732a: a3 03 a4 f0  	sb	a0, -0xf9(s0)
8020732e: 03 45 74 f0  	lbu	a0, -0xf9(s0)
80207332: 05 25        	addiw	a0, a0, 0x1
80207334: 13 75 f5 0f  	andi	a0, a0, 0xff
80207338: 89 45        	li	a1, 0x2
8020733a: 63 6e b5 06  	bltu	a0, a1, 0x802073b6 <.Lpcrel_hi4+0x74>
8020733e: 09 a0        	j	0x80207340 <.Lpcrel_hi3+0xd2>
80207340: 41 a0        	j	0x802073c0 <.Lpcrel_hi4+0x7e>

0000000080207342 <.Lpcrel_hi4>:
80207342: 17 a5 01 00  	auipc	a0, 0x1a
80207346: 13 05 65 e4  	addi	a0, a0, -0x1ba
8020734a: 10 61        	ld	a2, 0x0(a0)
8020734c: 0c 65        	ld	a1, 0x8(a0)
8020734e: 23 38 c4 e4  	sd	a2, -0x1b0(s0)
80207352: 23 3c b4 e4  	sd	a1, -0x1a8(s0)
80207356: 0c 61        	ld	a1, 0x0(a0)
80207358: 08 65        	ld	a0, 0x8(a0)
8020735a: 23 30 b4 e4  	sd	a1, -0x1c0(s0)
8020735e: 23 34 a4 e4  	sd	a0, -0x1b8(s0)
80207362: 83 35 04 e4  	ld	a1, -0x1c0(s0)
80207366: 03 35 84 e4  	ld	a0, -0x1b8(s0)
8020736a: 23 38 b4 fc  	sd	a1, -0x30(s0)
8020736e: 23 3c a4 fc  	sd	a0, -0x28(s0)
80207372: 23 38 b4 ee  	sd	a1, -0x110(s0)
80207376: 23 3c a4 ee  	sd	a0, -0x108(s0)
8020737a: 83 35 04 ef  	ld	a1, -0x110(s0)
8020737e: 03 35 84 ef  	ld	a0, -0x108(s0)
80207382: 23 38 b4 e2  	sd	a1, -0x1d0(s0)
80207386: 23 3c a4 e2  	sd	a0, -0x1c8(s0)
8020738a: 83 35 04 e3  	ld	a1, -0x1d0(s0)
8020738e: 03 35 84 e3  	ld	a0, -0x1c8(s0)
80207392: 23 30 b4 e6  	sd	a1, -0x1a0(s0)
80207396: 23 34 a4 e6  	sd	a0, -0x198(s0)
8020739a: 83 35 04 e6  	ld	a1, -0x1a0(s0)
8020739e: 03 35 84 e6  	ld	a0, -0x198(s0)
802073a2: 23 30 b4 fe  	sd	a1, -0x20(s0)
802073a6: 23 34 a4 fe  	sd	a0, -0x18(s0)
802073aa: 23 30 b4 e2  	sd	a1, -0x1e0(s0)
802073ae: 23 34 a4 e2  	sd	a0, -0x1d8(s0)
802073b2: 41 aa        	j	0x80207542 <.Lpcrel_hi5+0x84>
802073b4: 00 00        	unimp
802073b6: 03 35 84 dc  	ld	a0, -0x238(s0)
802073ba: 23 38 a4 e6  	sd	a0, -0x190(s0)
802073be: 31 a0        	j	0x802073ca <.Lpcrel_hi4+0x88>
802073c0: 03 35 84 e7  	ld	a0, -0x188(s0)
802073c4: 23 38 a4 e6  	sd	a0, -0x190(s0)
802073c8: 09 a0        	j	0x802073ca <.Lpcrel_hi4+0x88>
802073ca: 03 35 04 e7  	ld	a0, -0x190(s0)
802073ce: 23 38 a4 e8  	sd	a0, -0x170(s0)
802073d2: 11 45        	li	a0, 0x4
802073d4: 23 34 a4 f0  	sd	a0, -0xf8(s0)
802073d8: 13 05 84 f0  	addi	a0, s0, -0xf8
802073dc: 93 05 04 e9  	addi	a1, s0, -0x170
802073e0: 97 20 00 00  	auipc	ra, 0x2
802073e4: e7 80 20 51  	jalr	0x512(ra) <_ZN4core3ops8function6FnOnce9call_once17hcc41db28e2e13373E>
802073e8: a3 0b a4 f0  	sb	a0, -0xe9(s0)
802073ec: 03 45 74 f1  	lbu	a0, -0xe9(s0)
802073f0: 05 25        	addiw	a0, a0, 0x1
802073f2: 13 75 f5 0f  	andi	a0, a0, 0xff
802073f6: 89 45        	li	a1, 0x2
802073f8: 63 64 b5 00  	bltu	a0, a1, 0x80207400 <.Lpcrel_hi4+0xbe>
802073fc: 09 a0        	j	0x802073fe <.Lpcrel_hi4+0xbc>
802073fe: 31 a0        	j	0x8020740a <.Lpcrel_hi4+0xc8>
80207400: 03 35 04 e9  	ld	a0, -0x170(s0)
80207404: 23 34 a4 e8  	sd	a0, -0x178(s0)
80207408: 31 a0        	j	0x80207414 <.Lpcrel_hi4+0xd2>
8020740a: 03 35 84 f0  	ld	a0, -0xf8(s0)
8020740e: 23 34 a4 e8  	sd	a0, -0x178(s0)
80207412: 09 a0        	j	0x80207414 <.Lpcrel_hi4+0xd2>
80207414: 03 36 84 e8  	ld	a2, -0x178(s0)
80207418: 23 30 c4 f6  	sd	a2, -0xa0(s0)
8020741c: a1 45        	li	a1, 0x8
8020741e: 23 34 b4 f6  	sd	a1, -0x98(s0)
80207422: 2e 85        	mv	a0, a1
80207424: 97 f0 ff ff  	auipc	ra, 0xfffff
80207428: e7 80 40 30  	jalr	0x304(ra) <ekernel+0xffc7f728>
8020742c: 2a 86        	mv	a2, a0
8020742e: 23 38 c4 da  	sd	a2, -0x250(s0)
80207432: 2e 85        	mv	a0, a1
80207434: 83 35 04 de  	ld	a1, -0x220(s0)
80207438: 23 3c a4 da  	sd	a0, -0x248(s0)
8020743c: 23 38 c4 f6  	sd	a2, -0x90(s0)
80207440: 23 3c a4 f6  	sd	a0, -0x88(s0)
80207444: 13 05 84 ec  	addi	a0, s0, -0x138
80207448: 23 30 a4 dc  	sd	a0, -0x240(s0)
8020744c: 97 00 00 00  	auipc	ra, 0x0
80207450: e7 80 40 d6  	jalr	-0x29c(ra) <_ZN5alloc7raw_vec19RawVec$LT$T$C$A$GT$14current_memory17hcbc188f8c26cf0e6E>
80207454: 03 35 04 de  	ld	a0, -0x220(s0)
80207458: 83 35 04 db  	ld	a1, -0x250(s0)
8020745c: 03 36 84 db  	ld	a2, -0x248(s0)
80207460: 83 36 04 dc  	ld	a3, -0x240(s0)
80207464: 13 07 05 01  	addi	a4, a0, 0x10
80207468: 13 05 04 eb  	addi	a0, s0, -0x150
8020746c: 97 00 00 00  	auipc	ra, 0x0
80207470: e7 80 e0 81  	jalr	-0x7e2(ra) <_ZN5alloc7raw_vec11finish_grow17hb16b7d70a580e042E>
80207474: 03 35 04 eb  	ld	a0, -0x150(s0)
80207478: 31 ed        	bnez	a0, 0x802074d4 <.Lpcrel_hi5+0x16>
8020747a: 09 a0        	j	0x8020747c <.Lpcrel_hi4+0x13a>
8020747c: 83 35 04 de  	ld	a1, -0x220(s0)
80207480: 03 36 84 eb  	ld	a2, -0x148(s0)
80207484: 03 35 04 ec  	ld	a0, -0x140(s0)
80207488: 23 30 c4 f8  	sd	a2, -0x80(s0)
8020748c: 23 34 a4 f8  	sd	a0, -0x78(s0)
80207490: 23 30 c4 ea  	sd	a2, -0x160(s0)
80207494: 23 34 a4 ea  	sd	a0, -0x158(s0)
80207498: 01 45        	li	a0, 0x0
8020749a: 23 3c a4 e8  	sd	a0, -0x168(s0)
8020749e: 03 36 04 ea  	ld	a2, -0x160(s0)
802074a2: 03 35 84 ea  	ld	a0, -0x158(s0)
802074a6: 23 38 c4 f8  	sd	a2, -0x70(s0)
802074aa: 23 3c a4 f8  	sd	a0, -0x68(s0)
802074ae: 03 35 84 e8  	ld	a0, -0x178(s0)
802074b2: 23 30 a4 fa  	sd	a0, -0x60(s0)
802074b6: 23 34 c4 fa  	sd	a2, -0x58(s0)
802074ba: 90 e5        	sd	a2, 0x8(a1)
802074bc: 88 e1        	sd	a0, 0x0(a1)

00000000802074be <.Lpcrel_hi5>:
802074be: 17 a5 01 00  	auipc	a0, 0x1a
802074c2: 13 05 a5 ca  	addi	a0, a0, -0x356
802074c6: 0c 61        	ld	a1, 0x0(a0)
802074c8: 08 65        	ld	a0, 0x8(a0)
802074ca: 23 30 b4 e2  	sd	a1, -0x1e0(s0)
802074ce: 23 34 a4 e2  	sd	a0, -0x1d8(s0)
802074d2: a9 a8        	j	0x8020752c <.Lpcrel_hi5+0x6e>
802074d4: 83 35 84 eb  	ld	a1, -0x148(s0)
802074d8: 03 35 04 ec  	ld	a0, -0x140(s0)
802074dc: 23 38 b4 fa  	sd	a1, -0x50(s0)
802074e0: 23 3c a4 fa  	sd	a0, -0x48(s0)
802074e4: 23 3c b4 f0  	sd	a1, -0xe8(s0)
802074e8: 23 30 a4 f2  	sd	a0, -0xe0(s0)
802074ec: 83 35 84 f1  	ld	a1, -0xe8(s0)
802074f0: 03 35 04 f2  	ld	a0, -0xe0(s0)
802074f4: 23 30 b4 ea  	sd	a1, -0x160(s0)
802074f8: 23 34 a4 ea  	sd	a0, -0x158(s0)
802074fc: 05 45        	li	a0, 0x1
802074fe: 23 3c a4 e8  	sd	a0, -0x168(s0)
80207502: 83 35 04 ea  	ld	a1, -0x160(s0)
80207506: 03 35 84 ea  	ld	a0, -0x158(s0)
8020750a: 23 30 b4 ee  	sd	a1, -0x120(s0)
8020750e: 23 34 a4 ee  	sd	a0, -0x118(s0)
80207512: 83 35 04 ee  	ld	a1, -0x120(s0)
80207516: 03 35 84 ee  	ld	a0, -0x118(s0)
8020751a: 23 30 b4 fc  	sd	a1, -0x40(s0)
8020751e: 23 34 a4 fc  	sd	a0, -0x38(s0)
80207522: 23 30 b4 e2  	sd	a1, -0x1e0(s0)
80207526: 23 34 a4 e2  	sd	a0, -0x1d8(s0)
8020752a: 21 a8        	j	0x80207542 <.Lpcrel_hi5+0x84>
8020752c: 03 35 04 e2  	ld	a0, -0x1e0(s0)
80207530: 83 35 84 e2  	ld	a1, -0x1d8(s0)
80207534: 83 30 81 24  	ld	ra, 0x248(sp)
80207538: 03 34 01 24  	ld	s0, 0x240(sp)
8020753c: 13 01 01 25  	addi	sp, sp, 0x250
80207540: 82 80        	ret
80207542: ed b7        	j	0x8020752c <.Lpcrel_hi5+0x6e>

0000000080207544 <_ZN5alloc7raw_vec19RawVec$LT$T$C$A$GT$14grow_amortized17h3251cb48ca6ed04fE>:
80207544: 13 01 01 db  	addi	sp, sp, -0x250
80207548: 23 34 11 24  	sd	ra, 0x248(sp)
8020754c: 23 30 81 24  	sd	s0, 0x240(sp)
80207550: 80 0c        	addi	s0, sp, 0x250
80207552: 23 38 c4 dc  	sd	a2, -0x230(s0)
80207556: 23 3c b4 dc  	sd	a1, -0x228(s0)
8020755a: 23 30 a4 de  	sd	a0, -0x220(s0)

000000008020755e <.Lpcrel_hi6>:
8020755e: 97 a6 01 00  	auipc	a3, 0x1a
80207562: 93 86 a6 c2  	addi	a3, a3, -0x3d6
80207566: 9c 62        	ld	a5, 0x0(a3)
80207568: 98 66        	ld	a4, 0x8(a3)
8020756a: 23 34 f4 de  	sd	a5, -0x218(s0)
8020756e: 23 38 e4 de  	sd	a4, -0x210(s0)
80207572: 9c 62        	ld	a5, 0x0(a3)
80207574: 98 66        	ld	a4, 0x8(a3)
80207576: 23 3c f4 de  	sd	a5, -0x208(s0)
8020757a: 23 30 e4 e0  	sd	a4, -0x200(s0)
8020757e: 98 62        	ld	a4, 0x0(a3)
80207580: 94 66        	ld	a3, 0x8(a3)
80207582: 23 34 e4 e0  	sd	a4, -0x1f8(s0)
80207586: 23 38 d4 e0  	sd	a3, -0x1f0(s0)
8020758a: 23 34 a4 f2  	sd	a0, -0xd8(s0)
8020758e: 23 38 b4 f2  	sd	a1, -0xd0(s0)
80207592: 23 3c c4 f2  	sd	a2, -0xc8(s0)
80207596: 09 a0        	j	0x80207598 <.Lpcrel_hi6+0x3a>
80207598: 83 35 84 dd  	ld	a1, -0x228(s0)
8020759c: 03 35 04 dd  	ld	a0, -0x230(s0)
802075a0: 2e 95        	add	a0, a0, a1
802075a2: 33 35 b5 00  	sltu	a0, a0, a1
802075a6: a3 03 a4 f4  	sb	a0, -0xb9(s0)
802075aa: 03 45 74 f4  	lbu	a0, -0xb9(s0)
802075ae: 05 89        	andi	a0, a0, 0x1
802075b0: 49 e1        	bnez	a0, 0x80207632 <.Lpcrel_hi7>
802075b2: 09 a0        	j	0x802075b4 <.Lpcrel_hi6+0x56>
802075b4: 83 35 04 de  	ld	a1, -0x220(s0)
802075b8: 03 35 84 dd  	ld	a0, -0x228(s0)
802075bc: 03 36 04 dd  	ld	a2, -0x230(s0)
802075c0: 32 95        	add	a0, a0, a2
802075c2: 23 3c a4 e4  	sd	a0, -0x1a8(s0)
802075c6: 05 45        	li	a0, 0x1
802075c8: 23 38 a4 e4  	sd	a0, -0x1b0(s0)
802075cc: 03 35 84 e5  	ld	a0, -0x1a8(s0)
802075d0: 23 34 a4 f4  	sd	a0, -0xb8(s0)
802075d4: 23 34 a4 e4  	sd	a0, -0x1b8(s0)
802075d8: 7d 55        	li	a0, -0x1
802075da: 7e 15        	slli	a0, a0, 0x3f
802075dc: 05 05        	addi	a0, a0, 0x1
802075de: 23 30 a4 e4  	sd	a0, -0x1c0(s0)
802075e2: 03 36 84 e4  	ld	a2, -0x1b8(s0)
802075e6: 23 38 c4 f4  	sd	a2, -0xb0(s0)
802075ea: 23 3c c4 e2  	sd	a2, -0x1c8(s0)
802075ee: 23 38 a4 e2  	sd	a0, -0x1d0(s0)
802075f2: 03 35 84 e3  	ld	a0, -0x1c8(s0)
802075f6: 23 34 a4 dc  	sd	a0, -0x238(s0)
802075fa: 23 3c a4 f4  	sd	a0, -0xa8(s0)
802075fe: 8c 61        	ld	a1, 0x0(a1)
80207600: 86 05        	slli	a1, a1, 0x1
80207602: 23 3c b4 e6  	sd	a1, -0x188(s0)
80207606: 23 30 a4 e8  	sd	a0, -0x180(s0)
8020760a: 13 05 84 e7  	addi	a0, s0, -0x188
8020760e: 93 05 04 e8  	addi	a1, s0, -0x180
80207612: 97 20 00 00  	auipc	ra, 0x2
80207616: e7 80 00 2e  	jalr	0x2e0(ra) <_ZN4core3ops8function6FnOnce9call_once17hcc41db28e2e13373E>
8020761a: a3 03 a4 f0  	sb	a0, -0xf9(s0)
8020761e: 03 45 74 f0  	lbu	a0, -0xf9(s0)
80207622: 05 25        	addiw	a0, a0, 0x1
80207624: 13 75 f5 0f  	andi	a0, a0, 0xff
80207628: 89 45        	li	a1, 0x2
8020762a: 63 6e b5 06  	bltu	a0, a1, 0x802076a6 <.Lpcrel_hi7+0x74>
8020762e: 09 a0        	j	0x80207630 <.Lpcrel_hi6+0xd2>
80207630: 41 a0        	j	0x802076b0 <.Lpcrel_hi7+0x7e>

0000000080207632 <.Lpcrel_hi7>:
80207632: 17 a5 01 00  	auipc	a0, 0x1a
80207636: 13 05 65 b5  	addi	a0, a0, -0x4aa
8020763a: 10 61        	ld	a2, 0x0(a0)
8020763c: 0c 65        	ld	a1, 0x8(a0)
8020763e: 23 38 c4 e4  	sd	a2, -0x1b0(s0)
80207642: 23 3c b4 e4  	sd	a1, -0x1a8(s0)
80207646: 0c 61        	ld	a1, 0x0(a0)
80207648: 08 65        	ld	a0, 0x8(a0)
8020764a: 23 30 b4 e4  	sd	a1, -0x1c0(s0)
8020764e: 23 34 a4 e4  	sd	a0, -0x1b8(s0)
80207652: 83 35 04 e4  	ld	a1, -0x1c0(s0)
80207656: 03 35 84 e4  	ld	a0, -0x1b8(s0)
8020765a: 23 38 b4 fc  	sd	a1, -0x30(s0)
8020765e: 23 3c a4 fc  	sd	a0, -0x28(s0)
80207662: 23 38 b4 ee  	sd	a1, -0x110(s0)
80207666: 23 3c a4 ee  	sd	a0, -0x108(s0)
8020766a: 83 35 04 ef  	ld	a1, -0x110(s0)
8020766e: 03 35 84 ef  	ld	a0, -0x108(s0)
80207672: 23 38 b4 e2  	sd	a1, -0x1d0(s0)
80207676: 23 3c a4 e2  	sd	a0, -0x1c8(s0)
8020767a: 83 35 04 e3  	ld	a1, -0x1d0(s0)
8020767e: 03 35 84 e3  	ld	a0, -0x1c8(s0)
80207682: 23 30 b4 e6  	sd	a1, -0x1a0(s0)
80207686: 23 34 a4 e6  	sd	a0, -0x198(s0)
8020768a: 83 35 04 e6  	ld	a1, -0x1a0(s0)
8020768e: 03 35 84 e6  	ld	a0, -0x198(s0)
80207692: 23 30 b4 fe  	sd	a1, -0x20(s0)
80207696: 23 34 a4 fe  	sd	a0, -0x18(s0)
8020769a: 23 30 b4 e2  	sd	a1, -0x1e0(s0)
8020769e: 23 34 a4 e2  	sd	a0, -0x1d8(s0)
802076a2: 49 aa        	j	0x80207834 <.Lpcrel_hi8+0x84>
802076a4: 00 00        	unimp
802076a6: 03 35 84 dc  	ld	a0, -0x238(s0)
802076aa: 23 38 a4 e6  	sd	a0, -0x190(s0)
802076ae: 31 a0        	j	0x802076ba <.Lpcrel_hi7+0x88>
802076b0: 03 35 84 e7  	ld	a0, -0x188(s0)
802076b4: 23 38 a4 e6  	sd	a0, -0x190(s0)
802076b8: 09 a0        	j	0x802076ba <.Lpcrel_hi7+0x88>
802076ba: 03 35 04 e7  	ld	a0, -0x190(s0)
802076be: 23 38 a4 e8  	sd	a0, -0x170(s0)
802076c2: 11 45        	li	a0, 0x4
802076c4: 23 34 a4 f0  	sd	a0, -0xf8(s0)
802076c8: 13 05 84 f0  	addi	a0, s0, -0xf8
802076cc: 93 05 04 e9  	addi	a1, s0, -0x170
802076d0: 97 20 00 00  	auipc	ra, 0x2
802076d4: e7 80 20 22  	jalr	0x222(ra) <_ZN4core3ops8function6FnOnce9call_once17hcc41db28e2e13373E>
802076d8: a3 0b a4 f0  	sb	a0, -0xe9(s0)
802076dc: 03 45 74 f1  	lbu	a0, -0xe9(s0)
802076e0: 05 25        	addiw	a0, a0, 0x1
802076e2: 13 75 f5 0f  	andi	a0, a0, 0xff
802076e6: 89 45        	li	a1, 0x2
802076e8: 63 64 b5 00  	bltu	a0, a1, 0x802076f0 <.Lpcrel_hi7+0xbe>
802076ec: 09 a0        	j	0x802076ee <.Lpcrel_hi7+0xbc>
802076ee: 31 a0        	j	0x802076fa <.Lpcrel_hi7+0xc8>
802076f0: 03 35 04 e9  	ld	a0, -0x170(s0)
802076f4: 23 34 a4 e8  	sd	a0, -0x178(s0)
802076f8: 31 a0        	j	0x80207704 <.Lpcrel_hi7+0xd2>
802076fa: 03 35 84 f0  	ld	a0, -0xf8(s0)
802076fe: 23 34 a4 e8  	sd	a0, -0x178(s0)
80207702: 09 a0        	j	0x80207704 <.Lpcrel_hi7+0xd2>
80207704: 03 36 84 e8  	ld	a2, -0x178(s0)
80207708: 23 30 c4 f6  	sd	a2, -0xa0(s0)
8020770c: a1 45        	li	a1, 0x8
8020770e: 23 34 b4 f6  	sd	a1, -0x98(s0)
80207712: 13 05 00 0d  	li	a0, 0xd0
80207716: 97 f0 ff ff  	auipc	ra, 0xfffff
8020771a: e7 80 20 01  	jalr	0x12(ra) <ekernel+0xffc7f728>
8020771e: 2a 86        	mv	a2, a0
80207720: 23 38 c4 da  	sd	a2, -0x250(s0)
80207724: 2e 85        	mv	a0, a1
80207726: 83 35 04 de  	ld	a1, -0x220(s0)
8020772a: 23 3c a4 da  	sd	a0, -0x248(s0)
8020772e: 23 38 c4 f6  	sd	a2, -0x90(s0)
80207732: 23 3c a4 f6  	sd	a0, -0x88(s0)
80207736: 13 05 84 ec  	addi	a0, s0, -0x138
8020773a: 23 30 a4 dc  	sd	a0, -0x240(s0)
8020773e: 97 00 00 00  	auipc	ra, 0x0
80207742: e7 80 20 9c  	jalr	-0x63e(ra) <_ZN5alloc7raw_vec19RawVec$LT$T$C$A$GT$14current_memory17hb294803ef6e0ebf6E>
80207746: 03 35 04 de  	ld	a0, -0x220(s0)
8020774a: 83 35 04 db  	ld	a1, -0x250(s0)
8020774e: 03 36 84 db  	ld	a2, -0x248(s0)
80207752: 83 36 04 dc  	ld	a3, -0x240(s0)
80207756: 13 07 05 01  	addi	a4, a0, 0x10
8020775a: 13 05 04 eb  	addi	a0, s0, -0x150
8020775e: 97 f0 ff ff  	auipc	ra, 0xfffff
80207762: e7 80 c0 52  	jalr	0x52c(ra) <ekernel+0xffc7fc8a>
80207766: 03 35 04 eb  	ld	a0, -0x150(s0)
8020776a: 31 ed        	bnez	a0, 0x802077c6 <.Lpcrel_hi8+0x16>
8020776c: 09 a0        	j	0x8020776e <.Lpcrel_hi7+0x13c>
8020776e: 83 35 04 de  	ld	a1, -0x220(s0)
80207772: 03 36 84 eb  	ld	a2, -0x148(s0)
80207776: 03 35 04 ec  	ld	a0, -0x140(s0)
8020777a: 23 30 c4 f8  	sd	a2, -0x80(s0)
8020777e: 23 34 a4 f8  	sd	a0, -0x78(s0)
80207782: 23 30 c4 ea  	sd	a2, -0x160(s0)
80207786: 23 34 a4 ea  	sd	a0, -0x158(s0)
8020778a: 01 45        	li	a0, 0x0
8020778c: 23 3c a4 e8  	sd	a0, -0x168(s0)
80207790: 03 36 04 ea  	ld	a2, -0x160(s0)
80207794: 03 35 84 ea  	ld	a0, -0x158(s0)
80207798: 23 38 c4 f8  	sd	a2, -0x70(s0)
8020779c: 23 3c a4 f8  	sd	a0, -0x68(s0)
802077a0: 03 35 84 e8  	ld	a0, -0x178(s0)
802077a4: 23 30 a4 fa  	sd	a0, -0x60(s0)
802077a8: 23 34 c4 fa  	sd	a2, -0x58(s0)
802077ac: 90 e5        	sd	a2, 0x8(a1)
802077ae: 88 e1        	sd	a0, 0x0(a1)

00000000802077b0 <.Lpcrel_hi8>:
802077b0: 17 a5 01 00  	auipc	a0, 0x1a
802077b4: 13 05 85 9b  	addi	a0, a0, -0x648
802077b8: 0c 61        	ld	a1, 0x0(a0)
802077ba: 08 65        	ld	a0, 0x8(a0)
802077bc: 23 30 b4 e2  	sd	a1, -0x1e0(s0)
802077c0: 23 34 a4 e2  	sd	a0, -0x1d8(s0)
802077c4: a9 a8        	j	0x8020781e <.Lpcrel_hi8+0x6e>
802077c6: 83 35 84 eb  	ld	a1, -0x148(s0)
802077ca: 03 35 04 ec  	ld	a0, -0x140(s0)
802077ce: 23 38 b4 fa  	sd	a1, -0x50(s0)
802077d2: 23 3c a4 fa  	sd	a0, -0x48(s0)
802077d6: 23 3c b4 f0  	sd	a1, -0xe8(s0)
802077da: 23 30 a4 f2  	sd	a0, -0xe0(s0)
802077de: 83 35 84 f1  	ld	a1, -0xe8(s0)
802077e2: 03 35 04 f2  	ld	a0, -0xe0(s0)
802077e6: 23 30 b4 ea  	sd	a1, -0x160(s0)
802077ea: 23 34 a4 ea  	sd	a0, -0x158(s0)
802077ee: 05 45        	li	a0, 0x1
802077f0: 23 3c a4 e8  	sd	a0, -0x168(s0)
802077f4: 83 35 04 ea  	ld	a1, -0x160(s0)
802077f8: 03 35 84 ea  	ld	a0, -0x158(s0)
802077fc: 23 30 b4 ee  	sd	a1, -0x120(s0)
80207800: 23 34 a4 ee  	sd	a0, -0x118(s0)
80207804: 83 35 04 ee  	ld	a1, -0x120(s0)
80207808: 03 35 84 ee  	ld	a0, -0x118(s0)
8020780c: 23 30 b4 fc  	sd	a1, -0x40(s0)
80207810: 23 34 a4 fc  	sd	a0, -0x38(s0)
80207814: 23 30 b4 e2  	sd	a1, -0x1e0(s0)
80207818: 23 34 a4 e2  	sd	a0, -0x1d8(s0)
8020781c: 21 a8        	j	0x80207834 <.Lpcrel_hi8+0x84>
8020781e: 03 35 04 e2  	ld	a0, -0x1e0(s0)
80207822: 83 35 84 e2  	ld	a1, -0x1d8(s0)
80207826: 83 30 81 24  	ld	ra, 0x248(sp)
8020782a: 03 34 01 24  	ld	s0, 0x240(sp)
8020782e: 13 01 01 25  	addi	sp, sp, 0x250
80207832: 82 80        	ret
80207834: ed b7        	j	0x8020781e <.Lpcrel_hi8+0x6e>

0000000080207836 <_ZN5alloc7raw_vec19RawVec$LT$T$C$A$GT$14grow_amortized17h56c5a2703e393234E>:
80207836: 13 01 01 db  	addi	sp, sp, -0x250
8020783a: 23 34 11 24  	sd	ra, 0x248(sp)
8020783e: 23 30 81 24  	sd	s0, 0x240(sp)
80207842: 80 0c        	addi	s0, sp, 0x250
80207844: 23 38 c4 dc  	sd	a2, -0x230(s0)
80207848: 23 3c b4 dc  	sd	a1, -0x228(s0)
8020784c: 23 30 a4 de  	sd	a0, -0x220(s0)

0000000080207850 <.Lpcrel_hi9>:
80207850: 97 a6 01 00  	auipc	a3, 0x1a
80207854: 93 86 86 93  	addi	a3, a3, -0x6c8
80207858: 9c 62        	ld	a5, 0x0(a3)
8020785a: 98 66        	ld	a4, 0x8(a3)
8020785c: 23 34 f4 de  	sd	a5, -0x218(s0)
80207860: 23 38 e4 de  	sd	a4, -0x210(s0)
80207864: 9c 62        	ld	a5, 0x0(a3)
80207866: 98 66        	ld	a4, 0x8(a3)
80207868: 23 3c f4 de  	sd	a5, -0x208(s0)
8020786c: 23 30 e4 e0  	sd	a4, -0x200(s0)
80207870: 98 62        	ld	a4, 0x0(a3)
80207872: 94 66        	ld	a3, 0x8(a3)
80207874: 23 34 e4 e0  	sd	a4, -0x1f8(s0)
80207878: 23 38 d4 e0  	sd	a3, -0x1f0(s0)
8020787c: 23 34 a4 f2  	sd	a0, -0xd8(s0)
80207880: 23 38 b4 f2  	sd	a1, -0xd0(s0)
80207884: 23 3c c4 f2  	sd	a2, -0xc8(s0)
80207888: 09 a0        	j	0x8020788a <.Lpcrel_hi9+0x3a>
8020788a: 83 35 84 dd  	ld	a1, -0x228(s0)
8020788e: 03 35 04 dd  	ld	a0, -0x230(s0)
80207892: 2e 95        	add	a0, a0, a1
80207894: 33 35 b5 00  	sltu	a0, a0, a1
80207898: a3 03 a4 f4  	sb	a0, -0xb9(s0)
8020789c: 03 45 74 f4  	lbu	a0, -0xb9(s0)
802078a0: 05 89        	andi	a0, a0, 0x1
802078a2: 49 e1        	bnez	a0, 0x80207924 <.Lpcrel_hi10>
802078a4: 09 a0        	j	0x802078a6 <.Lpcrel_hi9+0x56>
802078a6: 83 35 04 de  	ld	a1, -0x220(s0)
802078aa: 03 35 84 dd  	ld	a0, -0x228(s0)
802078ae: 03 36 04 dd  	ld	a2, -0x230(s0)
802078b2: 32 95        	add	a0, a0, a2
802078b4: 23 3c a4 e4  	sd	a0, -0x1a8(s0)
802078b8: 05 45        	li	a0, 0x1
802078ba: 23 38 a4 e4  	sd	a0, -0x1b0(s0)
802078be: 03 35 84 e5  	ld	a0, -0x1a8(s0)
802078c2: 23 34 a4 f4  	sd	a0, -0xb8(s0)
802078c6: 23 34 a4 e4  	sd	a0, -0x1b8(s0)
802078ca: 7d 55        	li	a0, -0x1
802078cc: 7e 15        	slli	a0, a0, 0x3f
802078ce: 05 05        	addi	a0, a0, 0x1
802078d0: 23 30 a4 e4  	sd	a0, -0x1c0(s0)
802078d4: 03 36 84 e4  	ld	a2, -0x1b8(s0)
802078d8: 23 38 c4 f4  	sd	a2, -0xb0(s0)
802078dc: 23 3c c4 e2  	sd	a2, -0x1c8(s0)
802078e0: 23 38 a4 e2  	sd	a0, -0x1d0(s0)
802078e4: 03 35 84 e3  	ld	a0, -0x1c8(s0)
802078e8: 23 34 a4 dc  	sd	a0, -0x238(s0)
802078ec: 23 3c a4 f4  	sd	a0, -0xa8(s0)
802078f0: 8c 61        	ld	a1, 0x0(a1)
802078f2: 86 05        	slli	a1, a1, 0x1
802078f4: 23 3c b4 e6  	sd	a1, -0x188(s0)
802078f8: 23 30 a4 e8  	sd	a0, -0x180(s0)
802078fc: 13 05 84 e7  	addi	a0, s0, -0x188
80207900: 93 05 04 e8  	addi	a1, s0, -0x180
80207904: 97 20 00 00  	auipc	ra, 0x2
80207908: e7 80 e0 fe  	jalr	-0x12(ra) <_ZN4core3ops8function6FnOnce9call_once17hcc41db28e2e13373E>
8020790c: a3 03 a4 f0  	sb	a0, -0xf9(s0)
80207910: 03 45 74 f0  	lbu	a0, -0xf9(s0)
80207914: 05 25        	addiw	a0, a0, 0x1
80207916: 13 75 f5 0f  	andi	a0, a0, 0xff
8020791a: 89 45        	li	a1, 0x2
8020791c: 63 6e b5 06  	bltu	a0, a1, 0x80207998 <.Lpcrel_hi10+0x74>
80207920: 09 a0        	j	0x80207922 <.Lpcrel_hi9+0xd2>
80207922: 41 a0        	j	0x802079a2 <.Lpcrel_hi10+0x7e>

0000000080207924 <.Lpcrel_hi10>:
80207924: 17 a5 01 00  	auipc	a0, 0x1a
80207928: 13 05 45 86  	addi	a0, a0, -0x79c
8020792c: 10 61        	ld	a2, 0x0(a0)
8020792e: 0c 65        	ld	a1, 0x8(a0)
80207930: 23 38 c4 e4  	sd	a2, -0x1b0(s0)
80207934: 23 3c b4 e4  	sd	a1, -0x1a8(s0)
80207938: 0c 61        	ld	a1, 0x0(a0)
8020793a: 08 65        	ld	a0, 0x8(a0)
8020793c: 23 30 b4 e4  	sd	a1, -0x1c0(s0)
80207940: 23 34 a4 e4  	sd	a0, -0x1b8(s0)
80207944: 83 35 04 e4  	ld	a1, -0x1c0(s0)
80207948: 03 35 84 e4  	ld	a0, -0x1b8(s0)
8020794c: 23 38 b4 fc  	sd	a1, -0x30(s0)
80207950: 23 3c a4 fc  	sd	a0, -0x28(s0)
80207954: 23 38 b4 ee  	sd	a1, -0x110(s0)
80207958: 23 3c a4 ee  	sd	a0, -0x108(s0)
8020795c: 83 35 04 ef  	ld	a1, -0x110(s0)
80207960: 03 35 84 ef  	ld	a0, -0x108(s0)
80207964: 23 38 b4 e2  	sd	a1, -0x1d0(s0)
80207968: 23 3c a4 e2  	sd	a0, -0x1c8(s0)
8020796c: 83 35 04 e3  	ld	a1, -0x1d0(s0)
80207970: 03 35 84 e3  	ld	a0, -0x1c8(s0)
80207974: 23 30 b4 e6  	sd	a1, -0x1a0(s0)
80207978: 23 34 a4 e6  	sd	a0, -0x198(s0)
8020797c: 83 35 04 e6  	ld	a1, -0x1a0(s0)
80207980: 03 35 84 e6  	ld	a0, -0x198(s0)
80207984: 23 30 b4 fe  	sd	a1, -0x20(s0)
80207988: 23 34 a4 fe  	sd	a0, -0x18(s0)
8020798c: 23 30 b4 e2  	sd	a1, -0x1e0(s0)
80207990: 23 34 a4 e2  	sd	a0, -0x1d8(s0)
80207994: 41 aa        	j	0x80207b24 <.Lpcrel_hi11+0x84>
80207996: 00 00        	unimp
80207998: 03 35 84 dc  	ld	a0, -0x238(s0)
8020799c: 23 38 a4 e6  	sd	a0, -0x190(s0)
802079a0: 31 a0        	j	0x802079ac <.Lpcrel_hi10+0x88>
802079a2: 03 35 84 e7  	ld	a0, -0x188(s0)
802079a6: 23 38 a4 e6  	sd	a0, -0x190(s0)
802079aa: 09 a0        	j	0x802079ac <.Lpcrel_hi10+0x88>
802079ac: 03 35 04 e7  	ld	a0, -0x190(s0)
802079b0: 23 38 a4 e8  	sd	a0, -0x170(s0)
802079b4: 11 45        	li	a0, 0x4
802079b6: 23 34 a4 f0  	sd	a0, -0xf8(s0)
802079ba: 13 05 84 f0  	addi	a0, s0, -0xf8
802079be: 93 05 04 e9  	addi	a1, s0, -0x170
802079c2: 97 20 00 00  	auipc	ra, 0x2
802079c6: e7 80 00 f3  	jalr	-0xd0(ra) <_ZN4core3ops8function6FnOnce9call_once17hcc41db28e2e13373E>
802079ca: a3 0b a4 f0  	sb	a0, -0xe9(s0)
802079ce: 03 45 74 f1  	lbu	a0, -0xe9(s0)
802079d2: 05 25        	addiw	a0, a0, 0x1
802079d4: 13 75 f5 0f  	andi	a0, a0, 0xff
802079d8: 89 45        	li	a1, 0x2
802079da: 63 64 b5 00  	bltu	a0, a1, 0x802079e2 <.Lpcrel_hi10+0xbe>
802079de: 09 a0        	j	0x802079e0 <.Lpcrel_hi10+0xbc>
802079e0: 31 a0        	j	0x802079ec <.Lpcrel_hi10+0xc8>
802079e2: 03 35 04 e9  	ld	a0, -0x170(s0)
802079e6: 23 34 a4 e8  	sd	a0, -0x178(s0)
802079ea: 31 a0        	j	0x802079f6 <.Lpcrel_hi10+0xd2>
802079ec: 03 35 84 f0  	ld	a0, -0xf8(s0)
802079f0: 23 34 a4 e8  	sd	a0, -0x178(s0)
802079f4: 09 a0        	j	0x802079f6 <.Lpcrel_hi10+0xd2>
802079f6: 03 36 84 e8  	ld	a2, -0x178(s0)
802079fa: 23 30 c4 f6  	sd	a2, -0xa0(s0)
802079fe: a1 45        	li	a1, 0x8
80207a00: 23 34 b4 f6  	sd	a1, -0x98(s0)
80207a04: 41 45        	li	a0, 0x10
80207a06: 97 f0 ff ff  	auipc	ra, 0xfffff
80207a0a: e7 80 20 d2  	jalr	-0x2de(ra) <ekernel+0xffc7f728>
80207a0e: 2a 86        	mv	a2, a0
80207a10: 23 38 c4 da  	sd	a2, -0x250(s0)
80207a14: 2e 85        	mv	a0, a1
80207a16: 83 35 04 de  	ld	a1, -0x220(s0)
80207a1a: 23 3c a4 da  	sd	a0, -0x248(s0)
80207a1e: 23 38 c4 f6  	sd	a2, -0x90(s0)
80207a22: 23 3c a4 f6  	sd	a0, -0x88(s0)
80207a26: 13 05 84 ec  	addi	a0, s0, -0x138
80207a2a: 23 30 a4 dc  	sd	a0, -0x240(s0)
80207a2e: 97 f0 ff ff  	auipc	ra, 0xfffff
80207a32: e7 80 80 4d  	jalr	0x4d8(ra) <ekernel+0xffc7ff06>
80207a36: 03 35 04 de  	ld	a0, -0x220(s0)
80207a3a: 83 35 04 db  	ld	a1, -0x250(s0)
80207a3e: 03 36 84 db  	ld	a2, -0x248(s0)
80207a42: 83 36 04 dc  	ld	a3, -0x240(s0)
80207a46: 13 07 05 01  	addi	a4, a0, 0x10
80207a4a: 13 05 04 eb  	addi	a0, s0, -0x150
80207a4e: 97 f0 ff ff  	auipc	ra, 0xfffff
80207a52: e7 80 c0 23  	jalr	0x23c(ra) <ekernel+0xffc7fc8a>
80207a56: 03 35 04 eb  	ld	a0, -0x150(s0)
80207a5a: 31 ed        	bnez	a0, 0x80207ab6 <.Lpcrel_hi11+0x16>
80207a5c: 09 a0        	j	0x80207a5e <.Lpcrel_hi10+0x13a>
80207a5e: 83 35 04 de  	ld	a1, -0x220(s0)
80207a62: 03 36 84 eb  	ld	a2, -0x148(s0)
80207a66: 03 35 04 ec  	ld	a0, -0x140(s0)
80207a6a: 23 30 c4 f8  	sd	a2, -0x80(s0)
80207a6e: 23 34 a4 f8  	sd	a0, -0x78(s0)
80207a72: 23 30 c4 ea  	sd	a2, -0x160(s0)
80207a76: 23 34 a4 ea  	sd	a0, -0x158(s0)
80207a7a: 01 45        	li	a0, 0x0
80207a7c: 23 3c a4 e8  	sd	a0, -0x168(s0)
80207a80: 03 36 04 ea  	ld	a2, -0x160(s0)
80207a84: 03 35 84 ea  	ld	a0, -0x158(s0)
80207a88: 23 38 c4 f8  	sd	a2, -0x70(s0)
80207a8c: 23 3c a4 f8  	sd	a0, -0x68(s0)
80207a90: 03 35 84 e8  	ld	a0, -0x178(s0)
80207a94: 23 30 a4 fa  	sd	a0, -0x60(s0)
80207a98: 23 34 c4 fa  	sd	a2, -0x58(s0)
80207a9c: 90 e5        	sd	a2, 0x8(a1)
80207a9e: 88 e1        	sd	a0, 0x0(a1)

0000000080207aa0 <.Lpcrel_hi11>:
80207aa0: 17 95 01 00  	auipc	a0, 0x19
80207aa4: 13 05 85 6c  	addi	a0, a0, 0x6c8
80207aa8: 0c 61        	ld	a1, 0x0(a0)
80207aaa: 08 65        	ld	a0, 0x8(a0)
80207aac: 23 30 b4 e2  	sd	a1, -0x1e0(s0)
80207ab0: 23 34 a4 e2  	sd	a0, -0x1d8(s0)
80207ab4: a9 a8        	j	0x80207b0e <.Lpcrel_hi11+0x6e>
80207ab6: 83 35 84 eb  	ld	a1, -0x148(s0)
80207aba: 03 35 04 ec  	ld	a0, -0x140(s0)
80207abe: 23 38 b4 fa  	sd	a1, -0x50(s0)
80207ac2: 23 3c a4 fa  	sd	a0, -0x48(s0)
80207ac6: 23 3c b4 f0  	sd	a1, -0xe8(s0)
80207aca: 23 30 a4 f2  	sd	a0, -0xe0(s0)
80207ace: 83 35 84 f1  	ld	a1, -0xe8(s0)
80207ad2: 03 35 04 f2  	ld	a0, -0xe0(s0)
80207ad6: 23 30 b4 ea  	sd	a1, -0x160(s0)
80207ada: 23 34 a4 ea  	sd	a0, -0x158(s0)
80207ade: 05 45        	li	a0, 0x1
80207ae0: 23 3c a4 e8  	sd	a0, -0x168(s0)
80207ae4: 83 35 04 ea  	ld	a1, -0x160(s0)
80207ae8: 03 35 84 ea  	ld	a0, -0x158(s0)
80207aec: 23 30 b4 ee  	sd	a1, -0x120(s0)
80207af0: 23 34 a4 ee  	sd	a0, -0x118(s0)
80207af4: 83 35 04 ee  	ld	a1, -0x120(s0)
80207af8: 03 35 84 ee  	ld	a0, -0x118(s0)
80207afc: 23 30 b4 fc  	sd	a1, -0x40(s0)
80207b00: 23 34 a4 fc  	sd	a0, -0x38(s0)
80207b04: 23 30 b4 e2  	sd	a1, -0x1e0(s0)
80207b08: 23 34 a4 e2  	sd	a0, -0x1d8(s0)
80207b0c: 21 a8        	j	0x80207b24 <.Lpcrel_hi11+0x84>
80207b0e: 03 35 04 e2  	ld	a0, -0x1e0(s0)
80207b12: 83 35 84 e2  	ld	a1, -0x1d8(s0)
80207b16: 83 30 81 24  	ld	ra, 0x248(sp)
80207b1a: 03 34 01 24  	ld	s0, 0x240(sp)
80207b1e: 13 01 01 25  	addi	sp, sp, 0x250
80207b22: 82 80        	ret
80207b24: ed b7        	j	0x80207b0e <.Lpcrel_hi11+0x6e>

0000000080207b26 <_ZN5alloc7raw_vec19RawVec$LT$T$C$A$GT$14grow_amortized17h99ad335f0aada7cfE>:
80207b26: 13 01 01 db  	addi	sp, sp, -0x250
80207b2a: 23 34 11 24  	sd	ra, 0x248(sp)
80207b2e: 23 30 81 24  	sd	s0, 0x240(sp)
80207b32: 80 0c        	addi	s0, sp, 0x250
80207b34: 23 38 c4 dc  	sd	a2, -0x230(s0)
80207b38: 23 3c b4 dc  	sd	a1, -0x228(s0)
80207b3c: 23 30 a4 de  	sd	a0, -0x220(s0)

0000000080207b40 <.Lpcrel_hi12>:
80207b40: 97 96 01 00  	auipc	a3, 0x19
80207b44: 93 86 86 64  	addi	a3, a3, 0x648
80207b48: 9c 62        	ld	a5, 0x0(a3)
80207b4a: 98 66        	ld	a4, 0x8(a3)
80207b4c: 23 34 f4 de  	sd	a5, -0x218(s0)
80207b50: 23 38 e4 de  	sd	a4, -0x210(s0)
80207b54: 9c 62        	ld	a5, 0x0(a3)
80207b56: 98 66        	ld	a4, 0x8(a3)
80207b58: 23 3c f4 de  	sd	a5, -0x208(s0)
80207b5c: 23 30 e4 e0  	sd	a4, -0x200(s0)
80207b60: 98 62        	ld	a4, 0x0(a3)
80207b62: 94 66        	ld	a3, 0x8(a3)
80207b64: 23 34 e4 e0  	sd	a4, -0x1f8(s0)
80207b68: 23 38 d4 e0  	sd	a3, -0x1f0(s0)
80207b6c: 23 34 a4 f2  	sd	a0, -0xd8(s0)
80207b70: 23 38 b4 f2  	sd	a1, -0xd0(s0)
80207b74: 23 3c c4 f2  	sd	a2, -0xc8(s0)
80207b78: 09 a0        	j	0x80207b7a <.Lpcrel_hi12+0x3a>
80207b7a: 83 35 84 dd  	ld	a1, -0x228(s0)
80207b7e: 03 35 04 dd  	ld	a0, -0x230(s0)
80207b82: 2e 95        	add	a0, a0, a1
80207b84: 33 35 b5 00  	sltu	a0, a0, a1
80207b88: a3 03 a4 f4  	sb	a0, -0xb9(s0)
80207b8c: 03 45 74 f4  	lbu	a0, -0xb9(s0)
80207b90: 05 89        	andi	a0, a0, 0x1
80207b92: 49 e1        	bnez	a0, 0x80207c14 <.Lpcrel_hi13>
80207b94: 09 a0        	j	0x80207b96 <.Lpcrel_hi12+0x56>
80207b96: 83 35 04 de  	ld	a1, -0x220(s0)
80207b9a: 03 35 84 dd  	ld	a0, -0x228(s0)
80207b9e: 03 36 04 dd  	ld	a2, -0x230(s0)
80207ba2: 32 95        	add	a0, a0, a2
80207ba4: 23 3c a4 e4  	sd	a0, -0x1a8(s0)
80207ba8: 05 45        	li	a0, 0x1
80207baa: 23 38 a4 e4  	sd	a0, -0x1b0(s0)
80207bae: 03 35 84 e5  	ld	a0, -0x1a8(s0)
80207bb2: 23 34 a4 f4  	sd	a0, -0xb8(s0)
80207bb6: 23 34 a4 e4  	sd	a0, -0x1b8(s0)
80207bba: 7d 55        	li	a0, -0x1
80207bbc: 7e 15        	slli	a0, a0, 0x3f
80207bbe: 05 05        	addi	a0, a0, 0x1
80207bc0: 23 30 a4 e4  	sd	a0, -0x1c0(s0)
80207bc4: 03 36 84 e4  	ld	a2, -0x1b8(s0)
80207bc8: 23 38 c4 f4  	sd	a2, -0xb0(s0)
80207bcc: 23 3c c4 e2  	sd	a2, -0x1c8(s0)
80207bd0: 23 38 a4 e2  	sd	a0, -0x1d0(s0)
80207bd4: 03 35 84 e3  	ld	a0, -0x1c8(s0)
80207bd8: 23 34 a4 dc  	sd	a0, -0x238(s0)
80207bdc: 23 3c a4 f4  	sd	a0, -0xa8(s0)
80207be0: 8c 61        	ld	a1, 0x0(a1)
80207be2: 86 05        	slli	a1, a1, 0x1
80207be4: 23 3c b4 e6  	sd	a1, -0x188(s0)
80207be8: 23 30 a4 e8  	sd	a0, -0x180(s0)
80207bec: 13 05 84 e7  	addi	a0, s0, -0x188
80207bf0: 93 05 04 e8  	addi	a1, s0, -0x180
80207bf4: 97 20 00 00  	auipc	ra, 0x2
80207bf8: e7 80 e0 cf  	jalr	-0x302(ra) <_ZN4core3ops8function6FnOnce9call_once17hcc41db28e2e13373E>
80207bfc: a3 03 a4 f0  	sb	a0, -0xf9(s0)
80207c00: 03 45 74 f0  	lbu	a0, -0xf9(s0)
80207c04: 05 25        	addiw	a0, a0, 0x1
80207c06: 13 75 f5 0f  	andi	a0, a0, 0xff
80207c0a: 89 45        	li	a1, 0x2
80207c0c: 63 6e b5 06  	bltu	a0, a1, 0x80207c88 <.Lpcrel_hi13+0x74>
80207c10: 09 a0        	j	0x80207c12 <.Lpcrel_hi12+0xd2>
80207c12: 41 a0        	j	0x80207c92 <.Lpcrel_hi13+0x7e>

0000000080207c14 <.Lpcrel_hi13>:
80207c14: 17 95 01 00  	auipc	a0, 0x19
80207c18: 13 05 45 57  	addi	a0, a0, 0x574
80207c1c: 10 61        	ld	a2, 0x0(a0)
80207c1e: 0c 65        	ld	a1, 0x8(a0)
80207c20: 23 38 c4 e4  	sd	a2, -0x1b0(s0)
80207c24: 23 3c b4 e4  	sd	a1, -0x1a8(s0)
80207c28: 0c 61        	ld	a1, 0x0(a0)
80207c2a: 08 65        	ld	a0, 0x8(a0)
80207c2c: 23 30 b4 e4  	sd	a1, -0x1c0(s0)
80207c30: 23 34 a4 e4  	sd	a0, -0x1b8(s0)
80207c34: 83 35 04 e4  	ld	a1, -0x1c0(s0)
80207c38: 03 35 84 e4  	ld	a0, -0x1b8(s0)
80207c3c: 23 38 b4 fc  	sd	a1, -0x30(s0)
80207c40: 23 3c a4 fc  	sd	a0, -0x28(s0)
80207c44: 23 38 b4 ee  	sd	a1, -0x110(s0)
80207c48: 23 3c a4 ee  	sd	a0, -0x108(s0)
80207c4c: 83 35 04 ef  	ld	a1, -0x110(s0)
80207c50: 03 35 84 ef  	ld	a0, -0x108(s0)
80207c54: 23 38 b4 e2  	sd	a1, -0x1d0(s0)
80207c58: 23 3c a4 e2  	sd	a0, -0x1c8(s0)
80207c5c: 83 35 04 e3  	ld	a1, -0x1d0(s0)
80207c60: 03 35 84 e3  	ld	a0, -0x1c8(s0)
80207c64: 23 30 b4 e6  	sd	a1, -0x1a0(s0)
80207c68: 23 34 a4 e6  	sd	a0, -0x198(s0)
80207c6c: 83 35 04 e6  	ld	a1, -0x1a0(s0)
80207c70: 03 35 84 e6  	ld	a0, -0x198(s0)
80207c74: 23 30 b4 fe  	sd	a1, -0x20(s0)
80207c78: 23 34 a4 fe  	sd	a0, -0x18(s0)
80207c7c: 23 30 b4 e2  	sd	a1, -0x1e0(s0)
80207c80: 23 34 a4 e2  	sd	a0, -0x1d8(s0)
80207c84: 41 aa        	j	0x80207e14 <.Lpcrel_hi14+0x84>
80207c86: 00 00        	unimp
80207c88: 03 35 84 dc  	ld	a0, -0x238(s0)
80207c8c: 23 38 a4 e6  	sd	a0, -0x190(s0)
80207c90: 31 a0        	j	0x80207c9c <.Lpcrel_hi13+0x88>
80207c92: 03 35 84 e7  	ld	a0, -0x188(s0)
80207c96: 23 38 a4 e6  	sd	a0, -0x190(s0)
80207c9a: 09 a0        	j	0x80207c9c <.Lpcrel_hi13+0x88>
80207c9c: 03 35 04 e7  	ld	a0, -0x190(s0)
80207ca0: 23 38 a4 e8  	sd	a0, -0x170(s0)
80207ca4: 11 45        	li	a0, 0x4
80207ca6: 23 34 a4 f0  	sd	a0, -0xf8(s0)
80207caa: 13 05 84 f0  	addi	a0, s0, -0xf8
80207cae: 93 05 04 e9  	addi	a1, s0, -0x170
80207cb2: 97 20 00 00  	auipc	ra, 0x2
80207cb6: e7 80 00 c4  	jalr	-0x3c0(ra) <_ZN4core3ops8function6FnOnce9call_once17hcc41db28e2e13373E>
80207cba: a3 0b a4 f0  	sb	a0, -0xe9(s0)
80207cbe: 03 45 74 f1  	lbu	a0, -0xe9(s0)
80207cc2: 05 25        	addiw	a0, a0, 0x1
80207cc4: 13 75 f5 0f  	andi	a0, a0, 0xff
80207cc8: 89 45        	li	a1, 0x2
80207cca: 63 64 b5 00  	bltu	a0, a1, 0x80207cd2 <.Lpcrel_hi13+0xbe>
80207cce: 09 a0        	j	0x80207cd0 <.Lpcrel_hi13+0xbc>
80207cd0: 31 a0        	j	0x80207cdc <.Lpcrel_hi13+0xc8>
80207cd2: 03 35 04 e9  	ld	a0, -0x170(s0)
80207cd6: 23 34 a4 e8  	sd	a0, -0x178(s0)
80207cda: 31 a0        	j	0x80207ce6 <.Lpcrel_hi13+0xd2>
80207cdc: 03 35 84 f0  	ld	a0, -0xf8(s0)
80207ce0: 23 34 a4 e8  	sd	a0, -0x178(s0)
80207ce4: 09 a0        	j	0x80207ce6 <.Lpcrel_hi13+0xd2>
80207ce6: 03 36 84 e8  	ld	a2, -0x178(s0)
80207cea: 23 30 c4 f6  	sd	a2, -0xa0(s0)
80207cee: a1 45        	li	a1, 0x8
80207cf0: 23 34 b4 f6  	sd	a1, -0x98(s0)
80207cf4: 2e 85        	mv	a0, a1
80207cf6: 97 f0 ff ff  	auipc	ra, 0xfffff
80207cfa: e7 80 20 a3  	jalr	-0x5ce(ra) <ekernel+0xffc7f728>
80207cfe: 2a 86        	mv	a2, a0
80207d00: 23 38 c4 da  	sd	a2, -0x250(s0)
80207d04: 2e 85        	mv	a0, a1
80207d06: 83 35 04 de  	ld	a1, -0x220(s0)
80207d0a: 23 3c a4 da  	sd	a0, -0x248(s0)
80207d0e: 23 38 c4 f6  	sd	a2, -0x90(s0)
80207d12: 23 3c a4 f6  	sd	a0, -0x88(s0)
80207d16: 13 05 84 ec  	addi	a0, s0, -0x138
80207d1a: 23 30 a4 dc  	sd	a0, -0x240(s0)
80207d1e: 97 f0 ff ff  	auipc	ra, 0xfffff
80207d22: e7 80 e0 33  	jalr	0x33e(ra) <ekernel+0xffc8005c>
80207d26: 03 35 04 de  	ld	a0, -0x220(s0)
80207d2a: 83 35 04 db  	ld	a1, -0x250(s0)
80207d2e: 03 36 84 db  	ld	a2, -0x248(s0)
80207d32: 83 36 04 dc  	ld	a3, -0x240(s0)
80207d36: 13 07 05 01  	addi	a4, a0, 0x10
80207d3a: 13 05 04 eb  	addi	a0, s0, -0x150
80207d3e: 97 f0 ff ff  	auipc	ra, 0xfffff
80207d42: e7 80 c0 f4  	jalr	-0xb4(ra) <ekernel+0xffc7fc8a>
80207d46: 03 35 04 eb  	ld	a0, -0x150(s0)
80207d4a: 31 ed        	bnez	a0, 0x80207da6 <.Lpcrel_hi14+0x16>
80207d4c: 09 a0        	j	0x80207d4e <.Lpcrel_hi13+0x13a>
80207d4e: 83 35 04 de  	ld	a1, -0x220(s0)
80207d52: 03 36 84 eb  	ld	a2, -0x148(s0)
80207d56: 03 35 04 ec  	ld	a0, -0x140(s0)
80207d5a: 23 30 c4 f8  	sd	a2, -0x80(s0)
80207d5e: 23 34 a4 f8  	sd	a0, -0x78(s0)
80207d62: 23 30 c4 ea  	sd	a2, -0x160(s0)
80207d66: 23 34 a4 ea  	sd	a0, -0x158(s0)
80207d6a: 01 45        	li	a0, 0x0
80207d6c: 23 3c a4 e8  	sd	a0, -0x168(s0)
80207d70: 03 36 04 ea  	ld	a2, -0x160(s0)
80207d74: 03 35 84 ea  	ld	a0, -0x158(s0)
80207d78: 23 38 c4 f8  	sd	a2, -0x70(s0)
80207d7c: 23 3c a4 f8  	sd	a0, -0x68(s0)
80207d80: 03 35 84 e8  	ld	a0, -0x178(s0)
80207d84: 23 30 a4 fa  	sd	a0, -0x60(s0)
80207d88: 23 34 c4 fa  	sd	a2, -0x58(s0)
80207d8c: 90 e5        	sd	a2, 0x8(a1)
80207d8e: 88 e1        	sd	a0, 0x0(a1)

0000000080207d90 <.Lpcrel_hi14>:
80207d90: 17 95 01 00  	auipc	a0, 0x19
80207d94: 13 05 85 3d  	addi	a0, a0, 0x3d8
80207d98: 0c 61        	ld	a1, 0x0(a0)
80207d9a: 08 65        	ld	a0, 0x8(a0)
80207d9c: 23 30 b4 e2  	sd	a1, -0x1e0(s0)
80207da0: 23 34 a4 e2  	sd	a0, -0x1d8(s0)
80207da4: a9 a8        	j	0x80207dfe <.Lpcrel_hi14+0x6e>
80207da6: 83 35 84 eb  	ld	a1, -0x148(s0)
80207daa: 03 35 04 ec  	ld	a0, -0x140(s0)
80207dae: 23 38 b4 fa  	sd	a1, -0x50(s0)
80207db2: 23 3c a4 fa  	sd	a0, -0x48(s0)
80207db6: 23 3c b4 f0  	sd	a1, -0xe8(s0)
80207dba: 23 30 a4 f2  	sd	a0, -0xe0(s0)
80207dbe: 83 35 84 f1  	ld	a1, -0xe8(s0)
80207dc2: 03 35 04 f2  	ld	a0, -0xe0(s0)
80207dc6: 23 30 b4 ea  	sd	a1, -0x160(s0)
80207dca: 23 34 a4 ea  	sd	a0, -0x158(s0)
80207dce: 05 45        	li	a0, 0x1
80207dd0: 23 3c a4 e8  	sd	a0, -0x168(s0)
80207dd4: 83 35 04 ea  	ld	a1, -0x160(s0)
80207dd8: 03 35 84 ea  	ld	a0, -0x158(s0)
80207ddc: 23 30 b4 ee  	sd	a1, -0x120(s0)
80207de0: 23 34 a4 ee  	sd	a0, -0x118(s0)
80207de4: 83 35 04 ee  	ld	a1, -0x120(s0)
80207de8: 03 35 84 ee  	ld	a0, -0x118(s0)
80207dec: 23 30 b4 fc  	sd	a1, -0x40(s0)
80207df0: 23 34 a4 fc  	sd	a0, -0x38(s0)
80207df4: 23 30 b4 e2  	sd	a1, -0x1e0(s0)
80207df8: 23 34 a4 e2  	sd	a0, -0x1d8(s0)
80207dfc: 21 a8        	j	0x80207e14 <.Lpcrel_hi14+0x84>
80207dfe: 03 35 04 e2  	ld	a0, -0x1e0(s0)
80207e02: 83 35 84 e2  	ld	a1, -0x1d8(s0)
80207e06: 83 30 81 24  	ld	ra, 0x248(sp)
80207e0a: 03 34 01 24  	ld	s0, 0x240(sp)
80207e0e: 13 01 01 25  	addi	sp, sp, 0x250
80207e12: 82 80        	ret
80207e14: ed b7        	j	0x80207dfe <.Lpcrel_hi14+0x6e>

0000000080207e16 <_ZN5alloc7raw_vec19RawVec$LT$T$C$A$GT$14grow_amortized17hd70d87b24de412d8E>:
80207e16: 13 01 01 db  	addi	sp, sp, -0x250
80207e1a: 23 34 11 24  	sd	ra, 0x248(sp)
80207e1e: 23 30 81 24  	sd	s0, 0x240(sp)
80207e22: 80 0c        	addi	s0, sp, 0x250
80207e24: 23 38 c4 dc  	sd	a2, -0x230(s0)
80207e28: 23 3c b4 dc  	sd	a1, -0x228(s0)
80207e2c: 23 30 a4 de  	sd	a0, -0x220(s0)

0000000080207e30 <.Lpcrel_hi15>:
80207e30: 97 96 01 00  	auipc	a3, 0x19
80207e34: 93 86 86 35  	addi	a3, a3, 0x358
80207e38: 9c 62        	ld	a5, 0x0(a3)
80207e3a: 98 66        	ld	a4, 0x8(a3)
80207e3c: 23 34 f4 de  	sd	a5, -0x218(s0)
80207e40: 23 38 e4 de  	sd	a4, -0x210(s0)
80207e44: 9c 62        	ld	a5, 0x0(a3)
80207e46: 98 66        	ld	a4, 0x8(a3)
80207e48: 23 3c f4 de  	sd	a5, -0x208(s0)
80207e4c: 23 30 e4 e0  	sd	a4, -0x200(s0)
80207e50: 98 62        	ld	a4, 0x0(a3)
80207e52: 94 66        	ld	a3, 0x8(a3)
80207e54: 23 34 e4 e0  	sd	a4, -0x1f8(s0)
80207e58: 23 38 d4 e0  	sd	a3, -0x1f0(s0)
80207e5c: 23 34 a4 f2  	sd	a0, -0xd8(s0)
80207e60: 23 38 b4 f2  	sd	a1, -0xd0(s0)
80207e64: 23 3c c4 f2  	sd	a2, -0xc8(s0)
80207e68: 09 a0        	j	0x80207e6a <.Lpcrel_hi15+0x3a>
80207e6a: 83 35 84 dd  	ld	a1, -0x228(s0)
80207e6e: 03 35 04 dd  	ld	a0, -0x230(s0)
80207e72: 2e 95        	add	a0, a0, a1
80207e74: 33 35 b5 00  	sltu	a0, a0, a1
80207e78: a3 03 a4 f4  	sb	a0, -0xb9(s0)
80207e7c: 03 45 74 f4  	lbu	a0, -0xb9(s0)
80207e80: 05 89        	andi	a0, a0, 0x1
80207e82: 49 e1        	bnez	a0, 0x80207f04 <.Lpcrel_hi16>
80207e84: 09 a0        	j	0x80207e86 <.Lpcrel_hi15+0x56>
80207e86: 83 35 04 de  	ld	a1, -0x220(s0)
80207e8a: 03 35 84 dd  	ld	a0, -0x228(s0)
80207e8e: 03 36 04 dd  	ld	a2, -0x230(s0)
80207e92: 32 95        	add	a0, a0, a2
80207e94: 23 3c a4 e4  	sd	a0, -0x1a8(s0)
80207e98: 05 45        	li	a0, 0x1
80207e9a: 23 38 a4 e4  	sd	a0, -0x1b0(s0)
80207e9e: 03 35 84 e5  	ld	a0, -0x1a8(s0)
80207ea2: 23 34 a4 f4  	sd	a0, -0xb8(s0)
80207ea6: 23 34 a4 e4  	sd	a0, -0x1b8(s0)
80207eaa: 7d 55        	li	a0, -0x1
80207eac: 7e 15        	slli	a0, a0, 0x3f
80207eae: 05 05        	addi	a0, a0, 0x1
80207eb0: 23 30 a4 e4  	sd	a0, -0x1c0(s0)
80207eb4: 03 36 84 e4  	ld	a2, -0x1b8(s0)
80207eb8: 23 38 c4 f4  	sd	a2, -0xb0(s0)
80207ebc: 23 3c c4 e2  	sd	a2, -0x1c8(s0)
80207ec0: 23 38 a4 e2  	sd	a0, -0x1d0(s0)
80207ec4: 03 35 84 e3  	ld	a0, -0x1c8(s0)
80207ec8: 23 34 a4 dc  	sd	a0, -0x238(s0)
80207ecc: 23 3c a4 f4  	sd	a0, -0xa8(s0)
80207ed0: 8c 61        	ld	a1, 0x0(a1)
80207ed2: 86 05        	slli	a1, a1, 0x1
80207ed4: 23 3c b4 e6  	sd	a1, -0x188(s0)
80207ed8: 23 30 a4 e8  	sd	a0, -0x180(s0)
80207edc: 13 05 84 e7  	addi	a0, s0, -0x188
80207ee0: 93 05 04 e8  	addi	a1, s0, -0x180
80207ee4: 97 20 00 00  	auipc	ra, 0x2
80207ee8: e7 80 e0 a0  	jalr	-0x5f2(ra) <_ZN4core3ops8function6FnOnce9call_once17hcc41db28e2e13373E>
80207eec: a3 03 a4 f0  	sb	a0, -0xf9(s0)
80207ef0: 03 45 74 f0  	lbu	a0, -0xf9(s0)
80207ef4: 05 25        	addiw	a0, a0, 0x1
80207ef6: 13 75 f5 0f  	andi	a0, a0, 0xff
80207efa: 89 45        	li	a1, 0x2
80207efc: 63 6e b5 06  	bltu	a0, a1, 0x80207f78 <.Lpcrel_hi16+0x74>
80207f00: 09 a0        	j	0x80207f02 <.Lpcrel_hi15+0xd2>
80207f02: 41 a0        	j	0x80207f82 <.Lpcrel_hi16+0x7e>

0000000080207f04 <.Lpcrel_hi16>:
80207f04: 17 95 01 00  	auipc	a0, 0x19
80207f08: 13 05 45 28  	addi	a0, a0, 0x284
80207f0c: 10 61        	ld	a2, 0x0(a0)
80207f0e: 0c 65        	ld	a1, 0x8(a0)
80207f10: 23 38 c4 e4  	sd	a2, -0x1b0(s0)
80207f14: 23 3c b4 e4  	sd	a1, -0x1a8(s0)
80207f18: 0c 61        	ld	a1, 0x0(a0)
80207f1a: 08 65        	ld	a0, 0x8(a0)
80207f1c: 23 30 b4 e4  	sd	a1, -0x1c0(s0)
80207f20: 23 34 a4 e4  	sd	a0, -0x1b8(s0)
80207f24: 83 35 04 e4  	ld	a1, -0x1c0(s0)
80207f28: 03 35 84 e4  	ld	a0, -0x1b8(s0)
80207f2c: 23 38 b4 fc  	sd	a1, -0x30(s0)
80207f30: 23 3c a4 fc  	sd	a0, -0x28(s0)
80207f34: 23 38 b4 ee  	sd	a1, -0x110(s0)
80207f38: 23 3c a4 ee  	sd	a0, -0x108(s0)
80207f3c: 83 35 04 ef  	ld	a1, -0x110(s0)
80207f40: 03 35 84 ef  	ld	a0, -0x108(s0)
80207f44: 23 38 b4 e2  	sd	a1, -0x1d0(s0)
80207f48: 23 3c a4 e2  	sd	a0, -0x1c8(s0)
80207f4c: 83 35 04 e3  	ld	a1, -0x1d0(s0)
80207f50: 03 35 84 e3  	ld	a0, -0x1c8(s0)
80207f54: 23 30 b4 e6  	sd	a1, -0x1a0(s0)
80207f58: 23 34 a4 e6  	sd	a0, -0x198(s0)
80207f5c: 83 35 04 e6  	ld	a1, -0x1a0(s0)
80207f60: 03 35 84 e6  	ld	a0, -0x198(s0)
80207f64: 23 30 b4 fe  	sd	a1, -0x20(s0)
80207f68: 23 34 a4 fe  	sd	a0, -0x18(s0)
80207f6c: 23 30 b4 e2  	sd	a1, -0x1e0(s0)
80207f70: 23 34 a4 e2  	sd	a0, -0x1d8(s0)
80207f74: 49 aa        	j	0x80208106 <.Lpcrel_hi17+0x84>
80207f76: 00 00        	unimp
80207f78: 03 35 84 dc  	ld	a0, -0x238(s0)
80207f7c: 23 38 a4 e6  	sd	a0, -0x190(s0)
80207f80: 31 a0        	j	0x80207f8c <.Lpcrel_hi16+0x88>
80207f82: 03 35 84 e7  	ld	a0, -0x188(s0)
80207f86: 23 38 a4 e6  	sd	a0, -0x190(s0)
80207f8a: 09 a0        	j	0x80207f8c <.Lpcrel_hi16+0x88>
80207f8c: 03 35 04 e7  	ld	a0, -0x190(s0)
80207f90: 23 38 a4 e8  	sd	a0, -0x170(s0)
80207f94: 11 45        	li	a0, 0x4
80207f96: 23 34 a4 f0  	sd	a0, -0xf8(s0)
80207f9a: 13 05 84 f0  	addi	a0, s0, -0xf8
80207f9e: 93 05 04 e9  	addi	a1, s0, -0x170
80207fa2: 97 20 00 00  	auipc	ra, 0x2
80207fa6: e7 80 00 95  	jalr	-0x6b0(ra) <_ZN4core3ops8function6FnOnce9call_once17hcc41db28e2e13373E>
80207faa: a3 0b a4 f0  	sb	a0, -0xe9(s0)
80207fae: 03 45 74 f1  	lbu	a0, -0xe9(s0)
80207fb2: 05 25        	addiw	a0, a0, 0x1
80207fb4: 13 75 f5 0f  	andi	a0, a0, 0xff
80207fb8: 89 45        	li	a1, 0x2
80207fba: 63 64 b5 00  	bltu	a0, a1, 0x80207fc2 <.Lpcrel_hi16+0xbe>
80207fbe: 09 a0        	j	0x80207fc0 <.Lpcrel_hi16+0xbc>
80207fc0: 31 a0        	j	0x80207fcc <.Lpcrel_hi16+0xc8>
80207fc2: 03 35 04 e9  	ld	a0, -0x170(s0)
80207fc6: 23 34 a4 e8  	sd	a0, -0x178(s0)
80207fca: 31 a0        	j	0x80207fd6 <.Lpcrel_hi16+0xd2>
80207fcc: 03 35 84 f0  	ld	a0, -0xf8(s0)
80207fd0: 23 34 a4 e8  	sd	a0, -0x178(s0)
80207fd4: 09 a0        	j	0x80207fd6 <.Lpcrel_hi16+0xd2>
80207fd6: 03 36 84 e8  	ld	a2, -0x178(s0)
80207fda: 23 30 c4 f6  	sd	a2, -0xa0(s0)
80207fde: a1 45        	li	a1, 0x8
80207fe0: 23 34 b4 f6  	sd	a1, -0x98(s0)
80207fe4: 13 05 00 03  	li	a0, 0x30
80207fe8: 97 e0 ff ff  	auipc	ra, 0xffffe
80207fec: e7 80 00 74  	jalr	0x740(ra) <ekernel+0xffc7f728>
80207ff0: 2a 86        	mv	a2, a0
80207ff2: 23 38 c4 da  	sd	a2, -0x250(s0)
80207ff6: 2e 85        	mv	a0, a1
80207ff8: 83 35 04 de  	ld	a1, -0x220(s0)
80207ffc: 23 3c a4 da  	sd	a0, -0x248(s0)
80208000: 23 38 c4 f6  	sd	a2, -0x90(s0)
80208004: 23 3c a4 f6  	sd	a0, -0x88(s0)
80208008: 13 05 84 ec  	addi	a0, s0, -0x138
8020800c: 23 30 a4 dc  	sd	a0, -0x240(s0)
80208010: 97 f0 ff ff  	auipc	ra, 0xfffff
80208014: e7 80 c0 f9  	jalr	-0x64(ra) <ekernel+0xffc7ffac>
80208018: 03 35 04 de  	ld	a0, -0x220(s0)
8020801c: 83 35 04 db  	ld	a1, -0x250(s0)
80208020: 03 36 84 db  	ld	a2, -0x248(s0)
80208024: 83 36 04 dc  	ld	a3, -0x240(s0)
80208028: 13 07 05 01  	addi	a4, a0, 0x10
8020802c: 13 05 04 eb  	addi	a0, s0, -0x150
80208030: 97 f0 ff ff  	auipc	ra, 0xfffff
80208034: e7 80 a0 c5  	jalr	-0x3a6(ra) <ekernel+0xffc7fc8a>
80208038: 03 35 04 eb  	ld	a0, -0x150(s0)
8020803c: 31 ed        	bnez	a0, 0x80208098 <.Lpcrel_hi17+0x16>
8020803e: 09 a0        	j	0x80208040 <.Lpcrel_hi16+0x13c>
80208040: 83 35 04 de  	ld	a1, -0x220(s0)
80208044: 03 36 84 eb  	ld	a2, -0x148(s0)
80208048: 03 35 04 ec  	ld	a0, -0x140(s0)
8020804c: 23 30 c4 f8  	sd	a2, -0x80(s0)
80208050: 23 34 a4 f8  	sd	a0, -0x78(s0)
80208054: 23 30 c4 ea  	sd	a2, -0x160(s0)
80208058: 23 34 a4 ea  	sd	a0, -0x158(s0)
8020805c: 01 45        	li	a0, 0x0
8020805e: 23 3c a4 e8  	sd	a0, -0x168(s0)
80208062: 03 36 04 ea  	ld	a2, -0x160(s0)
80208066: 03 35 84 ea  	ld	a0, -0x158(s0)
8020806a: 23 38 c4 f8  	sd	a2, -0x70(s0)
8020806e: 23 3c a4 f8  	sd	a0, -0x68(s0)
80208072: 03 35 84 e8  	ld	a0, -0x178(s0)
80208076: 23 30 a4 fa  	sd	a0, -0x60(s0)
8020807a: 23 34 c4 fa  	sd	a2, -0x58(s0)
8020807e: 90 e5        	sd	a2, 0x8(a1)
80208080: 88 e1        	sd	a0, 0x0(a1)

0000000080208082 <.Lpcrel_hi17>:
80208082: 17 95 01 00  	auipc	a0, 0x19
80208086: 13 05 65 0e  	addi	a0, a0, 0xe6
8020808a: 0c 61        	ld	a1, 0x0(a0)
8020808c: 08 65        	ld	a0, 0x8(a0)
8020808e: 23 30 b4 e2  	sd	a1, -0x1e0(s0)
80208092: 23 34 a4 e2  	sd	a0, -0x1d8(s0)
80208096: a9 a8        	j	0x802080f0 <.Lpcrel_hi17+0x6e>
80208098: 83 35 84 eb  	ld	a1, -0x148(s0)
8020809c: 03 35 04 ec  	ld	a0, -0x140(s0)
802080a0: 23 38 b4 fa  	sd	a1, -0x50(s0)
802080a4: 23 3c a4 fa  	sd	a0, -0x48(s0)
802080a8: 23 3c b4 f0  	sd	a1, -0xe8(s0)
802080ac: 23 30 a4 f2  	sd	a0, -0xe0(s0)
802080b0: 83 35 84 f1  	ld	a1, -0xe8(s0)
802080b4: 03 35 04 f2  	ld	a0, -0xe0(s0)
802080b8: 23 30 b4 ea  	sd	a1, -0x160(s0)
802080bc: 23 34 a4 ea  	sd	a0, -0x158(s0)
802080c0: 05 45        	li	a0, 0x1
802080c2: 23 3c a4 e8  	sd	a0, -0x168(s0)
802080c6: 83 35 04 ea  	ld	a1, -0x160(s0)
802080ca: 03 35 84 ea  	ld	a0, -0x158(s0)
802080ce: 23 30 b4 ee  	sd	a1, -0x120(s0)
802080d2: 23 34 a4 ee  	sd	a0, -0x118(s0)
802080d6: 83 35 04 ee  	ld	a1, -0x120(s0)
802080da: 03 35 84 ee  	ld	a0, -0x118(s0)
802080de: 23 30 b4 fc  	sd	a1, -0x40(s0)
802080e2: 23 34 a4 fc  	sd	a0, -0x38(s0)
802080e6: 23 30 b4 e2  	sd	a1, -0x1e0(s0)
802080ea: 23 34 a4 e2  	sd	a0, -0x1d8(s0)
802080ee: 21 a8        	j	0x80208106 <.Lpcrel_hi17+0x84>
802080f0: 03 35 04 e2  	ld	a0, -0x1e0(s0)
802080f4: 83 35 84 e2  	ld	a1, -0x1d8(s0)
802080f8: 83 30 81 24  	ld	ra, 0x248(sp)
802080fc: 03 34 01 24  	ld	s0, 0x240(sp)
80208100: 13 01 01 25  	addi	sp, sp, 0x250
80208104: 82 80        	ret
80208106: ed b7        	j	0x802080f0 <.Lpcrel_hi17+0x6e>

0000000080208108 <_ZN5alloc7raw_vec19RawVec$LT$T$C$A$GT$8grow_one17h456b1c5637de5149E>:
80208108: 39 71        	addi	sp, sp, -0x40
8020810a: 06 fc        	sd	ra, 0x38(sp)
8020810c: 22 f8        	sd	s0, 0x30(sp)
8020810e: 80 00        	addi	s0, sp, 0x40
80208110: 23 3c a4 fc  	sd	a0, -0x28(s0)
80208114: 0c 61        	ld	a1, 0x0(a0)
80208116: 05 46        	li	a2, 0x1
80208118: 97 00 00 00  	auipc	ra, 0x0
8020811c: e7 80 e0 a0  	jalr	-0x5f2(ra) <_ZN5alloc7raw_vec19RawVec$LT$T$C$A$GT$14grow_amortized17h99ad335f0aada7cfE>
80208120: 23 34 a4 fc  	sd	a0, -0x38(s0)
80208124: 23 38 b4 fc  	sd	a1, -0x30(s0)
80208128: 03 35 84 fc  	ld	a0, -0x38(s0)
8020812c: fd 55        	li	a1, -0x1
8020812e: fe 15        	slli	a1, a1, 0x3f
80208130: 85 05        	addi	a1, a1, 0x1
80208132: 63 0f b5 00  	beq	a0, a1, 0x80208150 <_ZN5alloc7raw_vec19RawVec$LT$T$C$A$GT$8grow_one17h456b1c5637de5149E+0x48>
80208136: 09 a0        	j	0x80208138 <_ZN5alloc7raw_vec19RawVec$LT$T$C$A$GT$8grow_one17h456b1c5637de5149E+0x30>
80208138: 03 35 84 fc  	ld	a0, -0x38(s0)
8020813c: 83 35 04 fd  	ld	a1, -0x30(s0)
80208140: 23 30 a4 fe  	sd	a0, -0x20(s0)
80208144: 23 34 b4 fe  	sd	a1, -0x18(s0)
80208148: 97 50 01 00  	auipc	ra, 0x15
8020814c: e7 80 40 77  	jalr	0x774(ra) <_ZN5alloc7raw_vec12handle_error17h632f19c56c69cc5bE>
80208150: e2 70        	ld	ra, 0x38(sp)
80208152: 42 74        	ld	s0, 0x30(sp)
80208154: 21 61        	addi	sp, sp, 0x40
80208156: 82 80        	ret

0000000080208158 <_ZN5alloc7raw_vec19RawVec$LT$T$C$A$GT$8grow_one17h8175708f63d408c8E>:
80208158: 39 71        	addi	sp, sp, -0x40
8020815a: 06 fc        	sd	ra, 0x38(sp)
8020815c: 22 f8        	sd	s0, 0x30(sp)
8020815e: 80 00        	addi	s0, sp, 0x40
80208160: 23 3c a4 fc  	sd	a0, -0x28(s0)
80208164: 0c 61        	ld	a1, 0x0(a0)
80208166: 05 46        	li	a2, 0x1
80208168: 97 00 00 00  	auipc	ra, 0x0
8020816c: e7 80 e0 ca  	jalr	-0x352(ra) <_ZN5alloc7raw_vec19RawVec$LT$T$C$A$GT$14grow_amortized17hd70d87b24de412d8E>
80208170: 23 34 a4 fc  	sd	a0, -0x38(s0)
80208174: 23 38 b4 fc  	sd	a1, -0x30(s0)
80208178: 03 35 84 fc  	ld	a0, -0x38(s0)
8020817c: fd 55        	li	a1, -0x1
8020817e: fe 15        	slli	a1, a1, 0x3f
80208180: 85 05        	addi	a1, a1, 0x1
80208182: 63 0f b5 00  	beq	a0, a1, 0x802081a0 <_ZN5alloc7raw_vec19RawVec$LT$T$C$A$GT$8grow_one17h8175708f63d408c8E+0x48>
80208186: 09 a0        	j	0x80208188 <_ZN5alloc7raw_vec19RawVec$LT$T$C$A$GT$8grow_one17h8175708f63d408c8E+0x30>
80208188: 03 35 84 fc  	ld	a0, -0x38(s0)
8020818c: 83 35 04 fd  	ld	a1, -0x30(s0)
80208190: 23 30 a4 fe  	sd	a0, -0x20(s0)
80208194: 23 34 b4 fe  	sd	a1, -0x18(s0)
80208198: 97 50 01 00  	auipc	ra, 0x15
8020819c: e7 80 40 72  	jalr	0x724(ra) <_ZN5alloc7raw_vec12handle_error17h632f19c56c69cc5bE>
802081a0: e2 70        	ld	ra, 0x38(sp)
802081a2: 42 74        	ld	s0, 0x30(sp)
802081a4: 21 61        	addi	sp, sp, 0x40
802081a6: 82 80        	ret

00000000802081a8 <_ZN5alloc7raw_vec19RawVec$LT$T$C$A$GT$8grow_one17hb1604b869962fcccE>:
802081a8: 39 71        	addi	sp, sp, -0x40
802081aa: 06 fc        	sd	ra, 0x38(sp)
802081ac: 22 f8        	sd	s0, 0x30(sp)
802081ae: 80 00        	addi	s0, sp, 0x40
802081b0: 23 3c a4 fc  	sd	a0, -0x28(s0)
802081b4: 0c 61        	ld	a1, 0x0(a0)
802081b6: 05 46        	li	a2, 0x1
802081b8: 97 f0 ff ff  	auipc	ra, 0xfffff
802081bc: e7 80 c0 09  	jalr	0x9c(ra) <ekernel+0xffc80254>
802081c0: 23 34 a4 fc  	sd	a0, -0x38(s0)
802081c4: 23 38 b4 fc  	sd	a1, -0x30(s0)
802081c8: 03 35 84 fc  	ld	a0, -0x38(s0)
802081cc: fd 55        	li	a1, -0x1
802081ce: fe 15        	slli	a1, a1, 0x3f
802081d0: 85 05        	addi	a1, a1, 0x1
802081d2: 63 0f b5 00  	beq	a0, a1, 0x802081f0 <_ZN5alloc7raw_vec19RawVec$LT$T$C$A$GT$8grow_one17hb1604b869962fcccE+0x48>
802081d6: 09 a0        	j	0x802081d8 <_ZN5alloc7raw_vec19RawVec$LT$T$C$A$GT$8grow_one17hb1604b869962fcccE+0x30>
802081d8: 03 35 84 fc  	ld	a0, -0x38(s0)
802081dc: 83 35 04 fd  	ld	a1, -0x30(s0)
802081e0: 23 30 a4 fe  	sd	a0, -0x20(s0)
802081e4: 23 34 b4 fe  	sd	a1, -0x18(s0)
802081e8: 97 50 01 00  	auipc	ra, 0x15
802081ec: e7 80 40 6d  	jalr	0x6d4(ra) <_ZN5alloc7raw_vec12handle_error17h632f19c56c69cc5bE>
802081f0: e2 70        	ld	ra, 0x38(sp)
802081f2: 42 74        	ld	s0, 0x30(sp)
802081f4: 21 61        	addi	sp, sp, 0x40
802081f6: 82 80        	ret

00000000802081f8 <_ZN5alloc7raw_vec19RawVec$LT$T$C$A$GT$8grow_one17hc4246c48202e0989E>:
802081f8: 39 71        	addi	sp, sp, -0x40
802081fa: 06 fc        	sd	ra, 0x38(sp)
802081fc: 22 f8        	sd	s0, 0x30(sp)
802081fe: 80 00        	addi	s0, sp, 0x40
80208200: 23 3c a4 fc  	sd	a0, -0x28(s0)
80208204: 0c 61        	ld	a1, 0x0(a0)
80208206: 05 46        	li	a2, 0x1
80208208: 97 f0 ff ff  	auipc	ra, 0xfffff
8020820c: e7 80 c0 33  	jalr	0x33c(ra) <ekernel+0xffc80544>
80208210: 23 34 a4 fc  	sd	a0, -0x38(s0)
80208214: 23 38 b4 fc  	sd	a1, -0x30(s0)
80208218: 03 35 84 fc  	ld	a0, -0x38(s0)
8020821c: fd 55        	li	a1, -0x1
8020821e: fe 15        	slli	a1, a1, 0x3f
80208220: 85 05        	addi	a1, a1, 0x1
80208222: 63 0f b5 00  	beq	a0, a1, 0x80208240 <_ZN5alloc7raw_vec19RawVec$LT$T$C$A$GT$8grow_one17hc4246c48202e0989E+0x48>
80208226: 09 a0        	j	0x80208228 <_ZN5alloc7raw_vec19RawVec$LT$T$C$A$GT$8grow_one17hc4246c48202e0989E+0x30>
80208228: 03 35 84 fc  	ld	a0, -0x38(s0)
8020822c: 83 35 04 fd  	ld	a1, -0x30(s0)
80208230: 23 30 a4 fe  	sd	a0, -0x20(s0)
80208234: 23 34 b4 fe  	sd	a1, -0x18(s0)
80208238: 97 50 01 00  	auipc	ra, 0x15
8020823c: e7 80 40 68  	jalr	0x684(ra) <_ZN5alloc7raw_vec12handle_error17h632f19c56c69cc5bE>
80208240: e2 70        	ld	ra, 0x38(sp)
80208242: 42 74        	ld	s0, 0x30(sp)
80208244: 21 61        	addi	sp, sp, 0x40
80208246: 82 80        	ret

0000000080208248 <_ZN5alloc7raw_vec19RawVec$LT$T$C$A$GT$8grow_one17hd498d91fa45a5eafE>:
80208248: 39 71        	addi	sp, sp, -0x40
8020824a: 06 fc        	sd	ra, 0x38(sp)
8020824c: 22 f8        	sd	s0, 0x30(sp)
8020824e: 80 00        	addi	s0, sp, 0x40
80208250: 23 3c a4 fc  	sd	a0, -0x28(s0)
80208254: 0c 61        	ld	a1, 0x0(a0)
80208256: 05 46        	li	a2, 0x1
80208258: 97 f0 ff ff  	auipc	ra, 0xfffff
8020825c: e7 80 e0 5d  	jalr	0x5de(ra) <ekernel+0xffc80836>
80208260: 23 34 a4 fc  	sd	a0, -0x38(s0)
80208264: 23 38 b4 fc  	sd	a1, -0x30(s0)
80208268: 03 35 84 fc  	ld	a0, -0x38(s0)
8020826c: fd 55        	li	a1, -0x1
8020826e: fe 15        	slli	a1, a1, 0x3f
80208270: 85 05        	addi	a1, a1, 0x1
80208272: 63 0f b5 00  	beq	a0, a1, 0x80208290 <_ZN5alloc7raw_vec19RawVec$LT$T$C$A$GT$8grow_one17hd498d91fa45a5eafE+0x48>
80208276: 09 a0        	j	0x80208278 <_ZN5alloc7raw_vec19RawVec$LT$T$C$A$GT$8grow_one17hd498d91fa45a5eafE+0x30>
80208278: 03 35 84 fc  	ld	a0, -0x38(s0)
8020827c: 83 35 04 fd  	ld	a1, -0x30(s0)
80208280: 23 30 a4 fe  	sd	a0, -0x20(s0)
80208284: 23 34 b4 fe  	sd	a1, -0x18(s0)
80208288: 97 50 01 00  	auipc	ra, 0x15
8020828c: e7 80 40 63  	jalr	0x634(ra) <_ZN5alloc7raw_vec12handle_error17h632f19c56c69cc5bE>
80208290: e2 70        	ld	ra, 0x38(sp)
80208292: 42 74        	ld	s0, 0x30(sp)
80208294: 21 61        	addi	sp, sp, 0x40
80208296: 82 80        	ret

0000000080208298 <_ZN75_$LT$usize$u20$as$u20$core..slice..index..SliceIndex$LT$$u5b$T$u5d$$GT$$GT$5index17h12fe6347edc99a9bE>:
80208298: 5d 71        	addi	sp, sp, -0x50
8020829a: 86 e4        	sd	ra, 0x48(sp)
8020829c: a2 e0        	sd	s0, 0x40(sp)
8020829e: 80 08        	addi	s0, sp, 0x50
802082a0: 23 3c d4 fa  	sd	a3, -0x48(s0)
802082a4: 23 30 c4 fc  	sd	a2, -0x40(s0)
802082a8: 23 34 b4 fc  	sd	a1, -0x38(s0)
802082ac: 23 38 a4 fc  	sd	a0, -0x30(s0)
802082b0: 23 3c a4 fc  	sd	a0, -0x28(s0)
802082b4: 23 30 b4 fe  	sd	a1, -0x20(s0)
802082b8: 23 34 c4 fe  	sd	a2, -0x18(s0)
802082bc: 63 70 c5 02  	bgeu	a0, a2, 0x802082dc <_ZN75_$LT$usize$u20$as$u20$core..slice..index..SliceIndex$LT$$u5b$T$u5d$$GT$$GT$5index17h12fe6347edc99a9bE+0x44>
802082c0: 09 a0        	j	0x802082c2 <_ZN75_$LT$usize$u20$as$u20$core..slice..index..SliceIndex$LT$$u5b$T$u5d$$GT$$GT$5index17h12fe6347edc99a9bE+0x2a>
802082c2: 03 35 84 fc  	ld	a0, -0x38(s0)
802082c6: 83 35 04 fd  	ld	a1, -0x30(s0)
802082ca: 13 06 00 0d  	li	a2, 0xd0
802082ce: b3 85 c5 02  	mul	a1, a1, a2
802082d2: 2e 95        	add	a0, a0, a1
802082d4: a6 60        	ld	ra, 0x48(sp)
802082d6: 06 64        	ld	s0, 0x40(sp)
802082d8: 61 61        	addi	sp, sp, 0x50
802082da: 82 80        	ret
802082dc: 03 36 84 fb  	ld	a2, -0x48(s0)
802082e0: 83 35 04 fc  	ld	a1, -0x40(s0)
802082e4: 03 35 04 fd  	ld	a0, -0x30(s0)
802082e8: 97 60 01 00  	auipc	ra, 0x16
802082ec: e7 80 00 8d  	jalr	-0x730(ra) <_ZN4core9panicking18panic_bounds_check17hb972d6a16c7a7b5eE>

00000000802082f0 <_ZN75_$LT$usize$u20$as$u20$core..slice..index..SliceIndex$LT$$u5b$T$u5d$$GT$$GT$9index_mut17h310447ed67a800ebE>:
802082f0: 5d 71        	addi	sp, sp, -0x50
802082f2: 86 e4        	sd	ra, 0x48(sp)
802082f4: a2 e0        	sd	s0, 0x40(sp)
802082f6: 80 08        	addi	s0, sp, 0x50
802082f8: 23 3c d4 fa  	sd	a3, -0x48(s0)
802082fc: 23 30 c4 fc  	sd	a2, -0x40(s0)
80208300: 23 34 b4 fc  	sd	a1, -0x38(s0)
80208304: 23 38 a4 fc  	sd	a0, -0x30(s0)
80208308: 23 3c a4 fc  	sd	a0, -0x28(s0)
8020830c: 23 30 b4 fe  	sd	a1, -0x20(s0)
80208310: 23 34 c4 fe  	sd	a2, -0x18(s0)
80208314: 63 70 c5 02  	bgeu	a0, a2, 0x80208334 <_ZN75_$LT$usize$u20$as$u20$core..slice..index..SliceIndex$LT$$u5b$T$u5d$$GT$$GT$9index_mut17h310447ed67a800ebE+0x44>
80208318: 09 a0        	j	0x8020831a <_ZN75_$LT$usize$u20$as$u20$core..slice..index..SliceIndex$LT$$u5b$T$u5d$$GT$$GT$9index_mut17h310447ed67a800ebE+0x2a>
8020831a: 03 35 84 fc  	ld	a0, -0x38(s0)
8020831e: 83 35 04 fd  	ld	a1, -0x30(s0)
80208322: 13 06 00 0d  	li	a2, 0xd0
80208326: b3 85 c5 02  	mul	a1, a1, a2
8020832a: 2e 95        	add	a0, a0, a1
8020832c: a6 60        	ld	ra, 0x48(sp)
8020832e: 06 64        	ld	s0, 0x40(sp)
80208330: 61 61        	addi	sp, sp, 0x50
80208332: 82 80        	ret
80208334: 03 36 84 fb  	ld	a2, -0x48(s0)
80208338: 83 35 04 fc  	ld	a1, -0x40(s0)
8020833c: 03 35 04 fd  	ld	a0, -0x30(s0)
80208340: 97 60 01 00  	auipc	ra, 0x16
80208344: e7 80 80 87  	jalr	-0x788(ra) <_ZN4core9panicking18panic_bounds_check17hb972d6a16c7a7b5eE>

0000000080208348 <_ZN2os4trap7context11TrapContext6set_sp17h7f95ba3771a43513E>:
80208348: 01 11        	addi	sp, sp, -0x20
8020834a: 06 ec        	sd	ra, 0x18(sp)
8020834c: 22 e8        	sd	s0, 0x10(sp)
8020834e: 00 10        	addi	s0, sp, 0x20
80208350: 23 30 a4 fe  	sd	a0, -0x20(s0)
80208354: 23 34 b4 fe  	sd	a1, -0x18(s0)
80208358: 0c e9        	sd	a1, 0x10(a0)
8020835a: e2 60        	ld	ra, 0x18(sp)
8020835c: 42 64        	ld	s0, 0x10(sp)
8020835e: 05 61        	addi	sp, sp, 0x20
80208360: 82 80        	ret

0000000080208362 <_ZN2os4trap7context11TrapContext16app_init_context17h1441e458e0ff8870E>:
80208362: 13 01 01 d3  	addi	sp, sp, -0x2d0
80208366: 23 34 11 2c  	sd	ra, 0x2c8(sp)
8020836a: 23 30 81 2c  	sd	s0, 0x2c0(sp)
8020836e: 80 0d        	addi	s0, sp, 0x2d0
80208370: 23 38 f4 d6  	sd	a5, -0x290(s0)
80208374: 23 34 e4 d6  	sd	a4, -0x298(s0)
80208378: 23 30 d4 d6  	sd	a3, -0x2a0(s0)
8020837c: 23 3c c4 d6  	sd	a2, -0x288(s0)
80208380: 23 3c b4 d4  	sd	a1, -0x2a8(s0)
80208384: 23 30 a4 d8  	sd	a0, -0x280(s0)
80208388: 23 34 b4 fc  	sd	a1, -0x38(s0)
8020838c: 23 38 c4 fc  	sd	a2, -0x30(s0)
80208390: 23 3c d4 fc  	sd	a3, -0x28(s0)
80208394: 23 30 e4 fe  	sd	a4, -0x20(s0)
80208398: 23 34 f4 fe  	sd	a5, -0x18(s0)
8020839c: 97 a0 ff ff  	auipc	ra, 0xffffa
802083a0: e7 80 c0 c7  	jalr	-0x384(ra) <ekernel+0xffc7b018>
802083a4: 23 38 a4 d8  	sd	a0, -0x270(s0)
802083a8: 01 45        	li	a0, 0x0
802083aa: 23 3c a4 d2  	sd	a0, -0x2c8(s0)
802083ae: a3 0f a4 d8  	sb	a0, -0x261(s0)
802083b2: 03 45 f4 d9  	lbu	a0, -0x261(s0)
802083b6: 93 75 15 00  	andi	a1, a0, 0x1
802083ba: 13 05 04 d9  	addi	a0, s0, -0x270
802083be: 97 a0 ff ff  	auipc	ra, 0xffffa
802083c2: e7 80 e0 c8  	jalr	-0x372(ra) <ekernel+0xffc7b04c>
802083c6: 83 35 84 d3  	ld	a1, -0x2c8(s0)
802083ca: 13 05 84 ec  	addi	a0, s0, -0x138
802083ce: 23 30 a4 d4  	sd	a0, -0x2c0(s0)
802083d2: 13 06 00 10  	li	a2, 0x100
802083d6: 23 34 c4 d4  	sd	a2, -0x2b8(s0)
802083da: 97 80 01 00  	auipc	ra, 0x18
802083de: e7 80 c0 65  	jalr	0x65c(ra) <memset>
802083e2: 83 35 04 d4  	ld	a1, -0x2c0(s0)
802083e6: 03 36 84 d4  	ld	a2, -0x2b8(s0)
802083ea: 03 35 04 d9  	ld	a0, -0x270(s0)
802083ee: 23 38 a4 d4  	sd	a0, -0x2b0(s0)
802083f2: 13 05 04 da  	addi	a0, s0, -0x260
802083f6: 23 34 a4 d8  	sd	a0, -0x278(s0)
802083fa: 97 80 01 00  	auipc	ra, 0x18
802083fe: e7 80 c0 35  	jalr	0x35c(ra) <memcpy>
80208402: 03 38 04 d5  	ld	a6, -0x2b0(s0)
80208406: 03 36 84 d5  	ld	a2, -0x2a8(s0)
8020840a: 83 36 04 d6  	ld	a3, -0x2a0(s0)
8020840e: 03 37 84 d6  	ld	a4, -0x298(s0)
80208412: 83 37 04 d7  	ld	a5, -0x290(s0)
80208416: 83 35 84 d7  	ld	a1, -0x288(s0)
8020841a: 03 35 84 d8  	ld	a0, -0x278(s0)
8020841e: 23 30 04 eb  	sd	a6, -0x160(s0)
80208422: 23 34 c4 ea  	sd	a2, -0x158(s0)
80208426: 23 38 d4 ea  	sd	a3, -0x150(s0)
8020842a: 23 3c e4 ea  	sd	a4, -0x148(s0)
8020842e: 23 30 f4 ec  	sd	a5, -0x140(s0)
80208432: 97 00 00 00  	auipc	ra, 0x0
80208436: e7 80 60 f1  	jalr	-0xea(ra) <_ZN2os4trap7context11TrapContext6set_sp17h7f95ba3771a43513E>
8020843a: 03 35 04 d8  	ld	a0, -0x280(s0)
8020843e: 83 35 84 d8  	ld	a1, -0x278(s0)
80208442: 13 06 80 12  	li	a2, 0x128
80208446: 97 80 01 00  	auipc	ra, 0x18
8020844a: e7 80 00 31  	jalr	0x310(ra) <memcpy>
8020844e: 83 30 81 2c  	ld	ra, 0x2c8(sp)
80208452: 03 34 01 2c  	ld	s0, 0x2c0(sp)
80208456: 13 01 01 2d  	addi	sp, sp, 0x2d0
8020845a: 82 80        	ret

000000008020845c <_ZN2os2mm14heap_allocator9init_heap17he17d1efc97c9b580E>:
8020845c: 75 71        	addi	sp, sp, -0x90
8020845e: 06 e5        	sd	ra, 0x88(sp)
80208460: 22 e1        	sd	s0, 0x80(sp)
80208462: 00 09        	addi	s0, sp, 0x90

0000000080208464 <.Lpcrel_hi0>:
80208464: 17 e5 37 00  	auipc	a0, 0x37e
80208468: 13 05 45 be  	addi	a0, a0, -0x41c
8020846c: 97 40 01 00  	auipc	ra, 0x14
80208470: e7 80 60 30  	jalr	0x306(ra) <_ZN78_$LT$buddy_system_allocator..LockedHeap$u20$as$u20$core..ops..deref..Deref$GT$5deref17heb54a4f1f3cb8a72E>
80208474: aa 85        	mv	a1, a0
80208476: 23 3c b4 f6  	sd	a1, -0x88(s0)
8020847a: 23 34 a4 fc  	sd	a0, -0x38(s0)
8020847e: 23 3c a4 fc  	sd	a0, -0x28(s0)
80208482: 81 45        	li	a1, 0x0
80208484: 23 0b b4 fc  	sb	a1, -0x2a(s0)
80208488: 03 46 64 fd  	lbu	a2, -0x2a(s0)
8020848c: 85 45        	li	a1, 0x1
8020848e: 97 d0 00 00  	auipc	ra, 0xd
80208492: e7 80 a0 4b  	jalr	0x4ba(ra) <_ZN4core4sync6atomic11AtomicUsize9fetch_add17ha835ed8f7622e90bE>
80208496: aa 85        	mv	a1, a0
80208498: 23 30 b4 f8  	sd	a1, -0x80(s0)
8020849c: 23 30 a4 fe  	sd	a0, -0x20(s0)
802084a0: 09 a0        	j	0x802084a2 <.Lpcrel_hi0+0x3e>
802084a2: 03 35 84 f7  	ld	a0, -0x88(s0)
802084a6: 21 05        	addi	a0, a0, 0x8
802084a8: 89 45        	li	a1, 0x2
802084aa: a3 0b b4 fc  	sb	a1, -0x29(s0)
802084ae: 83 45 74 fd  	lbu	a1, -0x29(s0)
802084b2: 97 d0 00 00  	auipc	ra, 0xd
802084b6: e7 80 20 47  	jalr	0x472(ra) <_ZN4core4sync6atomic11AtomicUsize4load17he8232243b691fb26E>
802084ba: 83 35 04 f8  	ld	a1, -0x80(s0)
802084be: 63 08 b5 00  	beq	a0, a1, 0x802084ce <.Lpcrel_hi0+0x6a>
802084c2: 09 a0        	j	0x802084c4 <.Lpcrel_hi0+0x60>
802084c4: 97 d0 00 00  	auipc	ra, 0xd
802084c8: e7 80 c0 52  	jalr	0x52c(ra) <_ZN4core4sync6atomic14spin_loop_hint17ha8bed88fe9e342c6E>
802084cc: d9 bf        	j	0x802084a2 <.Lpcrel_hi0+0x3e>
802084ce: 83 35 04 f8  	ld	a1, -0x80(s0)
802084d2: 03 35 84 f7  	ld	a0, -0x88(s0)
802084d6: 13 06 85 00  	addi	a2, a0, 0x8
802084da: 41 05        	addi	a0, a0, 0x10
802084dc: 23 34 a4 fe  	sd	a0, -0x18(s0)
802084e0: 23 38 c4 fa  	sd	a2, -0x50(s0)
802084e4: 23 30 b4 fc  	sd	a1, -0x40(s0)
802084e8: 23 3c a4 fa  	sd	a0, -0x48(s0)
802084ec: 03 35 04 fc  	ld	a0, -0x40(s0)
802084f0: 23 3c a4 f8  	sd	a0, -0x68(s0)
802084f4: 03 35 84 fb  	ld	a0, -0x48(s0)
802084f8: 23 38 a4 f8  	sd	a0, -0x70(s0)
802084fc: 03 35 04 fb  	ld	a0, -0x50(s0)
80208500: 23 34 a4 f8  	sd	a0, -0x78(s0)
80208504: 13 05 84 f8  	addi	a0, s0, -0x78
80208508: 23 38 a4 f6  	sd	a0, -0x90(s0)
8020850c: 97 30 01 00  	auipc	ra, 0x13
80208510: e7 80 a0 41  	jalr	0x41a(ra) <_ZN79_$LT$spin..mutex..MutexGuard$LT$T$GT$$u20$as$u20$core..ops..deref..DerefMut$GT$9deref_mut17hc3e3d7314f7fc88fE>

0000000080208514 <.Lpcrel_hi1>:
80208514: 97 e5 07 00  	auipc	a1, 0x7e
80208518: 93 85 45 b3  	addi	a1, a1, -0x4cc
8020851c: 23 30 b4 fa  	sd	a1, -0x60(s0)
80208520: 37 06 30 00  	lui	a2, 0x300
80208524: 23 34 c4 fa  	sd	a2, -0x58(s0)
80208528: 97 40 01 00  	auipc	ra, 0x14
8020852c: e7 80 40 a3  	jalr	-0x5cc(ra) <_ZN22buddy_system_allocator4Heap4init17h44f2a05dfdde98b3E>
80208530: 03 35 04 f7  	ld	a0, -0x90(s0)
80208534: 97 30 01 00  	auipc	ra, 0x13
80208538: e7 80 c0 03  	jalr	0x3c(ra) <_ZN4core3ptr80drop_in_place$LT$spin..mutex..MutexGuard$LT$buddy_system_allocator..Heap$GT$$GT$17h90c5c4a5ed54460bE>
8020853c: aa 60        	ld	ra, 0x88(sp)
8020853e: 0a 64        	ld	s0, 0x80(sp)
80208540: 49 61        	addi	sp, sp, 0x90
80208542: 82 80        	ret

0000000080208544 <__rust_alloc>:
80208544: 79 71        	addi	sp, sp, -0x30
80208546: 06 f4        	sd	ra, 0x28(sp)
80208548: 22 f0        	sd	s0, 0x20(sp)
8020854a: 00 18        	addi	s0, sp, 0x30
8020854c: 23 30 a4 fe  	sd	a0, -0x20(s0)
80208550: 23 34 b4 fe  	sd	a1, -0x18(s0)
80208554: 97 e0 ff ff  	auipc	ra, 0xffffe
80208558: e7 80 20 1b  	jalr	0x1b2(ra) <ekernel+0xffc7f706>
8020855c: 23 3c a4 fc  	sd	a0, -0x28(s0)
80208560: 2e 86        	mv	a2, a1
80208562: 83 35 84 fd  	ld	a1, -0x28(s0)

0000000080208566 <.Lpcrel_hi2>:
80208566: 17 e5 37 00  	auipc	a0, 0x37e
8020856a: 13 05 25 ae  	addi	a0, a0, -0x51e
8020856e: 97 40 01 00  	auipc	ra, 0x14
80208572: e7 80 80 21  	jalr	0x218(ra) <_ZN87_$LT$buddy_system_allocator..LockedHeap$u20$as$u20$core..alloc..global..GlobalAlloc$GT$5alloc17h0888dcb9f049e2abE>
80208576: a2 70        	ld	ra, 0x28(sp)
80208578: 02 74        	ld	s0, 0x20(sp)
8020857a: 45 61        	addi	sp, sp, 0x30
8020857c: 82 80        	ret

000000008020857e <__rust_dealloc>:
8020857e: 39 71        	addi	sp, sp, -0x40
80208580: 06 fc        	sd	ra, 0x38(sp)
80208582: 22 f8        	sd	s0, 0x30(sp)
80208584: 80 00        	addi	s0, sp, 0x40
80208586: 23 30 c4 fc  	sd	a2, -0x40(s0)
8020858a: 2e 86        	mv	a2, a1
8020858c: 83 35 04 fc  	ld	a1, -0x40(s0)
80208590: 23 34 c4 fc  	sd	a2, -0x38(s0)
80208594: 2a 86        	mv	a2, a0
80208596: 03 35 84 fc  	ld	a0, -0x38(s0)
8020859a: 23 38 c4 fc  	sd	a2, -0x30(s0)
8020859e: 23 3c c4 fc  	sd	a2, -0x28(s0)
802085a2: 23 30 a4 fe  	sd	a0, -0x20(s0)
802085a6: 23 34 b4 fe  	sd	a1, -0x18(s0)
802085aa: 97 e0 ff ff  	auipc	ra, 0xffffe
802085ae: e7 80 c0 15  	jalr	0x15c(ra) <ekernel+0xffc7f706>
802085b2: 2a 86        	mv	a2, a0
802085b4: ae 86        	mv	a3, a1
802085b6: 83 35 04 fd  	ld	a1, -0x30(s0)

00000000802085ba <.Lpcrel_hi3>:
802085ba: 17 e5 37 00  	auipc	a0, 0x37e
802085be: 13 05 e5 a8  	addi	a0, a0, -0x572
802085c2: 97 40 01 00  	auipc	ra, 0x14
802085c6: e7 80 60 2d  	jalr	0x2d6(ra) <_ZN87_$LT$buddy_system_allocator..LockedHeap$u20$as$u20$core..alloc..global..GlobalAlloc$GT$7dealloc17h6024c6e33e238055E>
802085ca: e2 70        	ld	ra, 0x38(sp)
802085cc: 42 74        	ld	s0, 0x30(sp)
802085ce: 21 61        	addi	sp, sp, 0x40
802085d0: 82 80        	ret

00000000802085d2 <__rust_realloc>:
802085d2: 5d 71        	addi	sp, sp, -0x50
802085d4: 86 e4        	sd	ra, 0x48(sp)
802085d6: a2 e0        	sd	s0, 0x40(sp)
802085d8: 80 08        	addi	s0, sp, 0x50
802085da: 23 30 d4 fc  	sd	a3, -0x40(s0)
802085de: 23 38 c4 fa  	sd	a2, -0x50(s0)
802085e2: 2e 86        	mv	a2, a1
802085e4: 83 35 04 fb  	ld	a1, -0x50(s0)
802085e8: 23 3c c4 fa  	sd	a2, -0x48(s0)
802085ec: 2a 86        	mv	a2, a0
802085ee: 03 35 84 fb  	ld	a0, -0x48(s0)
802085f2: 23 34 c4 fc  	sd	a2, -0x38(s0)
802085f6: 23 38 c4 fc  	sd	a2, -0x30(s0)
802085fa: 23 3c a4 fc  	sd	a0, -0x28(s0)
802085fe: 23 30 b4 fe  	sd	a1, -0x20(s0)
80208602: 23 34 d4 fe  	sd	a3, -0x18(s0)
80208606: 97 e0 ff ff  	auipc	ra, 0xffffe
8020860a: e7 80 00 10  	jalr	0x100(ra) <ekernel+0xffc7f706>
8020860e: 03 37 04 fc  	ld	a4, -0x40(s0)
80208612: 2a 86        	mv	a2, a0
80208614: ae 86        	mv	a3, a1
80208616: 83 35 84 fc  	ld	a1, -0x38(s0)

000000008020861a <.Lpcrel_hi4>:
8020861a: 17 e5 37 00  	auipc	a0, 0x37e
8020861e: 13 05 e5 a2  	addi	a0, a0, -0x5d2
80208622: 97 c0 00 00  	auipc	ra, 0xc
80208626: e7 80 c0 e3  	jalr	-0x1c4(ra) <_ZN4core5alloc6global11GlobalAlloc7realloc17hb9525bacb40c3730E>
8020862a: a6 60        	ld	ra, 0x48(sp)
8020862c: 06 64        	ld	s0, 0x40(sp)
8020862e: 61 61        	addi	sp, sp, 0x50
80208630: 82 80        	ret

0000000080208632 <__rust_alloc_zeroed>:
80208632: 79 71        	addi	sp, sp, -0x30
80208634: 06 f4        	sd	ra, 0x28(sp)
80208636: 22 f0        	sd	s0, 0x20(sp)
80208638: 00 18        	addi	s0, sp, 0x30
8020863a: 23 30 a4 fe  	sd	a0, -0x20(s0)
8020863e: 23 34 b4 fe  	sd	a1, -0x18(s0)
80208642: 97 e0 ff ff  	auipc	ra, 0xffffe
80208646: e7 80 40 0c  	jalr	0xc4(ra) <ekernel+0xffc7f706>
8020864a: 23 3c a4 fc  	sd	a0, -0x28(s0)
8020864e: 2e 86        	mv	a2, a1
80208650: 83 35 84 fd  	ld	a1, -0x28(s0)

0000000080208654 <.Lpcrel_hi5>:
80208654: 17 e5 37 00  	auipc	a0, 0x37e
80208658: 13 05 45 9f  	addi	a0, a0, -0x60c
8020865c: 97 c0 00 00  	auipc	ra, 0xc
80208660: e7 80 20 d8  	jalr	-0x27e(ra) <_ZN4core5alloc6global11GlobalAlloc12alloc_zeroed17h9f326a6ace4ffaefE>
80208664: a2 70        	ld	ra, 0x28(sp)
80208666: 02 74        	ld	s0, 0x20(sp)
80208668: 45 61        	addi	sp, sp, 0x30
8020866a: 82 80        	ret

000000008020866c <_ZN2os2mm14heap_allocator18handle_alloc_error17hef0b10fd2691662cE>:
8020866c: 35 71        	addi	sp, sp, -0xa0
8020866e: 06 ed        	sd	ra, 0x98(sp)
80208670: 22 e9        	sd	s0, 0x90(sp)
80208672: 00 11        	addi	s0, sp, 0xa0
80208674: 23 38 a4 f6  	sd	a0, -0x90(s0)
80208678: 23 3c b4 f6  	sd	a1, -0x88(s0)
8020867c: 93 05 04 f7  	addi	a1, s0, -0x90
80208680: 23 30 b4 fe  	sd	a1, -0x20(s0)

0000000080208684 <.Lpcrel_hi6>:
80208684: 17 e5 ff ff  	auipc	a0, 0xffffe
80208688: 13 05 25 17  	addi	a0, a0, 0x172
8020868c: 23 34 a4 fe  	sd	a0, -0x18(s0)
80208690: 23 38 b4 fc  	sd	a1, -0x30(s0)
80208694: 23 3c a4 fc  	sd	a0, -0x28(s0)
80208698: 03 35 84 fd  	ld	a0, -0x28(s0)
8020869c: 23 34 a4 fc  	sd	a0, -0x38(s0)
802086a0: 03 35 04 fd  	ld	a0, -0x30(s0)
802086a4: 23 30 a4 fc  	sd	a0, -0x40(s0)
802086a8: 03 35 84 fc  	ld	a0, -0x38(s0)
802086ac: 23 3c a4 fa  	sd	a0, -0x48(s0)
802086b0: 03 35 04 fc  	ld	a0, -0x40(s0)
802086b4: 23 38 a4 fa  	sd	a0, -0x50(s0)

00000000802086b8 <.Lpcrel_hi7>:
802086b8: 17 a5 01 00  	auipc	a0, 0x1a
802086bc: 93 05 85 8d  	addi	a1, a0, -0x728
802086c0: 13 05 04 f8  	addi	a0, s0, -0x80
802086c4: 23 34 a4 f6  	sd	a0, -0x98(s0)
802086c8: 13 06 04 fb  	addi	a2, s0, -0x50
802086cc: 97 10 01 00  	auipc	ra, 0x11
802086d0: e7 80 c0 f6  	jalr	-0x94(ra) <_ZN4core3fmt9Arguments6new_v117h20b189657f1afc37E>
802086d4: 03 35 84 f6  	ld	a0, -0x98(s0)

00000000802086d8 <.Lpcrel_hi8>:
802086d8: 97 a5 01 00  	auipc	a1, 0x1a
802086dc: 93 85 05 8e  	addi	a1, a1, -0x720
802086e0: 97 50 01 00  	auipc	ra, 0x15
802086e4: e7 80 60 3d  	jalr	0x3d6(ra) <_ZN4core9panicking9panic_fmt17h62e38808e12e8cecE>

00000000802086e8 <__rg_oom>:
802086e8: 01 11        	addi	sp, sp, -0x20
802086ea: 06 ec        	sd	ra, 0x18(sp)
802086ec: 22 e8        	sd	s0, 0x10(sp)
802086ee: 00 10        	addi	s0, sp, 0x20
802086f0: 23 30 a4 fe  	sd	a0, -0x20(s0)
802086f4: 23 34 b4 fe  	sd	a1, -0x18(s0)
802086f8: 97 e0 ff ff  	auipc	ra, 0xffffe
802086fc: e7 80 e0 00  	jalr	0xe(ra) <ekernel+0xffc7f706>
80208700: 97 00 00 00  	auipc	ra, 0x0
80208704: e7 80 c0 f6  	jalr	-0x94(ra) <_ZN2os2mm14heap_allocator18handle_alloc_error17hef0b10fd2691662cE>

0000000080208708 <_ZN4core5panic10panic_info9PanicInfo7message17h58bf1681319d366aE>:
80208708: 5d 71        	addi	sp, sp, -0x50
8020870a: 86 e4        	sd	ra, 0x48(sp)
8020870c: a2 e0        	sd	s0, 0x40(sp)
8020870e: 80 08        	addi	s0, sp, 0x50
80208710: 23 38 b4 fa  	sd	a1, -0x50(s0)
80208714: aa 85        	mv	a1, a0
80208716: 03 35 04 fb  	ld	a0, -0x50(s0)
8020871a: 23 34 a4 fe  	sd	a0, -0x18(s0)
8020871e: 10 75        	ld	a2, 0x28(a0)
80208720: 23 30 c4 fe  	sd	a2, -0x20(s0)
80208724: 10 71        	ld	a2, 0x20(a0)
80208726: 23 3c c4 fc  	sd	a2, -0x28(s0)
8020872a: 10 6d        	ld	a2, 0x18(a0)
8020872c: 23 38 c4 fc  	sd	a2, -0x30(s0)
80208730: 10 69        	ld	a2, 0x10(a0)
80208732: 23 34 c4 fc  	sd	a2, -0x38(s0)
80208736: 10 65        	ld	a2, 0x8(a0)
80208738: 23 30 c4 fc  	sd	a2, -0x40(s0)
8020873c: 08 61        	ld	a0, 0x0(a0)
8020873e: 23 3c a4 fa  	sd	a0, -0x48(s0)
80208742: 03 35 04 fe  	ld	a0, -0x20(s0)
80208746: 88 f5        	sd	a0, 0x28(a1)
80208748: 03 35 84 fd  	ld	a0, -0x28(s0)
8020874c: 88 f1        	sd	a0, 0x20(a1)
8020874e: 03 35 04 fd  	ld	a0, -0x30(s0)
80208752: 88 ed        	sd	a0, 0x18(a1)
80208754: 03 35 84 fc  	ld	a0, -0x38(s0)
80208758: 88 e9        	sd	a0, 0x10(a1)
8020875a: 03 35 04 fc  	ld	a0, -0x40(s0)
8020875e: 88 e5        	sd	a0, 0x8(a1)
80208760: 03 35 84 fb  	ld	a0, -0x48(s0)
80208764: 88 e1        	sd	a0, 0x0(a1)
80208766: a6 60        	ld	ra, 0x48(sp)
80208768: 06 64        	ld	s0, 0x40(sp)
8020876a: 61 61        	addi	sp, sp, 0x50
8020876c: 82 80        	ret

000000008020876e <_ZN4core5panic10panic_info9PanicInfo8location17hc968a9752d0f35b4E>:
8020876e: 01 11        	addi	sp, sp, -0x20
80208770: 06 ec        	sd	ra, 0x18(sp)
80208772: 22 e8        	sd	s0, 0x10(sp)
80208774: 00 10        	addi	s0, sp, 0x20
80208776: 23 34 a4 fe  	sd	a0, -0x18(s0)
8020877a: 08 79        	ld	a0, 0x30(a0)
8020877c: 23 30 a4 fe  	sd	a0, -0x20(s0)
80208780: 03 35 04 fe  	ld	a0, -0x20(s0)
80208784: e2 60        	ld	ra, 0x18(sp)
80208786: 42 64        	ld	s0, 0x10(sp)
80208788: 05 61        	addi	sp, sp, 0x20
8020878a: 82 80        	ret

000000008020878c <_ZN76_$LT$core..panic..panic_info..PanicMessage$u20$as$u20$core..fmt..Display$GT$3fmt17h8502a4a96391f32aE>:
8020878c: 71 71        	addi	sp, sp, -0xb0
8020878e: 06 f5        	sd	ra, 0xa8(sp)
80208790: 22 f1        	sd	s0, 0xa0(sp)
80208792: 00 19        	addi	s0, sp, 0xb0
80208794: 23 38 b4 f4  	sd	a1, -0xb0(s0)
80208798: 23 30 a4 fa  	sd	a0, -0x60(s0)
8020879c: 23 34 b4 fa  	sd	a1, -0x58(s0)
802087a0: 0c 75        	ld	a1, 0x28(a0)
802087a2: 23 34 b4 f8  	sd	a1, -0x78(s0)
802087a6: 0c 71        	ld	a1, 0x20(a0)
802087a8: 23 30 b4 f8  	sd	a1, -0x80(s0)
802087ac: 0c 6d        	ld	a1, 0x18(a0)
802087ae: 23 3c b4 f6  	sd	a1, -0x88(s0)
802087b2: 0c 69        	ld	a1, 0x10(a0)
802087b4: 23 38 b4 f6  	sd	a1, -0x90(s0)
802087b8: 0c 65        	ld	a1, 0x8(a0)
802087ba: 23 34 b4 f6  	sd	a1, -0x98(s0)
802087be: 08 61        	ld	a0, 0x0(a0)
802087c0: 23 30 a4 f6  	sd	a0, -0xa0(s0)
802087c4: 13 05 04 f6  	addi	a0, s0, -0xa0
802087c8: 97 c0 ff ff  	auipc	ra, 0xffffc
802087cc: e7 80 a0 42  	jalr	0x42a(ra) <ekernel+0xffc7dbf2>
802087d0: 23 38 a4 f8  	sd	a0, -0x70(s0)
802087d4: 23 3c b4 f8  	sd	a1, -0x68(s0)
802087d8: 03 35 04 f9  	ld	a0, -0x70(s0)
802087dc: 1d c1        	beqz	a0, 0x80208802 <_ZN76_$LT$core..panic..panic_info..PanicMessage$u20$as$u20$core..fmt..Display$GT$3fmt17h8502a4a96391f32aE+0x76>
802087de: 09 a0        	j	0x802087e0 <_ZN76_$LT$core..panic..panic_info..PanicMessage$u20$as$u20$core..fmt..Display$GT$3fmt17h8502a4a96391f32aE+0x54>
802087e0: 83 36 04 f5  	ld	a3, -0xb0(s0)
802087e4: 83 35 04 f9  	ld	a1, -0x70(s0)
802087e8: 03 36 84 f9  	ld	a2, -0x68(s0)
802087ec: 23 38 b4 fa  	sd	a1, -0x50(s0)
802087f0: 23 3c c4 fa  	sd	a2, -0x48(s0)
802087f4: 88 72        	ld	a0, 0x20(a3)
802087f6: 94 76        	ld	a3, 0x28(a3)
802087f8: 94 6e        	ld	a3, 0x18(a3)
802087fa: 82 96        	jalr	a3
802087fc: a3 0f a4 f4  	sb	a0, -0xa1(s0)
80208800: b1 a0        	j	0x8020884c <_ZN76_$LT$core..panic..panic_info..PanicMessage$u20$as$u20$core..fmt..Display$GT$3fmt17h8502a4a96391f32aE+0xc0>
80208802: 83 35 04 f5  	ld	a1, -0xb0(s0)
80208806: 88 71        	ld	a0, 0x20(a1)
80208808: 8c 75        	ld	a1, 0x28(a1)
8020880a: 03 36 84 f8  	ld	a2, -0x78(s0)
8020880e: 23 34 c4 fe  	sd	a2, -0x18(s0)
80208812: 03 36 04 f8  	ld	a2, -0x80(s0)
80208816: 23 30 c4 fe  	sd	a2, -0x20(s0)
8020881a: 03 36 84 f7  	ld	a2, -0x88(s0)
8020881e: 23 3c c4 fc  	sd	a2, -0x28(s0)
80208822: 03 36 04 f7  	ld	a2, -0x90(s0)
80208826: 23 38 c4 fc  	sd	a2, -0x30(s0)
8020882a: 03 36 84 f6  	ld	a2, -0x98(s0)
8020882e: 23 34 c4 fc  	sd	a2, -0x38(s0)
80208832: 03 36 04 f6  	ld	a2, -0xa0(s0)
80208836: 23 30 c4 fc  	sd	a2, -0x40(s0)
8020883a: 13 06 04 fc  	addi	a2, s0, -0x40
8020883e: 97 60 01 00  	auipc	ra, 0x16
80208842: e7 80 e0 cf  	jalr	-0x302(ra) <_ZN4core3fmt5write17h15fc89594c97b366E>
80208846: a3 0f a4 f4  	sb	a0, -0xa1(s0)
8020884a: 09 a0        	j	0x8020884c <_ZN76_$LT$core..panic..panic_info..PanicMessage$u20$as$u20$core..fmt..Display$GT$3fmt17h8502a4a96391f32aE+0xc0>
8020884c: 03 45 f4 f5  	lbu	a0, -0xa1(s0)
80208850: 05 89        	andi	a0, a0, 0x1
80208852: aa 70        	ld	ra, 0xa8(sp)
80208854: 0a 74        	ld	s0, 0xa0(sp)
80208856: 4d 61        	addi	sp, sp, 0xb0
80208858: 82 80        	ret

000000008020885a <_ZN3log13__private_api3log17h75a2b3bf1597deeeE>:
8020885a: 19 71        	addi	sp, sp, -0x80
8020885c: 86 fc        	sd	ra, 0x78(sp)
8020885e: a2 f8        	sd	s0, 0x70(sp)
80208860: 00 01        	addi	s0, sp, 0x80
80208862: 23 38 d4 f8  	sd	a3, -0x70(s0)
80208866: 23 34 c4 f8  	sd	a2, -0x78(s0)
8020886a: 23 30 b4 fa  	sd	a1, -0x60(s0)
8020886e: 23 3c a4 f8  	sd	a0, -0x68(s0)
80208872: 23 34 b4 fa  	sd	a1, -0x58(s0)
80208876: 23 38 c4 fa  	sd	a2, -0x50(s0)
8020887a: 23 2c d4 fa  	sw	a3, -0x48(s0)
8020887e: 97 d0 00 00  	auipc	ra, 0xd
80208882: e7 80 40 d9  	jalr	-0x26c(ra) <_ZN3log13__private_api70_$LT$impl$u20$log..__private_api..sealed..KVs$u20$for$u20$$LP$$RP$$GT$8into_kvs17h47130d530ba139b4E>
80208886: 03 36 84 f8  	ld	a2, -0x78(s0)
8020888a: 83 36 04 f9  	ld	a3, -0x70(s0)
8020888e: 2a 87        	mv	a4, a0
80208890: 03 35 84 f9  	ld	a0, -0x68(s0)
80208894: ae 87        	mv	a5, a1
80208896: 83 35 04 fa  	ld	a1, -0x60(s0)
8020889a: 03 38 85 02  	ld	a6, 0x28(a0)
8020889e: 23 34 04 ff  	sd	a6, -0x18(s0)
802088a2: 03 38 05 02  	ld	a6, 0x20(a0)
802088a6: 23 30 04 ff  	sd	a6, -0x20(s0)
802088aa: 03 38 85 01  	ld	a6, 0x18(a0)
802088ae: 23 3c 04 fd  	sd	a6, -0x28(s0)
802088b2: 03 38 05 01  	ld	a6, 0x10(a0)
802088b6: 23 38 04 fd  	sd	a6, -0x30(s0)
802088ba: 03 38 85 00  	ld	a6, 0x8(a0)
802088be: 23 34 04 fd  	sd	a6, -0x38(s0)
802088c2: 08 61        	ld	a0, 0x0(a0)
802088c4: 23 30 a4 fc  	sd	a0, -0x40(s0)
802088c8: 13 05 04 fc  	addi	a0, s0, -0x40
802088cc: 97 50 01 00  	auipc	ra, 0x15
802088d0: e7 80 e0 c7  	jalr	-0x382(ra) <_ZN3log13__private_api8log_impl17h686f077ed5cdfeb2E>
802088d4: e6 70        	ld	ra, 0x78(sp)
802088d6: 46 74        	ld	s0, 0x70(sp)
802088d8: 09 61        	addi	sp, sp, 0x80
802088da: 82 80        	ret

00000000802088dc <_ZN4spin4once17Once$LT$T$C$R$GT$13try_call_once17h7cde375d586de29fE>:
802088dc: 5d 71        	addi	sp, sp, -0x50
802088de: 86 e4        	sd	ra, 0x48(sp)
802088e0: a2 e0        	sd	s0, 0x40(sp)
802088e2: 80 08        	addi	s0, sp, 0x50
802088e4: 23 3c a4 fa  	sd	a0, -0x48(s0)
802088e8: 23 3c a4 fc  	sd	a0, -0x28(s0)
802088ec: 81 45        	li	a1, 0x0
802088ee: a3 0b b4 fc  	sb	a1, -0x29(s0)
802088f2: 85 45        	li	a1, 0x1
802088f4: a3 0b b4 fc  	sb	a1, -0x29(s0)
802088f8: 97 00 00 00  	auipc	ra, 0x0
802088fc: e7 80 40 7e  	jalr	0x7e4(ra) <_ZN4spin4once17Once$LT$T$C$R$GT$3get17h856dd0df99dcbcadE>
80208900: 23 34 a4 fc  	sd	a0, -0x38(s0)
80208904: 03 35 84 fc  	ld	a0, -0x38(s0)
80208908: 09 c9        	beqz	a0, 0x8020891a <_ZN4spin4once17Once$LT$T$C$R$GT$13try_call_once17h7cde375d586de29fE+0x3e>
8020890a: 09 a0        	j	0x8020890c <_ZN4spin4once17Once$LT$T$C$R$GT$13try_call_once17h7cde375d586de29fE+0x30>
8020890c: 03 35 84 fc  	ld	a0, -0x38(s0)
80208910: 23 34 a4 fe  	sd	a0, -0x18(s0)
80208914: 23 30 a4 fc  	sd	a0, -0x40(s0)
80208918: 29 a8        	j	0x80208932 <_ZN4spin4once17Once$LT$T$C$R$GT$13try_call_once17h7cde375d586de29fE+0x56>
8020891a: 03 35 84 fb  	ld	a0, -0x48(s0)
8020891e: 81 45        	li	a1, 0x0
80208920: a3 0b b4 fc  	sb	a1, -0x29(s0)
80208924: 97 00 00 00  	auipc	ra, 0x0
80208928: e7 80 80 35  	jalr	0x358(ra) <_ZN4spin4once17Once$LT$T$C$R$GT$18try_call_once_slow17hbc7fa788fdeed8edE>
8020892c: 23 30 a4 fc  	sd	a0, -0x40(s0)
80208930: 09 a0        	j	0x80208932 <_ZN4spin4once17Once$LT$T$C$R$GT$13try_call_once17h7cde375d586de29fE+0x56>
80208932: 03 45 74 fd  	lbu	a0, -0x29(s0)
80208936: 05 89        	andi	a0, a0, 0x1
80208938: 01 e9        	bnez	a0, 0x80208948 <_ZN4spin4once17Once$LT$T$C$R$GT$13try_call_once17h7cde375d586de29fE+0x6c>
8020893a: 09 a0        	j	0x8020893c <_ZN4spin4once17Once$LT$T$C$R$GT$13try_call_once17h7cde375d586de29fE+0x60>
8020893c: 03 35 04 fc  	ld	a0, -0x40(s0)
80208940: a6 60        	ld	ra, 0x48(sp)
80208942: 06 64        	ld	s0, 0x40(sp)
80208944: 61 61        	addi	sp, sp, 0x50
80208946: 82 80        	ret
80208948: d5 bf        	j	0x8020893c <_ZN4spin4once17Once$LT$T$C$R$GT$13try_call_once17h7cde375d586de29fE+0x60>

000000008020894a <_ZN4spin4once17Once$LT$T$C$R$GT$13try_call_once17h86b60eec4912b3a7E>:
8020894a: 5d 71        	addi	sp, sp, -0x50
8020894c: 86 e4        	sd	ra, 0x48(sp)
8020894e: a2 e0        	sd	s0, 0x40(sp)
80208950: 80 08        	addi	s0, sp, 0x50
80208952: 23 3c a4 fa  	sd	a0, -0x48(s0)
80208956: 23 3c a4 fc  	sd	a0, -0x28(s0)
8020895a: 81 45        	li	a1, 0x0
8020895c: a3 0b b4 fc  	sb	a1, -0x29(s0)
80208960: 85 45        	li	a1, 0x1
80208962: a3 0b b4 fc  	sb	a1, -0x29(s0)
80208966: 97 00 00 00  	auipc	ra, 0x0
8020896a: e7 80 80 7e  	jalr	0x7e8(ra) <_ZN4spin4once17Once$LT$T$C$R$GT$3get17h96d08c9677906bf4E>
8020896e: 23 34 a4 fc  	sd	a0, -0x38(s0)
80208972: 03 35 84 fc  	ld	a0, -0x38(s0)
80208976: 09 c9        	beqz	a0, 0x80208988 <_ZN4spin4once17Once$LT$T$C$R$GT$13try_call_once17h86b60eec4912b3a7E+0x3e>
80208978: 09 a0        	j	0x8020897a <_ZN4spin4once17Once$LT$T$C$R$GT$13try_call_once17h86b60eec4912b3a7E+0x30>
8020897a: 03 35 84 fc  	ld	a0, -0x38(s0)
8020897e: 23 34 a4 fe  	sd	a0, -0x18(s0)
80208982: 23 30 a4 fc  	sd	a0, -0x40(s0)
80208986: 29 a8        	j	0x802089a0 <_ZN4spin4once17Once$LT$T$C$R$GT$13try_call_once17h86b60eec4912b3a7E+0x56>
80208988: 03 35 84 fb  	ld	a0, -0x48(s0)
8020898c: 81 45        	li	a1, 0x0
8020898e: a3 0b b4 fc  	sb	a1, -0x29(s0)
80208992: 97 00 00 00  	auipc	ra, 0x0
80208996: e7 80 40 09  	jalr	0x94(ra) <_ZN4spin4once17Once$LT$T$C$R$GT$18try_call_once_slow17h05317e505b08cfa3E>
8020899a: 23 30 a4 fc  	sd	a0, -0x40(s0)
8020899e: 09 a0        	j	0x802089a0 <_ZN4spin4once17Once$LT$T$C$R$GT$13try_call_once17h86b60eec4912b3a7E+0x56>
802089a0: 03 45 74 fd  	lbu	a0, -0x29(s0)
802089a4: 05 89        	andi	a0, a0, 0x1
802089a6: 01 e9        	bnez	a0, 0x802089b6 <_ZN4spin4once17Once$LT$T$C$R$GT$13try_call_once17h86b60eec4912b3a7E+0x6c>
802089a8: 09 a0        	j	0x802089aa <_ZN4spin4once17Once$LT$T$C$R$GT$13try_call_once17h86b60eec4912b3a7E+0x60>
802089aa: 03 35 04 fc  	ld	a0, -0x40(s0)
802089ae: a6 60        	ld	ra, 0x48(sp)
802089b0: 06 64        	ld	s0, 0x40(sp)
802089b2: 61 61        	addi	sp, sp, 0x50
802089b4: 82 80        	ret
802089b6: d5 bf        	j	0x802089aa <_ZN4spin4once17Once$LT$T$C$R$GT$13try_call_once17h86b60eec4912b3a7E+0x60>

00000000802089b8 <_ZN4spin4once17Once$LT$T$C$R$GT$13try_call_once17hb54a91a19d0ac61cE>:
802089b8: 5d 71        	addi	sp, sp, -0x50
802089ba: 86 e4        	sd	ra, 0x48(sp)
802089bc: a2 e0        	sd	s0, 0x40(sp)
802089be: 80 08        	addi	s0, sp, 0x50
802089c0: 23 3c a4 fa  	sd	a0, -0x48(s0)
802089c4: 23 3c a4 fc  	sd	a0, -0x28(s0)
802089c8: 81 45        	li	a1, 0x0
802089ca: a3 0b b4 fc  	sb	a1, -0x29(s0)
802089ce: 85 45        	li	a1, 0x1
802089d0: a3 0b b4 fc  	sb	a1, -0x29(s0)
802089d4: 97 00 00 00  	auipc	ra, 0x0
802089d8: e7 80 c0 7e  	jalr	0x7ec(ra) <_ZN4spin4once17Once$LT$T$C$R$GT$3get17hed0ee7f3daf4d017E>
802089dc: 23 34 a4 fc  	sd	a0, -0x38(s0)
802089e0: 03 35 84 fc  	ld	a0, -0x38(s0)
802089e4: 09 c9        	beqz	a0, 0x802089f6 <_ZN4spin4once17Once$LT$T$C$R$GT$13try_call_once17hb54a91a19d0ac61cE+0x3e>
802089e6: 09 a0        	j	0x802089e8 <_ZN4spin4once17Once$LT$T$C$R$GT$13try_call_once17hb54a91a19d0ac61cE+0x30>
802089e8: 03 35 84 fc  	ld	a0, -0x38(s0)
802089ec: 23 34 a4 fe  	sd	a0, -0x18(s0)
802089f0: 23 30 a4 fc  	sd	a0, -0x40(s0)
802089f4: 29 a8        	j	0x80208a0e <_ZN4spin4once17Once$LT$T$C$R$GT$13try_call_once17hb54a91a19d0ac61cE+0x56>
802089f6: 03 35 84 fb  	ld	a0, -0x48(s0)
802089fa: 81 45        	li	a1, 0x0
802089fc: a3 0b b4 fc  	sb	a1, -0x29(s0)
80208a00: 97 00 00 00  	auipc	ra, 0x0
80208a04: e7 80 20 4d  	jalr	0x4d2(ra) <_ZN4spin4once17Once$LT$T$C$R$GT$18try_call_once_slow17he0339b9521f48691E>
80208a08: 23 30 a4 fc  	sd	a0, -0x40(s0)
80208a0c: 09 a0        	j	0x80208a0e <_ZN4spin4once17Once$LT$T$C$R$GT$13try_call_once17hb54a91a19d0ac61cE+0x56>
80208a0e: 03 45 74 fd  	lbu	a0, -0x29(s0)
80208a12: 05 89        	andi	a0, a0, 0x1
80208a14: 01 e9        	bnez	a0, 0x80208a24 <_ZN4spin4once17Once$LT$T$C$R$GT$13try_call_once17hb54a91a19d0ac61cE+0x6c>
80208a16: 09 a0        	j	0x80208a18 <_ZN4spin4once17Once$LT$T$C$R$GT$13try_call_once17hb54a91a19d0ac61cE+0x60>
80208a18: 03 35 04 fc  	ld	a0, -0x40(s0)
80208a1c: a6 60        	ld	ra, 0x48(sp)
80208a1e: 06 64        	ld	s0, 0x40(sp)
80208a20: 61 61        	addi	sp, sp, 0x50
80208a22: 82 80        	ret
80208a24: d5 bf        	j	0x80208a18 <_ZN4spin4once17Once$LT$T$C$R$GT$13try_call_once17hb54a91a19d0ac61cE+0x60>

0000000080208a26 <_ZN4spin4once17Once$LT$T$C$R$GT$18try_call_once_slow17h05317e505b08cfa3E>:
80208a26: 2d 71        	addi	sp, sp, -0x120
80208a28: 06 ee        	sd	ra, 0x118(sp)
80208a2a: 22 ea        	sd	s0, 0x110(sp)
80208a2c: 00 12        	addi	s0, sp, 0x120
80208a2e: 23 3c a4 ee  	sd	a0, -0x108(s0)
80208a32: 23 30 a4 f8  	sd	a0, -0x80(s0)
80208a36: 01 45        	li	a0, 0x0
80208a38: a3 0f a4 f6  	sb	a0, -0x81(s0)
80208a3c: 05 45        	li	a0, 0x1
80208a3e: a3 0f a4 f6  	sb	a0, -0x81(s0)
80208a42: 09 a0        	j	0x80208a44 <_ZN4spin4once17Once$LT$T$C$R$GT$18try_call_once_slow17h05317e505b08cfa3E+0x1e>
80208a44: 03 35 84 ef  	ld	a0, -0x108(s0)
80208a48: 13 05 05 03  	addi	a0, a0, 0x30
80208a4c: 81 45        	li	a1, 0x0
80208a4e: 23 06 b4 f0  	sb	a1, -0xf4(s0)
80208a52: 85 45        	li	a1, 0x1
80208a54: a3 06 b4 f0  	sb	a1, -0xf3(s0)
80208a58: 89 45        	li	a1, 0x2
80208a5a: 23 07 b4 f0  	sb	a1, -0xf2(s0)
80208a5e: a3 07 b4 f0  	sb	a1, -0xf1(s0)
80208a62: 03 46 c4 f0  	lbu	a2, -0xf4(s0)
80208a66: 83 45 d4 f0  	lbu	a1, -0xf3(s0)
80208a6a: 83 46 e4 f0  	lbu	a3, -0xf2(s0)
80208a6e: 03 47 f4 f0  	lbu	a4, -0xf1(s0)
80208a72: 23 0d c4 fa  	sb	a2, -0x46(s0)
80208a76: a3 0d b4 fa  	sb	a1, -0x45(s0)
80208a7a: 23 30 a4 fc  	sd	a0, -0x40(s0)
80208a7e: a3 05 d4 fc  	sb	a3, -0x35(s0)
80208a82: 23 06 e4 fc  	sb	a4, -0x34(s0)
80208a86: 03 46 b4 fb  	lbu	a2, -0x45(s0)
80208a8a: 83 45 a4 fb  	lbu	a1, -0x46(s0)
80208a8e: 97 d0 00 00  	auipc	ra, 0xd
80208a92: e7 80 60 f7  	jalr	-0x8a(ra) <_ZN4core4sync6atomic8AtomicU816compare_exchange17h3e85c2432e51fcfeE>
80208a96: 05 89        	andi	a0, a0, 0x1
80208a98: 23 0f a4 fa  	sb	a0, -0x42(s0)
80208a9c: a3 0f b4 fa  	sb	a1, -0x41(s0)
80208aa0: 03 45 e4 fb  	lbu	a0, -0x42(s0)
80208aa4: 05 89        	andi	a0, a0, 0x1
80208aa6: 05 e1        	bnez	a0, 0x80208ac6 <_ZN4spin4once17Once$LT$T$C$R$GT$18try_call_once_slow17h05317e505b08cfa3E+0xa0>
80208aa8: 09 a0        	j	0x80208aaa <_ZN4spin4once17Once$LT$T$C$R$GT$18try_call_once_slow17h05317e505b08cfa3E+0x84>
80208aaa: 03 45 f4 fb  	lbu	a0, -0x41(s0)
80208aae: a3 06 a4 fc  	sb	a0, -0x33(s0)
80208ab2: 97 40 01 00  	auipc	ra, 0x14
80208ab6: e7 80 40 35  	jalr	0x354(ra) <_ZN4spin4once6status6Status13new_unchecked17h183a56836395cc2dE>
80208aba: a3 0e a4 fa  	sb	a0, -0x43(s0)
80208abe: 01 45        	li	a0, 0x0
80208ac0: 23 0e a4 fa  	sb	a0, -0x44(s0)
80208ac4: 39 a8        	j	0x80208ae2 <_ZN4spin4once17Once$LT$T$C$R$GT$18try_call_once_slow17h05317e505b08cfa3E+0xbc>
80208ac6: 03 45 f4 fb  	lbu	a0, -0x41(s0)
80208aca: 23 07 a4 fc  	sb	a0, -0x32(s0)
80208ace: 97 40 01 00  	auipc	ra, 0x14
80208ad2: e7 80 80 33  	jalr	0x338(ra) <_ZN4spin4once6status6Status13new_unchecked17h183a56836395cc2dE>
80208ad6: a3 0e a4 fa  	sb	a0, -0x43(s0)
80208ada: 05 45        	li	a0, 0x1
80208adc: 23 0e a4 fa  	sb	a0, -0x44(s0)
80208ae0: 09 a0        	j	0x80208ae2 <_ZN4spin4once17Once$LT$T$C$R$GT$18try_call_once_slow17h05317e505b08cfa3E+0xbc>
80208ae2: 83 45 c4 fb  	lbu	a1, -0x44(s0)
80208ae6: 03 45 d4 fb  	lbu	a0, -0x43(s0)
80208aea: 85 89        	andi	a1, a1, 0x1
80208aec: 23 05 b4 f0  	sb	a1, -0xf6(s0)
80208af0: a3 05 a4 f0  	sb	a0, -0xf5(s0)
80208af4: 03 45 a4 f0  	lbu	a0, -0xf6(s0)
80208af8: 05 89        	andi	a0, a0, 0x1
80208afa: 05 e9        	bnez	a0, 0x80208b2a <_ZN4spin4once17Once$LT$T$C$R$GT$18try_call_once_slow17h05317e505b08cfa3E+0x104>
80208afc: 09 a0        	j	0x80208afe <_ZN4spin4once17Once$LT$T$C$R$GT$18try_call_once_slow17h05317e505b08cfa3E+0xd8>
80208afe: 03 35 84 ef  	ld	a0, -0x108(s0)
80208b02: 83 45 b4 f0  	lbu	a1, -0xf5(s0)
80208b06: a3 07 b4 f8  	sb	a1, -0x71(s0)
80208b0a: 13 05 05 03  	addi	a0, a0, 0x30
80208b0e: 23 38 a4 ee  	sd	a0, -0x110(s0)
80208b12: 23 38 a4 f8  	sd	a0, -0x70(s0)
80208b16: 01 45        	li	a0, 0x0
80208b18: a3 0f a4 f6  	sb	a0, -0x81(s0)
80208b1c: 13 05 84 f1  	addi	a0, s0, -0xe8
80208b20: 97 10 00 00  	auipc	ra, 0x1
80208b24: e7 80 80 a2  	jalr	-0x5d8(ra) <_ZN4spin4once17Once$LT$T$C$R$GT$9call_once28_$u7b$$u7b$closure$u7d$$u7d$17h933f2004443fb336E>
80208b28: 05 a8        	j	0x80208b58 <_ZN4spin4once17Once$LT$T$C$R$GT$18try_call_once_slow17h05317e505b08cfa3E+0x132>
80208b2a: 03 45 b4 f0  	lbu	a0, -0xf5(s0)
80208b2e: 23 34 a4 ee  	sd	a0, -0x118(s0)
80208b32: 09 d9        	beqz	a0, 0x80208a44 <_ZN4spin4once17Once$LT$T$C$R$GT$18try_call_once_slow17h05317e505b08cfa3E+0x1e>
80208b34: 09 a0        	j	0x80208b36 <_ZN4spin4once17Once$LT$T$C$R$GT$18try_call_once_slow17h05317e505b08cfa3E+0x110>
80208b36: 03 35 84 ee  	ld	a0, -0x118(s0)
80208b3a: 13 75 f5 0f  	andi	a0, a0, 0xff
80208b3e: 85 45        	li	a1, 0x1
80208b40: 63 0d b5 0c  	beq	a0, a1, 0x80208c1a <_ZN4spin4once17Once$LT$T$C$R$GT$18try_call_once_slow17h05317e505b08cfa3E+0x1f4>
80208b44: 09 a0        	j	0x80208b46 <_ZN4spin4once17Once$LT$T$C$R$GT$18try_call_once_slow17h05317e505b08cfa3E+0x120>
80208b46: 03 35 84 ee  	ld	a0, -0x118(s0)
80208b4a: 13 75 f5 0f  	andi	a0, a0, 0xff
80208b4e: 89 45        	li	a1, 0x2
80208b50: 63 02 b5 0e  	beq	a0, a1, 0x80208c34 <_ZN4spin4once17Once$LT$T$C$R$GT$18try_call_once_slow17h05317e505b08cfa3E+0x20e>
80208b54: 09 a0        	j	0x80208b56 <_ZN4spin4once17Once$LT$T$C$R$GT$18try_call_once_slow17h05317e505b08cfa3E+0x130>
80208b56: c5 a8        	j	0x80208c46 <.Lpcrel_hi0>
80208b58: 03 36 84 ef  	ld	a2, -0x108(s0)
80208b5c: 03 35 04 ef  	ld	a0, -0x110(s0)
80208b60: 83 35 04 f4  	ld	a1, -0xc0(s0)
80208b64: 23 38 b4 f6  	sd	a1, -0x90(s0)
80208b68: 83 35 84 f3  	ld	a1, -0xc8(s0)
80208b6c: 23 34 b4 f6  	sd	a1, -0x98(s0)
80208b70: 83 35 04 f3  	ld	a1, -0xd0(s0)
80208b74: 23 30 b4 f6  	sd	a1, -0xa0(s0)
80208b78: 83 35 84 f2  	ld	a1, -0xd8(s0)
80208b7c: 23 3c b4 f4  	sd	a1, -0xa8(s0)
80208b80: 83 35 04 f2  	ld	a1, -0xe0(s0)
80208b84: 23 38 b4 f4  	sd	a1, -0xb0(s0)
80208b88: 83 35 84 f1  	ld	a1, -0xe8(s0)
80208b8c: 23 34 b4 f4  	sd	a1, -0xb8(s0)
80208b90: 23 38 c4 fa  	sd	a2, -0x50(s0)
80208b94: 23 30 c4 fa  	sd	a2, -0x60(s0)
80208b98: 23 34 c4 fa  	sd	a2, -0x58(s0)
80208b9c: 83 35 04 f7  	ld	a1, -0x90(s0)
80208ba0: 0c f6        	sd	a1, 0x28(a2)
80208ba2: 83 35 84 f6  	ld	a1, -0x98(s0)
80208ba6: 0c f2        	sd	a1, 0x20(a2)
80208ba8: 83 35 04 f6  	ld	a1, -0xa0(s0)
80208bac: 0c ee        	sd	a1, 0x18(a2)
80208bae: 83 35 84 f5  	ld	a1, -0xa8(s0)
80208bb2: 0c ea        	sd	a1, 0x10(a2)
80208bb4: 83 35 04 f5  	ld	a1, -0xb0(s0)
80208bb8: 0c e6        	sd	a1, 0x8(a2)
80208bba: 83 35 84 f4  	ld	a1, -0xb8(s0)
80208bbe: 0c e2        	sd	a1, 0x0(a2)
80208bc0: 97 20 00 00  	auipc	ra, 0x2
80208bc4: e7 80 20 73  	jalr	0x732(ra) <_ZN4core3mem6forget17h3896b1c4741b3e52E>
80208bc8: 03 35 84 ef  	ld	a0, -0x108(s0)
80208bcc: 13 05 05 03  	addi	a0, a0, 0x30
80208bd0: 89 45        	li	a1, 0x2
80208bd2: a3 0e b4 f6  	sb	a1, -0x83(s0)
80208bd6: 85 45        	li	a1, 0x1
80208bd8: 23 0f b4 f6  	sb	a1, -0x82(s0)
80208bdc: 83 45 d4 f7  	lbu	a1, -0x83(s0)
80208be0: 03 46 e4 f7  	lbu	a2, -0x82(s0)
80208be4: a3 0f b4 fc  	sb	a1, -0x21(s0)
80208be8: 23 30 a4 fe  	sd	a0, -0x20(s0)
80208bec: a3 07 c4 fe  	sb	a2, -0x11(s0)
80208bf0: 83 45 f4 fd  	lbu	a1, -0x21(s0)
80208bf4: 97 d0 00 00  	auipc	ra, 0xd
80208bf8: e7 80 40 e6  	jalr	-0x19c(ra) <_ZN4core4sync6atomic8AtomicU85store17h5921c9fc509dbccfE>
80208bfc: 03 35 84 ef  	ld	a0, -0x108(s0)
80208c00: 97 10 00 00  	auipc	ra, 0x1
80208c04: e7 80 00 99  	jalr	-0x670(ra) <_ZN4spin4once17Once$LT$T$C$R$GT$9force_get17h1baf64a3410216eeE>
80208c08: 23 30 a4 f0  	sd	a0, -0x100(s0)
80208c0c: 09 a0        	j	0x80208c0e <_ZN4spin4once17Once$LT$T$C$R$GT$18try_call_once_slow17h05317e505b08cfa3E+0x1e8>
80208c0e: 03 45 f4 f7  	lbu	a0, -0x81(s0)
80208c12: 05 89        	andi	a0, a0, 0x1
80208c14: 3d e1        	bnez	a0, 0x80208c7a <.Lpcrel_hi1+0x2c>
80208c16: a1 a8        	j	0x80208c6e <.Lpcrel_hi1+0x20>
80208c18: 00 00        	unimp
80208c1a: 03 35 84 ef  	ld	a0, -0x108(s0)
80208c1e: 97 00 00 00  	auipc	ra, 0x0
80208c22: e7 80 c0 6c  	jalr	0x6cc(ra) <_ZN4spin4once17Once$LT$T$C$R$GT$4poll17h9319cfa2234deb70E>
80208c26: 23 38 a4 f0  	sd	a0, -0xf0(s0)
80208c2a: 03 35 04 f1  	ld	a0, -0xf0(s0)
80208c2e: e3 0b 05 e0  	beqz	a0, 0x80208a44 <_ZN4spin4once17Once$LT$T$C$R$GT$18try_call_once_slow17h05317e505b08cfa3E+0x1e>
80208c32: 3d a0        	j	0x80208c60 <.Lpcrel_hi1+0x12>
80208c34: 03 35 84 ef  	ld	a0, -0x108(s0)
80208c38: 97 10 00 00  	auipc	ra, 0x1
80208c3c: e7 80 80 95  	jalr	-0x6a8(ra) <_ZN4spin4once17Once$LT$T$C$R$GT$9force_get17h1baf64a3410216eeE>
80208c40: 23 30 a4 f0  	sd	a0, -0x100(s0)
80208c44: e9 b7        	j	0x80208c0e <_ZN4spin4once17Once$LT$T$C$R$GT$18try_call_once_slow17h05317e505b08cfa3E+0x1e8>

0000000080208c46 <.Lpcrel_hi0>:
80208c46: 17 95 01 00  	auipc	a0, 0x19
80208c4a: 13 05 a5 38  	addi	a0, a0, 0x38a

0000000080208c4e <.Lpcrel_hi1>:
80208c4e: 97 95 01 00  	auipc	a1, 0x19
80208c52: 13 86 a5 3e  	addi	a2, a1, 0x3ea
80208c56: b5 45        	li	a1, 0xd
80208c58: 97 50 01 00  	auipc	ra, 0x15
80208c5c: e7 80 40 ee  	jalr	-0x11c(ra) <_ZN4core9panicking5panic17h351b32f4738cdea8E>
80208c60: 03 35 04 f1  	ld	a0, -0xf0(s0)
80208c64: 23 3c a4 f8  	sd	a0, -0x68(s0)
80208c68: 23 30 a4 f0  	sd	a0, -0x100(s0)
80208c6c: 4d b7        	j	0x80208c0e <_ZN4spin4once17Once$LT$T$C$R$GT$18try_call_once_slow17h05317e505b08cfa3E+0x1e8>
80208c6e: 03 35 04 f0  	ld	a0, -0x100(s0)
80208c72: f2 60        	ld	ra, 0x118(sp)
80208c74: 52 64        	ld	s0, 0x110(sp)
80208c76: 15 61        	addi	sp, sp, 0x120
80208c78: 82 80        	ret
80208c7a: d5 bf        	j	0x80208c6e <.Lpcrel_hi1+0x20>

0000000080208c7c <_ZN4spin4once17Once$LT$T$C$R$GT$18try_call_once_slow17hbc7fa788fdeed8edE>:
80208c7c: 2d 71        	addi	sp, sp, -0x120
80208c7e: 06 ee        	sd	ra, 0x118(sp)
80208c80: 22 ea        	sd	s0, 0x110(sp)
80208c82: 00 12        	addi	s0, sp, 0x120
80208c84: 23 3c a4 ee  	sd	a0, -0x108(s0)
80208c88: 23 30 a4 f8  	sd	a0, -0x80(s0)
80208c8c: 01 45        	li	a0, 0x0
80208c8e: a3 0f a4 f6  	sb	a0, -0x81(s0)
80208c92: 05 45        	li	a0, 0x1
80208c94: a3 0f a4 f6  	sb	a0, -0x81(s0)
80208c98: 09 a0        	j	0x80208c9a <_ZN4spin4once17Once$LT$T$C$R$GT$18try_call_once_slow17hbc7fa788fdeed8edE+0x1e>
80208c9a: 03 35 84 ef  	ld	a0, -0x108(s0)
80208c9e: 13 05 05 03  	addi	a0, a0, 0x30
80208ca2: 81 45        	li	a1, 0x0
80208ca4: 23 06 b4 f0  	sb	a1, -0xf4(s0)
80208ca8: 85 45        	li	a1, 0x1
80208caa: a3 06 b4 f0  	sb	a1, -0xf3(s0)
80208cae: 89 45        	li	a1, 0x2
80208cb0: 23 07 b4 f0  	sb	a1, -0xf2(s0)
80208cb4: a3 07 b4 f0  	sb	a1, -0xf1(s0)
80208cb8: 03 46 c4 f0  	lbu	a2, -0xf4(s0)
80208cbc: 83 45 d4 f0  	lbu	a1, -0xf3(s0)
80208cc0: 83 46 e4 f0  	lbu	a3, -0xf2(s0)
80208cc4: 03 47 f4 f0  	lbu	a4, -0xf1(s0)
80208cc8: 23 0d c4 fa  	sb	a2, -0x46(s0)
80208ccc: a3 0d b4 fa  	sb	a1, -0x45(s0)
80208cd0: 23 30 a4 fc  	sd	a0, -0x40(s0)
80208cd4: a3 05 d4 fc  	sb	a3, -0x35(s0)
80208cd8: 23 06 e4 fc  	sb	a4, -0x34(s0)
80208cdc: 03 46 b4 fb  	lbu	a2, -0x45(s0)
80208ce0: 83 45 a4 fb  	lbu	a1, -0x46(s0)
80208ce4: 97 d0 00 00  	auipc	ra, 0xd
80208ce8: e7 80 00 d2  	jalr	-0x2e0(ra) <_ZN4core4sync6atomic8AtomicU816compare_exchange17h3e85c2432e51fcfeE>
80208cec: 05 89        	andi	a0, a0, 0x1
80208cee: 23 0f a4 fa  	sb	a0, -0x42(s0)
80208cf2: a3 0f b4 fa  	sb	a1, -0x41(s0)
80208cf6: 03 45 e4 fb  	lbu	a0, -0x42(s0)
80208cfa: 05 89        	andi	a0, a0, 0x1
80208cfc: 05 e1        	bnez	a0, 0x80208d1c <_ZN4spin4once17Once$LT$T$C$R$GT$18try_call_once_slow17hbc7fa788fdeed8edE+0xa0>
80208cfe: 09 a0        	j	0x80208d00 <_ZN4spin4once17Once$LT$T$C$R$GT$18try_call_once_slow17hbc7fa788fdeed8edE+0x84>
80208d00: 03 45 f4 fb  	lbu	a0, -0x41(s0)
80208d04: a3 06 a4 fc  	sb	a0, -0x33(s0)
80208d08: 97 40 01 00  	auipc	ra, 0x14
80208d0c: e7 80 e0 0f  	jalr	0xfe(ra) <_ZN4spin4once6status6Status13new_unchecked17h183a56836395cc2dE>
80208d10: a3 0e a4 fa  	sb	a0, -0x43(s0)
80208d14: 01 45        	li	a0, 0x0
80208d16: 23 0e a4 fa  	sb	a0, -0x44(s0)
80208d1a: 39 a8        	j	0x80208d38 <_ZN4spin4once17Once$LT$T$C$R$GT$18try_call_once_slow17hbc7fa788fdeed8edE+0xbc>
80208d1c: 03 45 f4 fb  	lbu	a0, -0x41(s0)
80208d20: 23 07 a4 fc  	sb	a0, -0x32(s0)
80208d24: 97 40 01 00  	auipc	ra, 0x14
80208d28: e7 80 20 0e  	jalr	0xe2(ra) <_ZN4spin4once6status6Status13new_unchecked17h183a56836395cc2dE>
80208d2c: a3 0e a4 fa  	sb	a0, -0x43(s0)
80208d30: 05 45        	li	a0, 0x1
80208d32: 23 0e a4 fa  	sb	a0, -0x44(s0)
80208d36: 09 a0        	j	0x80208d38 <_ZN4spin4once17Once$LT$T$C$R$GT$18try_call_once_slow17hbc7fa788fdeed8edE+0xbc>
80208d38: 83 45 c4 fb  	lbu	a1, -0x44(s0)
80208d3c: 03 45 d4 fb  	lbu	a0, -0x43(s0)
80208d40: 85 89        	andi	a1, a1, 0x1
80208d42: 23 05 b4 f0  	sb	a1, -0xf6(s0)
80208d46: a3 05 a4 f0  	sb	a0, -0xf5(s0)
80208d4a: 03 45 a4 f0  	lbu	a0, -0xf6(s0)
80208d4e: 05 89        	andi	a0, a0, 0x1
80208d50: 05 e9        	bnez	a0, 0x80208d80 <_ZN4spin4once17Once$LT$T$C$R$GT$18try_call_once_slow17hbc7fa788fdeed8edE+0x104>
80208d52: 09 a0        	j	0x80208d54 <_ZN4spin4once17Once$LT$T$C$R$GT$18try_call_once_slow17hbc7fa788fdeed8edE+0xd8>
80208d54: 03 35 84 ef  	ld	a0, -0x108(s0)
80208d58: 83 45 b4 f0  	lbu	a1, -0xf5(s0)
80208d5c: a3 07 b4 f8  	sb	a1, -0x71(s0)
80208d60: 13 05 05 03  	addi	a0, a0, 0x30
80208d64: 23 38 a4 ee  	sd	a0, -0x110(s0)
80208d68: 23 38 a4 f8  	sd	a0, -0x70(s0)
80208d6c: 01 45        	li	a0, 0x0
80208d6e: a3 0f a4 f6  	sb	a0, -0x81(s0)
80208d72: 13 05 84 f1  	addi	a0, s0, -0xe8
80208d76: 97 00 00 00  	auipc	ra, 0x0
80208d7a: e7 80 a0 76  	jalr	0x76a(ra) <_ZN4spin4once17Once$LT$T$C$R$GT$9call_once28_$u7b$$u7b$closure$u7d$$u7d$17h6531bce7b3b677f1E>
80208d7e: 05 a8        	j	0x80208dae <_ZN4spin4once17Once$LT$T$C$R$GT$18try_call_once_slow17hbc7fa788fdeed8edE+0x132>
80208d80: 03 45 b4 f0  	lbu	a0, -0xf5(s0)
80208d84: 23 34 a4 ee  	sd	a0, -0x118(s0)
80208d88: 09 d9        	beqz	a0, 0x80208c9a <_ZN4spin4once17Once$LT$T$C$R$GT$18try_call_once_slow17hbc7fa788fdeed8edE+0x1e>
80208d8a: 09 a0        	j	0x80208d8c <_ZN4spin4once17Once$LT$T$C$R$GT$18try_call_once_slow17hbc7fa788fdeed8edE+0x110>
80208d8c: 03 35 84 ee  	ld	a0, -0x118(s0)
80208d90: 13 75 f5 0f  	andi	a0, a0, 0xff
80208d94: 85 45        	li	a1, 0x1
80208d96: 63 0d b5 0c  	beq	a0, a1, 0x80208e70 <_ZN4spin4once17Once$LT$T$C$R$GT$18try_call_once_slow17hbc7fa788fdeed8edE+0x1f4>
80208d9a: 09 a0        	j	0x80208d9c <_ZN4spin4once17Once$LT$T$C$R$GT$18try_call_once_slow17hbc7fa788fdeed8edE+0x120>
80208d9c: 03 35 84 ee  	ld	a0, -0x118(s0)
80208da0: 13 75 f5 0f  	andi	a0, a0, 0xff
80208da4: 89 45        	li	a1, 0x2
80208da6: 63 02 b5 0e  	beq	a0, a1, 0x80208e8a <_ZN4spin4once17Once$LT$T$C$R$GT$18try_call_once_slow17hbc7fa788fdeed8edE+0x20e>
80208daa: 09 a0        	j	0x80208dac <_ZN4spin4once17Once$LT$T$C$R$GT$18try_call_once_slow17hbc7fa788fdeed8edE+0x130>
80208dac: c5 a8        	j	0x80208e9c <.Lpcrel_hi2>
80208dae: 03 36 84 ef  	ld	a2, -0x108(s0)
80208db2: 03 35 04 ef  	ld	a0, -0x110(s0)
80208db6: 83 35 04 f4  	ld	a1, -0xc0(s0)
80208dba: 23 38 b4 f6  	sd	a1, -0x90(s0)
80208dbe: 83 35 84 f3  	ld	a1, -0xc8(s0)
80208dc2: 23 34 b4 f6  	sd	a1, -0x98(s0)
80208dc6: 83 35 04 f3  	ld	a1, -0xd0(s0)
80208dca: 23 30 b4 f6  	sd	a1, -0xa0(s0)
80208dce: 83 35 84 f2  	ld	a1, -0xd8(s0)
80208dd2: 23 3c b4 f4  	sd	a1, -0xa8(s0)
80208dd6: 83 35 04 f2  	ld	a1, -0xe0(s0)
80208dda: 23 38 b4 f4  	sd	a1, -0xb0(s0)
80208dde: 83 35 84 f1  	ld	a1, -0xe8(s0)
80208de2: 23 34 b4 f4  	sd	a1, -0xb8(s0)
80208de6: 23 38 c4 fa  	sd	a2, -0x50(s0)
80208dea: 23 30 c4 fa  	sd	a2, -0x60(s0)
80208dee: 23 34 c4 fa  	sd	a2, -0x58(s0)
80208df2: 83 35 04 f7  	ld	a1, -0x90(s0)
80208df6: 0c f6        	sd	a1, 0x28(a2)
80208df8: 83 35 84 f6  	ld	a1, -0x98(s0)
80208dfc: 0c f2        	sd	a1, 0x20(a2)
80208dfe: 83 35 04 f6  	ld	a1, -0xa0(s0)
80208e02: 0c ee        	sd	a1, 0x18(a2)
80208e04: 83 35 84 f5  	ld	a1, -0xa8(s0)
80208e08: 0c ea        	sd	a1, 0x10(a2)
80208e0a: 83 35 04 f5  	ld	a1, -0xb0(s0)
80208e0e: 0c e6        	sd	a1, 0x8(a2)
80208e10: 83 35 84 f4  	ld	a1, -0xb8(s0)
80208e14: 0c e2        	sd	a1, 0x0(a2)
80208e16: 97 20 00 00  	auipc	ra, 0x2
80208e1a: e7 80 c0 4d  	jalr	0x4dc(ra) <_ZN4core3mem6forget17h3896b1c4741b3e52E>
80208e1e: 03 35 84 ef  	ld	a0, -0x108(s0)
80208e22: 13 05 05 03  	addi	a0, a0, 0x30
80208e26: 89 45        	li	a1, 0x2
80208e28: a3 0e b4 f6  	sb	a1, -0x83(s0)
80208e2c: 85 45        	li	a1, 0x1
80208e2e: 23 0f b4 f6  	sb	a1, -0x82(s0)
80208e32: 83 45 d4 f7  	lbu	a1, -0x83(s0)
80208e36: 03 46 e4 f7  	lbu	a2, -0x82(s0)
80208e3a: a3 0f b4 fc  	sb	a1, -0x21(s0)
80208e3e: 23 30 a4 fe  	sd	a0, -0x20(s0)
80208e42: a3 07 c4 fe  	sb	a2, -0x11(s0)
80208e46: 83 45 f4 fd  	lbu	a1, -0x21(s0)
80208e4a: 97 d0 00 00  	auipc	ra, 0xd
80208e4e: e7 80 e0 c0  	jalr	-0x3f2(ra) <_ZN4core4sync6atomic8AtomicU85store17h5921c9fc509dbccfE>
80208e52: 03 35 84 ef  	ld	a0, -0x108(s0)
80208e56: 97 00 00 00  	auipc	ra, 0x0
80208e5a: e7 80 20 77  	jalr	0x772(ra) <_ZN4spin4once17Once$LT$T$C$R$GT$9force_get17hb6e3774730671ecfE>
80208e5e: 23 30 a4 f0  	sd	a0, -0x100(s0)
80208e62: 09 a0        	j	0x80208e64 <_ZN4spin4once17Once$LT$T$C$R$GT$18try_call_once_slow17hbc7fa788fdeed8edE+0x1e8>
80208e64: 03 45 f4 f7  	lbu	a0, -0x81(s0)
80208e68: 05 89        	andi	a0, a0, 0x1
80208e6a: 3d e1        	bnez	a0, 0x80208ed0 <.Lpcrel_hi3+0x2c>
80208e6c: a1 a8        	j	0x80208ec4 <.Lpcrel_hi3+0x20>
80208e6e: 00 00        	unimp
80208e70: 03 35 84 ef  	ld	a0, -0x108(s0)
80208e74: 97 00 00 00  	auipc	ra, 0x0
80208e78: e7 80 20 53  	jalr	0x532(ra) <_ZN4spin4once17Once$LT$T$C$R$GT$4poll17ha192a022577d9f5dE>
80208e7c: 23 38 a4 f0  	sd	a0, -0xf0(s0)
80208e80: 03 35 04 f1  	ld	a0, -0xf0(s0)
80208e84: e3 0b 05 e0  	beqz	a0, 0x80208c9a <_ZN4spin4once17Once$LT$T$C$R$GT$18try_call_once_slow17hbc7fa788fdeed8edE+0x1e>
80208e88: 3d a0        	j	0x80208eb6 <.Lpcrel_hi3+0x12>
80208e8a: 03 35 84 ef  	ld	a0, -0x108(s0)
80208e8e: 97 00 00 00  	auipc	ra, 0x0
80208e92: e7 80 a0 73  	jalr	0x73a(ra) <_ZN4spin4once17Once$LT$T$C$R$GT$9force_get17hb6e3774730671ecfE>
80208e96: 23 30 a4 f0  	sd	a0, -0x100(s0)
80208e9a: e9 b7        	j	0x80208e64 <_ZN4spin4once17Once$LT$T$C$R$GT$18try_call_once_slow17hbc7fa788fdeed8edE+0x1e8>

0000000080208e9c <.Lpcrel_hi2>:
80208e9c: 17 95 01 00  	auipc	a0, 0x19
80208ea0: 13 05 45 13  	addi	a0, a0, 0x134

0000000080208ea4 <.Lpcrel_hi3>:
80208ea4: 97 95 01 00  	auipc	a1, 0x19
80208ea8: 13 86 45 19  	addi	a2, a1, 0x194
80208eac: b5 45        	li	a1, 0xd
80208eae: 97 50 01 00  	auipc	ra, 0x15
80208eb2: e7 80 e0 c8  	jalr	-0x372(ra) <_ZN4core9panicking5panic17h351b32f4738cdea8E>
80208eb6: 03 35 04 f1  	ld	a0, -0xf0(s0)
80208eba: 23 3c a4 f8  	sd	a0, -0x68(s0)
80208ebe: 23 30 a4 f0  	sd	a0, -0x100(s0)
80208ec2: 4d b7        	j	0x80208e64 <_ZN4spin4once17Once$LT$T$C$R$GT$18try_call_once_slow17hbc7fa788fdeed8edE+0x1e8>
80208ec4: 03 35 04 f0  	ld	a0, -0x100(s0)
80208ec8: f2 60        	ld	ra, 0x118(sp)
80208eca: 52 64        	ld	s0, 0x110(sp)
80208ecc: 15 61        	addi	sp, sp, 0x120
80208ece: 82 80        	ret
80208ed0: d5 bf        	j	0x80208ec4 <.Lpcrel_hi3+0x20>

0000000080208ed2 <_ZN4spin4once17Once$LT$T$C$R$GT$18try_call_once_slow17he0339b9521f48691E>:
80208ed2: 55 71        	addi	sp, sp, -0xd0
80208ed4: 86 e5        	sd	ra, 0xc8(sp)
80208ed6: a2 e1        	sd	s0, 0xc0(sp)
80208ed8: 80 09        	addi	s0, sp, 0xd0
80208eda: 23 30 a4 f4  	sd	a0, -0xc0(s0)
80208ede: 23 38 a4 f6  	sd	a0, -0x90(s0)
80208ee2: 01 45        	li	a0, 0x0
80208ee4: a3 07 a4 f6  	sb	a0, -0x91(s0)
80208ee8: 05 45        	li	a0, 0x1
80208eea: a3 07 a4 f6  	sb	a0, -0x91(s0)
80208eee: 09 a0        	j	0x80208ef0 <_ZN4spin4once17Once$LT$T$C$R$GT$18try_call_once_slow17he0339b9521f48691E+0x1e>
80208ef0: 03 35 04 f4  	ld	a0, -0xc0(s0)
80208ef4: 21 05        	addi	a0, a0, 0x8
80208ef6: 81 45        	li	a1, 0x0
80208ef8: 23 0a b4 f4  	sb	a1, -0xac(s0)
80208efc: 85 45        	li	a1, 0x1
80208efe: a3 0a b4 f4  	sb	a1, -0xab(s0)
80208f02: 89 45        	li	a1, 0x2
80208f04: 23 0b b4 f4  	sb	a1, -0xaa(s0)
80208f08: a3 0b b4 f4  	sb	a1, -0xa9(s0)
80208f0c: 03 46 44 f5  	lbu	a2, -0xac(s0)
80208f10: 83 45 54 f5  	lbu	a1, -0xab(s0)
80208f14: 83 46 64 f5  	lbu	a3, -0xaa(s0)
80208f18: 03 47 74 f5  	lbu	a4, -0xa9(s0)
80208f1c: 23 0d c4 fa  	sb	a2, -0x46(s0)
80208f20: a3 0d b4 fa  	sb	a1, -0x45(s0)
80208f24: 23 30 a4 fc  	sd	a0, -0x40(s0)
80208f28: a3 05 d4 fc  	sb	a3, -0x35(s0)
80208f2c: 23 06 e4 fc  	sb	a4, -0x34(s0)
80208f30: 03 46 b4 fb  	lbu	a2, -0x45(s0)
80208f34: 83 45 a4 fb  	lbu	a1, -0x46(s0)
80208f38: 97 d0 00 00  	auipc	ra, 0xd
80208f3c: e7 80 c0 ac  	jalr	-0x534(ra) <_ZN4core4sync6atomic8AtomicU816compare_exchange17h3e85c2432e51fcfeE>
80208f40: 05 89        	andi	a0, a0, 0x1
80208f42: 23 0f a4 fa  	sb	a0, -0x42(s0)
80208f46: a3 0f b4 fa  	sb	a1, -0x41(s0)
80208f4a: 03 45 e4 fb  	lbu	a0, -0x42(s0)
80208f4e: 05 89        	andi	a0, a0, 0x1
80208f50: 05 e1        	bnez	a0, 0x80208f70 <_ZN4spin4once17Once$LT$T$C$R$GT$18try_call_once_slow17he0339b9521f48691E+0x9e>
80208f52: 09 a0        	j	0x80208f54 <_ZN4spin4once17Once$LT$T$C$R$GT$18try_call_once_slow17he0339b9521f48691E+0x82>
80208f54: 03 45 f4 fb  	lbu	a0, -0x41(s0)
80208f58: a3 06 a4 fc  	sb	a0, -0x33(s0)
80208f5c: 97 40 01 00  	auipc	ra, 0x14
80208f60: e7 80 a0 ea  	jalr	-0x156(ra) <_ZN4spin4once6status6Status13new_unchecked17h183a56836395cc2dE>
80208f64: a3 0e a4 fa  	sb	a0, -0x43(s0)
80208f68: 01 45        	li	a0, 0x0
80208f6a: 23 0e a4 fa  	sb	a0, -0x44(s0)
80208f6e: 39 a8        	j	0x80208f8c <_ZN4spin4once17Once$LT$T$C$R$GT$18try_call_once_slow17he0339b9521f48691E+0xba>
80208f70: 03 45 f4 fb  	lbu	a0, -0x41(s0)
80208f74: 23 07 a4 fc  	sb	a0, -0x32(s0)
80208f78: 97 40 01 00  	auipc	ra, 0x14
80208f7c: e7 80 e0 e8  	jalr	-0x172(ra) <_ZN4spin4once6status6Status13new_unchecked17h183a56836395cc2dE>
80208f80: a3 0e a4 fa  	sb	a0, -0x43(s0)
80208f84: 05 45        	li	a0, 0x1
80208f86: 23 0e a4 fa  	sb	a0, -0x44(s0)
80208f8a: 09 a0        	j	0x80208f8c <_ZN4spin4once17Once$LT$T$C$R$GT$18try_call_once_slow17he0339b9521f48691E+0xba>
80208f8c: 83 45 c4 fb  	lbu	a1, -0x44(s0)
80208f90: 03 45 d4 fb  	lbu	a0, -0x43(s0)
80208f94: 85 89        	andi	a1, a1, 0x1
80208f96: 23 09 b4 f4  	sb	a1, -0xae(s0)
80208f9a: a3 09 a4 f4  	sb	a0, -0xad(s0)
80208f9e: 03 45 24 f5  	lbu	a0, -0xae(s0)
80208fa2: 05 89        	andi	a0, a0, 0x1
80208fa4: 1d e5        	bnez	a0, 0x80208fd2 <_ZN4spin4once17Once$LT$T$C$R$GT$18try_call_once_slow17he0339b9521f48691E+0x100>
80208fa6: 09 a0        	j	0x80208fa8 <_ZN4spin4once17Once$LT$T$C$R$GT$18try_call_once_slow17he0339b9521f48691E+0xd6>
80208fa8: 03 35 04 f4  	ld	a0, -0xc0(s0)
80208fac: 83 45 34 f5  	lbu	a1, -0xad(s0)
80208fb0: a3 0f b4 f6  	sb	a1, -0x81(s0)
80208fb4: 21 05        	addi	a0, a0, 0x8
80208fb6: 23 3c a4 f2  	sd	a0, -0xc8(s0)
80208fba: 23 30 a4 f8  	sd	a0, -0x80(s0)
80208fbe: 01 45        	li	a0, 0x0
80208fc0: a3 07 a4 f6  	sb	a0, -0x91(s0)
80208fc4: 97 00 00 00  	auipc	ra, 0x0
80208fc8: e7 80 40 56  	jalr	0x564(ra) <_ZN4spin4once17Once$LT$T$C$R$GT$9call_once28_$u7b$$u7b$closure$u7d$$u7d$17h7c9f8b112de1ec29E>
80208fcc: 23 30 a4 f6  	sd	a0, -0xa0(s0)
80208fd0: 05 a8        	j	0x80209000 <_ZN4spin4once17Once$LT$T$C$R$GT$18try_call_once_slow17he0339b9521f48691E+0x12e>
80208fd2: 03 45 34 f5  	lbu	a0, -0xad(s0)
80208fd6: 23 38 a4 f2  	sd	a0, -0xd0(s0)
80208fda: 19 d9        	beqz	a0, 0x80208ef0 <_ZN4spin4once17Once$LT$T$C$R$GT$18try_call_once_slow17he0339b9521f48691E+0x1e>
80208fdc: 09 a0        	j	0x80208fde <_ZN4spin4once17Once$LT$T$C$R$GT$18try_call_once_slow17he0339b9521f48691E+0x10c>
80208fde: 03 35 04 f3  	ld	a0, -0xd0(s0)
80208fe2: 13 75 f5 0f  	andi	a0, a0, 0xff
80208fe6: 85 45        	li	a1, 0x1
80208fe8: 63 09 b5 08  	beq	a0, a1, 0x8020907a <_ZN4spin4once17Once$LT$T$C$R$GT$18try_call_once_slow17he0339b9521f48691E+0x1a8>
80208fec: 09 a0        	j	0x80208fee <_ZN4spin4once17Once$LT$T$C$R$GT$18try_call_once_slow17he0339b9521f48691E+0x11c>
80208fee: 03 35 04 f3  	ld	a0, -0xd0(s0)
80208ff2: 13 75 f5 0f  	andi	a0, a0, 0xff
80208ff6: 89 45        	li	a1, 0x2
80208ff8: 63 0e b5 08  	beq	a0, a1, 0x80209094 <_ZN4spin4once17Once$LT$T$C$R$GT$18try_call_once_slow17he0339b9521f48691E+0x1c2>
80208ffc: 09 a0        	j	0x80208ffe <_ZN4spin4once17Once$LT$T$C$R$GT$18try_call_once_slow17he0339b9521f48691E+0x12c>
80208ffe: 65 a0        	j	0x802090a6 <.Lpcrel_hi4>
80209000: 03 36 04 f4  	ld	a2, -0xc0(s0)
80209004: 03 35 84 f3  	ld	a0, -0xc8(s0)
80209008: 83 35 04 f6  	ld	a1, -0xa0(s0)
8020900c: 23 34 b4 f8  	sd	a1, -0x78(s0)
80209010: 23 38 c4 fa  	sd	a2, -0x50(s0)
80209014: 23 3c c4 f8  	sd	a2, -0x68(s0)
80209018: 23 30 c4 fa  	sd	a2, -0x60(s0)
8020901c: 23 34 b4 fa  	sd	a1, -0x58(s0)
80209020: 0c e2        	sd	a1, 0x0(a2)
80209022: 97 20 00 00  	auipc	ra, 0x2
80209026: e7 80 00 2d  	jalr	0x2d0(ra) <_ZN4core3mem6forget17h3896b1c4741b3e52E>
8020902a: 03 35 04 f4  	ld	a0, -0xc0(s0)
8020902e: 21 05        	addi	a0, a0, 0x8
80209030: 89 45        	li	a1, 0x2
80209032: a3 06 b4 f6  	sb	a1, -0x93(s0)
80209036: 85 45        	li	a1, 0x1
80209038: 23 07 b4 f6  	sb	a1, -0x92(s0)
8020903c: 83 45 d4 f6  	lbu	a1, -0x93(s0)
80209040: 03 46 e4 f6  	lbu	a2, -0x92(s0)
80209044: a3 0f b4 fc  	sb	a1, -0x21(s0)
80209048: 23 30 a4 fe  	sd	a0, -0x20(s0)
8020904c: a3 07 c4 fe  	sb	a2, -0x11(s0)
80209050: 83 45 f4 fd  	lbu	a1, -0x21(s0)
80209054: 97 d0 00 00  	auipc	ra, 0xd
80209058: e7 80 40 a0  	jalr	-0x5fc(ra) <_ZN4core4sync6atomic8AtomicU85store17h5921c9fc509dbccfE>
8020905c: 03 35 04 f4  	ld	a0, -0xc0(s0)
80209060: 97 00 00 00  	auipc	ra, 0x0
80209064: e7 80 c0 54  	jalr	0x54c(ra) <_ZN4spin4once17Once$LT$T$C$R$GT$9force_get17h7e00570da641ddb1E>
80209068: 23 34 a4 f4  	sd	a0, -0xb8(s0)
8020906c: 09 a0        	j	0x8020906e <_ZN4spin4once17Once$LT$T$C$R$GT$18try_call_once_slow17he0339b9521f48691E+0x19c>
8020906e: 03 45 f4 f6  	lbu	a0, -0x91(s0)
80209072: 05 89        	andi	a0, a0, 0x1
80209074: 3d e1        	bnez	a0, 0x802090da <.Lpcrel_hi5+0x2c>
80209076: a1 a8        	j	0x802090ce <.Lpcrel_hi5+0x20>
80209078: 00 00        	unimp
8020907a: 03 35 04 f4  	ld	a0, -0xc0(s0)
8020907e: 97 00 00 00  	auipc	ra, 0x0
80209082: e7 80 20 1b  	jalr	0x1b2(ra) <_ZN4spin4once17Once$LT$T$C$R$GT$4poll17h566c8e0b5bed89f8E>
80209086: 23 3c a4 f4  	sd	a0, -0xa8(s0)
8020908a: 03 35 84 f5  	ld	a0, -0xa8(s0)
8020908e: e3 01 05 e6  	beqz	a0, 0x80208ef0 <_ZN4spin4once17Once$LT$T$C$R$GT$18try_call_once_slow17he0339b9521f48691E+0x1e>
80209092: 3d a0        	j	0x802090c0 <.Lpcrel_hi5+0x12>
80209094: 03 35 04 f4  	ld	a0, -0xc0(s0)
80209098: 97 00 00 00  	auipc	ra, 0x0
8020909c: e7 80 40 51  	jalr	0x514(ra) <_ZN4spin4once17Once$LT$T$C$R$GT$9force_get17h7e00570da641ddb1E>
802090a0: 23 34 a4 f4  	sd	a0, -0xb8(s0)
802090a4: e9 b7        	j	0x8020906e <_ZN4spin4once17Once$LT$T$C$R$GT$18try_call_once_slow17he0339b9521f48691E+0x19c>

00000000802090a6 <.Lpcrel_hi4>:
802090a6: 17 95 01 00  	auipc	a0, 0x19
802090aa: 13 05 a5 f2  	addi	a0, a0, -0xd6

00000000802090ae <.Lpcrel_hi5>:
802090ae: 97 95 01 00  	auipc	a1, 0x19
802090b2: 13 86 a5 f8  	addi	a2, a1, -0x76
802090b6: b5 45        	li	a1, 0xd
802090b8: 97 50 01 00  	auipc	ra, 0x15
802090bc: e7 80 40 a8  	jalr	-0x57c(ra) <_ZN4core9panicking5panic17h351b32f4738cdea8E>
802090c0: 03 35 84 f5  	ld	a0, -0xa8(s0)
802090c4: 23 38 a4 f8  	sd	a0, -0x70(s0)
802090c8: 23 34 a4 f4  	sd	a0, -0xb8(s0)
802090cc: 4d b7        	j	0x8020906e <_ZN4spin4once17Once$LT$T$C$R$GT$18try_call_once_slow17he0339b9521f48691E+0x19c>
802090ce: 03 35 84 f4  	ld	a0, -0xb8(s0)
802090d2: ae 60        	ld	ra, 0xc8(sp)
802090d4: 0e 64        	ld	s0, 0xc0(sp)
802090d6: 69 61        	addi	sp, sp, 0xd0
802090d8: 82 80        	ret
802090da: d5 bf        	j	0x802090ce <.Lpcrel_hi5+0x20>

00000000802090dc <_ZN4spin4once17Once$LT$T$C$R$GT$3get17h856dd0df99dcbcadE>:
802090dc: 5d 71        	addi	sp, sp, -0x50
802090de: 86 e4        	sd	ra, 0x48(sp)
802090e0: a2 e0        	sd	s0, 0x40(sp)
802090e2: 80 08        	addi	s0, sp, 0x50
802090e4: 23 3c a4 fa  	sd	a0, -0x48(s0)
802090e8: 23 3c a4 fc  	sd	a0, -0x28(s0)
802090ec: 13 05 05 03  	addi	a0, a0, 0x30
802090f0: 89 45        	li	a1, 0x2
802090f2: 23 30 b4 fc  	sd	a1, -0x40(s0)
802090f6: a3 0b b4 fc  	sb	a1, -0x29(s0)
802090fa: 83 45 74 fd  	lbu	a1, -0x29(s0)
802090fe: 23 30 a4 fe  	sd	a0, -0x20(s0)
80209102: a3 07 b4 fe  	sb	a1, -0x11(s0)
80209106: 97 d0 00 00  	auipc	ra, 0xd
8020910a: e7 80 e0 92  	jalr	-0x6d2(ra) <_ZN4core4sync6atomic8AtomicU84load17h73731967f4ab83d3E>
8020910e: 97 40 01 00  	auipc	ra, 0x14
80209112: e7 80 80 cf  	jalr	-0x308(ra) <_ZN4spin4once6status6Status13new_unchecked17h183a56836395cc2dE>
80209116: 83 35 04 fc  	ld	a1, -0x40(s0)
8020911a: 23 0b a4 fc  	sb	a0, -0x2a(s0)
8020911e: 03 45 64 fd  	lbu	a0, -0x2a(s0)
80209122: 63 1c b5 00  	bne	a0, a1, 0x8020913a <_ZN4spin4once17Once$LT$T$C$R$GT$3get17h856dd0df99dcbcadE+0x5e>
80209126: 09 a0        	j	0x80209128 <_ZN4spin4once17Once$LT$T$C$R$GT$3get17h856dd0df99dcbcadE+0x4c>
80209128: 03 35 84 fb  	ld	a0, -0x48(s0)
8020912c: 97 00 00 00  	auipc	ra, 0x0
80209130: e7 80 c0 49  	jalr	0x49c(ra) <_ZN4spin4once17Once$LT$T$C$R$GT$9force_get17hb6e3774730671ecfE>
80209134: 23 34 a4 fc  	sd	a0, -0x38(s0)
80209138: 29 a0        	j	0x80209142 <_ZN4spin4once17Once$LT$T$C$R$GT$3get17h856dd0df99dcbcadE+0x66>
8020913a: 01 45        	li	a0, 0x0
8020913c: 23 34 a4 fc  	sd	a0, -0x38(s0)
80209140: 09 a0        	j	0x80209142 <_ZN4spin4once17Once$LT$T$C$R$GT$3get17h856dd0df99dcbcadE+0x66>
80209142: 03 35 84 fc  	ld	a0, -0x38(s0)
80209146: a6 60        	ld	ra, 0x48(sp)
80209148: 06 64        	ld	s0, 0x40(sp)
8020914a: 61 61        	addi	sp, sp, 0x50
8020914c: 82 80        	ret

000000008020914e <_ZN4spin4once17Once$LT$T$C$R$GT$3get17h96d08c9677906bf4E>:
8020914e: 5d 71        	addi	sp, sp, -0x50
80209150: 86 e4        	sd	ra, 0x48(sp)
80209152: a2 e0        	sd	s0, 0x40(sp)
80209154: 80 08        	addi	s0, sp, 0x50
80209156: 23 3c a4 fa  	sd	a0, -0x48(s0)
8020915a: 23 3c a4 fc  	sd	a0, -0x28(s0)
8020915e: 13 05 05 03  	addi	a0, a0, 0x30
80209162: 89 45        	li	a1, 0x2
80209164: 23 30 b4 fc  	sd	a1, -0x40(s0)
80209168: a3 0b b4 fc  	sb	a1, -0x29(s0)
8020916c: 83 45 74 fd  	lbu	a1, -0x29(s0)
80209170: 23 30 a4 fe  	sd	a0, -0x20(s0)
80209174: a3 07 b4 fe  	sb	a1, -0x11(s0)
80209178: 97 d0 00 00  	auipc	ra, 0xd
8020917c: e7 80 c0 8b  	jalr	-0x744(ra) <_ZN4core4sync6atomic8AtomicU84load17h73731967f4ab83d3E>
80209180: 97 40 01 00  	auipc	ra, 0x14
80209184: e7 80 60 c8  	jalr	-0x37a(ra) <_ZN4spin4once6status6Status13new_unchecked17h183a56836395cc2dE>
80209188: 83 35 04 fc  	ld	a1, -0x40(s0)
8020918c: 23 0b a4 fc  	sb	a0, -0x2a(s0)
80209190: 03 45 64 fd  	lbu	a0, -0x2a(s0)
80209194: 63 1c b5 00  	bne	a0, a1, 0x802091ac <_ZN4spin4once17Once$LT$T$C$R$GT$3get17h96d08c9677906bf4E+0x5e>
80209198: 09 a0        	j	0x8020919a <_ZN4spin4once17Once$LT$T$C$R$GT$3get17h96d08c9677906bf4E+0x4c>
8020919a: 03 35 84 fb  	ld	a0, -0x48(s0)
8020919e: 97 00 00 00  	auipc	ra, 0x0
802091a2: e7 80 20 3f  	jalr	0x3f2(ra) <_ZN4spin4once17Once$LT$T$C$R$GT$9force_get17h1baf64a3410216eeE>
802091a6: 23 34 a4 fc  	sd	a0, -0x38(s0)
802091aa: 29 a0        	j	0x802091b4 <_ZN4spin4once17Once$LT$T$C$R$GT$3get17h96d08c9677906bf4E+0x66>
802091ac: 01 45        	li	a0, 0x0
802091ae: 23 34 a4 fc  	sd	a0, -0x38(s0)
802091b2: 09 a0        	j	0x802091b4 <_ZN4spin4once17Once$LT$T$C$R$GT$3get17h96d08c9677906bf4E+0x66>
802091b4: 03 35 84 fc  	ld	a0, -0x38(s0)
802091b8: a6 60        	ld	ra, 0x48(sp)
802091ba: 06 64        	ld	s0, 0x40(sp)
802091bc: 61 61        	addi	sp, sp, 0x50
802091be: 82 80        	ret

00000000802091c0 <_ZN4spin4once17Once$LT$T$C$R$GT$3get17hed0ee7f3daf4d017E>:
802091c0: 5d 71        	addi	sp, sp, -0x50
802091c2: 86 e4        	sd	ra, 0x48(sp)
802091c4: a2 e0        	sd	s0, 0x40(sp)
802091c6: 80 08        	addi	s0, sp, 0x50
802091c8: 23 3c a4 fa  	sd	a0, -0x48(s0)
802091cc: 23 3c a4 fc  	sd	a0, -0x28(s0)
802091d0: 21 05        	addi	a0, a0, 0x8
802091d2: 89 45        	li	a1, 0x2
802091d4: 23 30 b4 fc  	sd	a1, -0x40(s0)
802091d8: a3 0b b4 fc  	sb	a1, -0x29(s0)
802091dc: 83 45 74 fd  	lbu	a1, -0x29(s0)
802091e0: 23 30 a4 fe  	sd	a0, -0x20(s0)
802091e4: a3 07 b4 fe  	sb	a1, -0x11(s0)
802091e8: 97 d0 00 00  	auipc	ra, 0xd
802091ec: e7 80 c0 84  	jalr	-0x7b4(ra) <_ZN4core4sync6atomic8AtomicU84load17h73731967f4ab83d3E>
802091f0: 97 40 01 00  	auipc	ra, 0x14
802091f4: e7 80 60 c1  	jalr	-0x3ea(ra) <_ZN4spin4once6status6Status13new_unchecked17h183a56836395cc2dE>
802091f8: 83 35 04 fc  	ld	a1, -0x40(s0)
802091fc: 23 0b a4 fc  	sb	a0, -0x2a(s0)
80209200: 03 45 64 fd  	lbu	a0, -0x2a(s0)
80209204: 63 1c b5 00  	bne	a0, a1, 0x8020921c <_ZN4spin4once17Once$LT$T$C$R$GT$3get17hed0ee7f3daf4d017E+0x5c>
80209208: 09 a0        	j	0x8020920a <_ZN4spin4once17Once$LT$T$C$R$GT$3get17hed0ee7f3daf4d017E+0x4a>
8020920a: 03 35 84 fb  	ld	a0, -0x48(s0)
8020920e: 97 00 00 00  	auipc	ra, 0x0
80209212: e7 80 e0 39  	jalr	0x39e(ra) <_ZN4spin4once17Once$LT$T$C$R$GT$9force_get17h7e00570da641ddb1E>
80209216: 23 34 a4 fc  	sd	a0, -0x38(s0)
8020921a: 29 a0        	j	0x80209224 <_ZN4spin4once17Once$LT$T$C$R$GT$3get17hed0ee7f3daf4d017E+0x64>
8020921c: 01 45        	li	a0, 0x0
8020921e: 23 34 a4 fc  	sd	a0, -0x38(s0)
80209222: 09 a0        	j	0x80209224 <_ZN4spin4once17Once$LT$T$C$R$GT$3get17hed0ee7f3daf4d017E+0x64>
80209224: 03 35 84 fc  	ld	a0, -0x38(s0)
80209228: a6 60        	ld	ra, 0x48(sp)
8020922a: 06 64        	ld	s0, 0x40(sp)
8020922c: 61 61        	addi	sp, sp, 0x50
8020922e: 82 80        	ret

0000000080209230 <_ZN4spin4once17Once$LT$T$C$R$GT$4poll17h566c8e0b5bed89f8E>:
80209230: 5d 71        	addi	sp, sp, -0x50
80209232: 86 e4        	sd	ra, 0x48(sp)
80209234: a2 e0        	sd	s0, 0x40(sp)
80209236: 80 08        	addi	s0, sp, 0x50
80209238: 23 30 a4 fc  	sd	a0, -0x40(s0)
8020923c: 23 3c a4 fc  	sd	a0, -0x28(s0)
80209240: 09 a0        	j	0x80209242 <_ZN4spin4once17Once$LT$T$C$R$GT$4poll17h566c8e0b5bed89f8E+0x12>
80209242: 03 35 04 fc  	ld	a0, -0x40(s0)
80209246: 21 05        	addi	a0, a0, 0x8
80209248: 89 45        	li	a1, 0x2
8020924a: a3 0b b4 fc  	sb	a1, -0x29(s0)
8020924e: 83 45 74 fd  	lbu	a1, -0x29(s0)
80209252: 23 30 a4 fe  	sd	a0, -0x20(s0)
80209256: a3 07 b4 fe  	sb	a1, -0x11(s0)
8020925a: 97 c0 00 00  	auipc	ra, 0xc
8020925e: e7 80 a0 7d  	jalr	0x7da(ra) <_ZN4core4sync6atomic8AtomicU84load17h73731967f4ab83d3E>
80209262: 97 40 01 00  	auipc	ra, 0x14
80209266: e7 80 40 ba  	jalr	-0x45c(ra) <_ZN4spin4once6status6Status13new_unchecked17h183a56836395cc2dE>
8020926a: 23 0b a4 fc  	sb	a0, -0x2a(s0)
8020926e: 03 45 64 fd  	lbu	a0, -0x2a(s0)
80209272: 23 3c a4 fa  	sd	a0, -0x48(s0)
80209276: 05 c5        	beqz	a0, 0x8020929e <_ZN4spin4once17Once$LT$T$C$R$GT$4poll17h566c8e0b5bed89f8E+0x6e>
80209278: 09 a0        	j	0x8020927a <_ZN4spin4once17Once$LT$T$C$R$GT$4poll17h566c8e0b5bed89f8E+0x4a>
8020927a: 03 35 84 fb  	ld	a0, -0x48(s0)
8020927e: 13 75 f5 0f  	andi	a0, a0, 0xff
80209282: 85 45        	li	a1, 0x1
80209284: 63 01 b5 02  	beq	a0, a1, 0x802092a6 <_ZN4spin4once17Once$LT$T$C$R$GT$4poll17h566c8e0b5bed89f8E+0x76>
80209288: 09 a0        	j	0x8020928a <_ZN4spin4once17Once$LT$T$C$R$GT$4poll17h566c8e0b5bed89f8E+0x5a>
8020928a: 03 35 84 fb  	ld	a0, -0x48(s0)
8020928e: 13 75 f5 0f  	andi	a0, a0, 0xff
80209292: 89 45        	li	a1, 0x2
80209294: 63 0e b5 00  	beq	a0, a1, 0x802092b0 <_ZN4spin4once17Once$LT$T$C$R$GT$4poll17h566c8e0b5bed89f8E+0x80>
80209298: 09 a0        	j	0x8020929a <_ZN4spin4once17Once$LT$T$C$R$GT$4poll17h566c8e0b5bed89f8E+0x6a>
8020929a: 25 a0        	j	0x802092c2 <.Lpcrel_hi6>
8020929c: 00 00        	unimp
8020929e: 01 45        	li	a0, 0x0
802092a0: 23 34 a4 fc  	sd	a0, -0x38(s0)
802092a4: 2d a8        	j	0x802092de <.Lpcrel_hi7+0x14>
802092a6: 97 c0 00 00  	auipc	ra, 0xc
802092aa: e7 80 a0 74  	jalr	0x74a(ra) <_ZN4core4sync6atomic14spin_loop_hint17ha8bed88fe9e342c6E>
802092ae: 51 bf        	j	0x80209242 <_ZN4spin4once17Once$LT$T$C$R$GT$4poll17h566c8e0b5bed89f8E+0x12>
802092b0: 03 35 04 fc  	ld	a0, -0x40(s0)
802092b4: 97 00 00 00  	auipc	ra, 0x0
802092b8: e7 80 80 2f  	jalr	0x2f8(ra) <_ZN4spin4once17Once$LT$T$C$R$GT$9force_get17h7e00570da641ddb1E>
802092bc: 23 34 a4 fc  	sd	a0, -0x38(s0)
802092c0: 39 a8        	j	0x802092de <.Lpcrel_hi7+0x14>

00000000802092c2 <.Lpcrel_hi6>:
802092c2: 17 95 01 00  	auipc	a0, 0x19
802092c6: 13 05 e5 d8  	addi	a0, a0, -0x272

00000000802092ca <.Lpcrel_hi7>:
802092ca: 97 95 01 00  	auipc	a1, 0x19
802092ce: 13 86 e5 da  	addi	a2, a1, -0x252
802092d2: 93 05 60 02  	li	a1, 0x26
802092d6: 97 50 01 00  	auipc	ra, 0x15
802092da: e7 80 60 86  	jalr	-0x79a(ra) <_ZN4core9panicking5panic17h351b32f4738cdea8E>
802092de: 03 35 84 fc  	ld	a0, -0x38(s0)
802092e2: a6 60        	ld	ra, 0x48(sp)
802092e4: 06 64        	ld	s0, 0x40(sp)
802092e6: 61 61        	addi	sp, sp, 0x50
802092e8: 82 80        	ret

00000000802092ea <_ZN4spin4once17Once$LT$T$C$R$GT$4poll17h9319cfa2234deb70E>:
802092ea: 5d 71        	addi	sp, sp, -0x50
802092ec: 86 e4        	sd	ra, 0x48(sp)
802092ee: a2 e0        	sd	s0, 0x40(sp)
802092f0: 80 08        	addi	s0, sp, 0x50
802092f2: 23 30 a4 fc  	sd	a0, -0x40(s0)
802092f6: 23 3c a4 fc  	sd	a0, -0x28(s0)
802092fa: 09 a0        	j	0x802092fc <_ZN4spin4once17Once$LT$T$C$R$GT$4poll17h9319cfa2234deb70E+0x12>
802092fc: 03 35 04 fc  	ld	a0, -0x40(s0)
80209300: 13 05 05 03  	addi	a0, a0, 0x30
80209304: 89 45        	li	a1, 0x2
80209306: a3 0b b4 fc  	sb	a1, -0x29(s0)
8020930a: 83 45 74 fd  	lbu	a1, -0x29(s0)
8020930e: 23 30 a4 fe  	sd	a0, -0x20(s0)
80209312: a3 07 b4 fe  	sb	a1, -0x11(s0)
80209316: 97 c0 00 00  	auipc	ra, 0xc
8020931a: e7 80 e0 71  	jalr	0x71e(ra) <_ZN4core4sync6atomic8AtomicU84load17h73731967f4ab83d3E>
8020931e: 97 40 01 00  	auipc	ra, 0x14
80209322: e7 80 80 ae  	jalr	-0x518(ra) <_ZN4spin4once6status6Status13new_unchecked17h183a56836395cc2dE>
80209326: 23 0b a4 fc  	sb	a0, -0x2a(s0)
8020932a: 03 45 64 fd  	lbu	a0, -0x2a(s0)
8020932e: 23 3c a4 fa  	sd	a0, -0x48(s0)
80209332: 05 c5        	beqz	a0, 0x8020935a <_ZN4spin4once17Once$LT$T$C$R$GT$4poll17h9319cfa2234deb70E+0x70>
80209334: 09 a0        	j	0x80209336 <_ZN4spin4once17Once$LT$T$C$R$GT$4poll17h9319cfa2234deb70E+0x4c>
80209336: 03 35 84 fb  	ld	a0, -0x48(s0)
8020933a: 13 75 f5 0f  	andi	a0, a0, 0xff
8020933e: 85 45        	li	a1, 0x1
80209340: 63 01 b5 02  	beq	a0, a1, 0x80209362 <_ZN4spin4once17Once$LT$T$C$R$GT$4poll17h9319cfa2234deb70E+0x78>
80209344: 09 a0        	j	0x80209346 <_ZN4spin4once17Once$LT$T$C$R$GT$4poll17h9319cfa2234deb70E+0x5c>
80209346: 03 35 84 fb  	ld	a0, -0x48(s0)
8020934a: 13 75 f5 0f  	andi	a0, a0, 0xff
8020934e: 89 45        	li	a1, 0x2
80209350: 63 0e b5 00  	beq	a0, a1, 0x8020936c <_ZN4spin4once17Once$LT$T$C$R$GT$4poll17h9319cfa2234deb70E+0x82>
80209354: 09 a0        	j	0x80209356 <_ZN4spin4once17Once$LT$T$C$R$GT$4poll17h9319cfa2234deb70E+0x6c>
80209356: 25 a0        	j	0x8020937e <.Lpcrel_hi8>
80209358: 00 00        	unimp
8020935a: 01 45        	li	a0, 0x0
8020935c: 23 34 a4 fc  	sd	a0, -0x38(s0)
80209360: 2d a8        	j	0x8020939a <.Lpcrel_hi9+0x14>
80209362: 97 c0 00 00  	auipc	ra, 0xc
80209366: e7 80 e0 68  	jalr	0x68e(ra) <_ZN4core4sync6atomic14spin_loop_hint17ha8bed88fe9e342c6E>
8020936a: 49 bf        	j	0x802092fc <_ZN4spin4once17Once$LT$T$C$R$GT$4poll17h9319cfa2234deb70E+0x12>
8020936c: 03 35 04 fc  	ld	a0, -0x40(s0)
80209370: 97 00 00 00  	auipc	ra, 0x0
80209374: e7 80 00 22  	jalr	0x220(ra) <_ZN4spin4once17Once$LT$T$C$R$GT$9force_get17h1baf64a3410216eeE>
80209378: 23 34 a4 fc  	sd	a0, -0x38(s0)
8020937c: 39 a8        	j	0x8020939a <.Lpcrel_hi9+0x14>

000000008020937e <.Lpcrel_hi8>:
8020937e: 17 95 01 00  	auipc	a0, 0x19
80209382: 13 05 25 cd  	addi	a0, a0, -0x32e

0000000080209386 <.Lpcrel_hi9>:
80209386: 97 95 01 00  	auipc	a1, 0x19
8020938a: 13 86 25 cf  	addi	a2, a1, -0x30e
8020938e: 93 05 60 02  	li	a1, 0x26
80209392: 97 40 01 00  	auipc	ra, 0x14
80209396: e7 80 a0 7a  	jalr	0x7aa(ra) <_ZN4core9panicking5panic17h351b32f4738cdea8E>
8020939a: 03 35 84 fc  	ld	a0, -0x38(s0)
8020939e: a6 60        	ld	ra, 0x48(sp)
802093a0: 06 64        	ld	s0, 0x40(sp)
802093a2: 61 61        	addi	sp, sp, 0x50
802093a4: 82 80        	ret

00000000802093a6 <_ZN4spin4once17Once$LT$T$C$R$GT$4poll17ha192a022577d9f5dE>:
802093a6: 5d 71        	addi	sp, sp, -0x50
802093a8: 86 e4        	sd	ra, 0x48(sp)
802093aa: a2 e0        	sd	s0, 0x40(sp)
802093ac: 80 08        	addi	s0, sp, 0x50
802093ae: 23 30 a4 fc  	sd	a0, -0x40(s0)
802093b2: 23 3c a4 fc  	sd	a0, -0x28(s0)
802093b6: 09 a0        	j	0x802093b8 <_ZN4spin4once17Once$LT$T$C$R$GT$4poll17ha192a022577d9f5dE+0x12>
802093b8: 03 35 04 fc  	ld	a0, -0x40(s0)
802093bc: 13 05 05 03  	addi	a0, a0, 0x30
802093c0: 89 45        	li	a1, 0x2
802093c2: a3 0b b4 fc  	sb	a1, -0x29(s0)
802093c6: 83 45 74 fd  	lbu	a1, -0x29(s0)
802093ca: 23 30 a4 fe  	sd	a0, -0x20(s0)
802093ce: a3 07 b4 fe  	sb	a1, -0x11(s0)
802093d2: 97 c0 00 00  	auipc	ra, 0xc
802093d6: e7 80 20 66  	jalr	0x662(ra) <_ZN4core4sync6atomic8AtomicU84load17h73731967f4ab83d3E>
802093da: 97 40 01 00  	auipc	ra, 0x14
802093de: e7 80 c0 a2  	jalr	-0x5d4(ra) <_ZN4spin4once6status6Status13new_unchecked17h183a56836395cc2dE>
802093e2: 23 0b a4 fc  	sb	a0, -0x2a(s0)
802093e6: 03 45 64 fd  	lbu	a0, -0x2a(s0)
802093ea: 23 3c a4 fa  	sd	a0, -0x48(s0)
802093ee: 05 c5        	beqz	a0, 0x80209416 <_ZN4spin4once17Once$LT$T$C$R$GT$4poll17ha192a022577d9f5dE+0x70>
802093f0: 09 a0        	j	0x802093f2 <_ZN4spin4once17Once$LT$T$C$R$GT$4poll17ha192a022577d9f5dE+0x4c>
802093f2: 03 35 84 fb  	ld	a0, -0x48(s0)
802093f6: 13 75 f5 0f  	andi	a0, a0, 0xff
802093fa: 85 45        	li	a1, 0x1
802093fc: 63 01 b5 02  	beq	a0, a1, 0x8020941e <_ZN4spin4once17Once$LT$T$C$R$GT$4poll17ha192a022577d9f5dE+0x78>
80209400: 09 a0        	j	0x80209402 <_ZN4spin4once17Once$LT$T$C$R$GT$4poll17ha192a022577d9f5dE+0x5c>
80209402: 03 35 84 fb  	ld	a0, -0x48(s0)
80209406: 13 75 f5 0f  	andi	a0, a0, 0xff
8020940a: 89 45        	li	a1, 0x2
8020940c: 63 0e b5 00  	beq	a0, a1, 0x80209428 <_ZN4spin4once17Once$LT$T$C$R$GT$4poll17ha192a022577d9f5dE+0x82>
80209410: 09 a0        	j	0x80209412 <_ZN4spin4once17Once$LT$T$C$R$GT$4poll17ha192a022577d9f5dE+0x6c>
80209412: 25 a0        	j	0x8020943a <.Lpcrel_hi10>
80209414: 00 00        	unimp
80209416: 01 45        	li	a0, 0x0
80209418: 23 34 a4 fc  	sd	a0, -0x38(s0)
8020941c: 2d a8        	j	0x80209456 <.Lpcrel_hi11+0x14>
8020941e: 97 c0 00 00  	auipc	ra, 0xc
80209422: e7 80 20 5d  	jalr	0x5d2(ra) <_ZN4core4sync6atomic14spin_loop_hint17ha8bed88fe9e342c6E>
80209426: 49 bf        	j	0x802093b8 <_ZN4spin4once17Once$LT$T$C$R$GT$4poll17ha192a022577d9f5dE+0x12>
80209428: 03 35 04 fc  	ld	a0, -0x40(s0)
8020942c: 97 00 00 00  	auipc	ra, 0x0
80209430: e7 80 c0 19  	jalr	0x19c(ra) <_ZN4spin4once17Once$LT$T$C$R$GT$9force_get17hb6e3774730671ecfE>
80209434: 23 34 a4 fc  	sd	a0, -0x38(s0)
80209438: 39 a8        	j	0x80209456 <.Lpcrel_hi11+0x14>

000000008020943a <.Lpcrel_hi10>:
8020943a: 17 95 01 00  	auipc	a0, 0x19
8020943e: 13 05 65 c1  	addi	a0, a0, -0x3ea

0000000080209442 <.Lpcrel_hi11>:
80209442: 97 95 01 00  	auipc	a1, 0x19
80209446: 13 86 65 c3  	addi	a2, a1, -0x3ca
8020944a: 93 05 60 02  	li	a1, 0x26
8020944e: 97 40 01 00  	auipc	ra, 0x14
80209452: e7 80 e0 6e  	jalr	0x6ee(ra) <_ZN4core9panicking5panic17h351b32f4738cdea8E>
80209456: 03 35 84 fc  	ld	a0, -0x38(s0)
8020945a: a6 60        	ld	ra, 0x48(sp)
8020945c: 06 64        	ld	s0, 0x40(sp)
8020945e: 61 61        	addi	sp, sp, 0x50
80209460: 82 80        	ret

0000000080209462 <_ZN4spin4once17Once$LT$T$C$R$GT$9call_once17h2c5f18e916ecfd25E>:
80209462: 39 71        	addi	sp, sp, -0x40
80209464: 06 fc        	sd	ra, 0x38(sp)
80209466: 22 f8        	sd	s0, 0x30(sp)
80209468: 80 00        	addi	s0, sp, 0x40
8020946a: 23 3c a4 fc  	sd	a0, -0x28(s0)
8020946e: 97 f0 ff ff  	auipc	ra, 0xfffff
80209472: e7 80 e0 46  	jalr	0x46e(ra) <ekernel+0xffc818dc>
80209476: 23 38 a4 fc  	sd	a0, -0x30(s0)
8020947a: 09 a0        	j	0x8020947c <_ZN4spin4once17Once$LT$T$C$R$GT$9call_once17h2c5f18e916ecfd25E+0x1a>
8020947c: 03 35 04 fd  	ld	a0, -0x30(s0)
80209480: 23 34 a4 fe  	sd	a0, -0x18(s0)
80209484: e2 70        	ld	ra, 0x38(sp)
80209486: 42 74        	ld	s0, 0x30(sp)
80209488: 21 61        	addi	sp, sp, 0x40
8020948a: 82 80        	ret

000000008020948c <_ZN4spin4once17Once$LT$T$C$R$GT$9call_once17h9179e0b1b4a5bf8fE>:
8020948c: 39 71        	addi	sp, sp, -0x40
8020948e: 06 fc        	sd	ra, 0x38(sp)
80209490: 22 f8        	sd	s0, 0x30(sp)
80209492: 80 00        	addi	s0, sp, 0x40
80209494: 23 3c a4 fc  	sd	a0, -0x28(s0)
80209498: 97 f0 ff ff  	auipc	ra, 0xfffff
8020949c: e7 80 00 52  	jalr	0x520(ra) <ekernel+0xffc819b8>
802094a0: 23 38 a4 fc  	sd	a0, -0x30(s0)
802094a4: 09 a0        	j	0x802094a6 <_ZN4spin4once17Once$LT$T$C$R$GT$9call_once17h9179e0b1b4a5bf8fE+0x1a>
802094a6: 03 35 04 fd  	ld	a0, -0x30(s0)
802094aa: 23 34 a4 fe  	sd	a0, -0x18(s0)
802094ae: e2 70        	ld	ra, 0x38(sp)
802094b0: 42 74        	ld	s0, 0x30(sp)
802094b2: 21 61        	addi	sp, sp, 0x40
802094b4: 82 80        	ret

00000000802094b6 <_ZN4spin4once17Once$LT$T$C$R$GT$9call_once17h9dd8de7a9690857dE>:
802094b6: 39 71        	addi	sp, sp, -0x40
802094b8: 06 fc        	sd	ra, 0x38(sp)
802094ba: 22 f8        	sd	s0, 0x30(sp)
802094bc: 80 00        	addi	s0, sp, 0x40
802094be: 23 3c a4 fc  	sd	a0, -0x28(s0)
802094c2: 97 f0 ff ff  	auipc	ra, 0xfffff
802094c6: e7 80 80 48  	jalr	0x488(ra) <ekernel+0xffc8194a>
802094ca: 23 38 a4 fc  	sd	a0, -0x30(s0)
802094ce: 09 a0        	j	0x802094d0 <_ZN4spin4once17Once$LT$T$C$R$GT$9call_once17h9dd8de7a9690857dE+0x1a>
802094d0: 03 35 04 fd  	ld	a0, -0x30(s0)
802094d4: 23 34 a4 fe  	sd	a0, -0x18(s0)
802094d8: e2 70        	ld	ra, 0x38(sp)
802094da: 42 74        	ld	s0, 0x30(sp)
802094dc: 21 61        	addi	sp, sp, 0x40
802094de: 82 80        	ret

00000000802094e0 <_ZN4spin4once17Once$LT$T$C$R$GT$9call_once28_$u7b$$u7b$closure$u7d$$u7d$17h6531bce7b3b677f1E>:
802094e0: 5d 71        	addi	sp, sp, -0x50
802094e2: 86 e4        	sd	ra, 0x48(sp)
802094e4: a2 e0        	sd	s0, 0x40(sp)
802094e6: 80 08        	addi	s0, sp, 0x50
802094e8: 23 38 a4 fa  	sd	a0, -0x50(s0)
802094ec: 13 05 84 fb  	addi	a0, s0, -0x48
802094f0: 97 00 00 00  	auipc	ra, 0x0
802094f4: e7 80 00 20  	jalr	0x200(ra) <_ZN4core3ops8function6FnOnce9call_once17h82b31f706c191715E>
802094f8: 83 35 04 fb  	ld	a1, -0x50(s0)
802094fc: 03 35 04 fe  	ld	a0, -0x20(s0)
80209500: 88 f5        	sd	a0, 0x28(a1)
80209502: 03 35 84 fd  	ld	a0, -0x28(s0)
80209506: 88 f1        	sd	a0, 0x20(a1)
80209508: 03 35 04 fd  	ld	a0, -0x30(s0)
8020950c: 88 ed        	sd	a0, 0x18(a1)
8020950e: 03 35 84 fc  	ld	a0, -0x38(s0)
80209512: 88 e9        	sd	a0, 0x10(a1)
80209514: 03 35 04 fc  	ld	a0, -0x40(s0)
80209518: 88 e5        	sd	a0, 0x8(a1)
8020951a: 03 35 84 fb  	ld	a0, -0x48(s0)
8020951e: 88 e1        	sd	a0, 0x0(a1)
80209520: a6 60        	ld	ra, 0x48(sp)
80209522: 06 64        	ld	s0, 0x40(sp)
80209524: 61 61        	addi	sp, sp, 0x50
80209526: 82 80        	ret

0000000080209528 <_ZN4spin4once17Once$LT$T$C$R$GT$9call_once28_$u7b$$u7b$closure$u7d$$u7d$17h7c9f8b112de1ec29E>:
80209528: 01 11        	addi	sp, sp, -0x20
8020952a: 06 ec        	sd	ra, 0x18(sp)
8020952c: 22 e8        	sd	s0, 0x10(sp)
8020952e: 00 10        	addi	s0, sp, 0x20
80209530: 97 00 00 00  	auipc	ra, 0x0
80209534: e7 80 00 18  	jalr	0x180(ra) <_ZN4core3ops8function6FnOnce9call_once17h2397c0d1c45769f6E>
80209538: 23 30 a4 fe  	sd	a0, -0x20(s0)
8020953c: 03 35 04 fe  	ld	a0, -0x20(s0)
80209540: e2 60        	ld	ra, 0x18(sp)
80209542: 42 64        	ld	s0, 0x10(sp)
80209544: 05 61        	addi	sp, sp, 0x20
80209546: 82 80        	ret

0000000080209548 <_ZN4spin4once17Once$LT$T$C$R$GT$9call_once28_$u7b$$u7b$closure$u7d$$u7d$17h933f2004443fb336E>:
80209548: 5d 71        	addi	sp, sp, -0x50
8020954a: 86 e4        	sd	ra, 0x48(sp)
8020954c: a2 e0        	sd	s0, 0x40(sp)
8020954e: 80 08        	addi	s0, sp, 0x50
80209550: 23 38 a4 fa  	sd	a0, -0x50(s0)
80209554: 13 05 84 fb  	addi	a0, s0, -0x48
80209558: 97 00 00 00  	auipc	ra, 0x0
8020955c: e7 80 c0 1c  	jalr	0x1cc(ra) <_ZN4core3ops8function6FnOnce9call_once17haa482311a5a0daa5E>
80209560: 83 35 04 fb  	ld	a1, -0x50(s0)
80209564: 03 35 04 fe  	ld	a0, -0x20(s0)
80209568: 88 f5        	sd	a0, 0x28(a1)
8020956a: 03 35 84 fd  	ld	a0, -0x28(s0)
8020956e: 88 f1        	sd	a0, 0x20(a1)
80209570: 03 35 04 fd  	ld	a0, -0x30(s0)
80209574: 88 ed        	sd	a0, 0x18(a1)
80209576: 03 35 84 fc  	ld	a0, -0x38(s0)
8020957a: 88 e9        	sd	a0, 0x10(a1)
8020957c: 03 35 04 fc  	ld	a0, -0x40(s0)
80209580: 88 e5        	sd	a0, 0x8(a1)
80209582: 03 35 84 fb  	ld	a0, -0x48(s0)
80209586: 88 e1        	sd	a0, 0x0(a1)
80209588: a6 60        	ld	ra, 0x48(sp)
8020958a: 06 64        	ld	s0, 0x40(sp)
8020958c: 61 61        	addi	sp, sp, 0x50
8020958e: 82 80        	ret

0000000080209590 <_ZN4spin4once17Once$LT$T$C$R$GT$9force_get17h1baf64a3410216eeE>:
80209590: 79 71        	addi	sp, sp, -0x30
80209592: 06 f4        	sd	ra, 0x28(sp)
80209594: 22 f0        	sd	s0, 0x20(sp)
80209596: 00 18        	addi	s0, sp, 0x30
80209598: 23 3c a4 fc  	sd	a0, -0x28(s0)
8020959c: 23 34 a4 fe  	sd	a0, -0x18(s0)
802095a0: 23 30 a4 fe  	sd	a0, -0x20(s0)
802095a4: a2 70        	ld	ra, 0x28(sp)
802095a6: 02 74        	ld	s0, 0x20(sp)
802095a8: 45 61        	addi	sp, sp, 0x30
802095aa: 82 80        	ret

00000000802095ac <_ZN4spin4once17Once$LT$T$C$R$GT$9force_get17h7e00570da641ddb1E>:
802095ac: 79 71        	addi	sp, sp, -0x30
802095ae: 06 f4        	sd	ra, 0x28(sp)
802095b0: 22 f0        	sd	s0, 0x20(sp)
802095b2: 00 18        	addi	s0, sp, 0x30
802095b4: 23 3c a4 fc  	sd	a0, -0x28(s0)
802095b8: 23 34 a4 fe  	sd	a0, -0x18(s0)
802095bc: 23 30 a4 fe  	sd	a0, -0x20(s0)
802095c0: a2 70        	ld	ra, 0x28(sp)
802095c2: 02 74        	ld	s0, 0x20(sp)
802095c4: 45 61        	addi	sp, sp, 0x30
802095c6: 82 80        	ret

00000000802095c8 <_ZN4spin4once17Once$LT$T$C$R$GT$9force_get17hb6e3774730671ecfE>:
802095c8: 79 71        	addi	sp, sp, -0x30
802095ca: 06 f4        	sd	ra, 0x28(sp)
802095cc: 22 f0        	sd	s0, 0x20(sp)
802095ce: 00 18        	addi	s0, sp, 0x30
802095d0: 23 3c a4 fc  	sd	a0, -0x28(s0)
802095d4: 23 34 a4 fe  	sd	a0, -0x18(s0)
802095d8: 23 30 a4 fe  	sd	a0, -0x20(s0)
802095dc: a2 70        	ld	ra, 0x28(sp)
802095de: 02 74        	ld	s0, 0x20(sp)
802095e0: 45 61        	addi	sp, sp, 0x30
802095e2: 82 80        	ret

00000000802095e4 <__switch>:
802095e4: 23 34 25 00  	sd	sp, 0x8(a0)
802095e8: 23 30 15 00  	sd	ra, 0x0(a0)
802095ec: 00 e9        	sd	s0, 0x10(a0)
802095ee: 04 ed        	sd	s1, 0x18(a0)
802095f0: 23 30 25 03  	sd	s2, 0x20(a0)
802095f4: 23 34 35 03  	sd	s3, 0x28(a0)
802095f8: 23 38 45 03  	sd	s4, 0x30(a0)
802095fc: 23 3c 55 03  	sd	s5, 0x38(a0)
80209600: 23 30 65 05  	sd	s6, 0x40(a0)
80209604: 23 34 75 05  	sd	s7, 0x48(a0)
80209608: 23 38 85 05  	sd	s8, 0x50(a0)
8020960c: 23 3c 95 05  	sd	s9, 0x58(a0)
80209610: 23 30 a5 07  	sd	s10, 0x60(a0)
80209614: 23 34 b5 07  	sd	s11, 0x68(a0)
80209618: 83 b0 05 00  	ld	ra, 0x0(a1)
8020961c: 80 69        	ld	s0, 0x10(a1)
8020961e: 84 6d        	ld	s1, 0x18(a1)
80209620: 03 b9 05 02  	ld	s2, 0x20(a1)
80209624: 83 b9 85 02  	ld	s3, 0x28(a1)
80209628: 03 ba 05 03  	ld	s4, 0x30(a1)
8020962c: 83 ba 85 03  	ld	s5, 0x38(a1)
80209630: 03 bb 05 04  	ld	s6, 0x40(a1)
80209634: 83 bb 85 04  	ld	s7, 0x48(a1)
80209638: 03 bc 05 05  	ld	s8, 0x50(a1)
8020963c: 83 bc 85 05  	ld	s9, 0x58(a1)
80209640: 03 bd 05 06  	ld	s10, 0x60(a1)
80209644: 83 bd 85 06  	ld	s11, 0x68(a1)
80209648: 03 b1 85 00  	ld	sp, 0x8(a1)
8020964c: 82 80        	ret

000000008020964e <_ZN157_$LT$$LT$alloc..vec..into_iter..IntoIter$LT$T$C$A$GT$$u20$as$u20$core..ops..drop..Drop$GT$..drop..DropGuard$LT$T$C$A$GT$$u20$as$u20$core..ops..drop..Drop$GT$4drop17h3d06ccc6435411eaE>:
8020964e: 59 71        	addi	sp, sp, -0x70
80209650: 86 f4        	sd	ra, 0x68(sp)
80209652: a2 f0        	sd	s0, 0x60(sp)
80209654: 80 18        	addi	s0, sp, 0x70
80209656: 23 30 a4 fc  	sd	a0, -0x40(s0)
8020965a: 0c 61        	ld	a1, 0x0(a0)
8020965c: 93 85 05 02  	addi	a1, a1, 0x20
80209660: 23 38 b4 fc  	sd	a1, -0x30(s0)
80209664: 23 3c b4 fc  	sd	a1, -0x28(s0)
80209668: 0c 61        	ld	a1, 0x0(a0)
8020966a: 8c 61        	ld	a1, 0x0(a1)
8020966c: 23 3c b4 f8  	sd	a1, -0x68(s0)
80209670: 23 30 b4 fe  	sd	a1, -0x20(s0)
80209674: 08 61        	ld	a0, 0x0(a0)
80209676: 08 69        	ld	a0, 0x10(a0)
80209678: 23 30 a4 fa  	sd	a0, -0x60(s0)
8020967c: 23 34 a4 fe  	sd	a0, -0x18(s0)
80209680: 09 a0        	j	0x80209682 <_ZN157_$LT$$LT$alloc..vec..into_iter..IntoIter$LT$T$C$A$GT$$u20$as$u20$core..ops..drop..Drop$GT$..drop..DropGuard$LT$T$C$A$GT$$u20$as$u20$core..ops..drop..Drop$GT$4drop17h3d06ccc6435411eaE+0x34>
80209682: 03 35 04 fa  	ld	a0, -0x60(s0)
80209686: 23 3c a4 fa  	sd	a0, -0x48(s0)
8020968a: 09 a0        	j	0x8020968c <_ZN157_$LT$$LT$alloc..vec..into_iter..IntoIter$LT$T$C$A$GT$$u20$as$u20$core..ops..drop..Drop$GT$..drop..DropGuard$LT$T$C$A$GT$$u20$as$u20$core..ops..drop..Drop$GT$4drop17h3d06ccc6435411eaE+0x3e>
8020968c: 83 35 84 f9  	ld	a1, -0x68(s0)
80209690: 03 35 84 fb  	ld	a0, -0x48(s0)
80209694: 23 38 b4 fa  	sd	a1, -0x50(s0)
80209698: 23 34 a4 fa  	sd	a0, -0x58(s0)
8020969c: 13 05 84 fa  	addi	a0, s0, -0x58
802096a0: 97 00 00 00  	auipc	ra, 0x0
802096a4: e7 80 c0 37  	jalr	0x37c(ra) <_ZN4core3ptr75drop_in_place$LT$alloc..raw_vec..RawVec$LT$$RF$mut$u20$$u5b$u8$u5d$$GT$$GT$17h804bdc06dc087291E>
802096a8: a6 70        	ld	ra, 0x68(sp)
802096aa: 06 74        	ld	s0, 0x60(sp)
802096ac: 65 61        	addi	sp, sp, 0x70
802096ae: 82 80        	ret

00000000802096b0 <_ZN4core3ops8function6FnOnce9call_once17h2397c0d1c45769f6E>:
802096b0: 35 71        	addi	sp, sp, -0xa0
802096b2: 06 ed        	sd	ra, 0x98(sp)
802096b4: 22 e9        	sd	s0, 0x90(sp)
802096b6: 00 11        	addi	s0, sp, 0xa0
802096b8: 13 05 84 fb  	addi	a0, s0, -0x48
802096bc: 23 30 a4 f6  	sd	a0, -0xa0(s0)
802096c0: 97 90 ff ff  	auipc	ra, 0xffff9
802096c4: e7 80 20 03  	jalr	0x32(ra) <ekernel+0xffc7b6f2>
802096c8: 83 35 04 f6  	ld	a1, -0xa0(s0)
802096cc: 13 05 84 f7  	addi	a0, s0, -0x88
802096d0: 23 34 a4 f6  	sd	a0, -0x98(s0)
802096d4: 97 e0 00 00  	auipc	ra, 0xe
802096d8: e7 80 80 8b  	jalr	-0x748(ra) <_ZN2os4sync2up19UPSafeCell$LT$T$GT$3new17hec74310cb9b9be8aE>
802096dc: 03 35 84 f6  	ld	a0, -0x98(s0)
802096e0: 97 e0 00 00  	auipc	ra, 0xe
802096e4: e7 80 c0 96  	jalr	-0x694(ra) <_ZN5alloc4sync12Arc$LT$T$GT$3new17hb3ffd6559cbab485E>
802096e8: ea 60        	ld	ra, 0x98(sp)
802096ea: 4a 64        	ld	s0, 0x90(sp)
802096ec: 0d 61        	addi	sp, sp, 0xa0
802096ee: 82 80        	ret

00000000802096f0 <_ZN4core3ops8function6FnOnce9call_once17h82b31f706c191715E>:
802096f0: 5d 71        	addi	sp, sp, -0x50
802096f2: 86 e4        	sd	ra, 0x48(sp)
802096f4: a2 e0        	sd	s0, 0x40(sp)
802096f6: 80 08        	addi	s0, sp, 0x50
802096f8: 23 38 a4 fa  	sd	a0, -0x50(s0)
802096fc: 13 05 84 fc  	addi	a0, s0, -0x38
80209700: 23 3c a4 fa  	sd	a0, -0x48(s0)
80209704: 97 c0 ff ff  	auipc	ra, 0xffffc
80209708: e7 80 80 57  	jalr	0x578(ra) <ekernel+0xffc7ec7c>
8020970c: 03 35 04 fb  	ld	a0, -0x50(s0)
80209710: 83 35 84 fb  	ld	a1, -0x48(s0)
80209714: 97 d0 00 00  	auipc	ra, 0xd
80209718: e7 80 e0 7e  	jalr	0x7ee(ra) <_ZN2os4sync2up19UPSafeCell$LT$T$GT$3new17h38eddb1e398ea513E>
8020971c: a6 60        	ld	ra, 0x48(sp)
8020971e: 06 64        	ld	s0, 0x40(sp)
80209720: 61 61        	addi	sp, sp, 0x50
80209722: 82 80        	ret

0000000080209724 <_ZN4core3ops8function6FnOnce9call_once17haa482311a5a0daa5E>:
80209724: 13 01 01 da  	addi	sp, sp, -0x260
80209728: 23 3c 11 24  	sd	ra, 0x258(sp)
8020972c: 23 38 81 24  	sd	s0, 0x250(sp)
80209730: 80 14        	addi	s0, sp, 0x260
80209732: 23 3c a4 da  	sd	a0, -0x248(s0)

0000000080209736 <.Lpcrel_hi0>:
80209736: 17 95 01 00  	auipc	a0, 0x19
8020973a: 93 05 25 97  	addi	a1, a0, -0x68e
8020973e: 13 05 84 dd  	addi	a0, s0, -0x228
80209742: 23 30 a4 dc  	sd	a0, -0x240(s0)
80209746: 97 10 01 00  	auipc	ra, 0x11
8020974a: e7 80 80 70  	jalr	0x708(ra) <_ZN4core3fmt9Arguments9new_const17hdd0dcb54612202f7E>
8020974e: 03 35 04 dc  	ld	a0, -0x240(s0)
80209752: 97 d0 ff ff  	auipc	ra, 0xffffd
80209756: e7 80 e0 4b  	jalr	0x4be(ra) <ekernel+0xffc7fc10>
8020975a: 97 d0 00 00  	auipc	ra, 0xd
8020975e: e7 80 e0 bd  	jalr	-0x422(ra) <_ZN2os6loader11get_num_app17haa1062322b809eabE>
80209762: 23 34 a4 e0  	sd	a0, -0x1f8(s0)
80209766: 93 05 84 e0  	addi	a1, s0, -0x1f8
8020976a: 23 30 b4 fe  	sd	a1, -0x20(s0)

000000008020976e <.Lpcrel_hi1>:
8020976e: 17 75 01 00  	auipc	a0, 0x17
80209772: 13 05 a5 e8  	addi	a0, a0, -0x176
80209776: 23 34 a4 fe  	sd	a0, -0x18(s0)
8020977a: 23 38 b4 fc  	sd	a1, -0x30(s0)
8020977e: 23 3c a4 fc  	sd	a0, -0x28(s0)
80209782: 03 35 84 fd  	ld	a0, -0x28(s0)
80209786: 23 3c a4 e4  	sd	a0, -0x1a8(s0)
8020978a: 03 35 04 fd  	ld	a0, -0x30(s0)
8020978e: 23 38 a4 e4  	sd	a0, -0x1b0(s0)
80209792: 03 35 84 e5  	ld	a0, -0x1a8(s0)
80209796: 23 34 a4 e4  	sd	a0, -0x1b8(s0)
8020979a: 03 35 04 e5  	ld	a0, -0x1b0(s0)
8020979e: 23 30 a4 e4  	sd	a0, -0x1c0(s0)

00000000802097a2 <.Lpcrel_hi2>:
802097a2: 17 95 01 00  	auipc	a0, 0x19
802097a6: 93 05 65 92  	addi	a1, a0, -0x6da
802097aa: 13 05 04 e1  	addi	a0, s0, -0x1f0
802097ae: 23 34 a4 dc  	sd	a0, -0x238(s0)
802097b2: 13 06 04 e4  	addi	a2, s0, -0x1c0
802097b6: 97 00 01 00  	auipc	ra, 0x10
802097ba: e7 80 a0 ef  	jalr	-0x106(ra) <_ZN4core3fmt9Arguments6new_v117h842ab11dbe650809E>
802097be: 03 35 84 dc  	ld	a0, -0x238(s0)
802097c2: 97 d0 ff ff  	auipc	ra, 0xffffd
802097c6: e7 80 e0 44  	jalr	0x44e(ra) <ekernel+0xffc7fc10>
802097ca: 13 05 04 e6  	addi	a0, s0, -0x1a0
802097ce: 97 d0 ff ff  	auipc	ra, 0xffffd
802097d2: e7 80 20 8d  	jalr	-0x72e(ra) <ekernel+0xffc7f0a0>
802097d6: 83 35 84 e0  	ld	a1, -0x1f8(s0)
802097da: 01 45        	li	a0, 0x0
802097dc: 97 20 01 00  	auipc	ra, 0x12
802097e0: e7 80 40 0f  	jalr	0xf4(ra) <_ZN63_$LT$I$u20$as$u20$core..iter..traits..collect..IntoIterator$GT$9into_iter17h378fdeda6aa9247cE>
802097e4: 23 3c a4 e6  	sd	a0, -0x188(s0)
802097e8: 23 30 b4 e8  	sd	a1, -0x180(s0)
802097ec: 09 a0        	j	0x802097ee <.Lpcrel_hi2+0x4c>
802097ee: 13 05 84 e7  	addi	a0, s0, -0x188
802097f2: 97 20 01 00  	auipc	ra, 0x12
802097f6: e7 80 80 e5  	jalr	-0x1a8(ra) <_ZN4core4iter5range101_$LT$impl$u20$core..iter..traits..iterator..Iterator$u20$for$u20$core..ops..range..Range$LT$A$GT$$GT$4next17hd4a531604534b045E>
802097fa: 23 34 a4 e8  	sd	a0, -0x178(s0)
802097fe: 23 38 b4 e8  	sd	a1, -0x170(s0)
80209802: 03 35 84 e8  	ld	a0, -0x178(s0)
80209806: 21 c5        	beqz	a0, 0x8020984e <.Lpcrel_hi2+0xac>
80209808: 09 a0        	j	0x8020980a <.Lpcrel_hi2+0x68>
8020980a: 03 35 04 e9  	ld	a0, -0x170(s0)
8020980e: 23 30 a4 da  	sd	a0, -0x260(s0)
80209812: 23 34 a4 fc  	sd	a0, -0x38(s0)
80209816: 97 d0 00 00  	auipc	ra, 0xd
8020981a: e7 80 20 b4  	jalr	-0x4be(ra) <_ZN2os6loader12get_app_data17h0811a3e0ae589848E>
8020981e: 83 36 04 da  	ld	a3, -0x260(s0)
80209822: 23 34 a4 da  	sd	a0, -0x258(s0)
80209826: 2e 86        	mv	a2, a1
80209828: 83 35 84 da  	ld	a1, -0x258(s0)
8020982c: 13 05 84 e9  	addi	a0, s0, -0x168
80209830: 23 38 a4 da  	sd	a0, -0x250(s0)
80209834: 97 f0 00 00  	auipc	ra, 0xf
80209838: e7 80 80 ce  	jalr	-0x318(ra) <_ZN2os4task4task16TaskControlBlock3new17he4e8f54f67c88c12E>
8020983c: 83 35 04 db  	ld	a1, -0x250(s0)
80209840: 13 05 04 e6  	addi	a0, s0, -0x1a0
80209844: 97 d0 ff ff  	auipc	ra, 0xffffd
80209848: e7 80 c0 b3  	jalr	-0x4c4(ra) <ekernel+0xffc7f380>
8020984c: 4d b7        	j	0x802097ee <.Lpcrel_hi2+0x4c>
8020984e: 03 35 04 e7  	ld	a0, -0x190(s0)
80209852: 23 30 a4 fc  	sd	a0, -0x40(s0)
80209856: 03 35 84 e6  	ld	a0, -0x198(s0)
8020985a: 23 3c a4 fa  	sd	a0, -0x48(s0)
8020985e: 03 35 04 e6  	ld	a0, -0x1a0(s0)
80209862: 23 38 a4 fa  	sd	a0, -0x50(s0)
80209866: 03 35 04 fc  	ld	a0, -0x40(s0)
8020986a: 23 30 a4 fa  	sd	a0, -0x60(s0)
8020986e: 03 35 84 fb  	ld	a0, -0x48(s0)
80209872: 23 3c a4 f8  	sd	a0, -0x68(s0)
80209876: 03 35 04 fb  	ld	a0, -0x50(s0)
8020987a: 23 38 a4 f8  	sd	a0, -0x70(s0)
8020987e: 01 45        	li	a0, 0x0
80209880: 23 34 a4 fa  	sd	a0, -0x58(s0)
80209884: 13 05 84 f6  	addi	a0, s0, -0x98
80209888: 93 05 04 f9  	addi	a1, s0, -0x70
8020988c: 97 d0 00 00  	auipc	ra, 0xd
80209890: e7 80 e0 6b  	jalr	0x6be(ra) <_ZN2os4sync2up19UPSafeCell$LT$T$GT$3new17h3c0dca2d39ecfb48E>
80209894: 83 35 84 db  	ld	a1, -0x248(s0)
80209898: 03 35 84 e0  	ld	a0, -0x1f8(s0)
8020989c: 88 e1        	sd	a0, 0x0(a1)
8020989e: 03 35 84 f8  	ld	a0, -0x78(s0)
802098a2: 88 f5        	sd	a0, 0x28(a1)
802098a4: 03 35 04 f8  	ld	a0, -0x80(s0)
802098a8: 88 f1        	sd	a0, 0x20(a1)
802098aa: 03 35 84 f7  	ld	a0, -0x88(s0)
802098ae: 88 ed        	sd	a0, 0x18(a1)
802098b0: 03 35 04 f7  	ld	a0, -0x90(s0)
802098b4: 88 e9        	sd	a0, 0x10(a1)
802098b6: 03 35 84 f6  	ld	a0, -0x98(s0)
802098ba: 88 e5        	sd	a0, 0x8(a1)
802098bc: 83 30 81 25  	ld	ra, 0x258(sp)
802098c0: 03 34 01 25  	ld	s0, 0x250(sp)
802098c4: 13 01 01 26  	addi	sp, sp, 0x260
802098c8: 82 80        	ret

00000000802098ca <_ZN4core3ops8function6FnOnce9call_once17habbeab1023ae0f39E>:
802098ca: 79 71        	addi	sp, sp, -0x30
802098cc: 06 f4        	sd	ra, 0x28(sp)
802098ce: 22 f0        	sd	s0, 0x20(sp)
802098d0: 00 18        	addi	s0, sp, 0x30
802098d2: 23 3c a4 fc  	sd	a0, -0x28(s0)
802098d6: 23 30 b4 fe  	sd	a1, -0x20(s0)
802098da: 03 35 84 fd  	ld	a0, -0x28(s0)
802098de: 83 35 04 fe  	ld	a1, -0x20(s0)
802098e2: 97 c0 ff ff  	auipc	ra, 0xffffc
802098e6: e7 80 a0 a7  	jalr	-0x586(ra) <ekernel+0xffc7e35c>
802098ea: a2 70        	ld	ra, 0x28(sp)
802098ec: 02 74        	ld	s0, 0x20(sp)
802098ee: 45 61        	addi	sp, sp, 0x30
802098f0: 82 80        	ret

00000000802098f2 <_ZN4core3ops8function6FnOnce9call_once17hcc41db28e2e13373E>:
802098f2: 79 71        	addi	sp, sp, -0x30
802098f4: 06 f4        	sd	ra, 0x28(sp)
802098f6: 22 f0        	sd	s0, 0x20(sp)
802098f8: 00 18        	addi	s0, sp, 0x30
802098fa: 23 3c a4 fc  	sd	a0, -0x28(s0)
802098fe: 23 30 b4 fe  	sd	a1, -0x20(s0)
80209902: 03 35 84 fd  	ld	a0, -0x28(s0)
80209906: 83 35 04 fe  	ld	a1, -0x20(s0)
8020990a: 97 d0 ff ff  	auipc	ra, 0xffffd
8020990e: e7 80 40 fc  	jalr	-0x3c(ra) <ekernel+0xffc7f8ce>
80209912: a2 70        	ld	ra, 0x28(sp)
80209914: 02 74        	ld	s0, 0x20(sp)
80209916: 45 61        	addi	sp, sp, 0x30
80209918: 82 80        	ret

000000008020991a <_ZN4core3ops8function6FnOnce9call_once17hcd3a2f848f00309eE>:
8020991a: 01 11        	addi	sp, sp, -0x20
8020991c: 06 ec        	sd	ra, 0x18(sp)
8020991e: 22 e8        	sd	s0, 0x10(sp)
80209920: 00 10        	addi	s0, sp, 0x20
80209922: 23 30 a4 fe  	sd	a0, -0x20(s0)
80209926: 03 35 04 fe  	ld	a0, -0x20(s0)
8020992a: 97 c0 ff ff  	auipc	ra, 0xffffc
8020992e: e7 80 c0 2f  	jalr	0x2fc(ra) <ekernel+0xffc7ec26>
80209932: e2 60        	ld	ra, 0x18(sp)
80209934: 42 64        	ld	s0, 0x10(sp)
80209936: 05 61        	addi	sp, sp, 0x20
80209938: 82 80        	ret

000000008020993a <_ZN4core3ptr178drop_in_place$LT$$LT$alloc..vec..into_iter..IntoIter$LT$T$C$A$GT$$u20$as$u20$core..ops..drop..Drop$GT$..drop..DropGuard$LT$$RF$mut$u20$$u5b$u8$u5d$$C$alloc..alloc..Global$GT$$GT$17h010b5641e055b758E>:
8020993a: 01 11        	addi	sp, sp, -0x20
8020993c: 06 ec        	sd	ra, 0x18(sp)
8020993e: 22 e8        	sd	s0, 0x10(sp)
80209940: 00 10        	addi	s0, sp, 0x20
80209942: 23 34 a4 fe  	sd	a0, -0x18(s0)
80209946: 97 00 00 00  	auipc	ra, 0x0
8020994a: e7 80 80 d0  	jalr	-0x2f8(ra) <_ZN157_$LT$$LT$alloc..vec..into_iter..IntoIter$LT$T$C$A$GT$$u20$as$u20$core..ops..drop..Drop$GT$..drop..DropGuard$LT$T$C$A$GT$$u20$as$u20$core..ops..drop..Drop$GT$4drop17h3d06ccc6435411eaE>
8020994e: e2 60        	ld	ra, 0x18(sp)
80209950: 42 64        	ld	s0, 0x10(sp)
80209952: 05 61        	addi	sp, sp, 0x20
80209954: 82 80        	ret

0000000080209956 <_ZN4core3ptr45drop_in_place$LT$core..cell..BorrowRefMut$GT$17h9d7b4fe1f7de8299E>:
80209956: 01 11        	addi	sp, sp, -0x20
80209958: 06 ec        	sd	ra, 0x18(sp)
8020995a: 22 e8        	sd	s0, 0x10(sp)
8020995c: 00 10        	addi	s0, sp, 0x20
8020995e: 23 34 a4 fe  	sd	a0, -0x18(s0)
80209962: 97 00 00 00  	auipc	ra, 0x0
80209966: e7 80 40 1a  	jalr	0x1a4(ra) <_ZN66_$LT$core..cell..BorrowRefMut$u20$as$u20$core..ops..drop..Drop$GT$4drop17hded8876163262f2bE>
8020996a: e2 60        	ld	ra, 0x18(sp)
8020996c: 42 64        	ld	s0, 0x10(sp)
8020996e: 05 61        	addi	sp, sp, 0x20
80209970: 82 80        	ret

0000000080209972 <_ZN4core3ptr50drop_in_place$LT$os..mm..page_table..PageTable$GT$17h1cc0e2ff6c977301E>:
80209972: 01 11        	addi	sp, sp, -0x20
80209974: 06 ec        	sd	ra, 0x18(sp)
80209976: 22 e8        	sd	s0, 0x10(sp)
80209978: 00 10        	addi	s0, sp, 0x20
8020997a: 23 34 a4 fe  	sd	a0, -0x18(s0)
8020997e: 97 00 00 00  	auipc	ra, 0x0
80209982: e7 80 80 0d  	jalr	0xd8(ra) <_ZN4core3ptr81drop_in_place$LT$alloc..vec..Vec$LT$os..mm..frame_allocator..FrameTracker$GT$$GT$17he2b55ef600620f75E>
80209986: e2 60        	ld	ra, 0x18(sp)
80209988: 42 64        	ld	s0, 0x10(sp)
8020998a: 05 61        	addi	sp, sp, 0x20
8020998c: 82 80        	ret

000000008020998e <_ZN4core3ptr58drop_in_place$LT$os..mm..frame_allocator..FrameTracker$GT$17h030ffbd874832bc0E>:
8020998e: 01 11        	addi	sp, sp, -0x20
80209990: 06 ec        	sd	ra, 0x18(sp)
80209992: 22 e8        	sd	s0, 0x10(sp)
80209994: 00 10        	addi	s0, sp, 0x20
80209996: 23 34 a4 fe  	sd	a0, -0x18(s0)
8020999a: 97 00 00 00  	auipc	ra, 0x0
8020999e: e7 80 60 2d  	jalr	0x2d6(ra) <_ZN79_$LT$os..mm..frame_allocator..FrameTracker$u20$as$u20$core..ops..drop..Drop$GT$4drop17h3b669676c0c87b7aE>
802099a2: e2 60        	ld	ra, 0x18(sp)
802099a4: 42 64        	ld	s0, 0x10(sp)
802099a6: 05 61        	addi	sp, sp, 0x20
802099a8: 82 80        	ret

00000000802099aa <_ZN4core3ptr68drop_in_place$LT$$u5b$os..mm..frame_allocator..FrameTracker$u5d$$GT$17h3dcde6423d623061E>:
802099aa: 39 71        	addi	sp, sp, -0x40
802099ac: 06 fc        	sd	ra, 0x38(sp)
802099ae: 22 f8        	sd	s0, 0x30(sp)
802099b0: 80 00        	addi	s0, sp, 0x40
802099b2: 23 34 b4 fc  	sd	a1, -0x38(s0)
802099b6: 23 38 a4 fc  	sd	a0, -0x30(s0)
802099ba: 23 30 a4 fe  	sd	a0, -0x20(s0)
802099be: 23 34 b4 fe  	sd	a1, -0x18(s0)
802099c2: 01 45        	li	a0, 0x0
802099c4: 23 3c a4 fc  	sd	a0, -0x28(s0)
802099c8: 09 a0        	j	0x802099ca <_ZN4core3ptr68drop_in_place$LT$$u5b$os..mm..frame_allocator..FrameTracker$u5d$$GT$17h3dcde6423d623061E+0x20>
802099ca: 83 35 84 fc  	ld	a1, -0x38(s0)
802099ce: 03 35 84 fd  	ld	a0, -0x28(s0)
802099d2: 63 02 b5 02  	beq	a0, a1, 0x802099f6 <_ZN4core3ptr68drop_in_place$LT$$u5b$os..mm..frame_allocator..FrameTracker$u5d$$GT$17h3dcde6423d623061E+0x4c>
802099d6: 09 a0        	j	0x802099d8 <_ZN4core3ptr68drop_in_place$LT$$u5b$os..mm..frame_allocator..FrameTracker$u5d$$GT$17h3dcde6423d623061E+0x2e>
802099d8: 03 35 04 fd  	ld	a0, -0x30(s0)
802099dc: 83 35 84 fd  	ld	a1, -0x28(s0)
802099e0: 13 96 35 00  	slli	a2, a1, 0x3
802099e4: 32 95        	add	a0, a0, a2
802099e6: 85 05        	addi	a1, a1, 0x1
802099e8: 23 3c b4 fc  	sd	a1, -0x28(s0)
802099ec: 97 00 00 00  	auipc	ra, 0x0
802099f0: e7 80 20 fa  	jalr	-0x5e(ra) <_ZN4core3ptr58drop_in_place$LT$os..mm..frame_allocator..FrameTracker$GT$17h030ffbd874832bc0E>
802099f4: d9 bf        	j	0x802099ca <_ZN4core3ptr68drop_in_place$LT$$u5b$os..mm..frame_allocator..FrameTracker$u5d$$GT$17h3dcde6423d623061E+0x20>
802099f6: e2 70        	ld	ra, 0x38(sp)
802099f8: 42 74        	ld	s0, 0x30(sp)
802099fa: 21 61        	addi	sp, sp, 0x40
802099fc: 82 80        	ret

00000000802099fe <_ZN4core3ptr73drop_in_place$LT$core..cell..RefMut$LT$os..task..TaskManagerInner$GT$$GT$17hdf1ab181a90eef46E>:
802099fe: 01 11        	addi	sp, sp, -0x20
80209a00: 06 ec        	sd	ra, 0x18(sp)
80209a02: 22 e8        	sd	s0, 0x10(sp)
80209a04: 00 10        	addi	s0, sp, 0x20
80209a06: 23 34 a4 fe  	sd	a0, -0x18(s0)
80209a0a: 21 05        	addi	a0, a0, 0x8
80209a0c: 97 00 00 00  	auipc	ra, 0x0
80209a10: e7 80 a0 f4  	jalr	-0xb6(ra) <_ZN4core3ptr45drop_in_place$LT$core..cell..BorrowRefMut$GT$17h9d7b4fe1f7de8299E>
80209a14: e2 60        	ld	ra, 0x18(sp)
80209a16: 42 64        	ld	s0, 0x10(sp)
80209a18: 05 61        	addi	sp, sp, 0x20
80209a1a: 82 80        	ret

0000000080209a1c <_ZN4core3ptr75drop_in_place$LT$alloc..raw_vec..RawVec$LT$$RF$mut$u20$$u5b$u8$u5d$$GT$$GT$17h804bdc06dc087291E>:
80209a1c: 01 11        	addi	sp, sp, -0x20
80209a1e: 06 ec        	sd	ra, 0x18(sp)
80209a20: 22 e8        	sd	s0, 0x10(sp)
80209a22: 00 10        	addi	s0, sp, 0x20
80209a24: 23 34 a4 fe  	sd	a0, -0x18(s0)
80209a28: 97 00 00 00  	auipc	ra, 0x0
80209a2c: e7 80 80 1a  	jalr	0x1a8(ra) <_ZN77_$LT$alloc..raw_vec..RawVec$LT$T$C$A$GT$$u20$as$u20$core..ops..drop..Drop$GT$4drop17h2e3e7a4e674a4f68E>
80209a30: e2 60        	ld	ra, 0x18(sp)
80209a32: 42 64        	ld	s0, 0x10(sp)
80209a34: 05 61        	addi	sp, sp, 0x20
80209a36: 82 80        	ret

0000000080209a38 <_ZN4core3ptr76drop_in_place$LT$core..cell..RefMut$LT$os..mm..memory_set..MemorySet$GT$$GT$17h157f8e08cf5e24aeE>:
80209a38: 01 11        	addi	sp, sp, -0x20
80209a3a: 06 ec        	sd	ra, 0x18(sp)
80209a3c: 22 e8        	sd	s0, 0x10(sp)
80209a3e: 00 10        	addi	s0, sp, 0x20
80209a40: 23 34 a4 fe  	sd	a0, -0x18(s0)
80209a44: 21 05        	addi	a0, a0, 0x8
80209a46: 97 00 00 00  	auipc	ra, 0x0
80209a4a: e7 80 00 f1  	jalr	-0xf0(ra) <_ZN4core3ptr45drop_in_place$LT$core..cell..BorrowRefMut$GT$17h9d7b4fe1f7de8299E>
80209a4e: e2 60        	ld	ra, 0x18(sp)
80209a50: 42 64        	ld	s0, 0x10(sp)
80209a52: 05 61        	addi	sp, sp, 0x20
80209a54: 82 80        	ret

0000000080209a56 <_ZN4core3ptr81drop_in_place$LT$alloc..vec..Vec$LT$os..mm..frame_allocator..FrameTracker$GT$$GT$17he2b55ef600620f75E>:
80209a56: 01 11        	addi	sp, sp, -0x20
80209a58: 06 ec        	sd	ra, 0x18(sp)
80209a5a: 22 e8        	sd	s0, 0x10(sp)
80209a5c: 00 10        	addi	s0, sp, 0x20
80209a5e: 23 30 a4 fe  	sd	a0, -0x20(s0)
80209a62: 23 34 a4 fe  	sd	a0, -0x18(s0)
80209a66: 97 00 00 00  	auipc	ra, 0x0
80209a6a: e7 80 20 0e  	jalr	0xe2(ra) <_ZN70_$LT$alloc..vec..Vec$LT$T$C$A$GT$$u20$as$u20$core..ops..drop..Drop$GT$4drop17h301af278d9b481c8E>
80209a6e: 03 35 04 fe  	ld	a0, -0x20(s0)
80209a72: 97 00 00 00  	auipc	ra, 0x0
80209a76: e7 80 a0 05  	jalr	0x5a(ra) <_ZN4core3ptr88drop_in_place$LT$alloc..raw_vec..RawVec$LT$os..mm..frame_allocator..FrameTracker$GT$$GT$17h4e6b11a5572cf911E>
80209a7a: e2 60        	ld	ra, 0x18(sp)
80209a7c: 42 64        	ld	s0, 0x10(sp)
80209a7e: 05 61        	addi	sp, sp, 0x20
80209a80: 82 80        	ret

0000000080209a82 <_ZN4core3ptr84drop_in_place$LT$alloc..vec..into_iter..IntoIter$LT$$RF$mut$u20$$u5b$u8$u5d$$GT$$GT$17ha5bc09f688c06f22E>:
80209a82: 01 11        	addi	sp, sp, -0x20
80209a84: 06 ec        	sd	ra, 0x18(sp)
80209a86: 22 e8        	sd	s0, 0x10(sp)
80209a88: 00 10        	addi	s0, sp, 0x20
80209a8a: 23 34 a4 fe  	sd	a0, -0x18(s0)
80209a8e: 97 00 00 00  	auipc	ra, 0x0
80209a92: e7 80 80 19  	jalr	0x198(ra) <_ZN86_$LT$alloc..vec..into_iter..IntoIter$LT$T$C$A$GT$$u20$as$u20$core..ops..drop..Drop$GT$4drop17h232ea5e860a87147E>
80209a96: e2 60        	ld	ra, 0x18(sp)
80209a98: 42 64        	ld	s0, 0x10(sp)
80209a9a: 05 61        	addi	sp, sp, 0x20
80209a9c: 82 80        	ret

0000000080209a9e <_ZN4core3ptr86drop_in_place$LT$core..option..Option$LT$os..mm..frame_allocator..FrameTracker$GT$$GT$17h1e1a647495d3d7c1E>:
80209a9e: 01 11        	addi	sp, sp, -0x20
80209aa0: 06 ec        	sd	ra, 0x18(sp)
80209aa2: 22 e8        	sd	s0, 0x10(sp)
80209aa4: 00 10        	addi	s0, sp, 0x20
80209aa6: 23 30 a4 fe  	sd	a0, -0x20(s0)
80209aaa: 23 34 a4 fe  	sd	a0, -0x18(s0)
80209aae: 08 61        	ld	a0, 0x0(a0)
80209ab0: 11 e5        	bnez	a0, 0x80209abc <_ZN4core3ptr86drop_in_place$LT$core..option..Option$LT$os..mm..frame_allocator..FrameTracker$GT$$GT$17h1e1a647495d3d7c1E+0x1e>
80209ab2: 09 a0        	j	0x80209ab4 <_ZN4core3ptr86drop_in_place$LT$core..option..Option$LT$os..mm..frame_allocator..FrameTracker$GT$$GT$17h1e1a647495d3d7c1E+0x16>
80209ab4: e2 60        	ld	ra, 0x18(sp)
80209ab6: 42 64        	ld	s0, 0x10(sp)
80209ab8: 05 61        	addi	sp, sp, 0x20
80209aba: 82 80        	ret
80209abc: 03 35 04 fe  	ld	a0, -0x20(s0)
80209ac0: 21 05        	addi	a0, a0, 0x8
80209ac2: 97 00 00 00  	auipc	ra, 0x0
80209ac6: e7 80 c0 ec  	jalr	-0x134(ra) <_ZN4core3ptr58drop_in_place$LT$os..mm..frame_allocator..FrameTracker$GT$17h030ffbd874832bc0E>
80209aca: ed b7        	j	0x80209ab4 <_ZN4core3ptr86drop_in_place$LT$core..option..Option$LT$os..mm..frame_allocator..FrameTracker$GT$$GT$17h1e1a647495d3d7c1E+0x16>

0000000080209acc <_ZN4core3ptr88drop_in_place$LT$alloc..raw_vec..RawVec$LT$os..mm..frame_allocator..FrameTracker$GT$$GT$17h4e6b11a5572cf911E>:
80209acc: 01 11        	addi	sp, sp, -0x20
80209ace: 06 ec        	sd	ra, 0x18(sp)
80209ad0: 22 e8        	sd	s0, 0x10(sp)
80209ad2: 00 10        	addi	s0, sp, 0x20
80209ad4: 23 34 a4 fe  	sd	a0, -0x18(s0)
80209ad8: 97 00 00 00  	auipc	ra, 0x0
80209adc: e7 80 20 0a  	jalr	0xa2(ra) <_ZN77_$LT$alloc..raw_vec..RawVec$LT$T$C$A$GT$$u20$as$u20$core..ops..drop..Drop$GT$4drop17h17dcef3955b9c11dE>
80209ae0: e2 60        	ld	ra, 0x18(sp)
80209ae2: 42 64        	ld	s0, 0x10(sp)
80209ae4: 05 61        	addi	sp, sp, 0x20
80209ae6: 82 80        	ret

0000000080209ae8 <_ZN4core3ptr91drop_in_place$LT$core..cell..RefMut$LT$os..mm..frame_allocator..StackFrameAllocator$GT$$GT$17h45d0681ab3d612b6E>:
80209ae8: 01 11        	addi	sp, sp, -0x20
80209aea: 06 ec        	sd	ra, 0x18(sp)
80209aec: 22 e8        	sd	s0, 0x10(sp)
80209aee: 00 10        	addi	s0, sp, 0x20
80209af0: 23 34 a4 fe  	sd	a0, -0x18(s0)
80209af4: 21 05        	addi	a0, a0, 0x8
80209af6: 97 00 00 00  	auipc	ra, 0x0
80209afa: e7 80 00 e6  	jalr	-0x1a0(ra) <_ZN4core3ptr45drop_in_place$LT$core..cell..BorrowRefMut$GT$17h9d7b4fe1f7de8299E>
80209afe: e2 60        	ld	ra, 0x18(sp)
80209b00: 42 64        	ld	s0, 0x10(sp)
80209b02: 05 61        	addi	sp, sp, 0x20
80209b04: 82 80        	ret

0000000080209b06 <_ZN66_$LT$core..cell..BorrowRefMut$u20$as$u20$core..ops..drop..Drop$GT$4drop17hded8876163262f2bE>:
80209b06: 1d 71        	addi	sp, sp, -0x60
80209b08: 86 ec        	sd	ra, 0x58(sp)
80209b0a: a2 e8        	sd	s0, 0x50(sp)
80209b0c: 80 10        	addi	s0, sp, 0x60
80209b0e: aa 85        	mv	a1, a0
80209b10: 23 34 b4 fa  	sd	a1, -0x58(s0)
80209b14: 88 61        	ld	a0, 0x0(a1)
80209b16: 23 38 a4 fa  	sd	a0, -0x50(s0)
80209b1a: 23 3c a4 fa  	sd	a0, -0x48(s0)
80209b1e: 08 61        	ld	a0, 0x0(a0)
80209b20: 23 30 a4 fc  	sd	a0, -0x40(s0)
80209b24: 8c 61        	ld	a1, 0x0(a1)
80209b26: 23 34 b4 fc  	sd	a1, -0x38(s0)
80209b2a: 05 05        	addi	a0, a0, 0x1
80209b2c: 23 38 a4 fc  	sd	a0, -0x30(s0)
80209b30: 23 3c b4 fc  	sd	a1, -0x28(s0)
80209b34: 23 30 b4 fe  	sd	a1, -0x20(s0)
80209b38: 90 61        	ld	a2, 0x0(a1)
80209b3a: 23 34 c4 fe  	sd	a2, -0x18(s0)
80209b3e: 88 e1        	sd	a0, 0x0(a1)
80209b40: e6 60        	ld	ra, 0x58(sp)
80209b42: 46 64        	ld	s0, 0x50(sp)
80209b44: 25 61        	addi	sp, sp, 0x60
80209b46: 82 80        	ret

0000000080209b48 <_ZN70_$LT$alloc..vec..Vec$LT$T$C$A$GT$$u20$as$u20$core..ops..drop..Drop$GT$4drop17h301af278d9b481c8E>:
80209b48: 39 71        	addi	sp, sp, -0x40
80209b4a: 06 fc        	sd	ra, 0x38(sp)
80209b4c: 22 f8        	sd	s0, 0x30(sp)
80209b4e: 80 00        	addi	s0, sp, 0x40
80209b50: aa 85        	mv	a1, a0
80209b52: 23 34 b4 fc  	sd	a1, -0x38(s0)
80209b56: 23 38 b4 fc  	sd	a1, -0x30(s0)
80209b5a: 88 65        	ld	a0, 0x8(a1)
80209b5c: 23 3c a4 fc  	sd	a0, -0x28(s0)
80209b60: 23 30 a4 fe  	sd	a0, -0x20(s0)
80209b64: 8c 69        	ld	a1, 0x10(a1)
80209b66: 23 34 b4 fe  	sd	a1, -0x18(s0)
80209b6a: 97 00 00 00  	auipc	ra, 0x0
80209b6e: e7 80 00 e4  	jalr	-0x1c0(ra) <_ZN4core3ptr68drop_in_place$LT$$u5b$os..mm..frame_allocator..FrameTracker$u5d$$GT$17h3dcde6423d623061E>
80209b72: e2 70        	ld	ra, 0x38(sp)
80209b74: 42 74        	ld	s0, 0x30(sp)
80209b76: 21 61        	addi	sp, sp, 0x40
80209b78: 82 80        	ret

0000000080209b7a <_ZN77_$LT$alloc..raw_vec..RawVec$LT$T$C$A$GT$$u20$as$u20$core..ops..drop..Drop$GT$4drop17h17dcef3955b9c11dE>:
80209b7a: 5d 71        	addi	sp, sp, -0x50
80209b7c: 86 e4        	sd	ra, 0x48(sp)
80209b7e: a2 e0        	sd	s0, 0x40(sp)
80209b80: 80 08        	addi	s0, sp, 0x50
80209b82: aa 85        	mv	a1, a0
80209b84: 23 38 b4 fa  	sd	a1, -0x50(s0)
80209b88: 23 38 b4 fc  	sd	a1, -0x30(s0)
80209b8c: 13 05 84 fb  	addi	a0, s0, -0x48
80209b90: 97 d0 ff ff  	auipc	ra, 0xffffd
80209b94: e7 80 00 62  	jalr	0x620(ra) <ekernel+0xffc801b0>
80209b98: 03 35 04 fc  	ld	a0, -0x40(s0)
80209b9c: 15 c5        	beqz	a0, 0x80209bc8 <_ZN77_$LT$alloc..raw_vec..RawVec$LT$T$C$A$GT$$u20$as$u20$core..ops..drop..Drop$GT$4drop17h17dcef3955b9c11dE+0x4e>
80209b9e: 09 a0        	j	0x80209ba0 <_ZN77_$LT$alloc..raw_vec..RawVec$LT$T$C$A$GT$$u20$as$u20$core..ops..drop..Drop$GT$4drop17h17dcef3955b9c11dE+0x26>
80209ba0: 03 35 04 fb  	ld	a0, -0x50(s0)
80209ba4: 83 35 84 fb  	ld	a1, -0x48(s0)
80209ba8: 23 3c b4 fc  	sd	a1, -0x28(s0)
80209bac: 03 36 04 fc  	ld	a2, -0x40(s0)
80209bb0: 83 36 84 fc  	ld	a3, -0x38(s0)
80209bb4: 23 30 c4 fe  	sd	a2, -0x20(s0)
80209bb8: 23 34 d4 fe  	sd	a3, -0x18(s0)
80209bbc: 41 05        	addi	a0, a0, 0x10
80209bbe: 97 c0 00 00  	auipc	ra, 0xc
80209bc2: e7 80 00 58  	jalr	0x580(ra) <_ZN63_$LT$alloc..alloc..Global$u20$as$u20$core..alloc..Allocator$GT$10deallocate17h1063365e3d1c3106E>
80209bc6: 09 a0        	j	0x80209bc8 <_ZN77_$LT$alloc..raw_vec..RawVec$LT$T$C$A$GT$$u20$as$u20$core..ops..drop..Drop$GT$4drop17h17dcef3955b9c11dE+0x4e>
80209bc8: a6 60        	ld	ra, 0x48(sp)
80209bca: 06 64        	ld	s0, 0x40(sp)
80209bcc: 61 61        	addi	sp, sp, 0x50
80209bce: 82 80        	ret

0000000080209bd0 <_ZN77_$LT$alloc..raw_vec..RawVec$LT$T$C$A$GT$$u20$as$u20$core..ops..drop..Drop$GT$4drop17h2e3e7a4e674a4f68E>:
80209bd0: 5d 71        	addi	sp, sp, -0x50
80209bd2: 86 e4        	sd	ra, 0x48(sp)
80209bd4: a2 e0        	sd	s0, 0x40(sp)
80209bd6: 80 08        	addi	s0, sp, 0x50
80209bd8: aa 85        	mv	a1, a0
80209bda: 23 38 b4 fa  	sd	a1, -0x50(s0)
80209bde: 23 38 b4 fc  	sd	a1, -0x30(s0)
80209be2: 13 05 84 fb  	addi	a0, s0, -0x48
80209be6: 97 d0 ff ff  	auipc	ra, 0xffffd
80209bea: e7 80 00 32  	jalr	0x320(ra) <ekernel+0xffc7ff06>
80209bee: 03 35 04 fc  	ld	a0, -0x40(s0)
80209bf2: 15 c5        	beqz	a0, 0x80209c1e <_ZN77_$LT$alloc..raw_vec..RawVec$LT$T$C$A$GT$$u20$as$u20$core..ops..drop..Drop$GT$4drop17h2e3e7a4e674a4f68E+0x4e>
80209bf4: 09 a0        	j	0x80209bf6 <_ZN77_$LT$alloc..raw_vec..RawVec$LT$T$C$A$GT$$u20$as$u20$core..ops..drop..Drop$GT$4drop17h2e3e7a4e674a4f68E+0x26>
80209bf6: 03 35 04 fb  	ld	a0, -0x50(s0)
80209bfa: 83 35 84 fb  	ld	a1, -0x48(s0)
80209bfe: 23 3c b4 fc  	sd	a1, -0x28(s0)
80209c02: 03 36 04 fc  	ld	a2, -0x40(s0)
80209c06: 83 36 84 fc  	ld	a3, -0x38(s0)
80209c0a: 23 30 c4 fe  	sd	a2, -0x20(s0)
80209c0e: 23 34 d4 fe  	sd	a3, -0x18(s0)
80209c12: 41 05        	addi	a0, a0, 0x10
80209c14: 97 c0 00 00  	auipc	ra, 0xc
80209c18: e7 80 a0 52  	jalr	0x52a(ra) <_ZN63_$LT$alloc..alloc..Global$u20$as$u20$core..alloc..Allocator$GT$10deallocate17h1063365e3d1c3106E>
80209c1c: 09 a0        	j	0x80209c1e <_ZN77_$LT$alloc..raw_vec..RawVec$LT$T$C$A$GT$$u20$as$u20$core..ops..drop..Drop$GT$4drop17h2e3e7a4e674a4f68E+0x4e>
80209c1e: a6 60        	ld	ra, 0x48(sp)
80209c20: 06 64        	ld	s0, 0x40(sp)
80209c22: 61 61        	addi	sp, sp, 0x50
80209c24: 82 80        	ret

0000000080209c26 <_ZN86_$LT$alloc..vec..into_iter..IntoIter$LT$T$C$A$GT$$u20$as$u20$core..ops..drop..Drop$GT$4drop17h232ea5e860a87147E>:
80209c26: 5d 71        	addi	sp, sp, -0x50
80209c28: 86 e4        	sd	ra, 0x48(sp)
80209c2a: a2 e0        	sd	s0, 0x40(sp)
80209c2c: 80 08        	addi	s0, sp, 0x50
80209c2e: 23 34 a4 fc  	sd	a0, -0x38(s0)
80209c32: 23 3c a4 fa  	sd	a0, -0x48(s0)
80209c36: 03 35 84 fb  	ld	a0, -0x48(s0)
80209c3a: 23 30 a4 fc  	sd	a0, -0x40(s0)
80209c3e: 0c 65        	ld	a1, 0x8(a0)
80209c40: 23 38 b4 fc  	sd	a1, -0x30(s0)
80209c44: 23 3c b4 fc  	sd	a1, -0x28(s0)
80209c48: 93 05 04 fc  	addi	a1, s0, -0x40
80209c4c: 23 30 b4 fe  	sd	a1, -0x20(s0)
80209c50: 97 a0 00 00  	auipc	ra, 0xa
80209c54: e7 80 e0 fa  	jalr	-0x52(ra) <_ZN4core4iter6traits10exact_size17ExactSizeIterator3len17h1526cb2bb3aa7c1eE>
80209c58: 23 34 a4 fe  	sd	a0, -0x18(s0)
80209c5c: 13 05 84 fb  	addi	a0, s0, -0x48
80209c60: 97 00 00 00  	auipc	ra, 0x0
80209c64: e7 80 a0 cd  	jalr	-0x326(ra) <_ZN4core3ptr178drop_in_place$LT$$LT$alloc..vec..into_iter..IntoIter$LT$T$C$A$GT$$u20$as$u20$core..ops..drop..Drop$GT$..drop..DropGuard$LT$$RF$mut$u20$$u5b$u8$u5d$$C$alloc..alloc..Global$GT$$GT$17h010b5641e055b758E>
80209c68: a6 60        	ld	ra, 0x48(sp)
80209c6a: 06 64        	ld	s0, 0x40(sp)
80209c6c: 61 61        	addi	sp, sp, 0x50
80209c6e: 82 80        	ret

0000000080209c70 <_ZN79_$LT$os..mm..frame_allocator..FrameTracker$u20$as$u20$core..ops..drop..Drop$GT$4drop17h3b669676c0c87b7aE>:
80209c70: 01 11        	addi	sp, sp, -0x20
80209c72: 06 ec        	sd	ra, 0x18(sp)
80209c74: 22 e8        	sd	s0, 0x10(sp)
80209c76: 00 10        	addi	s0, sp, 0x20
80209c78: 23 34 a4 fe  	sd	a0, -0x18(s0)
80209c7c: 08 61        	ld	a0, 0x0(a0)
80209c7e: 97 c0 ff ff  	auipc	ra, 0xffffc
80209c82: e7 80 a0 39  	jalr	0x39a(ra) <ekernel+0xffc7f018>
80209c86: e2 60        	ld	ra, 0x18(sp)
80209c88: 42 64        	ld	s0, 0x10(sp)
80209c8a: 05 61        	addi	sp, sp, 0x20
80209c8c: 82 80        	ret

0000000080209c8e <_ZN2os2mm10page_table14PageTableEntry3new17h4993b8cff63b903cE>:
80209c8e: 79 71        	addi	sp, sp, -0x30
80209c90: 06 f4        	sd	ra, 0x28(sp)
80209c92: 22 f0        	sd	s0, 0x20(sp)
80209c94: 00 18        	addi	s0, sp, 0x30
80209c96: 23 30 a4 fe  	sd	a0, -0x20(s0)
80209c9a: a3 07 b4 fe  	sb	a1, -0x11(s0)
80209c9e: 2a 05        	slli	a0, a0, 0xa
80209ca0: 93 f5 f5 0f  	andi	a1, a1, 0xff
80209ca4: 4d 8d        	or	a0, a0, a1
80209ca6: 23 3c a4 fc  	sd	a0, -0x28(s0)
80209caa: 03 35 84 fd  	ld	a0, -0x28(s0)
80209cae: a2 70        	ld	ra, 0x28(sp)
80209cb0: 02 74        	ld	s0, 0x20(sp)
80209cb2: 45 61        	addi	sp, sp, 0x30
80209cb4: 82 80        	ret

0000000080209cb6 <_ZN2os2mm10page_table14PageTableEntry5empty17h0e906573c68abb60E>:
80209cb6: 01 11        	addi	sp, sp, -0x20
80209cb8: 06 ec        	sd	ra, 0x18(sp)
80209cba: 22 e8        	sd	s0, 0x10(sp)
80209cbc: 00 10        	addi	s0, sp, 0x20
80209cbe: 01 45        	li	a0, 0x0
80209cc0: 23 34 a4 fe  	sd	a0, -0x18(s0)
80209cc4: 03 35 84 fe  	ld	a0, -0x18(s0)
80209cc8: e2 60        	ld	ra, 0x18(sp)
80209cca: 42 64        	ld	s0, 0x10(sp)
80209ccc: 05 61        	addi	sp, sp, 0x20
80209cce: 82 80        	ret

0000000080209cd0 <_ZN2os2mm10page_table14PageTableEntry3ppn17h946ad59a57ec7d88E>:
80209cd0: 01 11        	addi	sp, sp, -0x20
80209cd2: 06 ec        	sd	ra, 0x18(sp)
80209cd4: 22 e8        	sd	s0, 0x10(sp)
80209cd6: 00 10        	addi	s0, sp, 0x20
80209cd8: 23 34 a4 fe  	sd	a0, -0x18(s0)
80209cdc: 08 61        	ld	a0, 0x0(a0)
80209cde: 2a 05        	slli	a0, a0, 0xa
80209ce0: 51 81        	srli	a0, a0, 0x14

0000000080209ce2 <.Lpcrel_hi0>:
80209ce2: 97 85 01 00  	auipc	a1, 0x18
80209ce6: 93 85 e5 41  	addi	a1, a1, 0x41e
80209cea: 97 c0 00 00  	auipc	ra, 0xc
80209cee: e7 80 20 82  	jalr	-0x7de(ra) <_ZN50_$LT$T$u20$as$u20$core..convert..Into$LT$U$GT$$GT$4into17ha137a8a5b871a956E>
80209cf2: e2 60        	ld	ra, 0x18(sp)
80209cf4: 42 64        	ld	s0, 0x10(sp)
80209cf6: 05 61        	addi	sp, sp, 0x20
80209cf8: 82 80        	ret

0000000080209cfa <_ZN2os2mm10page_table14PageTableEntry5flags17h52ab543cc8d3c1ffE>:
80209cfa: 01 11        	addi	sp, sp, -0x20
80209cfc: 06 ec        	sd	ra, 0x18(sp)
80209cfe: 22 e8        	sd	s0, 0x10(sp)
80209d00: 00 10        	addi	s0, sp, 0x20
80209d02: 23 30 a4 fe  	sd	a0, -0x20(s0)
80209d06: 08 61        	ld	a0, 0x0(a0)
80209d08: 97 10 00 00  	auipc	ra, 0x1
80209d0c: e7 80 a0 a6  	jalr	-0x596(ra) <_ZN2os2mm10page_table8PTEFlags9from_bits17hc94015b902d33d40E>
80209d10: 05 89        	andi	a0, a0, 0x1
80209d12: a3 06 a4 fe  	sb	a0, -0x13(s0)
80209d16: 23 07 b4 fe  	sb	a1, -0x12(s0)
80209d1a: 03 45 d4 fe  	lbu	a0, -0x13(s0)
80209d1e: 05 89        	andi	a0, a0, 0x1
80209d20: 11 e9        	bnez	a0, 0x80209d34 <.Lpcrel_hi1+0x10>
80209d22: 09 a0        	j	0x80209d24 <.Lpcrel_hi1>

0000000080209d24 <.Lpcrel_hi1>:
80209d24: 17 85 01 00  	auipc	a0, 0x18
80209d28: 13 05 45 3f  	addi	a0, a0, 0x3f4
80209d2c: 97 40 01 00  	auipc	ra, 0x14
80209d30: e7 80 80 d1  	jalr	-0x2e8(ra) <_ZN4core6option13unwrap_failed17h29a7a5e83cb350cbE>
80209d34: 03 45 e4 fe  	lbu	a0, -0x12(s0)
80209d38: a3 07 a4 fe  	sb	a0, -0x11(s0)
80209d3c: e2 60        	ld	ra, 0x18(sp)
80209d3e: 42 64        	ld	s0, 0x10(sp)
80209d40: 05 61        	addi	sp, sp, 0x20
80209d42: 82 80        	ret

0000000080209d44 <_ZN2os2mm10page_table14PageTableEntry8is_valid17h964217a994a98c8aE>:
80209d44: 01 11        	addi	sp, sp, -0x20
80209d46: 06 ec        	sd	ra, 0x18(sp)
80209d48: 22 e8        	sd	s0, 0x10(sp)
80209d4a: 00 10        	addi	s0, sp, 0x20
80209d4c: 23 34 a4 fe  	sd	a0, -0x18(s0)
80209d50: 97 00 00 00  	auipc	ra, 0x0
80209d54: e7 80 a0 fa  	jalr	-0x56(ra) <_ZN2os2mm10page_table14PageTableEntry5flags17h52ab543cc8d3c1ffE>
80209d58: 85 45        	li	a1, 0x1
80209d5a: 97 10 00 00  	auipc	ra, 0x1
80209d5e: e7 80 c0 a9  	jalr	-0x564(ra) <_ZN71_$LT$os..mm..page_table..PTEFlags$u20$as$u20$core..ops..bit..BitAnd$GT$6bitand17hda66cbc8ef7b9ccfE>
80209d62: 23 03 a4 fe  	sb	a0, -0x1a(s0)
80209d66: 97 10 00 00  	auipc	ra, 0x1
80209d6a: e7 80 e0 9c  	jalr	-0x632(ra) <_ZN2os2mm10page_table8PTEFlags5empty17h7a04d68cfd80607cE>
80209d6e: a3 03 a4 fe  	sb	a0, -0x19(s0)
80209d72: 13 05 64 fe  	addi	a0, s0, -0x1a
80209d76: 93 05 74 fe  	addi	a1, s0, -0x19
80209d7a: 97 80 ff ff  	auipc	ra, 0xffff8
80209d7e: e7 80 a0 74  	jalr	0x74a(ra) <ekernel+0xffc7b4c4>
80209d82: e2 60        	ld	ra, 0x18(sp)
80209d84: 42 64        	ld	s0, 0x10(sp)
80209d86: 05 61        	addi	sp, sp, 0x20
80209d88: 82 80        	ret

0000000080209d8a <_ZN2os2mm10page_table14PageTableEntry8writable17h92ce3fd6fa012b59E>:
80209d8a: 01 11        	addi	sp, sp, -0x20
