
target/riscv64gc-unknown-none-elf/release/os:     file format elf64-littleriscv


Disassembly of section .text:

0000000080200000 <_start>:
    80200000:	00137117          	auipc	sp,0x137
    80200004:	00010113          	mv	sp,sp
    80200008:	00008097          	auipc	ra,0x8
    8020000c:	baa080e7          	jalr	-1110(ra) # 80207bb2 <rust_main>
	...

0000000080201000 <__alltraps>:
    80201000:	14011173          	csrrw	sp,sscratch,sp
    80201004:	e406                	sd	ra,8(sp)
    80201006:	ec0e                	sd	gp,24(sp)
    80201008:	f416                	sd	t0,40(sp)
    8020100a:	f81a                	sd	t1,48(sp)
    8020100c:	fc1e                	sd	t2,56(sp)
    8020100e:	e0a2                	sd	s0,64(sp)
    80201010:	e4a6                	sd	s1,72(sp)
    80201012:	e8aa                	sd	a0,80(sp)
    80201014:	ecae                	sd	a1,88(sp)
    80201016:	f0b2                	sd	a2,96(sp)
    80201018:	f4b6                	sd	a3,104(sp)
    8020101a:	f8ba                	sd	a4,112(sp)
    8020101c:	fcbe                	sd	a5,120(sp)
    8020101e:	e142                	sd	a6,128(sp)
    80201020:	e546                	sd	a7,136(sp)
    80201022:	e94a                	sd	s2,144(sp)
    80201024:	ed4e                	sd	s3,152(sp)
    80201026:	f152                	sd	s4,160(sp)
    80201028:	f556                	sd	s5,168(sp)
    8020102a:	f95a                	sd	s6,176(sp)
    8020102c:	fd5e                	sd	s7,184(sp)
    8020102e:	e1e2                	sd	s8,192(sp)
    80201030:	e5e6                	sd	s9,200(sp)
    80201032:	e9ea                	sd	s10,208(sp)
    80201034:	edee                	sd	s11,216(sp)
    80201036:	f1f2                	sd	t3,224(sp)
    80201038:	f5f6                	sd	t4,232(sp)
    8020103a:	f9fa                	sd	t5,240(sp)
    8020103c:	fdfe                	sd	t6,248(sp)
    8020103e:	100022f3          	csrr	t0,sstatus
    80201042:	14102373          	csrr	t1,sepc
    80201046:	e216                	sd	t0,256(sp)
    80201048:	e61a                	sd	t1,264(sp)
    8020104a:	140023f3          	csrr	t2,sscratch
    8020104e:	e81e                	sd	t2,16(sp)
    80201050:	62d2                	ld	t0,272(sp)
    80201052:	7312                	ld	t1,288(sp)
    80201054:	6172                	ld	sp,280(sp)
    80201056:	18029073          	csrw	satp,t0
    8020105a:	12000073          	sfence.vma
    8020105e:	8302                	jr	t1

0000000080201060 <__restore>:
    80201060:	18059073          	csrw	satp,a1
    80201064:	12000073          	sfence.vma
    80201068:	14051073          	csrw	sscratch,a0
    8020106c:	812a                	mv	sp,a0
    8020106e:	6292                	ld	t0,256(sp)
    80201070:	6332                	ld	t1,264(sp)
    80201072:	10029073          	csrw	sstatus,t0
    80201076:	14131073          	csrw	sepc,t1
    8020107a:	60a2                	ld	ra,8(sp)
    8020107c:	61e2                	ld	gp,24(sp)
    8020107e:	72a2                	ld	t0,40(sp)
    80201080:	7342                	ld	t1,48(sp)
    80201082:	73e2                	ld	t2,56(sp)
    80201084:	6406                	ld	s0,64(sp)
    80201086:	64a6                	ld	s1,72(sp)
    80201088:	6546                	ld	a0,80(sp)
    8020108a:	65e6                	ld	a1,88(sp)
    8020108c:	7606                	ld	a2,96(sp)
    8020108e:	76a6                	ld	a3,104(sp)
    80201090:	7746                	ld	a4,112(sp)
    80201092:	77e6                	ld	a5,120(sp)
    80201094:	680a                	ld	a6,128(sp)
    80201096:	68aa                	ld	a7,136(sp)
    80201098:	694a                	ld	s2,144(sp)
    8020109a:	69ea                	ld	s3,152(sp)
    8020109c:	7a0a                	ld	s4,160(sp)
    8020109e:	7aaa                	ld	s5,168(sp)
    802010a0:	7b4a                	ld	s6,176(sp)
    802010a2:	7bea                	ld	s7,184(sp)
    802010a4:	6c0e                	ld	s8,192(sp)
    802010a6:	6cae                	ld	s9,200(sp)
    802010a8:	6d4e                	ld	s10,208(sp)
    802010aa:	6dee                	ld	s11,216(sp)
    802010ac:	7e0e                	ld	t3,224(sp)
    802010ae:	7eae                	ld	t4,232(sp)
    802010b0:	7f4e                	ld	t5,240(sp)
    802010b2:	7fee                	ld	t6,248(sp)
    802010b4:	6142                	ld	sp,16(sp)
    802010b6:	10200073          	sret
	...

0000000080202000 <_ZN5alloc11collections5btree4node210Handle$LT$alloc..collections..btree..node..NodeRef$LT$alloc..collections..btree..node..marker..Mut$C$K$C$V$C$alloc..collections..btree..node..marker..Leaf$GT$$C$alloc..collections..btree..node..marker..Edge$GT$16insert_recursing17h27c3e761bc85f0baE>:
    80202000:	7151                	addi	sp,sp,-240
    80202002:	f586                	sd	ra,232(sp)
    80202004:	f1a2                	sd	s0,224(sp)
    80202006:	eda6                	sd	s1,216(sp)
    80202008:	e9ca                	sd	s2,208(sp)
    8020200a:	e5ce                	sd	s3,200(sp)
    8020200c:	e1d2                	sd	s4,192(sp)
    8020200e:	fd56                	sd	s5,184(sp)
    80202010:	f95a                	sd	s6,176(sp)
    80202012:	f55e                	sd	s7,168(sp)
    80202014:	f162                	sd	s8,160(sp)
    80202016:	ed66                	sd	s9,152(sp)
    80202018:	e96a                	sd	s10,144(sp)
    8020201a:	e56e                	sd	s11,136(sp)
    8020201c:	1980                	addi	s0,sp,240
    8020201e:	0005bd83          	ld	s11,0(a1)
    80202022:	0badd483          	lhu	s1,186(s11)
    80202026:	47ad                	li	a5,11
    80202028:	8a36                	mv	s4,a3
    8020202a:	8ab2                	mv	s5,a2
    8020202c:	892a                	mv	s2,a0
    8020202e:	06f4f763          	bgeu	s1,a5,8020209c <_ZN5alloc11collections5btree4node210Handle$LT$alloc..collections..btree..node..NodeRef$LT$alloc..collections..btree..node..marker..Mut$C$K$C$V$C$alloc..collections..btree..node..marker..Leaf$GT$$C$alloc..collections..btree..node..marker..Edge$GT$16insert_recursing17h27c3e761bc85f0baE+0x9c>
    80202032:	0105bb03          	ld	s6,16(a1)
    80202036:	0085bb83          	ld	s7,8(a1)
    8020203a:	008d8993          	addi	s3,s11,8
    8020203e:	001b0513          	addi	a0,s6,1
    80202042:	f5643023          	sd	s6,-192(s0)
    80202046:	0b0e                	slli	s6,s6,0x3
    80202048:	04a4e063          	bltu	s1,a0,80202088 <_ZN5alloc11collections5btree4node210Handle$LT$alloc..collections..btree..node..NodeRef$LT$alloc..collections..btree..node..marker..Mut$C$K$C$V$C$alloc..collections..btree..node..marker..Leaf$GT$$C$alloc..collections..btree..node..marker..Edge$GT$16insert_recursing17h27c3e761bc85f0baE+0x88>
    8020204c:	016985b3          	add	a1,s3,s6
    80202050:	8cde                	mv	s9,s7
    80202052:	00351b93          	slli	s7,a0,0x3
    80202056:	01798533          	add	a0,s3,s7
    8020205a:	8c4a                	mv	s8,s2
    8020205c:	f4043603          	ld	a2,-192(s0)
    80202060:	40c48933          	sub	s2,s1,a2
    80202064:	090e                	slli	s2,s2,0x3
    80202066:	864a                	mv	a2,s2
    80202068:	0000b097          	auipc	ra,0xb
    8020206c:	06e080e7          	jalr	110(ra) # 8020d0d6 <memmove>
    80202070:	060d8513          	addi	a0,s11,96
    80202074:	016505b3          	add	a1,a0,s6
    80202078:	955e                	add	a0,a0,s7
    8020207a:	8be6                	mv	s7,s9
    8020207c:	864a                	mv	a2,s2
    8020207e:	8962                	mv	s2,s8
    80202080:	0000b097          	auipc	ra,0xb
    80202084:	056080e7          	jalr	86(ra) # 8020d0d6 <memmove>
    80202088:	99da                	add	s3,s3,s6
    8020208a:	0159b023          	sd	s5,0(s3)
    8020208e:	9b6e                	add	s6,s6,s11
    80202090:	0485                	addi	s1,s1,1
    80202092:	074b3023          	sd	s4,96(s6)
    80202096:	0a9d9d23          	sh	s1,186(s11)
    8020209a:	aba1                	j	802025f2 <.Lpcrel_hi14+0x120>
    8020209c:	8b3a                	mv	s6,a4
    8020209e:	0105bd03          	ld	s10,16(a1)
    802020a2:	0085b983          	ld	s3,8(a1)

00000000802020a6 <.Lpcrel_hi5>:
    802020a6:	00335517          	auipc	a0,0x335
    802020aa:	1e350493          	addi	s1,a0,483 # 80537289 <__rust_no_alloc_shim_is_unstable>
    802020ae:	0004c003          	lbu	zero,0(s1)

00000000802020b2 <.Lpcrel_hi6>:
    802020b2:	00335517          	auipc	a0,0x335
    802020b6:	ff650513          	addi	a0,a0,-10 # 805370a8 <_ZN2os2mm14heap_allocator14HEAP_ALLOCATOR17hdb009eb0a1c201beE.llvm.13289308715828321855>
    802020ba:	45a1                	li	a1,8
    802020bc:	0c000613          	li	a2,192
    802020c0:	00008097          	auipc	ra,0x8
    802020c4:	e00080e7          	jalr	-512(ra) # 80209ec0 <_ZN87_$LT$buddy_system_allocator..LockedHeap$u20$as$u20$core..alloc..global..GlobalAlloc$GT$5alloc17h3b694276a2754c9bE>
    802020c8:	56050a63          	beqz	a0,8020263c <.Lpcrel_hi12+0x14>
    802020cc:	8caa                	mv	s9,a0
    802020ce:	00053023          	sd	zero,0(a0)
    802020d2:	4515                	li	a0,5
    802020d4:	0a0c9d23          	sh	zero,186(s9)
    802020d8:	f1643c23          	sd	s6,-232(s0)
    802020dc:	f0943823          	sd	s1,-240(s0)
    802020e0:	04ad7263          	bgeu	s10,a0,80202124 <.Lpcrel_hi6+0x72>
    802020e4:	0badd503          	lhu	a0,186(s11)
    802020e8:	156d                	addi	a0,a0,-5
    802020ea:	45b1                	li	a1,12
    802020ec:	0aac9d23          	sh	a0,186(s9)
    802020f0:	58b57a63          	bgeu	a0,a1,80202684 <.Lpcrel_hi7>
    802020f4:	080db583          	ld	a1,128(s11)
    802020f8:	f4b43423          	sd	a1,-184(s0)
    802020fc:	028db583          	ld	a1,40(s11)
    80202100:	f2b43823          	sd	a1,-208(s0)
    80202104:	008c8613          	addi	a2,s9,8
    80202108:	030d8593          	addi	a1,s11,48
    8020210c:	00351b13          	slli	s6,a0,0x3
    80202110:	8532                	mv	a0,a2
    80202112:	865a                	mv	a2,s6
    80202114:	0000b097          	auipc	ra,0xb
    80202118:	004080e7          	jalr	4(ra) # 8020d118 <memcpy>
    8020211c:	4491                	li	s1,4
    8020211e:	08800593          	li	a1,136
    80202122:	a849                	j	802021b4 <.Lpcrel_hi6+0x102>
    80202124:	04ad0863          	beq	s10,a0,80202174 <.Lpcrel_hi6+0xc2>
    80202128:	4519                	li	a0,6
    8020212a:	08ad1963          	bne	s10,a0,802021bc <.Lpcrel_hi6+0x10a>
    8020212e:	0badd503          	lhu	a0,186(s11)
    80202132:	1569                	addi	a0,a0,-6
    80202134:	45b1                	li	a1,12
    80202136:	0aac9d23          	sh	a0,186(s9)
    8020213a:	54b57e63          	bgeu	a0,a1,80202696 <.Lpcrel_hi10>
    8020213e:	088db583          	ld	a1,136(s11)
    80202142:	f4b43423          	sd	a1,-184(s0)
    80202146:	030db583          	ld	a1,48(s11)
    8020214a:	f2b43823          	sd	a1,-208(s0)
    8020214e:	008c8613          	addi	a2,s9,8
    80202152:	038d8593          	addi	a1,s11,56
    80202156:	00351b13          	slli	s6,a0,0x3
    8020215a:	8532                	mv	a0,a2
    8020215c:	865a                	mv	a2,s6
    8020215e:	0000b097          	auipc	ra,0xb
    80202162:	fba080e7          	jalr	-70(ra) # 8020d118 <memcpy>
    80202166:	4d01                	li	s10,0
    80202168:	f2043023          	sd	zero,-224(s0)
    8020216c:	4495                	li	s1,5
    8020216e:	09000593          	li	a1,144
    80202172:	a079                	j	80202200 <.Lpcrel_hi6+0x14e>
    80202174:	0badd503          	lhu	a0,186(s11)
    80202178:	1569                	addi	a0,a0,-6
    8020217a:	45b1                	li	a1,12
    8020217c:	0aac9d23          	sh	a0,186(s9)
    80202180:	52b57463          	bgeu	a0,a1,802026a8 <.Lpcrel_hi9>
    80202184:	088db583          	ld	a1,136(s11)
    80202188:	f4b43423          	sd	a1,-184(s0)
    8020218c:	030db583          	ld	a1,48(s11)
    80202190:	f2b43823          	sd	a1,-208(s0)
    80202194:	008c8613          	addi	a2,s9,8
    80202198:	038d8593          	addi	a1,s11,56
    8020219c:	00351b13          	slli	s6,a0,0x3
    802021a0:	8532                	mv	a0,a2
    802021a2:	865a                	mv	a2,s6
    802021a4:	0000b097          	auipc	ra,0xb
    802021a8:	f74080e7          	jalr	-140(ra) # 8020d118 <memcpy>
    802021ac:	4495                	li	s1,5
    802021ae:	09000593          	li	a1,144
    802021b2:	4d15                	li	s10,5
    802021b4:	f3343023          	sd	s3,-224(s0)
    802021b8:	8bee                	mv	s7,s11
    802021ba:	a0a1                	j	80202202 <.Lpcrel_hi6+0x150>
    802021bc:	0badd503          	lhu	a0,186(s11)
    802021c0:	1565                	addi	a0,a0,-7
    802021c2:	45b1                	li	a1,12
    802021c4:	0aac9d23          	sh	a0,186(s9)
    802021c8:	4eb57963          	bgeu	a0,a1,802026ba <.Lpcrel_hi8>
    802021cc:	090db583          	ld	a1,144(s11)
    802021d0:	f4b43423          	sd	a1,-184(s0)
    802021d4:	038db583          	ld	a1,56(s11)
    802021d8:	f2b43823          	sd	a1,-208(s0)
    802021dc:	1d65                	addi	s10,s10,-7
    802021de:	008c8613          	addi	a2,s9,8
    802021e2:	040d8593          	addi	a1,s11,64
    802021e6:	00351b13          	slli	s6,a0,0x3
    802021ea:	8532                	mv	a0,a2
    802021ec:	865a                	mv	a2,s6
    802021ee:	0000b097          	auipc	ra,0xb
    802021f2:	f2a080e7          	jalr	-214(ra) # 8020d118 <memcpy>
    802021f6:	f2043023          	sd	zero,-224(s0)
    802021fa:	4499                	li	s1,6
    802021fc:	09800593          	li	a1,152
    80202200:	8be6                	mv	s7,s9
    80202202:	f3243423          	sd	s2,-216(s0)
    80202206:	95ee                	add	a1,a1,s11
    80202208:	060c8513          	addi	a0,s9,96
    8020220c:	865a                	mv	a2,s6
    8020220e:	0000b097          	auipc	ra,0xb
    80202212:	f0a080e7          	jalr	-246(ra) # 8020d118 <memcpy>
    80202216:	0a9d9d23          	sh	s1,186(s11)
    8020221a:	0babdb03          	lhu	s6,186(s7)
    8020221e:	008b8c13          	addi	s8,s7,8
    80202222:	003d1493          	slli	s1,s10,0x3
    80202226:	f5a43023          	sd	s10,-192(s0)
    8020222a:	f3743c23          	sd	s7,-200(s0)
    8020222e:	056d7063          	bgeu	s10,s6,8020226e <.Lpcrel_hi6+0x1bc>
    80202232:	009c05b3          	add	a1,s8,s1
    80202236:	00848d13          	addi	s10,s1,8
    8020223a:	01ac0533          	add	a0,s8,s10
    8020223e:	f4043603          	ld	a2,-192(s0)
    80202242:	40cb0933          	sub	s2,s6,a2
    80202246:	090e                	slli	s2,s2,0x3
    80202248:	864a                	mv	a2,s2
    8020224a:	0000b097          	auipc	ra,0xb
    8020224e:	e8c080e7          	jalr	-372(ra) # 8020d0d6 <memmove>
    80202252:	f3843503          	ld	a0,-200(s0)
    80202256:	06050513          	addi	a0,a0,96
    8020225a:	009505b3          	add	a1,a0,s1
    8020225e:	956a                	add	a0,a0,s10
    80202260:	864a                	mv	a2,s2
    80202262:	f3843b83          	ld	s7,-200(s0)
    80202266:	0000b097          	auipc	ra,0xb
    8020226a:	e70080e7          	jalr	-400(ra) # 8020d0d6 <memmove>
    8020226e:	9c26                	add	s8,s8,s1
    80202270:	015c3023          	sd	s5,0(s8)
    80202274:	94de                	add	s1,s1,s7
    80202276:	0b05                	addi	s6,s6,1
    80202278:	0744b023          	sd	s4,96(s1)
    8020227c:	0b6b9d23          	sh	s6,186(s7)
    80202280:	000dba83          	ld	s5,0(s11)
    80202284:	220a8463          	beqz	s5,802024ac <.Lpcrel_hi6+0x3fa>
    80202288:	4481                	li	s1,0
    8020228a:	4d15                	li	s10,5
    8020228c:	4909                	li	s2,2
    8020228e:	f4843b83          	ld	s7,-184(s0)
    80202292:	f3043b03          	ld	s6,-208(s0)
    80202296:	a029                	j	802022a0 <.Lpcrel_hi6+0x1ee>
    80202298:	000dba83          	ld	s5,0(s11)
    8020229c:	200a8d63          	beqz	s5,802024b6 <.Lpcrel_hi6+0x404>
    802022a0:	38999063          	bne	s3,s1,80202620 <.Lpcrel_hi11>
    802022a4:	0baadc03          	lhu	s8,186(s5)
    802022a8:	0b8dda03          	lhu	s4,184(s11)
    802022ac:	452d                	li	a0,11
    802022ae:	28ac6363          	bltu	s8,a0,80202534 <.Lpcrel_hi14+0x62>
    802022b2:	0985                	addi	s3,s3,1
    802022b4:	01aa7c63          	bgeu	s4,s10,802022cc <.Lpcrel_hi6+0x21a>
    802022b8:	f5943423          	sd	s9,-184(s0)
    802022bc:	f5543823          	sd	s5,-176(s0)
    802022c0:	f5343c23          	sd	s3,-168(s0)
    802022c4:	4511                	li	a0,4
    802022c6:	f6a43023          	sd	a0,-160(s0)
    802022ca:	a069                	j	80202354 <.Lpcrel_hi6+0x2a2>
    802022cc:	07aa0c63          	beq	s4,s10,80202344 <.Lpcrel_hi6+0x292>
    802022d0:	4519                	li	a0,6
    802022d2:	16aa1263          	bne	s4,a0,80202436 <.Lpcrel_hi6+0x384>
    802022d6:	f5543823          	sd	s5,-176(s0)
    802022da:	f5343c23          	sd	s3,-168(s0)
    802022de:	f7a43023          	sd	s10,-160(s0)
    802022e2:	f6840513          	addi	a0,s0,-152
    802022e6:	f5040593          	addi	a1,s0,-176
    802022ea:	00000097          	auipc	ra,0x0
    802022ee:	3e2080e7          	jalr	994(ra) # 802026cc <_ZN5alloc11collections5btree4node212Handle$LT$alloc..collections..btree..node..NodeRef$LT$alloc..collections..btree..node..marker..Mut$C$K$C$V$C$alloc..collections..btree..node..marker..Internal$GT$$C$alloc..collections..btree..node..marker..KV$GT$5split17hb2edf8a7ff8db61eE>
    802022f2:	f7843a83          	ld	s5,-136(s0)
    802022f6:	0baad983          	lhu	s3,186(s5)
    802022fa:	0c8a8493          	addi	s1,s5,200
    802022fe:	16098163          	beqz	s3,80202460 <.Lpcrel_hi6+0x3ae>
    80202302:	008a8593          	addi	a1,s5,8
    80202306:	010a8513          	addi	a0,s5,16
    8020230a:	00399a13          	slli	s4,s3,0x3
    8020230e:	8652                	mv	a2,s4
    80202310:	0000b097          	auipc	ra,0xb
    80202314:	dc6080e7          	jalr	-570(ra) # 8020d0d6 <memmove>
    80202318:	060a8593          	addi	a1,s5,96
    8020231c:	068a8513          	addi	a0,s5,104
    80202320:	8652                	mv	a2,s4
    80202322:	0000b097          	auipc	ra,0xb
    80202326:	db4080e7          	jalr	-588(ra) # 8020d0d6 <memmove>
    8020232a:	016ab423          	sd	s6,8(s5)
    8020232e:	077ab023          	sd	s7,96(s5)
    80202332:	0d0a8513          	addi	a0,s5,208
    80202336:	85a6                	mv	a1,s1
    80202338:	8652                	mv	a2,s4
    8020233a:	0000b097          	auipc	ra,0xb
    8020233e:	d9c080e7          	jalr	-612(ra) # 8020d0d6 <memmove>
    80202342:	a21d                	j	80202468 <.Lpcrel_hi6+0x3b6>
    80202344:	f5943423          	sd	s9,-184(s0)
    80202348:	f5543823          	sd	s5,-176(s0)
    8020234c:	f5343c23          	sd	s3,-168(s0)
    80202350:	f7a43023          	sd	s10,-160(s0)
    80202354:	8cda                	mv	s9,s6
    80202356:	f6840513          	addi	a0,s0,-152
    8020235a:	f5040593          	addi	a1,s0,-176
    8020235e:	00000097          	auipc	ra,0x0
    80202362:	36e080e7          	jalr	878(ra) # 802026cc <_ZN5alloc11collections5btree4node212Handle$LT$alloc..collections..btree..node..NodeRef$LT$alloc..collections..btree..node..marker..Mut$C$K$C$V$C$alloc..collections..btree..node..marker..Internal$GT$$C$alloc..collections..btree..node..marker..KV$GT$5split17hb2edf8a7ff8db61eE>
    80202366:	f6843d83          	ld	s11,-152(s0)
    8020236a:	0baddc03          	lhu	s8,186(s11)
    8020236e:	008d8513          	addi	a0,s11,8
    80202372:	001a0493          	addi	s1,s4,1
    80202376:	003a1993          	slli	s3,s4,0x3
    8020237a:	01350b33          	add	s6,a0,s3
    8020237e:	00349d13          	slli	s10,s1,0x3
    80202382:	058a7763          	bgeu	s4,s8,802023d0 <.Lpcrel_hi6+0x31e>
    80202386:	956a                	add	a0,a0,s10
    80202388:	414c0a33          	sub	s4,s8,s4
    8020238c:	0a0e                	slli	s4,s4,0x3
    8020238e:	85da                	mv	a1,s6
    80202390:	8652                	mv	a2,s4
    80202392:	0000b097          	auipc	ra,0xb
    80202396:	d44080e7          	jalr	-700(ra) # 8020d0d6 <memmove>
    8020239a:	060d8513          	addi	a0,s11,96
    8020239e:	01350ab3          	add	s5,a0,s3
    802023a2:	956a                	add	a0,a0,s10
    802023a4:	85d6                	mv	a1,s5
    802023a6:	8652                	mv	a2,s4
    802023a8:	0000b097          	auipc	ra,0xb
    802023ac:	d2e080e7          	jalr	-722(ra) # 8020d0d6 <memmove>
    802023b0:	019b3023          	sd	s9,0(s6)
    802023b4:	017ab023          	sd	s7,0(s5)
    802023b8:	0c0d8513          	addi	a0,s11,192
    802023bc:	01a505b3          	add	a1,a0,s10
    802023c0:	954e                	add	a0,a0,s3
    802023c2:	0541                	addi	a0,a0,16
    802023c4:	8652                	mv	a2,s4
    802023c6:	0000b097          	auipc	ra,0xb
    802023ca:	d10080e7          	jalr	-752(ra) # 8020d0d6 <memmove>
    802023ce:	a039                	j	802023dc <.Lpcrel_hi6+0x32a>
    802023d0:	019b3023          	sd	s9,0(s6)
    802023d4:	013d8533          	add	a0,s11,s3
    802023d8:	07753023          	sd	s7,96(a0)
    802023dc:	001c0513          	addi	a0,s8,1
    802023e0:	9d6e                	add	s10,s10,s11
    802023e2:	002c0593          	addi	a1,s8,2
    802023e6:	f4843603          	ld	a2,-184(s0)
    802023ea:	0ccd3023          	sd	a2,192(s10)
    802023ee:	0aad9d23          	sh	a0,186(s11)
    802023f2:	02b4f263          	bgeu	s1,a1,80202416 <.Lpcrel_hi6+0x364>
    802023f6:	99ee                	add	s3,s3,s11
    802023f8:	0c898513          	addi	a0,s3,200
    802023fc:	418005b3          	neg	a1,s8
    80202400:	6110                	ld	a2,0(a0)
    80202402:	0a961c23          	sh	s1,184(a2)
    80202406:	0485                	addi	s1,s1,1
    80202408:	01b63023          	sd	s11,0(a2)
    8020240c:	00958633          	add	a2,a1,s1
    80202410:	0521                	addi	a0,a0,8
    80202412:	ff2617e3          	bne	a2,s2,80202400 <.Lpcrel_hi6+0x34e>
    80202416:	f6843d83          	ld	s11,-152(s0)
    8020241a:	4d15                	li	s10,5
    8020241c:	100d8763          	beqz	s11,8020252a <.Lpcrel_hi14+0x58>
    80202420:	f7043983          	ld	s3,-144(s0)
    80202424:	f7843c83          	ld	s9,-136(s0)
    80202428:	f8043483          	ld	s1,-128(s0)
    8020242c:	f8843b03          	ld	s6,-120(s0)
    80202430:	f9043b83          	ld	s7,-112(s0)
    80202434:	b595                	j	80202298 <.Lpcrel_hi6+0x1e6>
    80202436:	f5943423          	sd	s9,-184(s0)
    8020243a:	8cda                	mv	s9,s6
    8020243c:	1a65                	addi	s4,s4,-7
    8020243e:	f5543823          	sd	s5,-176(s0)
    80202442:	f5343c23          	sd	s3,-168(s0)
    80202446:	f6a43023          	sd	a0,-160(s0)
    8020244a:	f6840513          	addi	a0,s0,-152
    8020244e:	f5040593          	addi	a1,s0,-176
    80202452:	00000097          	auipc	ra,0x0
    80202456:	27a080e7          	jalr	634(ra) # 802026cc <_ZN5alloc11collections5btree4node212Handle$LT$alloc..collections..btree..node..NodeRef$LT$alloc..collections..btree..node..marker..Mut$C$K$C$V$C$alloc..collections..btree..node..marker..Internal$GT$$C$alloc..collections..btree..node..marker..KV$GT$5split17hb2edf8a7ff8db61eE>
    8020245a:	f7843d83          	ld	s11,-136(s0)
    8020245e:	b731                	j	8020236a <.Lpcrel_hi6+0x2b8>
    80202460:	016ab423          	sd	s6,8(s5)
    80202464:	077ab023          	sd	s7,96(s5)
    80202468:	00198513          	addi	a0,s3,1
    8020246c:	0d9ab423          	sd	s9,200(s5)
    80202470:	0aaa9d23          	sh	a0,186(s5)
    80202474:	41300533          	neg	a0,s3
    80202478:	4585                	li	a1,1
    8020247a:	6090                	ld	a2,0(s1)
    8020247c:	0ab61c23          	sh	a1,184(a2)
    80202480:	0585                	addi	a1,a1,1
    80202482:	01563023          	sd	s5,0(a2)
    80202486:	00b50633          	add	a2,a0,a1
    8020248a:	04a1                	addi	s1,s1,8
    8020248c:	ff2617e3          	bne	a2,s2,8020247a <.Lpcrel_hi6+0x3c8>
    80202490:	f6843d83          	ld	s11,-152(s0)
    80202494:	080d8b63          	beqz	s11,8020252a <.Lpcrel_hi14+0x58>
    80202498:	f7043983          	ld	s3,-144(s0)
    8020249c:	f8043483          	ld	s1,-128(s0)
    802024a0:	f8843b03          	ld	s6,-120(s0)
    802024a4:	f9043b83          	ld	s7,-112(s0)
    802024a8:	8cd6                	mv	s9,s5
    802024aa:	b3fd                	j	80202298 <.Lpcrel_hi6+0x1e6>
    802024ac:	4481                	li	s1,0
    802024ae:	f4843b83          	ld	s7,-184(s0)
    802024b2:	f3043b03          	ld	s6,-208(s0)
    802024b6:	f1843503          	ld	a0,-232(s0)
    802024ba:	00053903          	ld	s2,0(a0)
    802024be:	00093983          	ld	s3,0(s2)
    802024c2:	18098463          	beqz	s3,8020264a <.Lpcrel_hi13>
    802024c6:	00893a03          	ld	s4,8(s2)
    802024ca:	f1043503          	ld	a0,-240(s0)
    802024ce:	00054003          	lbu	zero,0(a0)

00000000802024d2 <.Lpcrel_hi14>:
    802024d2:	00335517          	auipc	a0,0x335
    802024d6:	bd650513          	addi	a0,a0,-1066 # 805370a8 <_ZN2os2mm14heap_allocator14HEAP_ALLOCATOR17hdb009eb0a1c201beE.llvm.13289308715828321855>
    802024da:	45a1                	li	a1,8
    802024dc:	12000613          	li	a2,288
    802024e0:	00008097          	auipc	ra,0x8
    802024e4:	9e0080e7          	jalr	-1568(ra) # 80209ec0 <_ZN87_$LT$buddy_system_allocator..LockedHeap$u20$as$u20$core..alloc..global..GlobalAlloc$GT$5alloc17h3b694276a2754c9bE>
    802024e8:	16050963          	beqz	a0,8020265a <.Lpcrel_hi13+0x10>
    802024ec:	00053023          	sd	zero,0(a0)
    802024f0:	0a051d23          	sh	zero,186(a0)
    802024f4:	0d353023          	sd	s3,192(a0)
    802024f8:	001a0593          	addi	a1,s4,1
    802024fc:	00a9b023          	sd	a0,0(s3)
    80202500:	0a099c23          	sh	zero,184(s3)
    80202504:	00a93023          	sd	a0,0(s2)
    80202508:	00b93423          	sd	a1,8(s2)
    8020250c:	149a1e63          	bne	s4,s1,80202668 <.Lpcrel_hi15>
    80202510:	4585                	li	a1,1
    80202512:	0ab51d23          	sh	a1,186(a0)
    80202516:	01653423          	sd	s6,8(a0)
    8020251a:	07753023          	sd	s7,96(a0)
    8020251e:	0d953423          	sd	s9,200(a0)
    80202522:	00acb023          	sd	a0,0(s9)
    80202526:	0abc9c23          	sh	a1,184(s9)
    8020252a:	f3843d83          	ld	s11,-200(s0)
    8020252e:	f2843903          	ld	s2,-216(s0)
    80202532:	a875                	j	802025ee <.Lpcrel_hi14+0x11c>
    80202534:	8de6                	mv	s11,s9
    80202536:	8cda                	mv	s9,s6
    80202538:	001c0593          	addi	a1,s8,1
    8020253c:	008a8513          	addi	a0,s5,8
    80202540:	001a0493          	addi	s1,s4,1
    80202544:	003a1b13          	slli	s6,s4,0x3
    80202548:	016509b3          	add	s3,a0,s6
    8020254c:	00349d13          	slli	s10,s1,0x3
    80202550:	058a7b63          	bgeu	s4,s8,802025a6 <.Lpcrel_hi14+0xd4>
    80202554:	956a                	add	a0,a0,s10
    80202556:	414c0933          	sub	s2,s8,s4
    8020255a:	090e                	slli	s2,s2,0x3
    8020255c:	f4b43423          	sd	a1,-184(s0)
    80202560:	85ce                	mv	a1,s3
    80202562:	864a                	mv	a2,s2
    80202564:	0000b097          	auipc	ra,0xb
    80202568:	b72080e7          	jalr	-1166(ra) # 8020d0d6 <memmove>
    8020256c:	060a8513          	addi	a0,s5,96
    80202570:	01650a33          	add	s4,a0,s6
    80202574:	956a                	add	a0,a0,s10
    80202576:	85d2                	mv	a1,s4
    80202578:	864a                	mv	a2,s2
    8020257a:	0000b097          	auipc	ra,0xb
    8020257e:	b5c080e7          	jalr	-1188(ra) # 8020d0d6 <memmove>
    80202582:	0199b023          	sd	s9,0(s3)
    80202586:	017a3023          	sd	s7,0(s4)
    8020258a:	0c0a8513          	addi	a0,s5,192
    8020258e:	01a505b3          	add	a1,a0,s10
    80202592:	955a                	add	a0,a0,s6
    80202594:	0541                	addi	a0,a0,16
    80202596:	864a                	mv	a2,s2
    80202598:	0000b097          	auipc	ra,0xb
    8020259c:	b3e080e7          	jalr	-1218(ra) # 8020d0d6 <memmove>
    802025a0:	f4843583          	ld	a1,-184(s0)
    802025a4:	a039                	j	802025b2 <.Lpcrel_hi14+0xe0>
    802025a6:	0199b023          	sd	s9,0(s3)
    802025aa:	016a8533          	add	a0,s5,s6
    802025ae:	07753023          	sd	s7,96(a0)
    802025b2:	f2843903          	ld	s2,-216(s0)
    802025b6:	9d56                	add	s10,s10,s5
    802025b8:	002c0513          	addi	a0,s8,2
    802025bc:	0dbd3023          	sd	s11,192(s10)
    802025c0:	0aba9d23          	sh	a1,186(s5)
    802025c4:	02a4f363          	bgeu	s1,a0,802025ea <.Lpcrel_hi14+0x118>
    802025c8:	9b56                	add	s6,s6,s5
    802025ca:	0c8b0513          	addi	a0,s6,200
    802025ce:	418005b3          	neg	a1,s8
    802025d2:	4609                	li	a2,2
    802025d4:	6114                	ld	a3,0(a0)
    802025d6:	0a969c23          	sh	s1,184(a3)
    802025da:	0485                	addi	s1,s1,1
    802025dc:	0156b023          	sd	s5,0(a3)
    802025e0:	009586b3          	add	a3,a1,s1
    802025e4:	0521                	addi	a0,a0,8
    802025e6:	fec697e3          	bne	a3,a2,802025d4 <.Lpcrel_hi14+0x102>
    802025ea:	f3843d83          	ld	s11,-200(s0)
    802025ee:	f2043b83          	ld	s7,-224(s0)
    802025f2:	01b93023          	sd	s11,0(s2)
    802025f6:	01793423          	sd	s7,8(s2)
    802025fa:	f4043503          	ld	a0,-192(s0)
    802025fe:	00a93823          	sd	a0,16(s2)
    80202602:	70ae                	ld	ra,232(sp)
    80202604:	740e                	ld	s0,224(sp)
    80202606:	64ee                	ld	s1,216(sp)
    80202608:	694e                	ld	s2,208(sp)
    8020260a:	69ae                	ld	s3,200(sp)
    8020260c:	6a0e                	ld	s4,192(sp)
    8020260e:	7aea                	ld	s5,184(sp)
    80202610:	7b4a                	ld	s6,176(sp)
    80202612:	7baa                	ld	s7,168(sp)
    80202614:	7c0a                	ld	s8,160(sp)
    80202616:	6cea                	ld	s9,152(sp)
    80202618:	6d4a                	ld	s10,144(sp)
    8020261a:	6daa                	ld	s11,136(sp)
    8020261c:	616d                	addi	sp,sp,240
    8020261e:	8082                	ret

0000000080202620 <.Lpcrel_hi11>:
    80202620:	0000c517          	auipc	a0,0xc
    80202624:	c1850513          	addi	a0,a0,-1000 # 8020e238 <.Lanon.c9bd757c4b1eb4bed5837722d22f1849.17>

0000000080202628 <.Lpcrel_hi12>:
    80202628:	0000c597          	auipc	a1,0xc
    8020262c:	c4858613          	addi	a2,a1,-952 # 8020e270 <.Lanon.c9bd757c4b1eb4bed5837722d22f1849.18>
    80202630:	03500593          	li	a1,53
    80202634:	00008097          	auipc	ra,0x8
    80202638:	04a080e7          	jalr	74(ra) # 8020a67e <_ZN4core9panicking5panic17h14cc1607a430f055E>
    8020263c:	4521                	li	a0,8
    8020263e:	0c000593          	li	a1,192
    80202642:	00008097          	auipc	ra,0x8
    80202646:	aaa080e7          	jalr	-1366(ra) # 8020a0ec <_ZN5alloc5alloc18handle_alloc_error17h712b744ef0f4e031E>

000000008020264a <.Lpcrel_hi13>:
    8020264a:	0000c517          	auipc	a0,0xc
    8020264e:	a1650513          	addi	a0,a0,-1514 # 8020e060 <.Lanon.c9bd757c4b1eb4bed5837722d22f1849.1>
    80202652:	00008097          	auipc	ra,0x8
    80202656:	fbe080e7          	jalr	-66(ra) # 8020a610 <_ZN4core6option13unwrap_failed17h3c70806c841faa93E>
    8020265a:	4521                	li	a0,8
    8020265c:	12000593          	li	a1,288
    80202660:	00008097          	auipc	ra,0x8
    80202664:	a8c080e7          	jalr	-1396(ra) # 8020a0ec <_ZN5alloc5alloc18handle_alloc_error17h712b744ef0f4e031E>

0000000080202668 <.Lpcrel_hi15>:
    80202668:	0000c517          	auipc	a0,0xc
    8020266c:	a6b50513          	addi	a0,a0,-1429 # 8020e0d3 <.Lanon.c9bd757c4b1eb4bed5837722d22f1849.5>

0000000080202670 <.Lpcrel_hi16>:
    80202670:	0000c597          	auipc	a1,0xc
    80202674:	a9858613          	addi	a2,a1,-1384 # 8020e108 <.Lanon.c9bd757c4b1eb4bed5837722d22f1849.6>
    80202678:	03000593          	li	a1,48
    8020267c:	00008097          	auipc	ra,0x8
    80202680:	002080e7          	jalr	2(ra) # 8020a67e <_ZN4core9panicking5panic17h14cc1607a430f055E>

0000000080202684 <.Lpcrel_hi7>:
    80202684:	0000c597          	auipc	a1,0xc
    80202688:	b8458613          	addi	a2,a1,-1148 # 8020e208 <.Lanon.c9bd757c4b1eb4bed5837722d22f1849.15>
    8020268c:	45ad                	li	a1,11
    8020268e:	00009097          	auipc	ra,0x9
    80202692:	658080e7          	jalr	1624(ra) # 8020bce6 <_ZN4core5slice5index24slice_end_index_len_fail17h4f74974912d1b932E>

0000000080202696 <.Lpcrel_hi10>:
    80202696:	0000c597          	auipc	a1,0xc
    8020269a:	b7258613          	addi	a2,a1,-1166 # 8020e208 <.Lanon.c9bd757c4b1eb4bed5837722d22f1849.15>
    8020269e:	45ad                	li	a1,11
    802026a0:	00009097          	auipc	ra,0x9
    802026a4:	646080e7          	jalr	1606(ra) # 8020bce6 <_ZN4core5slice5index24slice_end_index_len_fail17h4f74974912d1b932E>

00000000802026a8 <.Lpcrel_hi9>:
    802026a8:	0000c597          	auipc	a1,0xc
    802026ac:	b6058613          	addi	a2,a1,-1184 # 8020e208 <.Lanon.c9bd757c4b1eb4bed5837722d22f1849.15>
    802026b0:	45ad                	li	a1,11
    802026b2:	00009097          	auipc	ra,0x9
    802026b6:	634080e7          	jalr	1588(ra) # 8020bce6 <_ZN4core5slice5index24slice_end_index_len_fail17h4f74974912d1b932E>

00000000802026ba <.Lpcrel_hi8>:
    802026ba:	0000c597          	auipc	a1,0xc
    802026be:	b4e58613          	addi	a2,a1,-1202 # 8020e208 <.Lanon.c9bd757c4b1eb4bed5837722d22f1849.15>
    802026c2:	45ad                	li	a1,11
    802026c4:	00009097          	auipc	ra,0x9
    802026c8:	622080e7          	jalr	1570(ra) # 8020bce6 <_ZN4core5slice5index24slice_end_index_len_fail17h4f74974912d1b932E>

00000000802026cc <_ZN5alloc11collections5btree4node212Handle$LT$alloc..collections..btree..node..NodeRef$LT$alloc..collections..btree..node..marker..Mut$C$K$C$V$C$alloc..collections..btree..node..marker..Internal$GT$$C$alloc..collections..btree..node..marker..KV$GT$5split17hb2edf8a7ff8db61eE>:
    802026cc:	7159                	addi	sp,sp,-112
    802026ce:	f486                	sd	ra,104(sp)
    802026d0:	f0a2                	sd	s0,96(sp)
    802026d2:	eca6                	sd	s1,88(sp)
    802026d4:	e8ca                	sd	s2,80(sp)
    802026d6:	e4ce                	sd	s3,72(sp)
    802026d8:	e0d2                	sd	s4,64(sp)
    802026da:	fc56                	sd	s5,56(sp)
    802026dc:	f85a                	sd	s6,48(sp)
    802026de:	f45e                	sd	s7,40(sp)
    802026e0:	f062                	sd	s8,32(sp)
    802026e2:	ec66                	sd	s9,24(sp)
    802026e4:	e86a                	sd	s10,16(sp)
    802026e6:	e46e                	sd	s11,8(sp)
    802026e8:	1880                	addi	s0,sp,112
    802026ea:	89ae                	mv	s3,a1
    802026ec:	0005ba83          	ld	s5,0(a1)
    802026f0:	0baadb03          	lhu	s6,186(s5)

00000000802026f4 <.Lpcrel_hi17>:
    802026f4:	00335597          	auipc	a1,0x335
    802026f8:	b9558593          	addi	a1,a1,-1131 # 80537289 <__rust_no_alloc_shim_is_unstable>
    802026fc:	0005c003          	lbu	zero,0(a1)
    80202700:	892a                	mv	s2,a0

0000000080202702 <.Lpcrel_hi18>:
    80202702:	00335517          	auipc	a0,0x335
    80202706:	9a650513          	addi	a0,a0,-1626 # 805370a8 <_ZN2os2mm14heap_allocator14HEAP_ALLOCATOR17hdb009eb0a1c201beE.llvm.13289308715828321855>
    8020270a:	45a1                	li	a1,8
    8020270c:	12000613          	li	a2,288
    80202710:	00007097          	auipc	ra,0x7
    80202714:	7b0080e7          	jalr	1968(ra) # 80209ec0 <_ZN87_$LT$buddy_system_allocator..LockedHeap$u20$as$u20$core..alloc..global..GlobalAlloc$GT$5alloc17h3b694276a2754c9bE>
    80202718:	cd6d                	beqz	a0,80202812 <.Lpcrel_hi18+0x110>
    8020271a:	8a2a                	mv	s4,a0
    8020271c:	00053023          	sd	zero,0(a0)
    80202720:	0109bd03          	ld	s10,16(s3)
    80202724:	0baad583          	lhu	a1,186(s5)
    80202728:	fffd4513          	not	a0,s10
    8020272c:	952e                	add	a0,a0,a1
    8020272e:	4631                	li	a2,12
    80202730:	0aaa1d23          	sh	a0,186(s4)
    80202734:	0ec57663          	bgeu	a0,a2,80202820 <.Lpcrel_hi19>
    80202738:	001d0d93          	addi	s11,s10,1
    8020273c:	41b585b3          	sub	a1,a1,s11
    80202740:	0ea59963          	bne	a1,a0,80202832 <.Lpcrel_hi20>
    80202744:	008a8593          	addi	a1,s5,8
    80202748:	003d1613          	slli	a2,s10,0x3
    8020274c:	00c586b3          	add	a3,a1,a2
    80202750:	0006bb83          	ld	s7,0(a3)
    80202754:	060a8493          	addi	s1,s5,96
    80202758:	9626                	add	a2,a2,s1
    8020275a:	00063c03          	ld	s8,0(a2)
    8020275e:	008a0613          	addi	a2,s4,8
    80202762:	0d8e                	slli	s11,s11,0x3
    80202764:	95ee                	add	a1,a1,s11
    80202766:	00351c93          	slli	s9,a0,0x3
    8020276a:	8532                	mv	a0,a2
    8020276c:	8666                	mv	a2,s9
    8020276e:	0000b097          	auipc	ra,0xb
    80202772:	9aa080e7          	jalr	-1622(ra) # 8020d118 <memcpy>
    80202776:	01b485b3          	add	a1,s1,s11
    8020277a:	060a0513          	addi	a0,s4,96
    8020277e:	8666                	mv	a2,s9
    80202780:	0000b097          	auipc	ra,0xb
    80202784:	998080e7          	jalr	-1640(ra) # 8020d118 <memcpy>
    80202788:	0baa9d23          	sh	s10,186(s5)
    8020278c:	0baa5483          	lhu	s1,186(s4)
    80202790:	45b1                	li	a1,12
    80202792:	00148513          	addi	a0,s1,1
    80202796:	0ab4fc63          	bgeu	s1,a1,8020284e <.Lpcrel_hi22>
    8020279a:	41ab0633          	sub	a2,s6,s10
    8020279e:	0ca61163          	bne	a2,a0,80202860 <.Lpcrel_hi23>
    802027a2:	9dd6                	add	s11,s11,s5
    802027a4:	0c0d8593          	addi	a1,s11,192
    802027a8:	0c0a0b13          	addi	s6,s4,192
    802027ac:	060e                	slli	a2,a2,0x3
    802027ae:	855a                	mv	a0,s6
    802027b0:	0000b097          	auipc	ra,0xb
    802027b4:	968080e7          	jalr	-1688(ra) # 8020d118 <memcpy>
    802027b8:	0089b503          	ld	a0,8(s3)
    802027bc:	4581                	li	a1,0
    802027be:	00359613          	slli	a2,a1,0x3
    802027c2:	965a                	add	a2,a2,s6
    802027c4:	6210                	ld	a2,0(a2)
    802027c6:	01463023          	sd	s4,0(a2)
    802027ca:	0ab61c23          	sh	a1,184(a2)
    802027ce:	0095f763          	bgeu	a1,s1,802027dc <.Lpcrel_hi18+0xda>
    802027d2:	0095b633          	sltu	a2,a1,s1
    802027d6:	95b2                	add	a1,a1,a2
    802027d8:	feb4f3e3          	bgeu	s1,a1,802027be <.Lpcrel_hi18+0xbc>
    802027dc:	01593023          	sd	s5,0(s2)
    802027e0:	00a93423          	sd	a0,8(s2)
    802027e4:	03793023          	sd	s7,32(s2)
    802027e8:	03893423          	sd	s8,40(s2)
    802027ec:	01493823          	sd	s4,16(s2)
    802027f0:	00a93c23          	sd	a0,24(s2)
    802027f4:	70a6                	ld	ra,104(sp)
    802027f6:	7406                	ld	s0,96(sp)
    802027f8:	64e6                	ld	s1,88(sp)
    802027fa:	6946                	ld	s2,80(sp)
    802027fc:	69a6                	ld	s3,72(sp)
    802027fe:	6a06                	ld	s4,64(sp)
    80202800:	7ae2                	ld	s5,56(sp)
    80202802:	7b42                	ld	s6,48(sp)
    80202804:	7ba2                	ld	s7,40(sp)
    80202806:	7c02                	ld	s8,32(sp)
    80202808:	6ce2                	ld	s9,24(sp)
    8020280a:	6d42                	ld	s10,16(sp)
    8020280c:	6da2                	ld	s11,8(sp)
    8020280e:	6165                	addi	sp,sp,112
    80202810:	8082                	ret
    80202812:	4521                	li	a0,8
    80202814:	12000593          	li	a1,288
    80202818:	00008097          	auipc	ra,0x8
    8020281c:	8d4080e7          	jalr	-1836(ra) # 8020a0ec <_ZN5alloc5alloc18handle_alloc_error17h712b744ef0f4e031E>

0000000080202820 <.Lpcrel_hi19>:
    80202820:	0000c597          	auipc	a1,0xc
    80202824:	9e858613          	addi	a2,a1,-1560 # 8020e208 <.Lanon.c9bd757c4b1eb4bed5837722d22f1849.15>
    80202828:	45ad                	li	a1,11
    8020282a:	00009097          	auipc	ra,0x9
    8020282e:	4bc080e7          	jalr	1212(ra) # 8020bce6 <_ZN4core5slice5index24slice_end_index_len_fail17h4f74974912d1b932E>

0000000080202832 <.Lpcrel_hi20>:
    80202832:	0000c517          	auipc	a0,0xc
    80202836:	99650513          	addi	a0,a0,-1642 # 8020e1c8 <.Lanon.c9bd757c4b1eb4bed5837722d22f1849.13>

000000008020283a <.Lpcrel_hi21>:
    8020283a:	0000c597          	auipc	a1,0xc
    8020283e:	9b658613          	addi	a2,a1,-1610 # 8020e1f0 <.Lanon.c9bd757c4b1eb4bed5837722d22f1849.14>
    80202842:	02800593          	li	a1,40
    80202846:	00008097          	auipc	ra,0x8
    8020284a:	e38080e7          	jalr	-456(ra) # 8020a67e <_ZN4core9panicking5panic17h14cc1607a430f055E>

000000008020284e <.Lpcrel_hi22>:
    8020284e:	0000c597          	auipc	a1,0xc
    80202852:	9d258613          	addi	a2,a1,-1582 # 8020e220 <.Lanon.c9bd757c4b1eb4bed5837722d22f1849.16>
    80202856:	45b1                	li	a1,12
    80202858:	00009097          	auipc	ra,0x9
    8020285c:	48e080e7          	jalr	1166(ra) # 8020bce6 <_ZN4core5slice5index24slice_end_index_len_fail17h4f74974912d1b932E>

0000000080202860 <.Lpcrel_hi23>:
    80202860:	0000c517          	auipc	a0,0xc
    80202864:	96850513          	addi	a0,a0,-1688 # 8020e1c8 <.Lanon.c9bd757c4b1eb4bed5837722d22f1849.13>

0000000080202868 <.Lpcrel_hi24>:
    80202868:	0000c597          	auipc	a1,0xc
    8020286c:	98858613          	addi	a2,a1,-1656 # 8020e1f0 <.Lanon.c9bd757c4b1eb4bed5837722d22f1849.14>
    80202870:	02800593          	li	a1,40
    80202874:	00008097          	auipc	ra,0x8
    80202878:	e0a080e7          	jalr	-502(ra) # 8020a67e <_ZN4core9panicking5panic17h14cc1607a430f055E>

000000008020287c <_ZN5alloc11collections5btree4node29BalancingContext$LT$K$C$V$GT$15bulk_steal_left17he5ba6bd975d060a9E>:
    8020287c:	7119                	addi	sp,sp,-128
    8020287e:	fc86                	sd	ra,120(sp)
    80202880:	f8a2                	sd	s0,112(sp)
    80202882:	f4a6                	sd	s1,104(sp)
    80202884:	f0ca                	sd	s2,96(sp)
    80202886:	ecce                	sd	s3,88(sp)
    80202888:	e8d2                	sd	s4,80(sp)
    8020288a:	e4d6                	sd	s5,72(sp)
    8020288c:	e0da                	sd	s6,64(sp)
    8020288e:	fc5e                	sd	s7,56(sp)
    80202890:	f862                	sd	s8,48(sp)
    80202892:	f466                	sd	s9,40(sp)
    80202894:	f06a                	sd	s10,32(sp)
    80202896:	ec6e                	sd	s11,24(sp)
    80202898:	0100                	addi	s0,sp,128
    8020289a:	8b2a                	mv	s6,a0
    8020289c:	02853b83          	ld	s7,40(a0)
    802028a0:	0babd983          	lhu	s3,186(s7)
    802028a4:	84ae                	mv	s1,a1
    802028a6:	95ce                	add	a1,a1,s3
    802028a8:	4531                	li	a0,12
    802028aa:	12a5f963          	bgeu	a1,a0,802029dc <.Lpcrel_hi27>
    802028ae:	018b3c03          	ld	s8,24(s6)
    802028b2:	0bac5d03          	lhu	s10,186(s8)
    802028b6:	149d6163          	bltu	s10,s1,802029f8 <.Lpcrel_hi29>
    802028ba:	409d0db3          	sub	s11,s10,s1
    802028be:	0bbc1d23          	sh	s11,186(s8)
    802028c2:	f8b43823          	sd	a1,-112(s0)
    802028c6:	0abb9d23          	sh	a1,186(s7)
    802028ca:	008b8a13          	addi	s4,s7,8
    802028ce:	00349913          	slli	s2,s1,0x3
    802028d2:	012a0533          	add	a0,s4,s2
    802028d6:	098e                	slli	s3,s3,0x3
    802028d8:	85d2                	mv	a1,s4
    802028da:	864e                	mv	a2,s3
    802028dc:	0000a097          	auipc	ra,0xa
    802028e0:	7fa080e7          	jalr	2042(ra) # 8020d0d6 <memmove>
    802028e4:	060b8a93          	addi	s5,s7,96
    802028e8:	012a8533          	add	a0,s5,s2
    802028ec:	85d6                	mv	a1,s5
    802028ee:	f9343423          	sd	s3,-120(s0)
    802028f2:	864e                	mv	a2,s3
    802028f4:	0000a097          	auipc	ra,0xa
    802028f8:	7e2080e7          	jalr	2018(ra) # 8020d0d6 <memmove>
    802028fc:	001d8593          	addi	a1,s11,1
    80202900:	40bd0533          	sub	a0,s10,a1
    80202904:	14fd                	addi	s1,s1,-1
    80202906:	10951763          	bne	a0,s1,80202a14 <.Lpcrel_hi31>
    8020290a:	008c0c93          	addi	s9,s8,8
    8020290e:	00359d13          	slli	s10,a1,0x3
    80202912:	01ac85b3          	add	a1,s9,s10
    80202916:	00351493          	slli	s1,a0,0x3
    8020291a:	8552                	mv	a0,s4
    8020291c:	8626                	mv	a2,s1
    8020291e:	0000a097          	auipc	ra,0xa
    80202922:	7fa080e7          	jalr	2042(ra) # 8020d118 <memcpy>
    80202926:	060c0993          	addi	s3,s8,96
    8020292a:	01a985b3          	add	a1,s3,s10
    8020292e:	8556                	mv	a0,s5
    80202930:	8626                	mv	a2,s1
    80202932:	0000a097          	auipc	ra,0xa
    80202936:	7e6080e7          	jalr	2022(ra) # 8020d118 <memcpy>
    8020293a:	0d8e                	slli	s11,s11,0x3
    8020293c:	9cee                	add	s9,s9,s11
    8020293e:	99ee                	add	s3,s3,s11
    80202940:	010b3503          	ld	a0,16(s6)
    80202944:	000b3583          	ld	a1,0(s6)
    80202948:	000cb603          	ld	a2,0(s9)
    8020294c:	0009b683          	ld	a3,0(s3)
    80202950:	050e                	slli	a0,a0,0x3
    80202952:	952e                	add	a0,a0,a1
    80202954:	650c                	ld	a1,8(a0)
    80202956:	e510                	sd	a2,8(a0)
    80202958:	7130                	ld	a2,96(a0)
    8020295a:	f134                	sd	a3,96(a0)
    8020295c:	9a26                	add	s4,s4,s1
    8020295e:	020b3683          	ld	a3,32(s6)
    80202962:	030b3503          	ld	a0,48(s6)
    80202966:	00ba3023          	sd	a1,0(s4)
    8020296a:	94d6                	add	s1,s1,s5
    8020296c:	e090                	sd	a2,0(s1)
    8020296e:	c6b9                	beqz	a3,802029bc <_ZN5alloc11collections5btree4node29BalancingContext$LT$K$C$V$GT$15bulk_steal_left17he5ba6bd975d060a9E+0x140>
    80202970:	c161                	beqz	a0,80202a30 <.Lpcrel_hi33>
    80202972:	0c0b8493          	addi	s1,s7,192
    80202976:	01248533          	add	a0,s1,s2
    8020297a:	f8843603          	ld	a2,-120(s0)
    8020297e:	0621                	addi	a2,a2,8
    80202980:	85a6                	mv	a1,s1
    80202982:	0000a097          	auipc	ra,0xa
    80202986:	754080e7          	jalr	1876(ra) # 8020d0d6 <memmove>
    8020298a:	9c6a                	add	s8,s8,s10
    8020298c:	0c0c0593          	addi	a1,s8,192
    80202990:	8526                	mv	a0,s1
    80202992:	864a                	mv	a2,s2
    80202994:	0000a097          	auipc	ra,0xa
    80202998:	784080e7          	jalr	1924(ra) # 8020d118 <memcpy>
    8020299c:	4501                	li	a0,0
    8020299e:	f9043c03          	ld	s8,-112(s0)
    802029a2:	0c05                	addi	s8,s8,1
    802029a4:	608c                	ld	a1,0(s1)
    802029a6:	00150613          	addi	a2,a0,1
    802029aa:	0175b023          	sd	s7,0(a1)
    802029ae:	0aa59c23          	sh	a0,184(a1)
    802029b2:	04a1                	addi	s1,s1,8
    802029b4:	8532                	mv	a0,a2
    802029b6:	fecc17e3          	bne	s8,a2,802029a4 <_ZN5alloc11collections5btree4node29BalancingContext$LT$K$C$V$GT$15bulk_steal_left17he5ba6bd975d060a9E+0x128>
    802029ba:	a011                	j	802029be <_ZN5alloc11collections5btree4node29BalancingContext$LT$K$C$V$GT$15bulk_steal_left17he5ba6bd975d060a9E+0x142>
    802029bc:	e935                	bnez	a0,80202a30 <.Lpcrel_hi33>
    802029be:	70e6                	ld	ra,120(sp)
    802029c0:	7446                	ld	s0,112(sp)
    802029c2:	74a6                	ld	s1,104(sp)
    802029c4:	7906                	ld	s2,96(sp)
    802029c6:	69e6                	ld	s3,88(sp)
    802029c8:	6a46                	ld	s4,80(sp)
    802029ca:	6aa6                	ld	s5,72(sp)
    802029cc:	6b06                	ld	s6,64(sp)
    802029ce:	7be2                	ld	s7,56(sp)
    802029d0:	7c42                	ld	s8,48(sp)
    802029d2:	7ca2                	ld	s9,40(sp)
    802029d4:	7d02                	ld	s10,32(sp)
    802029d6:	6de2                	ld	s11,24(sp)
    802029d8:	6109                	addi	sp,sp,128
    802029da:	8082                	ret

00000000802029dc <.Lpcrel_hi27>:
    802029dc:	0000c517          	auipc	a0,0xc
    802029e0:	8ac50513          	addi	a0,a0,-1876 # 8020e288 <.Lanon.c9bd757c4b1eb4bed5837722d22f1849.19>

00000000802029e4 <.Lpcrel_hi28>:
    802029e4:	0000c597          	auipc	a1,0xc
    802029e8:	8dc58613          	addi	a2,a1,-1828 # 8020e2c0 <.Lanon.c9bd757c4b1eb4bed5837722d22f1849.20>
    802029ec:	03300593          	li	a1,51
    802029f0:	00008097          	auipc	ra,0x8
    802029f4:	c8e080e7          	jalr	-882(ra) # 8020a67e <_ZN4core9panicking5panic17h14cc1607a430f055E>

00000000802029f8 <.Lpcrel_hi29>:
    802029f8:	0000c517          	auipc	a0,0xc
    802029fc:	8e050513          	addi	a0,a0,-1824 # 8020e2d8 <.Lanon.c9bd757c4b1eb4bed5837722d22f1849.21>

0000000080202a00 <.Lpcrel_hi30>:
    80202a00:	0000c597          	auipc	a1,0xc
    80202a04:	90058613          	addi	a2,a1,-1792 # 8020e300 <.Lanon.c9bd757c4b1eb4bed5837722d22f1849.22>
    80202a08:	02700593          	li	a1,39
    80202a0c:	00008097          	auipc	ra,0x8
    80202a10:	c72080e7          	jalr	-910(ra) # 8020a67e <_ZN4core9panicking5panic17h14cc1607a430f055E>

0000000080202a14 <.Lpcrel_hi31>:
    80202a14:	0000b517          	auipc	a0,0xb
    80202a18:	7b450513          	addi	a0,a0,1972 # 8020e1c8 <.Lanon.c9bd757c4b1eb4bed5837722d22f1849.13>

0000000080202a1c <.Lpcrel_hi32>:
    80202a1c:	0000b597          	auipc	a1,0xb
    80202a20:	7d458613          	addi	a2,a1,2004 # 8020e1f0 <.Lanon.c9bd757c4b1eb4bed5837722d22f1849.14>
    80202a24:	02800593          	li	a1,40
    80202a28:	00008097          	auipc	ra,0x8
    80202a2c:	c56080e7          	jalr	-938(ra) # 8020a67e <_ZN4core9panicking5panic17h14cc1607a430f055E>

0000000080202a30 <.Lpcrel_hi33>:
    80202a30:	0000c517          	auipc	a0,0xc
    80202a34:	8e850513          	addi	a0,a0,-1816 # 8020e318 <.Lanon.c9bd757c4b1eb4bed5837722d22f1849.23>

0000000080202a38 <.Lpcrel_hi34>:
    80202a38:	0000c597          	auipc	a1,0xc
    80202a3c:	90858613          	addi	a2,a1,-1784 # 8020e340 <.Lanon.c9bd757c4b1eb4bed5837722d22f1849.24>
    80202a40:	02800593          	li	a1,40
    80202a44:	00008097          	auipc	ra,0x8
    80202a48:	c3a080e7          	jalr	-966(ra) # 8020a67e <_ZN4core9panicking5panic17h14cc1607a430f055E>

0000000080202a4c <_ZN5alloc11collections5btree4node29BalancingContext$LT$K$C$V$GT$16bulk_steal_right17haf3adb31feb520f2E>:
    80202a4c:	7119                	addi	sp,sp,-128
    80202a4e:	fc86                	sd	ra,120(sp)
    80202a50:	f8a2                	sd	s0,112(sp)
    80202a52:	f4a6                	sd	s1,104(sp)
    80202a54:	f0ca                	sd	s2,96(sp)
    80202a56:	ecce                	sd	s3,88(sp)
    80202a58:	e8d2                	sd	s4,80(sp)
    80202a5a:	e4d6                	sd	s5,72(sp)
    80202a5c:	e0da                	sd	s6,64(sp)
    80202a5e:	fc5e                	sd	s7,56(sp)
    80202a60:	f862                	sd	s8,48(sp)
    80202a62:	f466                	sd	s9,40(sp)
    80202a64:	f06a                	sd	s10,32(sp)
    80202a66:	ec6e                	sd	s11,24(sp)
    80202a68:	0100                	addi	s0,sp,128
    80202a6a:	892a                	mv	s2,a0
    80202a6c:	01853c03          	ld	s8,24(a0)
    80202a70:	0bac5d83          	lhu	s11,186(s8)
    80202a74:	8aae                	mv	s5,a1
    80202a76:	95ee                	add	a1,a1,s11
    80202a78:	4531                	li	a0,12
    80202a7a:	16a5f063          	bgeu	a1,a0,80202bda <.Lpcrel_hi35>
    80202a7e:	02893b83          	ld	s7,40(s2)
    80202a82:	0babd503          	lhu	a0,186(s7)
    80202a86:	17556863          	bltu	a0,s5,80202bf6 <.Lpcrel_hi37>
    80202a8a:	41550cb3          	sub	s9,a0,s5
    80202a8e:	0abc1d23          	sh	a1,186(s8)
    80202a92:	0b9b9d23          	sh	s9,186(s7)
    80202a96:	fffa8813          	addi	a6,s5,-1
    80202a9a:	008b8a13          	addi	s4,s7,8
    80202a9e:	00381493          	slli	s1,a6,0x3
    80202aa2:	009a0533          	add	a0,s4,s1
    80202aa6:	6108                	ld	a0,0(a0)
    80202aa8:	060b8993          	addi	s3,s7,96
    80202aac:	01093603          	ld	a2,16(s2)
    80202ab0:	00093683          	ld	a3,0(s2)
    80202ab4:	00998733          	add	a4,s3,s1
    80202ab8:	6318                	ld	a4,0(a4)
    80202aba:	060e                	slli	a2,a2,0x3
    80202abc:	9636                	add	a2,a2,a3
    80202abe:	6614                	ld	a3,8(a2)
    80202ac0:	e608                	sd	a0,8(a2)
    80202ac2:	723c                	ld	a5,96(a2)
    80202ac4:	f238                	sd	a4,96(a2)
    80202ac6:	008c0513          	addi	a0,s8,8
    80202aca:	003d9713          	slli	a4,s11,0x3
    80202ace:	00e50633          	add	a2,a0,a4
    80202ad2:	e214                	sd	a3,0(a2)
    80202ad4:	060c0b13          	addi	s6,s8,96
    80202ad8:	f8e43423          	sd	a4,-120(s0)
    80202adc:	00eb0633          	add	a2,s6,a4
    80202ae0:	0d85                	addi	s11,s11,1
    80202ae2:	f8b43823          	sd	a1,-112(s0)
    80202ae6:	41b586b3          	sub	a3,a1,s11
    80202aea:	e21c                	sd	a5,0(a2)
    80202aec:	12d81363          	bne	a6,a3,80202c12 <.Lpcrel_hi39>
    80202af0:	003d9d13          	slli	s10,s11,0x3
    80202af4:	956a                	add	a0,a0,s10
    80202af6:	85d2                	mv	a1,s4
    80202af8:	8626                	mv	a2,s1
    80202afa:	0000a097          	auipc	ra,0xa
    80202afe:	61e080e7          	jalr	1566(ra) # 8020d118 <memcpy>
    80202b02:	01ab0533          	add	a0,s6,s10
    80202b06:	85ce                	mv	a1,s3
    80202b08:	8626                	mv	a2,s1
    80202b0a:	0000a097          	auipc	ra,0xa
    80202b0e:	60e080e7          	jalr	1550(ra) # 8020d118 <memcpy>
    80202b12:	0a8e                	slli	s5,s5,0x3
    80202b14:	015a05b3          	add	a1,s4,s5
    80202b18:	84e6                	mv	s1,s9
    80202b1a:	003c9b13          	slli	s6,s9,0x3
    80202b1e:	8552                	mv	a0,s4
    80202b20:	865a                	mv	a2,s6
    80202b22:	0000a097          	auipc	ra,0xa
    80202b26:	5b4080e7          	jalr	1460(ra) # 8020d0d6 <memmove>
    80202b2a:	015985b3          	add	a1,s3,s5
    80202b2e:	854e                	mv	a0,s3
    80202b30:	865a                	mv	a2,s6
    80202b32:	0000a097          	auipc	ra,0xa
    80202b36:	5a4080e7          	jalr	1444(ra) # 8020d0d6 <memmove>
    80202b3a:	02093583          	ld	a1,32(s2)
    80202b3e:	03093503          	ld	a0,48(s2)
    80202b42:	cda5                	beqz	a1,80202bba <_ZN5alloc11collections5btree4node29BalancingContext$LT$K$C$V$GT$16bulk_steal_right17haf3adb31feb520f2E+0x16e>
    80202b44:	c56d                	beqz	a0,80202c2e <.Lpcrel_hi41>
    80202b46:	8926                	mv	s2,s1
    80202b48:	0c0b8493          	addi	s1,s7,192
    80202b4c:	9d62                	add	s10,s10,s8
    80202b4e:	0c0d0513          	addi	a0,s10,192
    80202b52:	85a6                	mv	a1,s1
    80202b54:	8656                	mv	a2,s5
    80202b56:	0000a097          	auipc	ra,0xa
    80202b5a:	5c2080e7          	jalr	1474(ra) # 8020d118 <memcpy>
    80202b5e:	015485b3          	add	a1,s1,s5
    80202b62:	008b0613          	addi	a2,s6,8
    80202b66:	8526                	mv	a0,s1
    80202b68:	0000a097          	auipc	ra,0xa
    80202b6c:	56e080e7          	jalr	1390(ra) # 8020d0d6 <memmove>
    80202b70:	f8843c83          	ld	s9,-120(s0)
    80202b74:	9ce2                	add	s9,s9,s8
    80202b76:	0c8c8513          	addi	a0,s9,200
    80202b7a:	f9043583          	ld	a1,-112(s0)
    80202b7e:	0585                	addi	a1,a1,1
    80202b80:	6110                	ld	a2,0(a0)
    80202b82:	001d8693          	addi	a3,s11,1
    80202b86:	01863023          	sd	s8,0(a2)
    80202b8a:	0bb61c23          	sh	s11,184(a2)
    80202b8e:	0521                	addi	a0,a0,8
    80202b90:	8db6                	mv	s11,a3
    80202b92:	feb697e3          	bne	a3,a1,80202b80 <_ZN5alloc11collections5btree4node29BalancingContext$LT$K$C$V$GT$16bulk_steal_right17haf3adb31feb520f2E+0x134>
    80202b96:	557d                	li	a0,-1
    80202b98:	02a90263          	beq	s2,a0,80202bbc <_ZN5alloc11collections5btree4node29BalancingContext$LT$K$C$V$GT$16bulk_steal_right17haf3adb31feb520f2E+0x170>
    80202b9c:	4581                	li	a1,0
    80202b9e:	00190513          	addi	a0,s2,1
    80202ba2:	6090                	ld	a2,0(s1)
    80202ba4:	00158693          	addi	a3,a1,1
    80202ba8:	01763023          	sd	s7,0(a2)
    80202bac:	0ab61c23          	sh	a1,184(a2)
    80202bb0:	04a1                	addi	s1,s1,8
    80202bb2:	85b6                	mv	a1,a3
    80202bb4:	fed517e3          	bne	a0,a3,80202ba2 <_ZN5alloc11collections5btree4node29BalancingContext$LT$K$C$V$GT$16bulk_steal_right17haf3adb31feb520f2E+0x156>
    80202bb8:	a011                	j	80202bbc <_ZN5alloc11collections5btree4node29BalancingContext$LT$K$C$V$GT$16bulk_steal_right17haf3adb31feb520f2E+0x170>
    80202bba:	e935                	bnez	a0,80202c2e <.Lpcrel_hi41>
    80202bbc:	70e6                	ld	ra,120(sp)
    80202bbe:	7446                	ld	s0,112(sp)
    80202bc0:	74a6                	ld	s1,104(sp)
    80202bc2:	7906                	ld	s2,96(sp)
    80202bc4:	69e6                	ld	s3,88(sp)
    80202bc6:	6a46                	ld	s4,80(sp)
    80202bc8:	6aa6                	ld	s5,72(sp)
    80202bca:	6b06                	ld	s6,64(sp)
    80202bcc:	7be2                	ld	s7,56(sp)
    80202bce:	7c42                	ld	s8,48(sp)
    80202bd0:	7ca2                	ld	s9,40(sp)
    80202bd2:	7d02                	ld	s10,32(sp)
    80202bd4:	6de2                	ld	s11,24(sp)
    80202bd6:	6109                	addi	sp,sp,128
    80202bd8:	8082                	ret

0000000080202bda <.Lpcrel_hi35>:
    80202bda:	0000b517          	auipc	a0,0xb
    80202bde:	77e50513          	addi	a0,a0,1918 # 8020e358 <.Lanon.c9bd757c4b1eb4bed5837722d22f1849.25>

0000000080202be2 <.Lpcrel_hi36>:
    80202be2:	0000b597          	auipc	a1,0xb
    80202be6:	7ae58613          	addi	a2,a1,1966 # 8020e390 <.Lanon.c9bd757c4b1eb4bed5837722d22f1849.26>
    80202bea:	03200593          	li	a1,50
    80202bee:	00008097          	auipc	ra,0x8
    80202bf2:	a90080e7          	jalr	-1392(ra) # 8020a67e <_ZN4core9panicking5panic17h14cc1607a430f055E>

0000000080202bf6 <.Lpcrel_hi37>:
    80202bf6:	0000b517          	auipc	a0,0xb
    80202bfa:	7b250513          	addi	a0,a0,1970 # 8020e3a8 <.Lanon.c9bd757c4b1eb4bed5837722d22f1849.27>

0000000080202bfe <.Lpcrel_hi38>:
    80202bfe:	0000b597          	auipc	a1,0xb
    80202c02:	7d258613          	addi	a2,a1,2002 # 8020e3d0 <.Lanon.c9bd757c4b1eb4bed5837722d22f1849.28>
    80202c06:	02800593          	li	a1,40
    80202c0a:	00008097          	auipc	ra,0x8
    80202c0e:	a74080e7          	jalr	-1420(ra) # 8020a67e <_ZN4core9panicking5panic17h14cc1607a430f055E>

0000000080202c12 <.Lpcrel_hi39>:
    80202c12:	0000b517          	auipc	a0,0xb
    80202c16:	5b650513          	addi	a0,a0,1462 # 8020e1c8 <.Lanon.c9bd757c4b1eb4bed5837722d22f1849.13>

0000000080202c1a <.Lpcrel_hi40>:
    80202c1a:	0000b597          	auipc	a1,0xb
    80202c1e:	5d658613          	addi	a2,a1,1494 # 8020e1f0 <.Lanon.c9bd757c4b1eb4bed5837722d22f1849.14>
    80202c22:	02800593          	li	a1,40
    80202c26:	00008097          	auipc	ra,0x8
    80202c2a:	a58080e7          	jalr	-1448(ra) # 8020a67e <_ZN4core9panicking5panic17h14cc1607a430f055E>

0000000080202c2e <.Lpcrel_hi41>:
    80202c2e:	0000b517          	auipc	a0,0xb
    80202c32:	6ea50513          	addi	a0,a0,1770 # 8020e318 <.Lanon.c9bd757c4b1eb4bed5837722d22f1849.23>

0000000080202c36 <.Lpcrel_hi42>:
    80202c36:	0000b597          	auipc	a1,0xb
    80202c3a:	7b258613          	addi	a2,a1,1970 # 8020e3e8 <.Lanon.c9bd757c4b1eb4bed5837722d22f1849.29>
    80202c3e:	02800593          	li	a1,40
    80202c42:	00008097          	auipc	ra,0x8
    80202c46:	a3c080e7          	jalr	-1476(ra) # 8020a67e <_ZN4core9panicking5panic17h14cc1607a430f055E>

0000000080202c4a <_ZN5alloc11collections5btree4node29BalancingContext$LT$K$C$V$GT$8do_merge17hf1f2ee3d3622da23E>:
    80202c4a:	7135                	addi	sp,sp,-160
    80202c4c:	ed06                	sd	ra,152(sp)
    80202c4e:	e922                	sd	s0,144(sp)
    80202c50:	e526                	sd	s1,136(sp)
    80202c52:	e14a                	sd	s2,128(sp)
    80202c54:	fcce                	sd	s3,120(sp)
    80202c56:	f8d2                	sd	s4,112(sp)
    80202c58:	f4d6                	sd	s5,104(sp)
    80202c5a:	f0da                	sd	s6,96(sp)
    80202c5c:	ecde                	sd	s7,88(sp)
    80202c5e:	e8e2                	sd	s8,80(sp)
    80202c60:	e4e6                	sd	s9,72(sp)
    80202c62:	e0ea                	sd	s10,64(sp)
    80202c64:	fc6e                	sd	s11,56(sp)
    80202c66:	1100                	addi	s0,sp,160
    80202c68:	01853b03          	ld	s6,24(a0)
    80202c6c:	02853903          	ld	s2,40(a0)
    80202c70:	0bab5483          	lhu	s1,186(s6)
    80202c74:	0ba95a83          	lhu	s5,186(s2)
    80202c78:	00148993          	addi	s3,s1,1
    80202c7c:	01598633          	add	a2,s3,s5
    80202c80:	45b1                	li	a1,12
    80202c82:	18b67963          	bgeu	a2,a1,80202e14 <.Lpcrel_hi43>
    80202c86:	00053d83          	ld	s11,0(a0)
    80202c8a:	650c                	ld	a1,8(a0)
    80202c8c:	f8b43823          	sd	a1,-112(s0)
    80202c90:	6914                	ld	a3,16(a0)
    80202c92:	f8d43423          	sd	a3,-120(s0)
    80202c96:	7108                	ld	a0,32(a0)
    80202c98:	f8a43023          	sd	a0,-128(s0)
    80202c9c:	0baddd03          	lhu	s10,186(s11)
    80202ca0:	f6c43423          	sd	a2,-152(s0)
    80202ca4:	0acb1d23          	sh	a2,186(s6)
    80202ca8:	00369c93          	slli	s9,a3,0x3
    80202cac:	9cee                	add	s9,s9,s11
    80202cae:	008c8513          	addi	a0,s9,8
    80202cb2:	008cbc03          	ld	s8,8(s9)
    80202cb6:	010c8593          	addi	a1,s9,16
    80202cba:	fff6c613          	not	a2,a3
    80202cbe:	966a                	add	a2,a2,s10
    80202cc0:	00361a13          	slli	s4,a2,0x3
    80202cc4:	8652                	mv	a2,s4
    80202cc6:	0000a097          	auipc	ra,0xa
    80202cca:	410080e7          	jalr	1040(ra) # 8020d0d6 <memmove>
    80202cce:	008b0513          	addi	a0,s6,8
    80202cd2:	f6943c23          	sd	s1,-136(s0)
    80202cd6:	048e                	slli	s1,s1,0x3
    80202cd8:	009505b3          	add	a1,a0,s1
    80202cdc:	0185b023          	sd	s8,0(a1)
    80202ce0:	00890593          	addi	a1,s2,8
    80202ce4:	00399c13          	slli	s8,s3,0x3
    80202ce8:	9562                	add	a0,a0,s8
    80202cea:	f7543823          	sd	s5,-144(s0)
    80202cee:	0a8e                	slli	s5,s5,0x3
    80202cf0:	8656                	mv	a2,s5
    80202cf2:	0000a097          	auipc	ra,0xa
    80202cf6:	426080e7          	jalr	1062(ra) # 8020d118 <memcpy>
    80202cfa:	060cbb83          	ld	s7,96(s9)
    80202cfe:	060c8513          	addi	a0,s9,96
    80202d02:	068c8593          	addi	a1,s9,104
    80202d06:	8652                	mv	a2,s4
    80202d08:	0000a097          	auipc	ra,0xa
    80202d0c:	3ce080e7          	jalr	974(ra) # 8020d0d6 <memmove>
    80202d10:	060b0513          	addi	a0,s6,96
    80202d14:	f6943023          	sd	s1,-160(s0)
    80202d18:	009505b3          	add	a1,a0,s1
    80202d1c:	0175b023          	sd	s7,0(a1)
    80202d20:	8bca                	mv	s7,s2
    80202d22:	06090593          	addi	a1,s2,96
    80202d26:	9562                	add	a0,a0,s8
    80202d28:	8656                	mv	a2,s5
    80202d2a:	0000a097          	auipc	ra,0xa
    80202d2e:	3ee080e7          	jalr	1006(ra) # 8020d118 <memcpy>
    80202d32:	f8843483          	ld	s1,-120(s0)
    80202d36:	0485                	addi	s1,s1,1
    80202d38:	00349513          	slli	a0,s1,0x3
    80202d3c:	00ad85b3          	add	a1,s11,a0
    80202d40:	0c058513          	addi	a0,a1,192
    80202d44:	0c858593          	addi	a1,a1,200
    80202d48:	8652                	mv	a2,s4
    80202d4a:	0000a097          	auipc	ra,0xa
    80202d4e:	38c080e7          	jalr	908(ra) # 8020d0d6 <memmove>
    80202d52:	01a4ff63          	bgeu	s1,s10,80202d70 <_ZN5alloc11collections5btree4node29BalancingContext$LT$K$C$V$GT$8do_merge17hf1f2ee3d3622da23E+0x126>
    80202d56:	0c8c8513          	addi	a0,s9,200
    80202d5a:	610c                	ld	a1,0(a0)
    80202d5c:	00148613          	addi	a2,s1,1
    80202d60:	01b5b023          	sd	s11,0(a1)
    80202d64:	0a959c23          	sh	s1,184(a1)
    80202d68:	0521                	addi	a0,a0,8
    80202d6a:	84b2                	mv	s1,a2
    80202d6c:	fecd17e3          	bne	s10,a2,80202d5a <_ZN5alloc11collections5btree4node29BalancingContext$LT$K$C$V$GT$8do_merge17hf1f2ee3d3622da23E+0x110>
    80202d70:	0bad9503          	lh	a0,186(s11)
    80202d74:	157d                	addi	a0,a0,-1
    80202d76:	0aad9d23          	sh	a0,186(s11)
    80202d7a:	4509                	li	a0,2
    80202d7c:	0c000693          	li	a3,192
    80202d80:	f9043583          	ld	a1,-112(s0)
    80202d84:	04a5ec63          	bltu	a1,a0,80202ddc <.Lpcrel_hi47>
    80202d88:	f7043903          	ld	s2,-144(s0)
    80202d8c:	00190613          	addi	a2,s2,1
    80202d90:	f7843483          	ld	s1,-136(s0)
    80202d94:	f6843503          	ld	a0,-152(s0)
    80202d98:	8d05                	sub	a0,a0,s1
    80202d9a:	08a61b63          	bne	a2,a0,80202e30 <.Lpcrel_hi45>
    80202d9e:	0c0b0513          	addi	a0,s6,192
    80202da2:	9562                	add	a0,a0,s8
    80202da4:	0c0b8593          	addi	a1,s7,192
    80202da8:	060e                	slli	a2,a2,0x3
    80202daa:	0000a097          	auipc	ra,0xa
    80202dae:	36e080e7          	jalr	878(ra) # 8020d118 <memcpy>
    80202db2:	f6043503          	ld	a0,-160(s0)
    80202db6:	955a                	add	a0,a0,s6
    80202db8:	0c850513          	addi	a0,a0,200
    80202dbc:	012485b3          	add	a1,s1,s2
    80202dc0:	0589                	addi	a1,a1,2
    80202dc2:	6110                	ld	a2,0(a0)
    80202dc4:	00198693          	addi	a3,s3,1
    80202dc8:	01663023          	sd	s6,0(a2)
    80202dcc:	0b361c23          	sh	s3,184(a2)
    80202dd0:	0521                	addi	a0,a0,8
    80202dd2:	89b6                	mv	s3,a3
    80202dd4:	feb697e3          	bne	a3,a1,80202dc2 <_ZN5alloc11collections5btree4node29BalancingContext$LT$K$C$V$GT$8do_merge17hf1f2ee3d3622da23E+0x178>
    80202dd8:	12000693          	li	a3,288

0000000080202ddc <.Lpcrel_hi47>:
    80202ddc:	00334517          	auipc	a0,0x334
    80202de0:	2cc50513          	addi	a0,a0,716 # 805370a8 <_ZN2os2mm14heap_allocator14HEAP_ALLOCATOR17hdb009eb0a1c201beE.llvm.13289308715828321855>
    80202de4:	4621                	li	a2,8
    80202de6:	85de                	mv	a1,s7
    80202de8:	00007097          	auipc	ra,0x7
    80202dec:	126080e7          	jalr	294(ra) # 80209f0e <_ZN87_$LT$buddy_system_allocator..LockedHeap$u20$as$u20$core..alloc..global..GlobalAlloc$GT$7dealloc17h5e5f6d74b20ea42eE>
    80202df0:	855a                	mv	a0,s6
    80202df2:	f8043583          	ld	a1,-128(s0)
    80202df6:	60ea                	ld	ra,152(sp)
    80202df8:	644a                	ld	s0,144(sp)
    80202dfa:	64aa                	ld	s1,136(sp)
    80202dfc:	690a                	ld	s2,128(sp)
    80202dfe:	79e6                	ld	s3,120(sp)
    80202e00:	7a46                	ld	s4,112(sp)
    80202e02:	7aa6                	ld	s5,104(sp)
    80202e04:	7b06                	ld	s6,96(sp)
    80202e06:	6be6                	ld	s7,88(sp)
    80202e08:	6c46                	ld	s8,80(sp)
    80202e0a:	6ca6                	ld	s9,72(sp)
    80202e0c:	6d06                	ld	s10,64(sp)
    80202e0e:	7de2                	ld	s11,56(sp)
    80202e10:	610d                	addi	sp,sp,160
    80202e12:	8082                	ret

0000000080202e14 <.Lpcrel_hi43>:
    80202e14:	0000b517          	auipc	a0,0xb
    80202e18:	69450513          	addi	a0,a0,1684 # 8020e4a8 <.Lanon.c9bd757c4b1eb4bed5837722d22f1849.32>

0000000080202e1c <.Lpcrel_hi44>:
    80202e1c:	0000b597          	auipc	a1,0xb
    80202e20:	6bc58613          	addi	a2,a1,1724 # 8020e4d8 <.Lanon.c9bd757c4b1eb4bed5837722d22f1849.33>
    80202e24:	02a00593          	li	a1,42
    80202e28:	00008097          	auipc	ra,0x8
    80202e2c:	856080e7          	jalr	-1962(ra) # 8020a67e <_ZN4core9panicking5panic17h14cc1607a430f055E>

0000000080202e30 <.Lpcrel_hi45>:
    80202e30:	0000b517          	auipc	a0,0xb
    80202e34:	39850513          	addi	a0,a0,920 # 8020e1c8 <.Lanon.c9bd757c4b1eb4bed5837722d22f1849.13>

0000000080202e38 <.Lpcrel_hi46>:
    80202e38:	0000b597          	auipc	a1,0xb
    80202e3c:	3b858613          	addi	a2,a1,952 # 8020e1f0 <.Lanon.c9bd757c4b1eb4bed5837722d22f1849.14>
    80202e40:	02800593          	li	a1,40
    80202e44:	00008097          	auipc	ra,0x8
    80202e48:	83a080e7          	jalr	-1990(ra) # 8020a67e <_ZN4core9panicking5panic17h14cc1607a430f055E>

0000000080202e4c <_ZN5alloc11collections5btree6remove259_$LT$impl$u20$alloc..collections..btree..node..Handle$LT$alloc..collections..btree..node..NodeRef$LT$alloc..collections..btree..node..marker..Mut$C$K$C$V$C$alloc..collections..btree..node..marker..Leaf$GT$$C$alloc..collections..btree..node..marker..KV$GT$$GT$14remove_leaf_kv17h2634440dbc39ecdbE>:
    80202e4c:	7109                	addi	sp,sp,-384
    80202e4e:	fe86                	sd	ra,376(sp)
    80202e50:	faa2                	sd	s0,368(sp)
    80202e52:	f6a6                	sd	s1,360(sp)
    80202e54:	f2ca                	sd	s2,352(sp)
    80202e56:	eece                	sd	s3,344(sp)
    80202e58:	ead2                	sd	s4,336(sp)
    80202e5a:	e6d6                	sd	s5,328(sp)
    80202e5c:	e2da                	sd	s6,320(sp)
    80202e5e:	fe5e                	sd	s7,312(sp)
    80202e60:	fa62                	sd	s8,304(sp)
    80202e62:	f666                	sd	s9,296(sp)
    80202e64:	f26a                	sd	s10,288(sp)
    80202e66:	ee6e                	sd	s11,280(sp)
    80202e68:	0300                	addi	s0,sp,384
    80202e6a:	89ae                	mv	s3,a1
    80202e6c:	0005bc83          	ld	s9,0(a1)
    80202e70:	0105ba83          	ld	s5,16(a1)
    80202e74:	8d32                	mv	s10,a2
    80202e76:	8b2a                	mv	s6,a0
    80202e78:	0bacd903          	lhu	s2,186(s9)
    80202e7c:	003a9513          	slli	a0,s5,0x3
    80202e80:	00ac84b3          	add	s1,s9,a0
    80202e84:	00848513          	addi	a0,s1,8
    80202e88:	0084bb83          	ld	s7,8(s1)
    80202e8c:	01048593          	addi	a1,s1,16
    80202e90:	fffac613          	not	a2,s5
    80202e94:	964a                	add	a2,a2,s2
    80202e96:	00361a13          	slli	s4,a2,0x3
    80202e9a:	8652                	mv	a2,s4
    80202e9c:	0000a097          	auipc	ra,0xa
    80202ea0:	23a080e7          	jalr	570(ra) # 8020d0d6 <memmove>
    80202ea4:	0604bc03          	ld	s8,96(s1)
    80202ea8:	06048513          	addi	a0,s1,96
    80202eac:	06848593          	addi	a1,s1,104
    80202eb0:	8652                	mv	a2,s4
    80202eb2:	0000a097          	auipc	ra,0xa
    80202eb6:	224080e7          	jalr	548(ra) # 8020d0d6 <memmove>
    80202eba:	197d                	addi	s2,s2,-1
    80202ebc:	03091513          	slli	a0,s2,0x30
    80202ec0:	0089b983          	ld	s3,8(s3)
    80202ec4:	9141                	srli	a0,a0,0x30
    80202ec6:	4591                	li	a1,4
    80202ec8:	0b2c9d23          	sh	s2,186(s9)
    80202ecc:	14a5ee63          	bltu	a1,a0,80203028 <_ZN5alloc11collections5btree6remove259_$LT$impl$u20$alloc..collections..btree..node..Handle$LT$alloc..collections..btree..node..NodeRef$LT$alloc..collections..btree..node..marker..Mut$C$K$C$V$C$alloc..collections..btree..node..marker..Leaf$GT$$C$alloc..collections..btree..node..marker..KV$GT$$GT$14remove_leaf_kv17h2634440dbc39ecdbE+0x1dc>
    80202ed0:	000cb583          	ld	a1,0(s9)
    80202ed4:	14058a63          	beqz	a1,80203028 <_ZN5alloc11collections5btree6remove259_$LT$impl$u20$alloc..collections..btree..node..Handle$LT$alloc..collections..btree..node..NodeRef$LT$alloc..collections..btree..node..marker..Mut$C$K$C$V$C$alloc..collections..btree..node..marker..Leaf$GT$$C$alloc..collections..btree..node..marker..KV$GT$$GT$14remove_leaf_kv17h2634440dbc39ecdbE+0x1dc>
    80202ed8:	0b8cd683          	lhu	a3,184(s9)
    80202edc:	00198613          	addi	a2,s3,1
    80202ee0:	e9a43423          	sd	s10,-376(s0)
    80202ee4:	cea1                	beqz	a3,80202f3c <_ZN5alloc11collections5btree6remove259_$LT$impl$u20$alloc..collections..btree..node..Handle$LT$alloc..collections..btree..node..NodeRef$LT$alloc..collections..btree..node..marker..Mut$C$K$C$V$C$alloc..collections..btree..node..marker..Leaf$GT$$C$alloc..collections..btree..node..marker..KV$GT$$GT$14remove_leaf_kv17h2634440dbc39ecdbE+0xf0>
    80202ee6:	16fd                	addi	a3,a3,-1
    80202ee8:	00369713          	slli	a4,a3,0x3
    80202eec:	972e                	add	a4,a4,a1
    80202eee:	6378                	ld	a4,192(a4)
    80202ef0:	0ba75903          	lhu	s2,186(a4)
    80202ef4:	00a907b3          	add	a5,s2,a0
    80202ef8:	0785                	addi	a5,a5,1
    80202efa:	44b1                	li	s1,12
    80202efc:	0897f763          	bgeu	a5,s1,80202f8a <_ZN5alloc11collections5btree6remove259_$LT$impl$u20$alloc..collections..btree..node..Handle$LT$alloc..collections..btree..node..NodeRef$LT$alloc..collections..btree..node..marker..Mut$C$K$C$V$C$alloc..collections..btree..node..marker..Leaf$GT$$C$alloc..collections..btree..node..marker..KV$GT$$GT$14remove_leaf_kv17h2634440dbc39ecdbE+0x13e>
    80202f00:	f2b43423          	sd	a1,-216(s0)
    80202f04:	f2c43823          	sd	a2,-208(s0)
    80202f08:	f2d43c23          	sd	a3,-200(s0)
    80202f0c:	f4e43023          	sd	a4,-192(s0)
    80202f10:	f5343423          	sd	s3,-184(s0)
    80202f14:	f5943823          	sd	s9,-176(s0)
    80202f18:	f5343c23          	sd	s3,-168(s0)
    80202f1c:	41556a63          	bltu	a0,s5,80203330 <.Lpcrel_hi50>
    80202f20:	f2840513          	addi	a0,s0,-216
    80202f24:	00000097          	auipc	ra,0x0
    80202f28:	d26080e7          	jalr	-730(ra) # 80202c4a <_ZN5alloc11collections5btree4node29BalancingContext$LT$K$C$V$GT$8do_merge17hf1f2ee3d3622da23E>
    80202f2c:	8caa                	mv	s9,a0
    80202f2e:	89ae                	mv	s3,a1
    80202f30:	9956                	add	s2,s2,s5
    80202f32:	00190a93          	addi	s5,s2,1
    80202f36:	611c                	ld	a5,0(a0)
    80202f38:	ebdd                	bnez	a5,80202fee <_ZN5alloc11collections5btree6remove259_$LT$impl$u20$alloc..collections..btree..node..Handle$LT$alloc..collections..btree..node..NodeRef$LT$alloc..collections..btree..node..marker..Mut$C$K$C$V$C$alloc..collections..btree..node..marker..Leaf$GT$$C$alloc..collections..btree..node..marker..KV$GT$$GT$14remove_leaf_kv17h2634440dbc39ecdbE+0x1a2>
    80202f3a:	a0fd                	j	80203028 <_ZN5alloc11collections5btree6remove259_$LT$impl$u20$alloc..collections..btree..node..Handle$LT$alloc..collections..btree..node..NodeRef$LT$alloc..collections..btree..node..marker..Mut$C$K$C$V$C$alloc..collections..btree..node..marker..Leaf$GT$$C$alloc..collections..btree..node..marker..KV$GT$$GT$14remove_leaf_kv17h2634440dbc39ecdbE+0x1dc>
    80202f3c:	0ba5d683          	lhu	a3,186(a1)
    80202f40:	3a068d63          	beqz	a3,802032fa <.Lpcrel_hi48>
    80202f44:	65f4                	ld	a3,200(a1)
    80202f46:	0ba6d703          	lhu	a4,186(a3)
    80202f4a:	972a                	add	a4,a4,a0
    80202f4c:	0705                	addi	a4,a4,1
    80202f4e:	47b1                	li	a5,12
    80202f50:	06f77763          	bgeu	a4,a5,80202fbe <_ZN5alloc11collections5btree6remove259_$LT$impl$u20$alloc..collections..btree..node..Handle$LT$alloc..collections..btree..node..NodeRef$LT$alloc..collections..btree..node..marker..Mut$C$K$C$V$C$alloc..collections..btree..node..marker..Leaf$GT$$C$alloc..collections..btree..node..marker..KV$GT$$GT$14remove_leaf_kv17h2634440dbc39ecdbE+0x172>
    80202f54:	f2b43423          	sd	a1,-216(s0)
    80202f58:	f2c43823          	sd	a2,-208(s0)
    80202f5c:	f2043c23          	sd	zero,-200(s0)
    80202f60:	f5943023          	sd	s9,-192(s0)
    80202f64:	f5343423          	sd	s3,-184(s0)
    80202f68:	f4d43823          	sd	a3,-176(s0)
    80202f6c:	f5343c23          	sd	s3,-168(s0)
    80202f70:	3d556e63          	bltu	a0,s5,8020334c <.Lpcrel_hi52>
    80202f74:	f2840513          	addi	a0,s0,-216
    80202f78:	00000097          	auipc	ra,0x0
    80202f7c:	cd2080e7          	jalr	-814(ra) # 80202c4a <_ZN5alloc11collections5btree4node29BalancingContext$LT$K$C$V$GT$8do_merge17hf1f2ee3d3622da23E>
    80202f80:	8caa                	mv	s9,a0
    80202f82:	89ae                	mv	s3,a1
    80202f84:	611c                	ld	a5,0(a0)
    80202f86:	e7a5                	bnez	a5,80202fee <_ZN5alloc11collections5btree6remove259_$LT$impl$u20$alloc..collections..btree..node..Handle$LT$alloc..collections..btree..node..NodeRef$LT$alloc..collections..btree..node..marker..Mut$C$K$C$V$C$alloc..collections..btree..node..marker..Leaf$GT$$C$alloc..collections..btree..node..marker..KV$GT$$GT$14remove_leaf_kv17h2634440dbc39ecdbE+0x1a2>
    80202f88:	a045                	j	80203028 <_ZN5alloc11collections5btree6remove259_$LT$impl$u20$alloc..collections..btree..node..Handle$LT$alloc..collections..btree..node..NodeRef$LT$alloc..collections..btree..node..marker..Mut$C$K$C$V$C$alloc..collections..btree..node..marker..Leaf$GT$$C$alloc..collections..btree..node..marker..KV$GT$$GT$14remove_leaf_kv17h2634440dbc39ecdbE+0x1dc>
    80202f8a:	f2b43423          	sd	a1,-216(s0)
    80202f8e:	f2c43823          	sd	a2,-208(s0)
    80202f92:	f2d43c23          	sd	a3,-200(s0)
    80202f96:	f4e43023          	sd	a4,-192(s0)
    80202f9a:	f5343423          	sd	s3,-184(s0)
    80202f9e:	f5943823          	sd	s9,-176(s0)
    80202fa2:	f5343c23          	sd	s3,-168(s0)
    80202fa6:	f2840513          	addi	a0,s0,-216
    80202faa:	4585                	li	a1,1
    80202fac:	00000097          	auipc	ra,0x0
    80202fb0:	8d0080e7          	jalr	-1840(ra) # 8020287c <_ZN5alloc11collections5btree4node29BalancingContext$LT$K$C$V$GT$15bulk_steal_left17he5ba6bd975d060a9E>
    80202fb4:	0a85                	addi	s5,s5,1
    80202fb6:	000cb783          	ld	a5,0(s9)
    80202fba:	eb95                	bnez	a5,80202fee <_ZN5alloc11collections5btree6remove259_$LT$impl$u20$alloc..collections..btree..node..Handle$LT$alloc..collections..btree..node..NodeRef$LT$alloc..collections..btree..node..marker..Mut$C$K$C$V$C$alloc..collections..btree..node..marker..Leaf$GT$$C$alloc..collections..btree..node..marker..KV$GT$$GT$14remove_leaf_kv17h2634440dbc39ecdbE+0x1a2>
    80202fbc:	a0b5                	j	80203028 <_ZN5alloc11collections5btree6remove259_$LT$impl$u20$alloc..collections..btree..node..Handle$LT$alloc..collections..btree..node..NodeRef$LT$alloc..collections..btree..node..marker..Mut$C$K$C$V$C$alloc..collections..btree..node..marker..Leaf$GT$$C$alloc..collections..btree..node..marker..KV$GT$$GT$14remove_leaf_kv17h2634440dbc39ecdbE+0x1dc>
    80202fbe:	f2b43423          	sd	a1,-216(s0)
    80202fc2:	f2c43823          	sd	a2,-208(s0)
    80202fc6:	f2043c23          	sd	zero,-200(s0)
    80202fca:	f5943023          	sd	s9,-192(s0)
    80202fce:	f5343423          	sd	s3,-184(s0)
    80202fd2:	f4d43823          	sd	a3,-176(s0)
    80202fd6:	f5343c23          	sd	s3,-168(s0)
    80202fda:	f2840513          	addi	a0,s0,-216
    80202fde:	4585                	li	a1,1
    80202fe0:	00000097          	auipc	ra,0x0
    80202fe4:	a6c080e7          	jalr	-1428(ra) # 80202a4c <_ZN5alloc11collections5btree4node29BalancingContext$LT$K$C$V$GT$16bulk_steal_right17haf3adb31feb520f2E>
    80202fe8:	000cb783          	ld	a5,0(s9)
    80202fec:	cf95                	beqz	a5,80203028 <_ZN5alloc11collections5btree6remove259_$LT$impl$u20$alloc..collections..btree..node..Handle$LT$alloc..collections..btree..node..NodeRef$LT$alloc..collections..btree..node..marker..Mut$C$K$C$V$C$alloc..collections..btree..node..marker..Leaf$GT$$C$alloc..collections..btree..node..marker..KV$GT$$GT$14remove_leaf_kv17h2634440dbc39ecdbE+0x1dc>
    80202fee:	eb343c23          	sd	s3,-328(s0)
    80202ff2:	e9943823          	sd	s9,-368(s0)
    80202ff6:	e9843c23          	sd	s8,-360(s0)
    80202ffa:	eb743023          	sd	s7,-352(s0)
    80202ffe:	eb643423          	sd	s6,-344(s0)
    80203002:	eb543823          	sd	s5,-336(s0)
    80203006:	0ba7d583          	lhu	a1,186(a5)
    8020300a:	4511                	li	a0,4
    8020300c:	04b57763          	bgeu	a0,a1,8020305a <_ZN5alloc11collections5btree6remove259_$LT$impl$u20$alloc..collections..btree..node..Handle$LT$alloc..collections..btree..node..NodeRef$LT$alloc..collections..btree..node..marker..Mut$C$K$C$V$C$alloc..collections..btree..node..marker..Leaf$GT$$C$alloc..collections..btree..node..marker..KV$GT$$GT$14remove_leaf_kv17h2634440dbc39ecdbE+0x20e>
    80203010:	eb043a83          	ld	s5,-336(s0)
    80203014:	ea843b03          	ld	s6,-344(s0)
    80203018:	ea043b83          	ld	s7,-352(s0)
    8020301c:	e9843c03          	ld	s8,-360(s0)
    80203020:	e9043c83          	ld	s9,-368(s0)
    80203024:	eb843983          	ld	s3,-328(s0)
    80203028:	017b3023          	sd	s7,0(s6)
    8020302c:	018b3423          	sd	s8,8(s6)
    80203030:	019b3823          	sd	s9,16(s6)
    80203034:	013b3c23          	sd	s3,24(s6)
    80203038:	035b3023          	sd	s5,32(s6)
    8020303c:	70f6                	ld	ra,376(sp)
    8020303e:	7456                	ld	s0,368(sp)
    80203040:	74b6                	ld	s1,360(sp)
    80203042:	7916                	ld	s2,352(sp)
    80203044:	69f6                	ld	s3,344(sp)
    80203046:	6a56                	ld	s4,336(sp)
    80203048:	6ab6                	ld	s5,328(sp)
    8020304a:	6b16                	ld	s6,320(sp)
    8020304c:	7bf2                	ld	s7,312(sp)
    8020304e:	7c52                	ld	s8,304(sp)
    80203050:	7cb2                	ld	s9,296(sp)
    80203052:	7d12                	ld	s10,288(sp)
    80203054:	6df2                	ld	s11,280(sp)
    80203056:	6119                	addi	sp,sp,384
    80203058:	8082                	ret
    8020305a:	eb843503          	ld	a0,-328(s0)
    8020305e:	0505                	addi	a0,a0,1
    80203060:	a025                	j	80203088 <.Lpcrel_hi58+0x22>
    80203062:	12000693          	li	a3,288

0000000080203066 <.Lpcrel_hi58>:
    80203066:	00334517          	auipc	a0,0x334
    8020306a:	04250513          	addi	a0,a0,66 # 805370a8 <_ZN2os2mm14heap_allocator14HEAP_ALLOCATOR17hdb009eb0a1c201beE.llvm.13289308715828321855>
    8020306e:	4621                	li	a2,8
    80203070:	85ca                	mv	a1,s2
    80203072:	00007097          	auipc	ra,0x7
    80203076:	e9c080e7          	jalr	-356(ra) # 80209f0e <_ZN87_$LT$buddy_system_allocator..LockedHeap$u20$as$u20$core..alloc..global..GlobalAlloc$GT$7dealloc17h5e5f6d74b20ea42eE>
    8020307a:	0bad5583          	lhu	a1,186(s10)
    8020307e:	87ea                	mv	a5,s10
    80203080:	8526                	mv	a0,s1
    80203082:	4611                	li	a2,4
    80203084:	f8b666e3          	bltu	a2,a1,80203010 <_ZN5alloc11collections5btree6remove259_$LT$impl$u20$alloc..collections..btree..node..Handle$LT$alloc..collections..btree..node..NodeRef$LT$alloc..collections..btree..node..marker..Mut$C$K$C$V$C$alloc..collections..btree..node..marker..Leaf$GT$$C$alloc..collections..btree..node..marker..KV$GT$$GT$14remove_leaf_kv17h2634440dbc39ecdbE+0x1c4>
    80203088:	0007bd03          	ld	s10,0(a5)
    8020308c:	15c2                	slli	a1,a1,0x30
    8020308e:	1e0d0163          	beqz	s10,80203270 <.Lpcrel_hi58+0x20a>
    80203092:	0b87dd83          	lhu	s11,184(a5)
    80203096:	0305d913          	srli	s2,a1,0x30
    8020309a:	00150693          	addi	a3,a0,1
    8020309e:	eed43023          	sd	a3,-288(s0)
    802030a2:	040d8963          	beqz	s11,802030f4 <.Lpcrel_hi58+0x8e>
    802030a6:	1dfd                	addi	s11,s11,-1
    802030a8:	003d9593          	slli	a1,s11,0x3
    802030ac:	95ea                	add	a1,a1,s10
    802030ae:	0c05ba03          	ld	s4,192(a1)
    802030b2:	efa43823          	sd	s10,-272(s0)
    802030b6:	eed43c23          	sd	a3,-264(s0)
    802030ba:	f1b43023          	sd	s11,-256(s0)
    802030be:	0baa5483          	lhu	s1,186(s4)
    802030c2:	f1443423          	sd	s4,-248(s0)
    802030c6:	f0a43823          	sd	a0,-240(s0)
    802030ca:	f2a43023          	sd	a0,-224(s0)
    802030ce:	00990533          	add	a0,s2,s1
    802030d2:	0505                	addi	a0,a0,1
    802030d4:	f0f43c23          	sd	a5,-232(s0)
    802030d8:	45b1                	li	a1,12
    802030da:	1ab57363          	bgeu	a0,a1,80203280 <.Lpcrel_hi58+0x21a>
    802030de:	0bad5c03          	lhu	s8,186(s10)
    802030e2:	00148c93          	addi	s9,s1,1
    802030e6:	012c8733          	add	a4,s9,s2
    802030ea:	ecf43c23          	sd	a5,-296(s0)
    802030ee:	ef243423          	sd	s2,-280(s0)
    802030f2:	a0a9                	j	8020313c <.Lpcrel_hi58+0xd6>
    802030f4:	0bad5c03          	lhu	s8,186(s10)
    802030f8:	1c0c0663          	beqz	s8,802032c4 <.Lpcrel_hi54>
    802030fc:	0c8d3583          	ld	a1,200(s10)
    80203100:	f3a43423          	sd	s10,-216(s0)
    80203104:	f2d43823          	sd	a3,-208(s0)
    80203108:	f2043c23          	sd	zero,-200(s0)
    8020310c:	f4f43023          	sd	a5,-192(s0)
    80203110:	0ba5d603          	lhu	a2,186(a1)
    80203114:	f4a43423          	sd	a0,-184(s0)
    80203118:	f4a43c23          	sd	a0,-168(s0)
    8020311c:	00190c93          	addi	s9,s2,1
    80203120:	00cc8733          	add	a4,s9,a2
    80203124:	f4b43823          	sd	a1,-176(s0)
    80203128:	4531                	li	a0,12
    8020312a:	16a77563          	bgeu	a4,a0,80203294 <.Lpcrel_hi58+0x22e>
    8020312e:	4d81                	li	s11,0
    80203130:	8a3e                	mv	s4,a5
    80203132:	ecb43c23          	sd	a1,-296(s0)
    80203136:	84ca                	mv	s1,s2
    80203138:	eec43423          	sd	a2,-280(s0)
    8020313c:	edb43823          	sd	s11,-304(s0)
    80203140:	ece43423          	sd	a4,-312(s0)
    80203144:	0aea1d23          	sh	a4,186(s4)
    80203148:	003d9513          	slli	a0,s11,0x3
    8020314c:	00ad0b33          	add	s6,s10,a0
    80203150:	008b0513          	addi	a0,s6,8
    80203154:	008b3a83          	ld	s5,8(s6)
    80203158:	010b0593          	addi	a1,s6,16
    8020315c:	fffdc613          	not	a2,s11
    80203160:	9662                	add	a2,a2,s8
    80203162:	00361b93          	slli	s7,a2,0x3
    80203166:	865e                	mv	a2,s7
    80203168:	0000a097          	auipc	ra,0xa
    8020316c:	f6e080e7          	jalr	-146(ra) # 8020d0d6 <memmove>
    80203170:	008a0513          	addi	a0,s4,8
    80203174:	ec943023          	sd	s1,-320(s0)
    80203178:	00349993          	slli	s3,s1,0x3
    8020317c:	013505b3          	add	a1,a0,s3
    80203180:	0155b023          	sd	s5,0(a1)
    80203184:	ed843903          	ld	s2,-296(s0)
    80203188:	00890593          	addi	a1,s2,8
    8020318c:	003c9a93          	slli	s5,s9,0x3
    80203190:	9556                	add	a0,a0,s5
    80203192:	ee843483          	ld	s1,-280(s0)
    80203196:	048e                	slli	s1,s1,0x3
    80203198:	8626                	mv	a2,s1
    8020319a:	0000a097          	auipc	ra,0xa
    8020319e:	f7e080e7          	jalr	-130(ra) # 8020d118 <memcpy>
    802031a2:	060b3d83          	ld	s11,96(s6)
    802031a6:	060b0513          	addi	a0,s6,96
    802031aa:	068b0593          	addi	a1,s6,104
    802031ae:	865e                	mv	a2,s7
    802031b0:	0000a097          	auipc	ra,0xa
    802031b4:	f26080e7          	jalr	-218(ra) # 8020d0d6 <memmove>
    802031b8:	060a0513          	addi	a0,s4,96
    802031bc:	99aa                	add	s3,s3,a0
    802031be:	01b9b023          	sd	s11,0(s3)
    802031c2:	06090593          	addi	a1,s2,96
    802031c6:	9556                	add	a0,a0,s5
    802031c8:	8626                	mv	a2,s1
    802031ca:	0000a097          	auipc	ra,0xa
    802031ce:	f4e080e7          	jalr	-178(ra) # 8020d118 <memcpy>
    802031d2:	ed043d83          	ld	s11,-304(s0)
    802031d6:	0d85                	addi	s11,s11,1
    802031d8:	003d9513          	slli	a0,s11,0x3
    802031dc:	956a                	add	a0,a0,s10
    802031de:	0c050493          	addi	s1,a0,192
    802031e2:	0c850593          	addi	a1,a0,200
    802031e6:	8526                	mv	a0,s1
    802031e8:	865e                	mv	a2,s7
    802031ea:	0000a097          	auipc	ra,0xa
    802031ee:	eec080e7          	jalr	-276(ra) # 8020d0d6 <memmove>
    802031f2:	018dfd63          	bgeu	s11,s8,8020320c <.Lpcrel_hi58+0x1a6>
    802031f6:	6088                	ld	a0,0(s1)
    802031f8:	001d8593          	addi	a1,s11,1
    802031fc:	01a53023          	sd	s10,0(a0)
    80203200:	0bb51c23          	sh	s11,184(a0)
    80203204:	04a1                	addi	s1,s1,8
    80203206:	8dae                	mv	s11,a1
    80203208:	febc17e3          	bne	s8,a1,802031f6 <.Lpcrel_hi58+0x190>
    8020320c:	0bad1503          	lh	a0,186(s10)
    80203210:	157d                	addi	a0,a0,-1
    80203212:	0aad1d23          	sh	a0,186(s10)
    80203216:	0c000693          	li	a3,192
    8020321a:	4509                	li	a0,2
    8020321c:	ee043483          	ld	s1,-288(s0)
    80203220:	e4a4e3e3          	bltu	s1,a0,80203066 <.Lpcrel_hi58>
    80203224:	ee843603          	ld	a2,-280(s0)
    80203228:	0605                	addi	a2,a2,1
    8020322a:	ec843983          	ld	s3,-312(s0)
    8020322e:	ec043503          	ld	a0,-320(s0)
    80203232:	40a98533          	sub	a0,s3,a0
    80203236:	06a61963          	bne	a2,a0,802032a8 <.Lpcrel_hi56>
    8020323a:	0c0a0513          	addi	a0,s4,192
    8020323e:	9556                	add	a0,a0,s5
    80203240:	0c090593          	addi	a1,s2,192
    80203244:	060e                	slli	a2,a2,0x3
    80203246:	0000a097          	auipc	ra,0xa
    8020324a:	ed2080e7          	jalr	-302(ra) # 8020d118 <memcpy>
    8020324e:	015a0533          	add	a0,s4,s5
    80203252:	0c050513          	addi	a0,a0,192
    80203256:	0985                	addi	s3,s3,1
    80203258:	610c                	ld	a1,0(a0)
    8020325a:	001c8613          	addi	a2,s9,1
    8020325e:	0145b023          	sd	s4,0(a1)
    80203262:	0b959c23          	sh	s9,184(a1)
    80203266:	0521                	addi	a0,a0,8
    80203268:	8cb2                	mv	s9,a2
    8020326a:	fec997e3          	bne	s3,a2,80203258 <.Lpcrel_hi58+0x1f2>
    8020326e:	bbd5                	j	80203062 <_ZN5alloc11collections5btree6remove259_$LT$impl$u20$alloc..collections..btree..node..Handle$LT$alloc..collections..btree..node..NodeRef$LT$alloc..collections..btree..node..marker..Mut$C$K$C$V$C$alloc..collections..btree..node..marker..Leaf$GT$$C$alloc..collections..btree..node..marker..KV$GT$$GT$14remove_leaf_kv17h2634440dbc39ecdbE+0x216>
    80203270:	da0590e3          	bnez	a1,80203010 <_ZN5alloc11collections5btree6remove259_$LT$impl$u20$alloc..collections..btree..node..Handle$LT$alloc..collections..btree..node..NodeRef$LT$alloc..collections..btree..node..marker..Mut$C$K$C$V$C$alloc..collections..btree..node..marker..Leaf$GT$$C$alloc..collections..btree..node..marker..KV$GT$$GT$14remove_leaf_kv17h2634440dbc39ecdbE+0x1c4>
    80203274:	4505                	li	a0,1
    80203276:	e8843583          	ld	a1,-376(s0)
    8020327a:	00a58023          	sb	a0,0(a1)
    8020327e:	bb49                	j	80203010 <_ZN5alloc11collections5btree6remove259_$LT$impl$u20$alloc..collections..btree..node..Handle$LT$alloc..collections..btree..node..NodeRef$LT$alloc..collections..btree..node..marker..Mut$C$K$C$V$C$alloc..collections..btree..node..marker..Leaf$GT$$C$alloc..collections..btree..node..marker..KV$GT$$GT$14remove_leaf_kv17h2634440dbc39ecdbE+0x1c4>
    80203280:	4515                	li	a0,5
    80203282:	412505b3          	sub	a1,a0,s2
    80203286:	ef040513          	addi	a0,s0,-272
    8020328a:	fffff097          	auipc	ra,0xfffff
    8020328e:	5f2080e7          	jalr	1522(ra) # 8020287c <_ZN5alloc11collections5btree4node29BalancingContext$LT$K$C$V$GT$15bulk_steal_left17he5ba6bd975d060a9E>
    80203292:	bbbd                	j	80203010 <_ZN5alloc11collections5btree6remove259_$LT$impl$u20$alloc..collections..btree..node..Handle$LT$alloc..collections..btree..node..NodeRef$LT$alloc..collections..btree..node..marker..Mut$C$K$C$V$C$alloc..collections..btree..node..marker..Leaf$GT$$C$alloc..collections..btree..node..marker..KV$GT$$GT$14remove_leaf_kv17h2634440dbc39ecdbE+0x1c4>
    80203294:	4515                	li	a0,5
    80203296:	412505b3          	sub	a1,a0,s2
    8020329a:	f2840513          	addi	a0,s0,-216
    8020329e:	fffff097          	auipc	ra,0xfffff
    802032a2:	7ae080e7          	jalr	1966(ra) # 80202a4c <_ZN5alloc11collections5btree4node29BalancingContext$LT$K$C$V$GT$16bulk_steal_right17haf3adb31feb520f2E>
    802032a6:	b3ad                	j	80203010 <_ZN5alloc11collections5btree6remove259_$LT$impl$u20$alloc..collections..btree..node..Handle$LT$alloc..collections..btree..node..NodeRef$LT$alloc..collections..btree..node..marker..Mut$C$K$C$V$C$alloc..collections..btree..node..marker..Leaf$GT$$C$alloc..collections..btree..node..marker..KV$GT$$GT$14remove_leaf_kv17h2634440dbc39ecdbE+0x1c4>

00000000802032a8 <.Lpcrel_hi56>:
    802032a8:	0000b517          	auipc	a0,0xb
    802032ac:	f2050513          	addi	a0,a0,-224 # 8020e1c8 <.Lanon.c9bd757c4b1eb4bed5837722d22f1849.13>

00000000802032b0 <.Lpcrel_hi57>:
    802032b0:	0000b597          	auipc	a1,0xb
    802032b4:	f4058613          	addi	a2,a1,-192 # 8020e1f0 <.Lanon.c9bd757c4b1eb4bed5837722d22f1849.14>
    802032b8:	02800593          	li	a1,40
    802032bc:	00007097          	auipc	ra,0x7
    802032c0:	3c2080e7          	jalr	962(ra) # 8020a67e <_ZN4core9panicking5panic17h14cc1607a430f055E>

00000000802032c4 <.Lpcrel_hi54>:
    802032c4:	0000b517          	auipc	a0,0xb
    802032c8:	e9c50513          	addi	a0,a0,-356 # 8020e160 <.Lanon.c9bd757c4b1eb4bed5837722d22f1849.9>
    802032cc:	f6a43023          	sd	a0,-160(s0)
    802032d0:	4505                	li	a0,1
    802032d2:	f6a43423          	sd	a0,-152(s0)
    802032d6:	f8043023          	sd	zero,-128(s0)
    802032da:	f9040513          	addi	a0,s0,-112
    802032de:	f6a43823          	sd	a0,-144(s0)
    802032e2:	f6043c23          	sd	zero,-136(s0)

00000000802032e6 <.Lpcrel_hi55>:
    802032e6:	0000b517          	auipc	a0,0xb
    802032ea:	e8a50593          	addi	a1,a0,-374 # 8020e170 <.Lanon.c9bd757c4b1eb4bed5837722d22f1849.10>
    802032ee:	f6040513          	addi	a0,s0,-160
    802032f2:	00007097          	auipc	ra,0x7
    802032f6:	35a080e7          	jalr	858(ra) # 8020a64c <_ZN4core9panicking9panic_fmt17hc25dbb51a4d67a42E>

00000000802032fa <.Lpcrel_hi48>:
    802032fa:	0000b517          	auipc	a0,0xb
    802032fe:	e6650513          	addi	a0,a0,-410 # 8020e160 <.Lanon.c9bd757c4b1eb4bed5837722d22f1849.9>
    80203302:	f2a43423          	sd	a0,-216(s0)
    80203306:	4505                	li	a0,1
    80203308:	f2a43823          	sd	a0,-208(s0)
    8020330c:	f4043423          	sd	zero,-184(s0)
    80203310:	f9040513          	addi	a0,s0,-112
    80203314:	f2a43c23          	sd	a0,-200(s0)
    80203318:	f4043023          	sd	zero,-192(s0)

000000008020331c <.Lpcrel_hi49>:
    8020331c:	0000b517          	auipc	a0,0xb
    80203320:	e5450593          	addi	a1,a0,-428 # 8020e170 <.Lanon.c9bd757c4b1eb4bed5837722d22f1849.10>
    80203324:	f2840513          	addi	a0,s0,-216
    80203328:	00007097          	auipc	ra,0x7
    8020332c:	324080e7          	jalr	804(ra) # 8020a64c <_ZN4core9panicking9panic_fmt17hc25dbb51a4d67a42E>

0000000080203330 <.Lpcrel_hi50>:
    80203330:	0000b517          	auipc	a0,0xb
    80203334:	0d050513          	addi	a0,a0,208 # 8020e400 <.Lanon.c9bd757c4b1eb4bed5837722d22f1849.30>

0000000080203338 <.Lpcrel_hi51>:
    80203338:	0000b597          	auipc	a1,0xb
    8020333c:	15858613          	addi	a2,a1,344 # 8020e490 <.Lanon.c9bd757c4b1eb4bed5837722d22f1849.31>
    80203340:	08e00593          	li	a1,142
    80203344:	00007097          	auipc	ra,0x7
    80203348:	33a080e7          	jalr	826(ra) # 8020a67e <_ZN4core9panicking5panic17h14cc1607a430f055E>

000000008020334c <.Lpcrel_hi52>:
    8020334c:	0000b517          	auipc	a0,0xb
    80203350:	0b450513          	addi	a0,a0,180 # 8020e400 <.Lanon.c9bd757c4b1eb4bed5837722d22f1849.30>

0000000080203354 <.Lpcrel_hi53>:
    80203354:	0000b597          	auipc	a1,0xb
    80203358:	13c58613          	addi	a2,a1,316 # 8020e490 <.Lanon.c9bd757c4b1eb4bed5837722d22f1849.31>
    8020335c:	08e00593          	li	a1,142
    80203360:	00007097          	auipc	ra,0x7
    80203364:	31e080e7          	jalr	798(ra) # 8020a67e <_ZN4core9panicking5panic17h14cc1607a430f055E>

0000000080203368 <_ZN5alloc11collections5btree6remove269_$LT$impl$u20$alloc..collections..btree..node..Handle$LT$alloc..collections..btree..node..NodeRef$LT$alloc..collections..btree..node..marker..Mut$C$K$C$V$C$alloc..collections..btree..node..marker..LeafOrInternal$GT$$C$alloc..collections..btree..node..marker..KV$GT$$GT$18remove_kv_tracking17h122efe7f6256d38dE>:
    80203368:	7159                	addi	sp,sp,-112
    8020336a:	f486                	sd	ra,104(sp)
    8020336c:	f0a2                	sd	s0,96(sp)
    8020336e:	eca6                	sd	s1,88(sp)
    80203370:	1880                	addi	s0,sp,112
    80203372:	6594                	ld	a3,8(a1)
    80203374:	6198                	ld	a4,0(a1)
    80203376:	698c                	ld	a1,16(a1)
    80203378:	84aa                	mv	s1,a0
    8020337a:	c2c5                	beqz	a3,8020341a <_ZN5alloc11collections5btree6remove269_$LT$impl$u20$alloc..collections..btree..node..Handle$LT$alloc..collections..btree..node..NodeRef$LT$alloc..collections..btree..node..marker..Mut$C$K$C$V$C$alloc..collections..btree..node..marker..LeafOrInternal$GT$$C$alloc..collections..btree..node..marker..KV$GT$$GT$18remove_kv_tracking17h122efe7f6256d38dE+0xb2>
    8020337c:	058e                	slli	a1,a1,0x3
    8020337e:	95ba                	add	a1,a1,a4
    80203380:	61e8                	ld	a0,192(a1)
    80203382:	fff68593          	addi	a1,a3,-1
    80203386:	c981                	beqz	a1,80203396 <_ZN5alloc11collections5btree6remove269_$LT$impl$u20$alloc..collections..btree..node..Handle$LT$alloc..collections..btree..node..NodeRef$LT$alloc..collections..btree..node..marker..Mut$C$K$C$V$C$alloc..collections..btree..node..marker..LeafOrInternal$GT$$C$alloc..collections..btree..node..marker..KV$GT$$GT$18remove_kv_tracking17h122efe7f6256d38dE+0x2e>
    80203388:	0ba55683          	lhu	a3,186(a0)
    8020338c:	068e                	slli	a3,a3,0x3
    8020338e:	9536                	add	a0,a0,a3
    80203390:	6168                	ld	a0,192(a0)
    80203392:	15fd                	addi	a1,a1,-1
    80203394:	f9f5                	bnez	a1,80203388 <_ZN5alloc11collections5btree6remove269_$LT$impl$u20$alloc..collections..btree..node..Handle$LT$alloc..collections..btree..node..NodeRef$LT$alloc..collections..btree..node..marker..Mut$C$K$C$V$C$alloc..collections..btree..node..marker..LeafOrInternal$GT$$C$alloc..collections..btree..node..marker..KV$GT$$GT$18remove_kv_tracking17h122efe7f6256d38dE+0x20>
    80203396:	0ba55583          	lhu	a1,186(a0)
    8020339a:	15fd                	addi	a1,a1,-1
    8020339c:	faa43423          	sd	a0,-88(s0)
    802033a0:	fa043823          	sd	zero,-80(s0)
    802033a4:	fab43c23          	sd	a1,-72(s0)
    802033a8:	fc040513          	addi	a0,s0,-64
    802033ac:	fa840593          	addi	a1,s0,-88
    802033b0:	00000097          	auipc	ra,0x0
    802033b4:	a9c080e7          	jalr	-1380(ra) # 80202e4c <_ZN5alloc11collections5btree6remove259_$LT$impl$u20$alloc..collections..btree..node..Handle$LT$alloc..collections..btree..node..NodeRef$LT$alloc..collections..btree..node..marker..Mut$C$K$C$V$C$alloc..collections..btree..node..marker..Leaf$GT$$C$alloc..collections..btree..node..marker..KV$GT$$GT$14remove_leaf_kv17h2634440dbc39ecdbE>
    802033b8:	fd043503          	ld	a0,-48(s0)
    802033bc:	fc043703          	ld	a4,-64(s0)
    802033c0:	fc843783          	ld	a5,-56(s0)
    802033c4:	fe043603          	ld	a2,-32(s0)
    802033c8:	0ba55683          	lhu	a3,186(a0)
    802033cc:	fd843583          	ld	a1,-40(s0)
    802033d0:	00d66b63          	bltu	a2,a3,802033e6 <_ZN5alloc11collections5btree6remove269_$LT$impl$u20$alloc..collections..btree..node..Handle$LT$alloc..collections..btree..node..NodeRef$LT$alloc..collections..btree..node..marker..Mut$C$K$C$V$C$alloc..collections..btree..node..marker..LeafOrInternal$GT$$C$alloc..collections..btree..node..marker..KV$GT$$GT$18remove_kv_tracking17h122efe7f6256d38dE+0x7e>
    802033d4:	862a                	mv	a2,a0
    802033d6:	6108                	ld	a0,0(a0)
    802033d8:	0b865603          	lhu	a2,184(a2)
    802033dc:	0ba55683          	lhu	a3,186(a0)
    802033e0:	0585                	addi	a1,a1,1
    802033e2:	fed679e3          	bgeu	a2,a3,802033d4 <_ZN5alloc11collections5btree6remove269_$LT$impl$u20$alloc..collections..btree..node..Handle$LT$alloc..collections..btree..node..NodeRef$LT$alloc..collections..btree..node..marker..Mut$C$K$C$V$C$alloc..collections..btree..node..marker..LeafOrInternal$GT$$C$alloc..collections..btree..node..marker..KV$GT$$GT$18remove_kv_tracking17h122efe7f6256d38dE+0x6c>
    802033e6:	00361693          	slli	a3,a2,0x3
    802033ea:	96aa                	add	a3,a3,a0
    802033ec:	0086b803          	ld	a6,8(a3)
    802033f0:	0606b883          	ld	a7,96(a3)
    802033f4:	e698                	sd	a4,8(a3)
    802033f6:	f2bc                	sd	a5,96(a3)
    802033f8:	0605                	addi	a2,a2,1
    802033fa:	c599                	beqz	a1,80203408 <_ZN5alloc11collections5btree6remove269_$LT$impl$u20$alloc..collections..btree..node..Handle$LT$alloc..collections..btree..node..NodeRef$LT$alloc..collections..btree..node..marker..Mut$C$K$C$V$C$alloc..collections..btree..node..marker..LeafOrInternal$GT$$C$alloc..collections..btree..node..marker..KV$GT$$GT$18remove_kv_tracking17h122efe7f6256d38dE+0xa0>
    802033fc:	060e                	slli	a2,a2,0x3
    802033fe:	9532                	add	a0,a0,a2
    80203400:	6168                	ld	a0,192(a0)
    80203402:	15fd                	addi	a1,a1,-1
    80203404:	fdf5                	bnez	a1,80203400 <_ZN5alloc11collections5btree6remove269_$LT$impl$u20$alloc..collections..btree..node..Handle$LT$alloc..collections..btree..node..NodeRef$LT$alloc..collections..btree..node..marker..Mut$C$K$C$V$C$alloc..collections..btree..node..marker..LeafOrInternal$GT$$C$alloc..collections..btree..node..marker..KV$GT$$GT$18remove_kv_tracking17h122efe7f6256d38dE+0x98>
    80203406:	4601                	li	a2,0
    80203408:	0104b023          	sd	a6,0(s1)
    8020340c:	0114b423          	sd	a7,8(s1)
    80203410:	e888                	sd	a0,16(s1)
    80203412:	0004bc23          	sd	zero,24(s1)
    80203416:	f090                	sd	a2,32(s1)
    80203418:	a831                	j	80203434 <_ZN5alloc11collections5btree6remove269_$LT$impl$u20$alloc..collections..btree..node..Handle$LT$alloc..collections..btree..node..NodeRef$LT$alloc..collections..btree..node..marker..Mut$C$K$C$V$C$alloc..collections..btree..node..marker..LeafOrInternal$GT$$C$alloc..collections..btree..node..marker..KV$GT$$GT$18remove_kv_tracking17h122efe7f6256d38dE+0xcc>
    8020341a:	f8e43823          	sd	a4,-112(s0)
    8020341e:	f8043c23          	sd	zero,-104(s0)
    80203422:	fab43023          	sd	a1,-96(s0)
    80203426:	f9040593          	addi	a1,s0,-112
    8020342a:	8526                	mv	a0,s1
    8020342c:	00000097          	auipc	ra,0x0
    80203430:	a20080e7          	jalr	-1504(ra) # 80202e4c <_ZN5alloc11collections5btree6remove259_$LT$impl$u20$alloc..collections..btree..node..Handle$LT$alloc..collections..btree..node..NodeRef$LT$alloc..collections..btree..node..marker..Mut$C$K$C$V$C$alloc..collections..btree..node..marker..Leaf$GT$$C$alloc..collections..btree..node..marker..KV$GT$$GT$14remove_leaf_kv17h2634440dbc39ecdbE>
    80203434:	70a6                	ld	ra,104(sp)
    80203436:	7406                	ld	s0,96(sp)
    80203438:	64e6                	ld	s1,88(sp)
    8020343a:	6165                	addi	sp,sp,112
    8020343c:	8082                	ret

000000008020343e <_ZN5alloc11collections5btree8navigate263_$LT$impl$u20$alloc..collections..btree..node..Handle$LT$alloc..collections..btree..node..NodeRef$LT$alloc..collections..btree..node..marker..Dying$C$K$C$V$C$alloc..collections..btree..node..marker..Leaf$GT$$C$alloc..collections..btree..node..marker..Edge$GT$$GT$27deallocating_next_unchecked17h94c0f1e064aede9dE>:
    8020343e:	7139                	addi	sp,sp,-64
    80203440:	fc06                	sd	ra,56(sp)
    80203442:	f822                	sd	s0,48(sp)
    80203444:	f426                	sd	s1,40(sp)
    80203446:	f04a                	sd	s2,32(sp)
    80203448:	ec4e                	sd	s3,24(sp)
    8020344a:	e852                	sd	s4,16(sp)
    8020344c:	e456                	sd	s5,8(sp)
    8020344e:	e05a                	sd	s6,0(sp)
    80203450:	0080                	addi	s0,sp,64
    80203452:	89ae                	mv	s3,a1
    80203454:	618c                	ld	a1,0(a1)
    80203456:	0109bb03          	ld	s6,16(s3)
    8020345a:	0ba5d603          	lhu	a2,186(a1)
    8020345e:	0089ba83          	ld	s5,8(s3)
    80203462:	892a                	mv	s2,a0
    80203464:	02cb7163          	bgeu	s6,a2,80203486 <.Lpcrel_hi61>
    80203468:	84ae                	mv	s1,a1
    8020346a:	001b0593          	addi	a1,s6,1
    8020346e:	040a8863          	beqz	s5,802034be <.Lpcrel_hi61+0x38>
    80203472:	058e                	slli	a1,a1,0x3
    80203474:	95a6                	add	a1,a1,s1
    80203476:	61e8                	ld	a0,192(a1)
    80203478:	fffa8593          	addi	a1,s5,-1
    8020347c:	c1b1                	beqz	a1,802034c0 <.Lpcrel_hi61+0x3a>
    8020347e:	6168                	ld	a0,192(a0)
    80203480:	15fd                	addi	a1,a1,-1
    80203482:	fdf5                	bnez	a1,8020347e <_ZN5alloc11collections5btree8navigate263_$LT$impl$u20$alloc..collections..btree..node..Handle$LT$alloc..collections..btree..node..NodeRef$LT$alloc..collections..btree..node..marker..Dying$C$K$C$V$C$alloc..collections..btree..node..marker..Leaf$GT$$C$alloc..collections..btree..node..marker..Edge$GT$$GT$27deallocating_next_unchecked17h94c0f1e064aede9dE+0x40>
    80203484:	a835                	j	802034c0 <.Lpcrel_hi61+0x3a>

0000000080203486 <.Lpcrel_hi61>:
    80203486:	00334517          	auipc	a0,0x334
    8020348a:	c2250a13          	addi	s4,a0,-990 # 805370a8 <_ZN2os2mm14heap_allocator14HEAP_ALLOCATOR17hdb009eb0a1c201beE.llvm.13289308715828321855>
    8020348e:	a839                	j	802034ac <.Lpcrel_hi61+0x26>
    80203490:	0b85db03          	lhu	s6,184(a1)
    80203494:	0a85                	addi	s5,s5,1
    80203496:	4621                	li	a2,8
    80203498:	8552                	mv	a0,s4
    8020349a:	00007097          	auipc	ra,0x7
    8020349e:	a74080e7          	jalr	-1420(ra) # 80209f0e <_ZN87_$LT$buddy_system_allocator..LockedHeap$u20$as$u20$core..alloc..global..GlobalAlloc$GT$7dealloc17h5e5f6d74b20ea42eE>
    802034a2:	0ba4d503          	lhu	a0,186(s1)
    802034a6:	85a6                	mv	a1,s1
    802034a8:	fcab61e3          	bltu	s6,a0,8020346a <_ZN5alloc11collections5btree8navigate263_$LT$impl$u20$alloc..collections..btree..node..Handle$LT$alloc..collections..btree..node..NodeRef$LT$alloc..collections..btree..node..marker..Dying$C$K$C$V$C$alloc..collections..btree..node..marker..Leaf$GT$$C$alloc..collections..btree..node..marker..Edge$GT$$GT$27deallocating_next_unchecked17h94c0f1e064aede9dE+0x2c>
    802034ac:	6184                	ld	s1,0(a1)
    802034ae:	cc9d                	beqz	s1,802034ec <.Lpcrel_hi61+0x66>
    802034b0:	0c000693          	li	a3,192
    802034b4:	fc0a8ee3          	beqz	s5,80203490 <.Lpcrel_hi61+0xa>
    802034b8:	12000693          	li	a3,288
    802034bc:	bfd1                	j	80203490 <.Lpcrel_hi61+0xa>
    802034be:	8526                	mv	a0,s1
    802034c0:	00993023          	sd	s1,0(s2)
    802034c4:	01593423          	sd	s5,8(s2)
    802034c8:	01693823          	sd	s6,16(s2)
    802034cc:	00a9b023          	sd	a0,0(s3)
    802034d0:	0009b423          	sd	zero,8(s3)
    802034d4:	00b9b823          	sd	a1,16(s3)
    802034d8:	70e2                	ld	ra,56(sp)
    802034da:	7442                	ld	s0,48(sp)
    802034dc:	74a2                	ld	s1,40(sp)
    802034de:	7902                	ld	s2,32(sp)
    802034e0:	69e2                	ld	s3,24(sp)
    802034e2:	6a42                	ld	s4,16(sp)
    802034e4:	6aa2                	ld	s5,8(sp)
    802034e6:	6b02                	ld	s6,0(sp)
    802034e8:	6121                	addi	sp,sp,64
    802034ea:	8082                	ret
    802034ec:	0c000693          	li	a3,192
    802034f0:	000a8463          	beqz	s5,802034f8 <.Lpcrel_hi61+0x72>
    802034f4:	12000693          	li	a3,288
    802034f8:	4621                	li	a2,8
    802034fa:	852e                	mv	a0,a1
    802034fc:	85b6                	mv	a1,a3
    802034fe:	00004097          	auipc	ra,0x4
    80203502:	ea6080e7          	jalr	-346(ra) # 802073a4 <__rust_dealloc>

0000000080203506 <.Lpcrel_hi62>:
    80203506:	0000b517          	auipc	a0,0xb
    8020350a:	04a50513          	addi	a0,a0,74 # 8020e550 <anon.c9bd757c4b1eb4bed5837722d22f1849.35.llvm.3360772450061652031>
    8020350e:	00007097          	auipc	ra,0x7
    80203512:	102080e7          	jalr	258(ra) # 8020a610 <_ZN4core6option13unwrap_failed17h3c70806c841faa93E>

0000000080203516 <_ZN4core3ptr59drop_in_place$LT$$RF$riscv..register..scause..Exception$GT$17h382056d8c6be48aeE>:
    80203516:	1141                	addi	sp,sp,-16 # 80336ff0 <boot_stack_lower_bound+0xfff0>
    80203518:	e406                	sd	ra,8(sp)
    8020351a:	e022                	sd	s0,0(sp)
    8020351c:	0800                	addi	s0,sp,16
    8020351e:	60a2                	ld	ra,8(sp)
    80203520:	6402                	ld	s0,0(sp)
    80203522:	0141                	addi	sp,sp,16
    80203524:	8082                	ret

0000000080203526 <_ZN5riscv8register6scause6Scause5cause17h14393655cc5a70a7E>:
    80203526:	00054c63          	bltz	a0,8020353e <.Lpcrel_hi0+0xc>
    8020352a:	4661                	li	a2,24
    8020352c:	45c1                	li	a1,16
    8020352e:	02c57d63          	bgeu	a0,a2,80203568 <.Lpcrel_hi1+0x1c>

0000000080203532 <.Lpcrel_hi0>:
    80203532:	0000b597          	auipc	a1,0xb
    80203536:	51658613          	addi	a2,a1,1302 # 8020ea48 <.Lswitch.table._ZN5riscv8register6scause6Scause5cause17h14393655cc5a70a7E>
    8020353a:	962a                	add	a2,a2,a0
    8020353c:	a829                	j	80203556 <.Lpcrel_hi1+0xa>
    8020353e:	00151613          	slli	a2,a0,0x1
    80203542:	8205                	srli	a2,a2,0x1
    80203544:	46ad                	li	a3,11
    80203546:	45a5                	li	a1,9
    80203548:	02d67063          	bgeu	a2,a3,80203568 <.Lpcrel_hi1+0x1c>

000000008020354c <.Lpcrel_hi1>:
    8020354c:	0000b597          	auipc	a1,0xb
    80203550:	51458593          	addi	a1,a1,1300 # 8020ea60 <.Lswitch.table._ZN5riscv8register6scause6Scause5cause17h14393655cc5a70a7E.53>
    80203554:	962e                	add	a2,a2,a1
    80203556:	1141                	addi	sp,sp,-16
    80203558:	e406                	sd	ra,8(sp)
    8020355a:	e022                	sd	s0,0(sp)
    8020355c:	0800                	addi	s0,sp,16
    8020355e:	00064583          	lbu	a1,0(a2)
    80203562:	60a2                	ld	ra,8(sp)
    80203564:	6402                	ld	s0,0(sp)
    80203566:	0141                	addi	sp,sp,16
    80203568:	00052513          	slti	a0,a0,0
    8020356c:	00154513          	xori	a0,a0,1
    80203570:	8082                	ret

0000000080203572 <_ZN66_$LT$riscv..register..scause..Trap$u20$as$u20$core..fmt..Debug$GT$3fmt17h9da53a8b789a023eE>:
    80203572:	1101                	addi	sp,sp,-32
    80203574:	ec06                	sd	ra,24(sp)
    80203576:	e822                	sd	s0,16(sp)
    80203578:	1000                	addi	s0,sp,32
    8020357a:	862a                	mv	a2,a0
    8020357c:	00054683          	lbu	a3,0(a0)
    80203580:	852e                	mv	a0,a1
    80203582:	0605                	addi	a2,a2,1
    80203584:	ce81                	beqz	a3,8020359c <.Lpcrel_hi5+0xa>
    80203586:	fec43423          	sd	a2,-24(s0)

000000008020358a <.Lpcrel_hi4>:
    8020358a:	0000b597          	auipc	a1,0xb
    8020358e:	08658593          	addi	a1,a1,134 # 8020e610 <.Lanon.6a46c64e42596067554903e2843242d1.2>

0000000080203592 <.Lpcrel_hi5>:
    80203592:	0000b617          	auipc	a2,0xb
    80203596:	08e60713          	addi	a4,a2,142 # 8020e620 <.Lanon.6a46c64e42596067554903e2843242d1.3>
    8020359a:	a819                	j	802035b0 <.Lpcrel_hi3+0x8>
    8020359c:	fec43423          	sd	a2,-24(s0)

00000000802035a0 <.Lpcrel_hi2>:
    802035a0:	0000b597          	auipc	a1,0xb
    802035a4:	04058593          	addi	a1,a1,64 # 8020e5e0 <.Lanon.6a46c64e42596067554903e2843242d1.0>

00000000802035a8 <.Lpcrel_hi3>:
    802035a8:	0000b617          	auipc	a2,0xb
    802035ac:	04860713          	addi	a4,a2,72 # 8020e5f0 <.Lanon.6a46c64e42596067554903e2843242d1.1>
    802035b0:	4625                	li	a2,9
    802035b2:	fe840693          	addi	a3,s0,-24
    802035b6:	00008097          	auipc	ra,0x8
    802035ba:	178080e7          	jalr	376(ra) # 8020b72e <_ZN4core3fmt9Formatter25debug_tuple_field1_finish17hfc08985d566fe371E>
    802035be:	60e2                	ld	ra,24(sp)
    802035c0:	6442                	ld	s0,16(sp)
    802035c2:	6105                	addi	sp,sp,32
    802035c4:	8082                	ret

00000000802035c6 <_ZN79_$LT$os..mm..frame_allocator..FrameTracker$u20$as$u20$core..ops..drop..Drop$GT$4drop17h22547e58a5031c24E>:
    802035c6:	7171                	addi	sp,sp,-176
    802035c8:	f506                	sd	ra,168(sp)
    802035ca:	f122                	sd	s0,160(sp)
    802035cc:	ed26                	sd	s1,152(sp)
    802035ce:	e94a                	sd	s2,144(sp)
    802035d0:	e54e                	sd	s3,136(sp)
    802035d2:	1900                	addi	s0,sp,176
    802035d4:	6104                	ld	s1,0(a0)

00000000802035d6 <.Lpcrel_hi6>:
    802035d6:	00134517          	auipc	a0,0x134
    802035da:	a2a50913          	addi	s2,a0,-1494 # 80337000 <_ZN84_$LT$os..mm..frame_allocator..FRAME_ALLOCATOR$u20$as$u20$core..ops..deref..Deref$GT$5deref11__stability4LAZY17h16ef9517e8cb8289E.llvm.9449326286350064217>
    802035de:	03090503          	lb	a0,48(s2)
    802035e2:	4589                	li	a1,2
    802035e4:	0230000f          	fence	r,rw
    802035e8:	0eb51363          	bne	a0,a1,802036ce <.Lpcrel_hi7>
    802035ec:	00093503          	ld	a0,0(s2)
    802035f0:	e975                	bnez	a0,802036e4 <.Lpcrel_hi8>
    802035f2:	02093503          	ld	a0,32(s2)
    802035f6:	55fd                	li	a1,-1
    802035f8:	00b93023          	sd	a1,0(s2)
    802035fc:	f4943c23          	sd	s1,-168(s0)
    80203600:	00a4ff63          	bgeu	s1,a0,8020361e <.Lpcrel_hi6+0x48>
    80203604:	01093503          	ld	a0,16(s2)
    80203608:	01893983          	ld	s3,24(s2)
    8020360c:	00399593          	slli	a1,s3,0x3
    80203610:	862a                	mv	a2,a0
    80203612:	cdbd                	beqz	a1,80203690 <.Lpcrel_hi11+0x14>
    80203614:	6214                	ld	a3,0(a2)
    80203616:	0621                	addi	a2,a2,8
    80203618:	15e1                	addi	a1,a1,-8
    8020361a:	fe969ce3          	bne	a3,s1,80203612 <.Lpcrel_hi6+0x3c>
    8020361e:	f5840513          	addi	a0,s0,-168
    80203622:	f8a43823          	sd	a0,-112(s0)

0000000080203626 <.Lpcrel_hi9>:
    80203626:	00009517          	auipc	a0,0x9
    8020362a:	1a050513          	addi	a0,a0,416 # 8020c7c6 <_ZN4core3fmt3num53_$LT$impl$u20$core..fmt..LowerHex$u20$for$u20$i64$GT$3fmt17h2c0862d8e5218d41E>
    8020362e:	f8a43c23          	sd	a0,-104(s0)
    80203632:	4509                	li	a0,2
    80203634:	faa43023          	sd	a0,-96(s0)
    80203638:	faa43823          	sd	a0,-80(s0)
    8020363c:	fc043023          	sd	zero,-64(s0)
    80203640:	4585                	li	a1,1
    80203642:	02259613          	slli	a2,a1,0x22
    80203646:	02060613          	addi	a2,a2,32
    8020364a:	fcc43423          	sd	a2,-56(s0)
    8020364e:	460d                	li	a2,3
    80203650:	fcc40823          	sb	a2,-48(s0)

0000000080203654 <.Lpcrel_hi10>:
    80203654:	0000b617          	auipc	a2,0xb
    80203658:	04c60613          	addi	a2,a2,76 # 8020e6a0 <anon.6a46c64e42596067554903e2843242d1.9.llvm.9449326286350064217>
    8020365c:	f6c43023          	sd	a2,-160(s0)
    80203660:	f6a43423          	sd	a0,-152(s0)
    80203664:	fa040513          	addi	a0,s0,-96
    80203668:	f8a43023          	sd	a0,-128(s0)
    8020366c:	f8b43423          	sd	a1,-120(s0)
    80203670:	f9040513          	addi	a0,s0,-112
    80203674:	f6a43823          	sd	a0,-144(s0)
    80203678:	f6b43c23          	sd	a1,-136(s0)

000000008020367c <.Lpcrel_hi11>:
    8020367c:	0000b517          	auipc	a0,0xb
    80203680:	06450593          	addi	a1,a0,100 # 8020e6e0 <anon.6a46c64e42596067554903e2843242d1.11.llvm.9449326286350064217>
    80203684:	f6040513          	addi	a0,s0,-160
    80203688:	00007097          	auipc	ra,0x7
    8020368c:	fc4080e7          	jalr	-60(ra) # 8020a64c <_ZN4core9panicking9panic_fmt17hc25dbb51a4d67a42E>
    80203690:	00893583          	ld	a1,8(s2)
    80203694:	00b99a63          	bne	s3,a1,802036a8 <.Lpcrel_hi11+0x2c>
    80203698:	00890513          	addi	a0,s2,8
    8020369c:	00001097          	auipc	ra,0x1
    802036a0:	2e6080e7          	jalr	742(ra) # 80204982 <_ZN5alloc7raw_vec19RawVec$LT$T$C$A$GT$8grow_one17h2bc8d088edac8da0E>
    802036a4:	01093503          	ld	a0,16(s2)
    802036a8:	00399593          	slli	a1,s3,0x3
    802036ac:	952e                	add	a0,a0,a1
    802036ae:	e104                	sd	s1,0(a0)
    802036b0:	00093503          	ld	a0,0(s2)
    802036b4:	0985                	addi	s3,s3,1
    802036b6:	01393c23          	sd	s3,24(s2)
    802036ba:	0505                	addi	a0,a0,1
    802036bc:	00a93023          	sd	a0,0(s2)
    802036c0:	70aa                	ld	ra,168(sp)
    802036c2:	740a                	ld	s0,160(sp)
    802036c4:	64ea                	ld	s1,152(sp)
    802036c6:	694a                	ld	s2,144(sp)
    802036c8:	69aa                	ld	s3,136(sp)
    802036ca:	614d                	addi	sp,sp,176
    802036cc:	8082                	ret

00000000802036ce <.Lpcrel_hi7>:
    802036ce:	00134517          	auipc	a0,0x134
    802036d2:	93250513          	addi	a0,a0,-1742 # 80337000 <_ZN84_$LT$os..mm..frame_allocator..FRAME_ALLOCATOR$u20$as$u20$core..ops..deref..Deref$GT$5deref11__stability4LAZY17h16ef9517e8cb8289E.llvm.9449326286350064217>
    802036d6:	00001097          	auipc	ra,0x1
    802036da:	af4080e7          	jalr	-1292(ra) # 802041ca <_ZN4spin4once17Once$LT$T$C$R$GT$18try_call_once_slow17h248f831427eadf2aE.llvm.18273212518176036961>
    802036de:	00093503          	ld	a0,0(s2)
    802036e2:	d901                	beqz	a0,802035f2 <.Lpcrel_hi6+0x1c>

00000000802036e4 <.Lpcrel_hi8>:
    802036e4:	0000c517          	auipc	a0,0xc
    802036e8:	c1450513          	addi	a0,a0,-1004 # 8020f2f8 <anon.143638ba50f3ca5f2997057583b6f6e7.15.llvm.7411291366835535865>
    802036ec:	00007097          	auipc	ra,0x7
    802036f0:	bc4080e7          	jalr	-1084(ra) # 8020a2b0 <_ZN4core4cell22panic_already_borrowed17h63023a1bd405c717E>

00000000802036f4 <_ZN2os2mm10page_table9PageTable3new17h5fd3c51769ca48f7E>:
    802036f4:	7179                	addi	sp,sp,-48
    802036f6:	f406                	sd	ra,40(sp)
    802036f8:	f022                	sd	s0,32(sp)
    802036fa:	ec26                	sd	s1,24(sp)
    802036fc:	e84a                	sd	s2,16(sp)
    802036fe:	e44e                	sd	s3,8(sp)
    80203700:	1800                	addi	s0,sp,48

0000000080203702 <.Lpcrel_hi21>:
    80203702:	00134597          	auipc	a1,0x134
    80203706:	8fe58493          	addi	s1,a1,-1794 # 80337000 <_ZN84_$LT$os..mm..frame_allocator..FRAME_ALLOCATOR$u20$as$u20$core..ops..deref..Deref$GT$5deref11__stability4LAZY17h16ef9517e8cb8289E.llvm.9449326286350064217>
    8020370a:	03048583          	lb	a1,48(s1)
    8020370e:	892a                	mv	s2,a0
    80203710:	4509                	li	a0,2
    80203712:	0230000f          	fence	r,rw
    80203716:	08a59863          	bne	a1,a0,802037a6 <.Lpcrel_hi22>
    8020371a:	6088                	ld	a0,0(s1)
    8020371c:	ed59                	bnez	a0,802037ba <.Lpcrel_hi23>
    8020371e:	6c88                	ld	a0,24(s1)
    80203720:	55fd                	li	a1,-1
    80203722:	e08c                	sd	a1,0(s1)
    80203724:	c911                	beqz	a0,80203738 <.Lpcrel_hi21+0x36>
    80203726:	688c                	ld	a1,16(s1)
    80203728:	fff50613          	addi	a2,a0,-1
    8020372c:	00361513          	slli	a0,a2,0x3
    80203730:	952e                	add	a0,a0,a1
    80203732:	6108                	ld	a0,0(a0)
    80203734:	ec90                	sd	a2,24(s1)
    80203736:	a801                	j	80203746 <.Lpcrel_hi21+0x44>
    80203738:	7088                	ld	a0,32(s1)
    8020373a:	748c                	ld	a1,40(s1)
    8020373c:	08b50d63          	beq	a0,a1,802037d6 <.Lpcrel_hi23+0x1c>
    80203740:	00150593          	addi	a1,a0,1
    80203744:	f08c                	sd	a1,32(s1)
    80203746:	0552                	slli	a0,a0,0x14
    80203748:	01455993          	srli	s3,a0,0x14
    8020374c:	00c99513          	slli	a0,s3,0xc
    80203750:	6605                	lui	a2,0x1
    80203752:	4581                	li	a1,0
    80203754:	0000a097          	auipc	ra,0xa
    80203758:	998080e7          	jalr	-1640(ra) # 8020d0ec <memset>
    8020375c:	0004b023          	sd	zero,0(s1)

0000000080203760 <.Lpcrel_hi25>:
    80203760:	00334517          	auipc	a0,0x334
    80203764:	b2950513          	addi	a0,a0,-1239 # 80537289 <__rust_no_alloc_shim_is_unstable>
    80203768:	00054003          	lbu	zero,0(a0)

000000008020376c <.Lpcrel_hi26>:
    8020376c:	00334517          	auipc	a0,0x334
    80203770:	93c50513          	addi	a0,a0,-1732 # 805370a8 <_ZN2os2mm14heap_allocator14HEAP_ALLOCATOR17hdb009eb0a1c201beE.llvm.13289308715828321855>
    80203774:	45a1                	li	a1,8
    80203776:	4621                	li	a2,8
    80203778:	00006097          	auipc	ra,0x6
    8020377c:	748080e7          	jalr	1864(ra) # 80209ec0 <_ZN87_$LT$buddy_system_allocator..LockedHeap$u20$as$u20$core..alloc..global..GlobalAlloc$GT$5alloc17h3b694276a2754c9bE>
    80203780:	c529                	beqz	a0,802037ca <.Lpcrel_hi23+0x10>
    80203782:	01353023          	sd	s3,0(a0)
    80203786:	4585                	li	a1,1
    80203788:	00b93023          	sd	a1,0(s2)
    8020378c:	00a93423          	sd	a0,8(s2)
    80203790:	00b93823          	sd	a1,16(s2)
    80203794:	01393c23          	sd	s3,24(s2)
    80203798:	70a2                	ld	ra,40(sp)
    8020379a:	7402                	ld	s0,32(sp)
    8020379c:	64e2                	ld	s1,24(sp)
    8020379e:	6942                	ld	s2,16(sp)
    802037a0:	69a2                	ld	s3,8(sp)
    802037a2:	6145                	addi	sp,sp,48
    802037a4:	8082                	ret

00000000802037a6 <.Lpcrel_hi22>:
    802037a6:	00134517          	auipc	a0,0x134
    802037aa:	85a50513          	addi	a0,a0,-1958 # 80337000 <_ZN84_$LT$os..mm..frame_allocator..FRAME_ALLOCATOR$u20$as$u20$core..ops..deref..Deref$GT$5deref11__stability4LAZY17h16ef9517e8cb8289E.llvm.9449326286350064217>
    802037ae:	00001097          	auipc	ra,0x1
    802037b2:	a1c080e7          	jalr	-1508(ra) # 802041ca <_ZN4spin4once17Once$LT$T$C$R$GT$18try_call_once_slow17h248f831427eadf2aE.llvm.18273212518176036961>
    802037b6:	6088                	ld	a0,0(s1)
    802037b8:	d13d                	beqz	a0,8020371e <.Lpcrel_hi21+0x1c>

00000000802037ba <.Lpcrel_hi23>:
    802037ba:	0000c517          	auipc	a0,0xc
    802037be:	b3e50513          	addi	a0,a0,-1218 # 8020f2f8 <anon.143638ba50f3ca5f2997057583b6f6e7.15.llvm.7411291366835535865>
    802037c2:	00007097          	auipc	ra,0x7
    802037c6:	aee080e7          	jalr	-1298(ra) # 8020a2b0 <_ZN4core4cell22panic_already_borrowed17h63023a1bd405c717E>
    802037ca:	4521                	li	a0,8
    802037cc:	45a1                	li	a1,8
    802037ce:	00007097          	auipc	ra,0x7
    802037d2:	91e080e7          	jalr	-1762(ra) # 8020a0ec <_ZN5alloc5alloc18handle_alloc_error17h712b744ef0f4e031E>
    802037d6:	0004b023          	sd	zero,0(s1)

00000000802037da <.Lpcrel_hi24>:
    802037da:	0000b517          	auipc	a0,0xb
    802037de:	f3650513          	addi	a0,a0,-202 # 8020e710 <anon.6a46c64e42596067554903e2843242d1.13.llvm.9449326286350064217>
    802037e2:	00007097          	auipc	ra,0x7
    802037e6:	e2e080e7          	jalr	-466(ra) # 8020a610 <_ZN4core6option13unwrap_failed17h3c70806c841faa93E>

00000000802037ea <_ZN2os2mm10page_table9PageTable3map17h9f6318b9af8290eaE>:
    802037ea:	7135                	addi	sp,sp,-160
    802037ec:	ed06                	sd	ra,152(sp)
    802037ee:	e922                	sd	s0,144(sp)
    802037f0:	e526                	sd	s1,136(sp)
    802037f2:	e14a                	sd	s2,128(sp)
    802037f4:	fcce                	sd	s3,120(sp)
    802037f6:	f8d2                	sd	s4,112(sp)
    802037f8:	f4d6                	sd	s5,104(sp)
    802037fa:	f0da                	sd	s6,96(sp)
    802037fc:	ecde                	sd	s7,88(sp)
    802037fe:	e8e2                	sd	s8,80(sp)
    80203800:	1100                	addi	s0,sp,160
    80203802:	8baa                	mv	s7,a0
    80203804:	6d08                	ld	a0,24(a0)
    80203806:	8a2e                	mv	s4,a1
    80203808:	f6b43423          	sd	a1,-152(s0)
    8020380c:	0532                	slli	a0,a0,0xc
    8020380e:	81bd                	srli	a1,a1,0xf
    80203810:	6705                	lui	a4,0x1
    80203812:	3761                	addiw	a4,a4,-8 # ff8 <$d.12+0xa7>
    80203814:	8df9                	and	a1,a1,a4
    80203816:	00b56ab3          	or	s5,a0,a1
    8020381a:	000ab503          	ld	a0,0(s5)
    8020381e:	00157593          	andi	a1,a0,1
    80203822:	89b6                	mv	s3,a3
    80203824:	8932                	mv	s2,a2
    80203826:	e5c5                	bnez	a1,802038ce <.Lpcrel_hi27+0xa6>

0000000080203828 <.Lpcrel_hi27>:
    80203828:	00133517          	auipc	a0,0x133
    8020382c:	7d850c13          	addi	s8,a0,2008 # 80337000 <_ZN84_$LT$os..mm..frame_allocator..FRAME_ALLOCATOR$u20$as$u20$core..ops..deref..Deref$GT$5deref11__stability4LAZY17h16ef9517e8cb8289E.llvm.9449326286350064217>
    80203830:	030c0503          	lb	a0,48(s8)
    80203834:	4589                	li	a1,2
    80203836:	0230000f          	fence	r,rw
    8020383a:	18b51663          	bne	a0,a1,802039c6 <.Lpcrel_hi28>
    8020383e:	000c3503          	ld	a0,0(s8)
    80203842:	18051e63          	bnez	a0,802039de <.Lpcrel_hi29>
    80203846:	018c3503          	ld	a0,24(s8)
    8020384a:	55fd                	li	a1,-1
    8020384c:	00bc3023          	sd	a1,0(s8)
    80203850:	cd01                	beqz	a0,80203868 <.Lpcrel_hi27+0x40>
    80203852:	010c3583          	ld	a1,16(s8)
    80203856:	fff50613          	addi	a2,a0,-1
    8020385a:	00361513          	slli	a0,a2,0x3
    8020385e:	952e                	add	a0,a0,a1
    80203860:	6108                	ld	a0,0(a0)
    80203862:	00cc3c23          	sd	a2,24(s8)
    80203866:	a819                	j	8020387c <.Lpcrel_hi27+0x54>
    80203868:	020c3503          	ld	a0,32(s8)
    8020386c:	028c3583          	ld	a1,40(s8)
    80203870:	1eb50f63          	beq	a0,a1,80203a6e <.Lpcrel_hi30>
    80203874:	00150593          	addi	a1,a0,1
    80203878:	02bc3023          	sd	a1,32(s8)
    8020387c:	0552                	slli	a0,a0,0x14
    8020387e:	01455b13          	srli	s6,a0,0x14
    80203882:	00cb1513          	slli	a0,s6,0xc
    80203886:	6605                	lui	a2,0x1
    80203888:	4581                	li	a1,0
    8020388a:	0000a097          	auipc	ra,0xa
    8020388e:	862080e7          	jalr	-1950(ra) # 8020d0ec <memset>
    80203892:	010bb483          	ld	s1,16(s7)
    80203896:	000bb503          	ld	a0,0(s7)
    8020389a:	000c3023          	sd	zero,0(s8)
    8020389e:	00ab1593          	slli	a1,s6,0xa
    802038a2:	0585                	addi	a1,a1,1
    802038a4:	00bab023          	sd	a1,0(s5)
    802038a8:	00a49763          	bne	s1,a0,802038b6 <.Lpcrel_hi27+0x8e>
    802038ac:	855e                	mv	a0,s7
    802038ae:	00001097          	auipc	ra,0x1
    802038b2:	0d4080e7          	jalr	212(ra) # 80204982 <_ZN5alloc7raw_vec19RawVec$LT$T$C$A$GT$8grow_one17h2bc8d088edac8da0E>
    802038b6:	008bb503          	ld	a0,8(s7)
    802038ba:	00349593          	slli	a1,s1,0x3
    802038be:	952e                	add	a0,a0,a1
    802038c0:	01653023          	sd	s6,0(a0)
    802038c4:	0485                	addi	s1,s1,1
    802038c6:	009bb823          	sd	s1,16(s7)
    802038ca:	000ab503          	ld	a0,0(s5)
    802038ce:	02ea1593          	slli	a1,s4,0x2e
    802038d2:	91dd                	srli	a1,a1,0x37
    802038d4:	fff00637          	lui	a2,0xfff00
    802038d8:	00865a93          	srli	s5,a2,0x8
    802038dc:	050a                	slli	a0,a0,0x2
    802038de:	01557533          	and	a0,a0,s5
    802038e2:	058e                	slli	a1,a1,0x3
    802038e4:	00b56b33          	or	s6,a0,a1
    802038e8:	000b3503          	ld	a0,0(s6)
    802038ec:	00157593          	andi	a1,a0,1
    802038f0:	e9d9                	bnez	a1,80203986 <.Lpcrel_hi32+0x94>

00000000802038f2 <.Lpcrel_hi32>:
    802038f2:	00133517          	auipc	a0,0x133
    802038f6:	70e50493          	addi	s1,a0,1806 # 80337000 <_ZN84_$LT$os..mm..frame_allocator..FRAME_ALLOCATOR$u20$as$u20$core..ops..deref..Deref$GT$5deref11__stability4LAZY17h16ef9517e8cb8289E.llvm.9449326286350064217>
    802038fa:	03048503          	lb	a0,48(s1)
    802038fe:	4589                	li	a1,2
    80203900:	0230000f          	fence	r,rw
    80203904:	0eb51563          	bne	a0,a1,802039ee <.Lpcrel_hi33>
    80203908:	6088                	ld	a0,0(s1)
    8020390a:	ed65                	bnez	a0,80203a02 <.Lpcrel_hi34>
    8020390c:	6c88                	ld	a0,24(s1)
    8020390e:	55fd                	li	a1,-1
    80203910:	e08c                	sd	a1,0(s1)
    80203912:	c911                	beqz	a0,80203926 <.Lpcrel_hi32+0x34>
    80203914:	688c                	ld	a1,16(s1)
    80203916:	fff50613          	addi	a2,a0,-1
    8020391a:	00361513          	slli	a0,a2,0x3
    8020391e:	952e                	add	a0,a0,a1
    80203920:	6108                	ld	a0,0(a0)
    80203922:	ec90                	sd	a2,24(s1)
    80203924:	a801                	j	80203934 <.Lpcrel_hi32+0x42>
    80203926:	7088                	ld	a0,32(s1)
    80203928:	748c                	ld	a1,40(s1)
    8020392a:	14b50263          	beq	a0,a1,80203a6e <.Lpcrel_hi30>
    8020392e:	00150593          	addi	a1,a0,1
    80203932:	f08c                	sd	a1,32(s1)
    80203934:	0552                	slli	a0,a0,0x14
    80203936:	01455c13          	srli	s8,a0,0x14
    8020393a:	00cc1513          	slli	a0,s8,0xc
    8020393e:	6605                	lui	a2,0x1
    80203940:	4581                	li	a1,0
    80203942:	00009097          	auipc	ra,0x9
    80203946:	7aa080e7          	jalr	1962(ra) # 8020d0ec <memset>
    8020394a:	0004b023          	sd	zero,0(s1)
    8020394e:	00ac1513          	slli	a0,s8,0xa
    80203952:	0505                	addi	a0,a0,1
    80203954:	00ab3023          	sd	a0,0(s6)
    80203958:	010bb483          	ld	s1,16(s7)
    8020395c:	000bb503          	ld	a0,0(s7)
    80203960:	00a49763          	bne	s1,a0,8020396e <.Lpcrel_hi32+0x7c>
    80203964:	855e                	mv	a0,s7
    80203966:	00001097          	auipc	ra,0x1
    8020396a:	01c080e7          	jalr	28(ra) # 80204982 <_ZN5alloc7raw_vec19RawVec$LT$T$C$A$GT$8grow_one17h2bc8d088edac8da0E>
    8020396e:	008bb503          	ld	a0,8(s7)
    80203972:	00349593          	slli	a1,s1,0x3
    80203976:	952e                	add	a0,a0,a1
    80203978:	01853023          	sd	s8,0(a0)
    8020397c:	0485                	addi	s1,s1,1
    8020397e:	009bb823          	sd	s1,16(s7)
    80203982:	000b3503          	ld	a0,0(s6)
    80203986:	050a                	slli	a0,a0,0x2
    80203988:	01557533          	and	a0,a0,s5
    8020398c:	c159                	beqz	a0,80203a12 <.Lpcrel_hi35>
    8020398e:	1ffa7593          	andi	a1,s4,511
    80203992:	058e                	slli	a1,a1,0x3
    80203994:	952e                	add	a0,a0,a1
    80203996:	00054583          	lbu	a1,0(a0)
    8020399a:	8985                	andi	a1,a1,1
    8020399c:	e1d9                	bnez	a1,80203a22 <.Lpcrel_hi35+0x10>
    8020399e:	0019e593          	ori	a1,s3,1
    802039a2:	092a                	slli	s2,s2,0xa
    802039a4:	0ff5f593          	zext.b	a1,a1
    802039a8:	00b965b3          	or	a1,s2,a1
    802039ac:	e10c                	sd	a1,0(a0)
    802039ae:	60ea                	ld	ra,152(sp)
    802039b0:	644a                	ld	s0,144(sp)
    802039b2:	64aa                	ld	s1,136(sp)
    802039b4:	690a                	ld	s2,128(sp)
    802039b6:	79e6                	ld	s3,120(sp)
    802039b8:	7a46                	ld	s4,112(sp)
    802039ba:	7aa6                	ld	s5,104(sp)
    802039bc:	7b06                	ld	s6,96(sp)
    802039be:	6be6                	ld	s7,88(sp)
    802039c0:	6c46                	ld	s8,80(sp)
    802039c2:	610d                	addi	sp,sp,160
    802039c4:	8082                	ret

00000000802039c6 <.Lpcrel_hi28>:
    802039c6:	00133517          	auipc	a0,0x133
    802039ca:	63a50513          	addi	a0,a0,1594 # 80337000 <_ZN84_$LT$os..mm..frame_allocator..FRAME_ALLOCATOR$u20$as$u20$core..ops..deref..Deref$GT$5deref11__stability4LAZY17h16ef9517e8cb8289E.llvm.9449326286350064217>
    802039ce:	00000097          	auipc	ra,0x0
    802039d2:	7fc080e7          	jalr	2044(ra) # 802041ca <_ZN4spin4once17Once$LT$T$C$R$GT$18try_call_once_slow17h248f831427eadf2aE.llvm.18273212518176036961>
    802039d6:	000c3503          	ld	a0,0(s8)
    802039da:	e60506e3          	beqz	a0,80203846 <.Lpcrel_hi27+0x1e>

00000000802039de <.Lpcrel_hi29>:
    802039de:	0000c517          	auipc	a0,0xc
    802039e2:	91a50513          	addi	a0,a0,-1766 # 8020f2f8 <anon.143638ba50f3ca5f2997057583b6f6e7.15.llvm.7411291366835535865>
    802039e6:	00007097          	auipc	ra,0x7
    802039ea:	8ca080e7          	jalr	-1846(ra) # 8020a2b0 <_ZN4core4cell22panic_already_borrowed17h63023a1bd405c717E>

00000000802039ee <.Lpcrel_hi33>:
    802039ee:	00133517          	auipc	a0,0x133
    802039f2:	61250513          	addi	a0,a0,1554 # 80337000 <_ZN84_$LT$os..mm..frame_allocator..FRAME_ALLOCATOR$u20$as$u20$core..ops..deref..Deref$GT$5deref11__stability4LAZY17h16ef9517e8cb8289E.llvm.9449326286350064217>
    802039f6:	00000097          	auipc	ra,0x0
    802039fa:	7d4080e7          	jalr	2004(ra) # 802041ca <_ZN4spin4once17Once$LT$T$C$R$GT$18try_call_once_slow17h248f831427eadf2aE.llvm.18273212518176036961>
    802039fe:	6088                	ld	a0,0(s1)
    80203a00:	d511                	beqz	a0,8020390c <.Lpcrel_hi32+0x1a>

0000000080203a02 <.Lpcrel_hi34>:
    80203a02:	0000c517          	auipc	a0,0xc
    80203a06:	8f650513          	addi	a0,a0,-1802 # 8020f2f8 <anon.143638ba50f3ca5f2997057583b6f6e7.15.llvm.7411291366835535865>
    80203a0a:	00007097          	auipc	ra,0x7
    80203a0e:	8a6080e7          	jalr	-1882(ra) # 8020a2b0 <_ZN4core4cell22panic_already_borrowed17h63023a1bd405c717E>

0000000080203a12 <.Lpcrel_hi35>:
    80203a12:	0000b517          	auipc	a0,0xb
    80203a16:	d2e50513          	addi	a0,a0,-722 # 8020e740 <.Lanon.6a46c64e42596067554903e2843242d1.17>
    80203a1a:	00007097          	auipc	ra,0x7
    80203a1e:	bf6080e7          	jalr	-1034(ra) # 8020a610 <_ZN4core6option13unwrap_failed17h3c70806c841faa93E>
    80203a22:	f6840513          	addi	a0,s0,-152
    80203a26:	faa43023          	sd	a0,-96(s0)

0000000080203a2a <.Lpcrel_hi36>:
    80203a2a:	00003517          	auipc	a0,0x3
    80203a2e:	92450513          	addi	a0,a0,-1756 # 8020634e <_ZN65_$LT$os..mm..address..VirtPageNum$u20$as$u20$core..fmt..Debug$GT$3fmt17hc10c9c874bd62f33E>
    80203a32:	faa43423          	sd	a0,-88(s0)

0000000080203a36 <.Lpcrel_hi37>:
    80203a36:	0000b517          	auipc	a0,0xb
    80203a3a:	d6250513          	addi	a0,a0,-670 # 8020e798 <.Lanon.6a46c64e42596067554903e2843242d1.20>
    80203a3e:	f6a43823          	sd	a0,-144(s0)
    80203a42:	4509                	li	a0,2
    80203a44:	f6a43c23          	sd	a0,-136(s0)
    80203a48:	f8043823          	sd	zero,-112(s0)
    80203a4c:	fa040513          	addi	a0,s0,-96
    80203a50:	f8a43023          	sd	a0,-128(s0)
    80203a54:	4505                	li	a0,1
    80203a56:	f8a43423          	sd	a0,-120(s0)

0000000080203a5a <.Lpcrel_hi38>:
    80203a5a:	0000b517          	auipc	a0,0xb
    80203a5e:	d5e50593          	addi	a1,a0,-674 # 8020e7b8 <.Lanon.6a46c64e42596067554903e2843242d1.21>
    80203a62:	f7040513          	addi	a0,s0,-144
    80203a66:	00007097          	auipc	ra,0x7
    80203a6a:	be6080e7          	jalr	-1050(ra) # 8020a64c <_ZN4core9panicking9panic_fmt17hc25dbb51a4d67a42E>

0000000080203a6e <.Lpcrel_hi30>:
    80203a6e:	00133517          	auipc	a0,0x133
    80203a72:	58053923          	sd	zero,1426(a0) # 80337000 <_ZN84_$LT$os..mm..frame_allocator..FRAME_ALLOCATOR$u20$as$u20$core..ops..deref..Deref$GT$5deref11__stability4LAZY17h16ef9517e8cb8289E.llvm.9449326286350064217>

0000000080203a76 <.Lpcrel_hi31>:
    80203a76:	0000b517          	auipc	a0,0xb
    80203a7a:	cb250513          	addi	a0,a0,-846 # 8020e728 <.Lanon.6a46c64e42596067554903e2843242d1.15>
    80203a7e:	00007097          	auipc	ra,0x7
    80203a82:	b92080e7          	jalr	-1134(ra) # 8020a610 <_ZN4core6option13unwrap_failed17h3c70806c841faa93E>

0000000080203a86 <_ZN2os2mm10page_table22translated_byte_buffer17h7b652dca786bce3eE>:
    80203a86:	7175                	addi	sp,sp,-144
    80203a88:	e506                	sd	ra,136(sp)
    80203a8a:	e122                	sd	s0,128(sp)
    80203a8c:	fca6                	sd	s1,120(sp)
    80203a8e:	f8ca                	sd	s2,112(sp)
    80203a90:	f4ce                	sd	s3,104(sp)
    80203a92:	f0d2                	sd	s4,96(sp)
    80203a94:	ecd6                	sd	s5,88(sp)
    80203a96:	e8da                	sd	s6,80(sp)
    80203a98:	e4de                	sd	s7,72(sp)
    80203a9a:	e0e2                	sd	s8,64(sp)
    80203a9c:	fc66                	sd	s9,56(sp)
    80203a9e:	f86a                	sd	s10,48(sp)
    80203aa0:	f46e                	sd	s11,40(sp)
    80203aa2:	0900                	addi	s0,sp,144
    80203aa4:	f6a43823          	sd	a0,-144(s0)
    80203aa8:	00d60c33          	add	s8,a2,a3
    80203aac:	f8043023          	sd	zero,-128(s0)
    80203ab0:	4521                	li	a0,8
    80203ab2:	f8a43423          	sd	a0,-120(s0)
    80203ab6:	f8043823          	sd	zero,-112(s0)
    80203aba:	11867063          	bgeu	a2,s8,80203bba <_ZN2os2mm10page_table22translated_byte_buffer17h7b652dca786bce3eE+0x134>
    80203abe:	4c81                	li	s9,0
    80203ac0:	fff00537          	lui	a0,0xfff00
    80203ac4:	00855b13          	srli	s6,a0,0x8
    80203ac8:	6805                	lui	a6,0x1
    80203aca:	fff80d1b          	addiw	s10,a6,-1 # fff <$d.12+0xae>
    80203ace:	019c1513          	slli	a0,s8,0x19
    80203ad2:	01955a13          	srli	s4,a0,0x19
    80203ad6:	05d2                	slli	a1,a1,0x14
    80203ad8:	0085dd93          	srli	s11,a1,0x8
    80203adc:	4485                	li	s1,1
    80203ade:	ff880a9b          	addiw	s5,a6,-8
    80203ae2:	08000537          	lui	a0,0x8000
    80203ae6:	357d                	addiw	a0,a0,-1 # 7ffffff <$d.6+0x7f391a4>
    80203ae8:	00c51913          	slli	s2,a0,0xc
    80203aec:	a089                	j	80203b2e <_ZN2os2mm10page_table22translated_byte_buffer17h7b652dca786bce3eE+0xa8>
    80203aee:	f6b43c23          	sd	a1,-136(s0)
    80203af2:	f8040513          	addi	a0,s0,-128
    80203af6:	00001097          	auipc	ra,0x1
    80203afa:	f36080e7          	jalr	-202(ra) # 80204a2c <_ZN5alloc7raw_vec19RawVec$LT$T$C$A$GT$8grow_one17h70c82eb509dbe0d8E>
    80203afe:	f7843583          	ld	a1,-136(s0)
    80203b02:	6805                	lui	a6,0x1
    80203b04:	f8843503          	ld	a0,-120(s0)
    80203b08:	9566                	add	a0,a0,s9
    80203b0a:	01353023          	sd	s3,0(a0)
    80203b0e:	e50c                	sd	a1,8(a0)
    80203b10:	f8943823          	sd	s1,-112(s0)
    80203b14:	026bd513          	srli	a0,s7,0x26
    80203b18:	00153513          	seqz	a0,a0
    80203b1c:	157d                	addi	a0,a0,-1
    80203b1e:	911d                	srli	a0,a0,0x27
    80203b20:	151e                	slli	a0,a0,0x27
    80203b22:	00abe633          	or	a2,s7,a0
    80203b26:	0cc1                	addi	s9,s9,16
    80203b28:	0485                	addi	s1,s1,1
    80203b2a:	09867863          	bgeu	a2,s8,80203bba <_ZN2os2mm10page_table22translated_byte_buffer17h7b652dca786bce3eE+0x134>
    80203b2e:	01b65513          	srli	a0,a2,0x1b
    80203b32:	01557533          	and	a0,a0,s5
    80203b36:	956e                	add	a0,a0,s11
    80203b38:	6108                	ld	a0,0(a0)
    80203b3a:	00157593          	andi	a1,a0,1
    80203b3e:	c9c5                	beqz	a1,80203bee <.Lpcrel_hi43>
    80203b40:	050a                	slli	a0,a0,0x2
    80203b42:	01657533          	and	a0,a0,s6
    80203b46:	01265593          	srli	a1,a2,0x12
    80203b4a:	0155f5b3          	and	a1,a1,s5
    80203b4e:	952e                	add	a0,a0,a1
    80203b50:	6108                	ld	a0,0(a0)
    80203b52:	00157593          	andi	a1,a0,1
    80203b56:	cdc1                	beqz	a1,80203bee <.Lpcrel_hi43>
    80203b58:	050a                	slli	a0,a0,0x2
    80203b5a:	01657533          	and	a0,a0,s6
    80203b5e:	c941                	beqz	a0,80203bee <.Lpcrel_hi43>
    80203b60:	01267bb3          	and	s7,a2,s2
    80203b64:	9bc2                	add	s7,s7,a6
    80203b66:	014be363          	bltu	s7,s4,80203b6c <_ZN2os2mm10page_table22translated_byte_buffer17h7b652dca786bce3eE+0xe6>
    80203b6a:	8bd2                	mv	s7,s4
    80203b6c:	02b61593          	slli	a1,a2,0x2b
    80203b70:	91dd                	srli	a1,a1,0x37
    80203b72:	058e                	slli	a1,a1,0x3
    80203b74:	952e                	add	a0,a0,a1
    80203b76:	6108                	ld	a0,0(a0)
    80203b78:	fff48693          	addi	a3,s1,-1
    80203b7c:	052a                	slli	a0,a0,0xa
    80203b7e:	01abf5b3          	and	a1,s7,s10
    80203b82:	01455713          	srli	a4,a0,0x14
    80203b86:	cd91                	beqz	a1,80203ba2 <_ZN2os2mm10page_table22translated_byte_buffer17h7b652dca786bce3eE+0x11c>
    80203b88:	01a67533          	and	a0,a2,s10
    80203b8c:	06a5e963          	bltu	a1,a0,80203bfe <.Lpcrel_hi44>
    80203b90:	f8043603          	ld	a2,-128(s0)
    80203b94:	0732                	slli	a4,a4,0xc
    80203b96:	8d89                	sub	a1,a1,a0
    80203b98:	00a769b3          	or	s3,a4,a0
    80203b9c:	f4c689e3          	beq	a3,a2,80203aee <_ZN2os2mm10page_table22translated_byte_buffer17h7b652dca786bce3eE+0x68>
    80203ba0:	b795                	j	80203b04 <_ZN2os2mm10page_table22translated_byte_buffer17h7b652dca786bce3eE+0x7e>
    80203ba2:	f8043503          	ld	a0,-128(s0)
    80203ba6:	0732                	slli	a4,a4,0xc
    80203ba8:	01a675b3          	and	a1,a2,s10
    80203bac:	00b769b3          	or	s3,a4,a1
    80203bb0:	40b805b3          	sub	a1,a6,a1
    80203bb4:	f2a68de3          	beq	a3,a0,80203aee <_ZN2os2mm10page_table22translated_byte_buffer17h7b652dca786bce3eE+0x68>
    80203bb8:	b7b1                	j	80203b04 <_ZN2os2mm10page_table22translated_byte_buffer17h7b652dca786bce3eE+0x7e>
    80203bba:	f9043503          	ld	a0,-112(s0)
    80203bbe:	f8843583          	ld	a1,-120(s0)
    80203bc2:	f8043603          	ld	a2,-128(s0)
    80203bc6:	f7043683          	ld	a3,-144(s0)
    80203bca:	ea88                	sd	a0,16(a3)
    80203bcc:	e68c                	sd	a1,8(a3)
    80203bce:	e290                	sd	a2,0(a3)
    80203bd0:	60aa                	ld	ra,136(sp)
    80203bd2:	640a                	ld	s0,128(sp)
    80203bd4:	74e6                	ld	s1,120(sp)
    80203bd6:	7946                	ld	s2,112(sp)
    80203bd8:	79a6                	ld	s3,104(sp)
    80203bda:	7a06                	ld	s4,96(sp)
    80203bdc:	6ae6                	ld	s5,88(sp)
    80203bde:	6b46                	ld	s6,80(sp)
    80203be0:	6ba6                	ld	s7,72(sp)
    80203be2:	6c06                	ld	s8,64(sp)
    80203be4:	7ce2                	ld	s9,56(sp)
    80203be6:	7d42                	ld	s10,48(sp)
    80203be8:	7da2                	ld	s11,40(sp)
    80203bea:	6149                	addi	sp,sp,144
    80203bec:	8082                	ret

0000000080203bee <.Lpcrel_hi43>:
    80203bee:	0000b517          	auipc	a0,0xb
    80203bf2:	c5250513          	addi	a0,a0,-942 # 8020e840 <.Lanon.6a46c64e42596067554903e2843242d1.26>
    80203bf6:	00007097          	auipc	ra,0x7
    80203bfa:	a1a080e7          	jalr	-1510(ra) # 8020a610 <_ZN4core6option13unwrap_failed17h3c70806c841faa93E>

0000000080203bfe <.Lpcrel_hi44>:
    80203bfe:	0000b617          	auipc	a2,0xb
    80203c02:	c5a60613          	addi	a2,a2,-934 # 8020e858 <.Lanon.6a46c64e42596067554903e2843242d1.27>
    80203c06:	00008097          	auipc	ra,0x8
    80203c0a:	150080e7          	jalr	336(ra) # 8020bd56 <_ZN4core5slice5index22slice_index_order_fail17h883be29a657f36f8E>

0000000080203c0e <_ZN2os2mm10page_table14translated_str17h7536bf945a6e2470E>:
    80203c0e:	7159                	addi	sp,sp,-112
    80203c10:	f486                	sd	ra,104(sp)
    80203c12:	f0a2                	sd	s0,96(sp)
    80203c14:	eca6                	sd	s1,88(sp)
    80203c16:	e8ca                	sd	s2,80(sp)
    80203c18:	e4ce                	sd	s3,72(sp)
    80203c1a:	e0d2                	sd	s4,64(sp)
    80203c1c:	fc56                	sd	s5,56(sp)
    80203c1e:	f85a                	sd	s6,48(sp)
    80203c20:	f45e                	sd	s7,40(sp)
    80203c22:	f062                	sd	s8,32(sp)
    80203c24:	1880                	addi	s0,sp,112
    80203c26:	8c32                	mv	s8,a2
    80203c28:	f8043c23          	sd	zero,-104(s0)
    80203c2c:	4a05                	li	s4,1
    80203c2e:	fb443023          	sd	s4,-96(s0)
    80203c32:	fa043423          	sd	zero,-88(s0)
    80203c36:	05d2                	slli	a1,a1,0x14
    80203c38:	0085da93          	srli	s5,a1,0x8
    80203c3c:	01b65593          	srli	a1,a2,0x1b
    80203c40:	6b05                	lui	s6,0x1
    80203c42:	3b61                	addiw	s6,s6,-8 # ff8 <$d.12+0xa7>
    80203c44:	0165f5b3          	and	a1,a1,s6
    80203c48:	00bae5b3          	or	a1,s5,a1
    80203c4c:	618c                	ld	a1,0(a1)
    80203c4e:	0015f613          	andi	a2,a1,1
    80203c52:	10060263          	beqz	a2,80203d56 <.Lpcrel_hi45>
    80203c56:	892a                	mv	s2,a0
    80203c58:	4981                	li	s3,0
    80203c5a:	fff00537          	lui	a0,0xfff00
    80203c5e:	00855b93          	srli	s7,a0,0x8
    80203c62:	a01d                	j	80203c88 <_ZN2os2mm10page_table14translated_str17h7536bf945a6e2470E+0x7a>
    80203c64:	fa043503          	ld	a0,-96(s0)
    80203c68:	954e                	add	a0,a0,s3
    80203c6a:	00950023          	sb	s1,0(a0) # fffffffffff00000 <ebss+0xffffffff7f9c8000>
    80203c6e:	0985                	addi	s3,s3,1
    80203c70:	fb343423          	sd	s3,-88(s0)
    80203c74:	0c05                	addi	s8,s8,1
    80203c76:	01bc5513          	srli	a0,s8,0x1b
    80203c7a:	01657533          	and	a0,a0,s6
    80203c7e:	9556                	add	a0,a0,s5
    80203c80:	610c                	ld	a1,0(a0)
    80203c82:	0015f513          	andi	a0,a1,1
    80203c86:	c961                	beqz	a0,80203d56 <.Lpcrel_hi45>
    80203c88:	058a                	slli	a1,a1,0x2
    80203c8a:	0175f533          	and	a0,a1,s7
    80203c8e:	012c5593          	srli	a1,s8,0x12
    80203c92:	0165f5b3          	and	a1,a1,s6
    80203c96:	952e                	add	a0,a0,a1
    80203c98:	6108                	ld	a0,0(a0)
    80203c9a:	00157593          	andi	a1,a0,1
    80203c9e:	cdc5                	beqz	a1,80203d56 <.Lpcrel_hi45>
    80203ca0:	050a                	slli	a0,a0,0x2
    80203ca2:	01757533          	and	a0,a0,s7
    80203ca6:	c945                	beqz	a0,80203d56 <.Lpcrel_hi45>
    80203ca8:	02bc1593          	slli	a1,s8,0x2b
    80203cac:	91dd                	srli	a1,a1,0x37
    80203cae:	058e                	slli	a1,a1,0x3
    80203cb0:	952e                	add	a0,a0,a1
    80203cb2:	6108                	ld	a0,0(a0)
    80203cb4:	050a                	slli	a0,a0,0x2
    80203cb6:	01757533          	and	a0,a0,s7
    80203cba:	034c1593          	slli	a1,s8,0x34
    80203cbe:	91d1                	srli	a1,a1,0x34
    80203cc0:	8d4d                	or	a0,a0,a1
    80203cc2:	c155                	beqz	a0,80203d66 <.Lpcrel_hi46>
    80203cc4:	00050483          	lb	s1,0(a0)
    80203cc8:	ccb9                	beqz	s1,80203d26 <_ZN2os2mm10page_table14translated_str17h7536bf945a6e2470E+0x118>
    80203cca:	0004cd63          	bltz	s1,80203ce4 <_ZN2os2mm10page_table14translated_str17h7536bf945a6e2470E+0xd6>
    80203cce:	f9843503          	ld	a0,-104(s0)
    80203cd2:	f8a999e3          	bne	s3,a0,80203c64 <_ZN2os2mm10page_table14translated_str17h7536bf945a6e2470E+0x56>
    80203cd6:	f9840513          	addi	a0,s0,-104
    80203cda:	00001097          	auipc	ra,0x1
    80203cde:	dfc080e7          	jalr	-516(ra) # 80204ad6 <_ZN5alloc7raw_vec19RawVec$LT$T$C$A$GT$8grow_one17h939d09ebbe09f4e5E>
    80203ce2:	b749                	j	80203c64 <_ZN2os2mm10page_table14translated_str17h7536bf945a6e2470E+0x56>
    80203ce4:	f9843503          	ld	a0,-104(s0)
    80203ce8:	41350533          	sub	a0,a0,s3
    80203cec:	02aa7263          	bgeu	s4,a0,80203d10 <_ZN2os2mm10page_table14translated_str17h7536bf945a6e2470E+0x102>
    80203cf0:	03849513          	slli	a0,s1,0x38
    80203cf4:	fa043583          	ld	a1,-96(s0)
    80203cf8:	9179                	srli	a0,a0,0x3e
    80203cfa:	fc050513          	addi	a0,a0,-64
    80203cfe:	0bf4f613          	andi	a2,s1,191
    80203d02:	95ce                	add	a1,a1,s3
    80203d04:	00a58023          	sb	a0,0(a1)
    80203d08:	00c580a3          	sb	a2,1(a1)
    80203d0c:	0989                	addi	s3,s3,2
    80203d0e:	b78d                	j	80203c70 <_ZN2os2mm10page_table14translated_str17h7536bf945a6e2470E+0x62>
    80203d10:	f9840513          	addi	a0,s0,-104
    80203d14:	4609                	li	a2,2
    80203d16:	85ce                	mv	a1,s3
    80203d18:	00001097          	auipc	ra,0x1
    80203d1c:	bce080e7          	jalr	-1074(ra) # 802048e6 <_ZN5alloc7raw_vec19RawVec$LT$T$C$A$GT$7reserve21do_reserve_and_handle17h03a99d7be388e8ccE>
    80203d20:	fa843983          	ld	s3,-88(s0)
    80203d24:	b7f1                	j	80203cf0 <_ZN2os2mm10page_table14translated_str17h7536bf945a6e2470E+0xe2>
    80203d26:	fa843503          	ld	a0,-88(s0)
    80203d2a:	fa043583          	ld	a1,-96(s0)
    80203d2e:	f9843603          	ld	a2,-104(s0)
    80203d32:	00a93823          	sd	a0,16(s2)
    80203d36:	00b93423          	sd	a1,8(s2)
    80203d3a:	00c93023          	sd	a2,0(s2)
    80203d3e:	70a6                	ld	ra,104(sp)
    80203d40:	7406                	ld	s0,96(sp)
    80203d42:	64e6                	ld	s1,88(sp)
    80203d44:	6946                	ld	s2,80(sp)
    80203d46:	69a6                	ld	s3,72(sp)
    80203d48:	6a06                	ld	s4,64(sp)
    80203d4a:	7ae2                	ld	s5,56(sp)
    80203d4c:	7b42                	ld	s6,48(sp)
    80203d4e:	7ba2                	ld	s7,40(sp)
    80203d50:	7c02                	ld	s8,32(sp)
    80203d52:	6165                	addi	sp,sp,112
    80203d54:	8082                	ret

0000000080203d56 <.Lpcrel_hi45>:
    80203d56:	0000b517          	auipc	a0,0xb
    80203d5a:	b1a50513          	addi	a0,a0,-1254 # 8020e870 <.Lanon.6a46c64e42596067554903e2843242d1.28>
    80203d5e:	00007097          	auipc	ra,0x7
    80203d62:	8b2080e7          	jalr	-1870(ra) # 8020a610 <_ZN4core6option13unwrap_failed17h3c70806c841faa93E>

0000000080203d66 <.Lpcrel_hi46>:
    80203d66:	0000b517          	auipc	a0,0xb
    80203d6a:	51250513          	addi	a0,a0,1298 # 8020f278 <anon.143638ba50f3ca5f2997057583b6f6e7.8.llvm.7411291366835535865>
    80203d6e:	00007097          	auipc	ra,0x7
    80203d72:	8a2080e7          	jalr	-1886(ra) # 8020a610 <_ZN4core6option13unwrap_failed17h3c70806c841faa93E>

0000000080203d76 <trap_handler>:
    80203d76:	7169                	addi	sp,sp,-304
    80203d78:	f606                	sd	ra,296(sp)
    80203d7a:	f222                	sd	s0,288(sp)
    80203d7c:	ee26                	sd	s1,280(sp)
    80203d7e:	1a00                	addi	s0,sp,304

0000000080203d80 <.Lpcrel_hi49>:
    80203d80:	00000517          	auipc	a0,0x0
    80203d84:	2c450513          	addi	a0,a0,708 # 80204044 <trap_from_kernel>
    80203d88:	10551073          	csrw	stvec,a0
    80203d8c:	14202573          	csrr	a0,scause
    80203d90:	143025f3          	csrr	a1,stval
    80203d94:	ecb43823          	sd	a1,-304(s0)
    80203d98:	02054163          	bltz	a0,80203dba <.LBB16_3+0x4>
    80203d9c:	fff50593          	addi	a1,a0,-1
    80203da0:	4639                	li	a2,14
    80203da2:	04b66763          	bltu	a2,a1,80203df0 <.LBB16_6>
    80203da6:	058e                	slli	a1,a1,0x3

0000000080203da8 <.Lpcrel_hi50>:
    80203da8:	0000a617          	auipc	a2,0xa
    80203dac:	7c060613          	addi	a2,a2,1984 # 8020e568 <$d.18>
    80203db0:	95b2                	add	a1,a1,a2
    80203db2:	618c                	ld	a1,0(a1)
    80203db4:	8582                	jr	a1

0000000080203db6 <.LBB16_3>:
    80203db6:	4505                	li	a0,1
    80203db8:	aa1d                	j	80203eee <.LBB16_12+0x2>
    80203dba:	00151593          	slli	a1,a0,0x1
    80203dbe:	8185                	srli	a1,a1,0x1
    80203dc0:	4615                	li	a2,5
    80203dc2:	02c59763          	bne	a1,a2,80203df0 <.LBB16_6>
    80203dc6:	c0102573          	rdtime	a0
    80203dca:	65fd                	lui	a1,0x1f
    80203dcc:	8485859b          	addiw	a1,a1,-1976 # 1e848 <$d.60+0x4b7>
    80203dd0:	952e                	add	a0,a0,a1
    80203dd2:	544955b7          	lui	a1,0x54495
    80203dd6:	d455889b          	addiw	a7,a1,-699 # 54494d45 <$d.6+0x543cdeea>
    80203dda:	4801                	li	a6,0
    80203ddc:	00000073          	ecall
    80203de0:	00003097          	auipc	ra,0x3
    80203de4:	fde080e7          	jalr	-34(ra) # 80206dbe <_ZN2os4task28suspend_current_and_run_next17haf6a7b431a6fa8bbE>
    80203de8:	00000097          	auipc	ra,0x0
    80203dec:	224080e7          	jalr	548(ra) # 8020400c <trap_return>

0000000080203df0 <.LBB16_6>:
    80203df0:	fffff097          	auipc	ra,0xfffff
    80203df4:	736080e7          	jalr	1846(ra) # 80203526 <_ZN5riscv8register6scause6Scause5cause17h14393655cc5a70a7E>
    80203df8:	8905                	andi	a0,a0,1
    80203dfa:	fea40323          	sb	a0,-26(s0)
    80203dfe:	feb403a3          	sb	a1,-25(s0)
    80203e02:	fe640513          	addi	a0,s0,-26
    80203e06:	eca43c23          	sd	a0,-296(s0)

0000000080203e0a <.Lpcrel_hi51>:
    80203e0a:	fffff517          	auipc	a0,0xfffff
    80203e0e:	76850513          	addi	a0,a0,1896 # 80203572 <_ZN66_$LT$riscv..register..scause..Trap$u20$as$u20$core..fmt..Debug$GT$3fmt17h9da53a8b789a023eE>
    80203e12:	eea43023          	sd	a0,-288(s0)
    80203e16:	ed040513          	addi	a0,s0,-304
    80203e1a:	eea43423          	sd	a0,-280(s0)

0000000080203e1e <.Lpcrel_hi52>:
    80203e1e:	00009517          	auipc	a0,0x9
    80203e22:	9a850513          	addi	a0,a0,-1624 # 8020c7c6 <_ZN4core3fmt3num53_$LT$impl$u20$core..fmt..LowerHex$u20$for$u20$i64$GT$3fmt17h2c0862d8e5218d41E>
    80203e26:	eea43823          	sd	a0,-272(s0)
    80203e2a:	4509                	li	a0,2
    80203e2c:	f0a43423          	sd	a0,-248(s0)
    80203e30:	f0a43c23          	sd	a0,-232(s0)
    80203e34:	f2043423          	sd	zero,-216(s0)
    80203e38:	02000593          	li	a1,32
    80203e3c:	f2b43823          	sd	a1,-208(s0)
    80203e40:	458d                	li	a1,3
    80203e42:	f2b40c23          	sb	a1,-200(s0)
    80203e46:	f4a43023          	sd	a0,-192(s0)
    80203e4a:	f4a43823          	sd	a0,-176(s0)
    80203e4e:	4605                	li	a2,1
    80203e50:	f6c43023          	sd	a2,-160(s0)
    80203e54:	160a                	slli	a2,a2,0x22
    80203e56:	02060613          	addi	a2,a2,32
    80203e5a:	f6c43423          	sd	a2,-152(s0)
    80203e5e:	f6b40823          	sb	a1,-144(s0)

0000000080203e62 <.Lpcrel_hi53>:
    80203e62:	0000b617          	auipc	a2,0xb
    80203e66:	b3e60613          	addi	a2,a2,-1218 # 8020e9a0 <.Lanon.6a46c64e42596067554903e2843242d1.40>
    80203e6a:	fac43823          	sd	a2,-80(s0)
    80203e6e:	fab43c23          	sd	a1,-72(s0)
    80203e72:	f0840593          	addi	a1,s0,-248
    80203e76:	fcb43823          	sd	a1,-48(s0)
    80203e7a:	fca43c23          	sd	a0,-40(s0)
    80203e7e:	ed840593          	addi	a1,s0,-296
    80203e82:	fcb43023          	sd	a1,-64(s0)
    80203e86:	fca43423          	sd	a0,-56(s0)

0000000080203e8a <.Lpcrel_hi54>:
    80203e8a:	0000b517          	auipc	a0,0xb
    80203e8e:	b5650593          	addi	a1,a0,-1194 # 8020e9e0 <.Lanon.6a46c64e42596067554903e2843242d1.42>
    80203e92:	fb040513          	addi	a0,s0,-80
    80203e96:	00006097          	auipc	ra,0x6
    80203e9a:	7b6080e7          	jalr	1974(ra) # 8020a64c <_ZN4core9panicking9panic_fmt17hc25dbb51a4d67a42E>

0000000080203e9e <.LBB16_7>:
    80203e9e:	4525                	li	a0,9
    80203ea0:	a0b9                	j	80203eee <.LBB16_12+0x2>

0000000080203ea2 <.LBB16_8>:
    80203ea2:	0000b517          	auipc	a0,0xb
    80203ea6:	a3e50513          	addi	a0,a0,-1474 # 8020e8e0 <.Lanon.6a46c64e42596067554903e2843242d1.31>
    80203eaa:	f0a43423          	sd	a0,-248(s0)
    80203eae:	4505                	li	a0,1
    80203eb0:	f0a43823          	sd	a0,-240(s0)
    80203eb4:	f2043423          	sd	zero,-216(s0)
    80203eb8:	4521                	li	a0,8
    80203eba:	f0a43c23          	sd	a0,-232(s0)
    80203ebe:	f2043023          	sd	zero,-224(s0)
    80203ec2:	f0840513          	addi	a0,s0,-248
    80203ec6:	00004097          	auipc	ra,0x4
    80203eca:	964080e7          	jalr	-1692(ra) # 8020782a <_ZN2os7console5print17hb0238f93bcb82e2aE>
    80203ece:	5575                	li	a0,-3
    80203ed0:	00003097          	auipc	ra,0x3
    80203ed4:	056080e7          	jalr	86(ra) # 80206f26 <_ZN2os4task25exit_current_and_run_next17h852c15de548e53f0E>
    80203ed8:	00000097          	auipc	ra,0x0
    80203edc:	134080e7          	jalr	308(ra) # 8020400c <trap_return>

0000000080203ee0 <.LBB16_9>:
    80203ee0:	4529                	li	a0,10
    80203ee2:	a031                	j	80203eee <.LBB16_12+0x2>

0000000080203ee4 <.LBB16_10>:
    80203ee4:	452d                	li	a0,11
    80203ee6:	a021                	j	80203eee <.LBB16_12+0x2>

0000000080203ee8 <.LBB16_11>:
    80203ee8:	4511                	li	a0,4
    80203eea:	a011                	j	80203eee <.LBB16_12+0x2>

0000000080203eec <.LBB16_12>:
    80203eec:	4519                	li	a0,6
    80203eee:	4485                	li	s1,1
    80203ef0:	fe940323          	sb	s1,-26(s0)
    80203ef4:	fea403a3          	sb	a0,-25(s0)
    80203ef8:	00005097          	auipc	ra,0x5
    80203efc:	e24080e7          	jalr	-476(ra) # 80208d1c <_ZN2os4task9processor15current_trap_cx17hf62b44980fe8801cE>
    80203f00:	10850513          	addi	a0,a0,264
    80203f04:	fe640593          	addi	a1,s0,-26
    80203f08:	fab43823          	sd	a1,-80(s0)

0000000080203f0c <.Lpcrel_hi55>:
    80203f0c:	fffff597          	auipc	a1,0xfffff
    80203f10:	66658593          	addi	a1,a1,1638 # 80203572 <_ZN66_$LT$riscv..register..scause..Trap$u20$as$u20$core..fmt..Debug$GT$3fmt17h9da53a8b789a023eE>
    80203f14:	fab43c23          	sd	a1,-72(s0)
    80203f18:	ed040593          	addi	a1,s0,-304
    80203f1c:	fcb43023          	sd	a1,-64(s0)

0000000080203f20 <.Lpcrel_hi56>:
    80203f20:	00009597          	auipc	a1,0x9
    80203f24:	8a658593          	addi	a1,a1,-1882 # 8020c7c6 <_ZN4core3fmt3num53_$LT$impl$u20$core..fmt..LowerHex$u20$for$u20$i64$GT$3fmt17h2c0862d8e5218d41E>
    80203f28:	fcb43423          	sd	a1,-56(s0)
    80203f2c:	fca43823          	sd	a0,-48(s0)
    80203f30:	fcb43c23          	sd	a1,-40(s0)
    80203f34:	4509                	li	a0,2
    80203f36:	f0a43423          	sd	a0,-248(s0)
    80203f3a:	f0a43c23          	sd	a0,-232(s0)
    80203f3e:	f2043423          	sd	zero,-216(s0)
    80203f42:	02000593          	li	a1,32
    80203f46:	f2b43823          	sd	a1,-208(s0)
    80203f4a:	458d                	li	a1,3
    80203f4c:	f2b40c23          	sb	a1,-200(s0)
    80203f50:	f4a43023          	sd	a0,-192(s0)
    80203f54:	f4a43823          	sd	a0,-176(s0)
    80203f58:	f6943023          	sd	s1,-160(s0)
    80203f5c:	148a                	slli	s1,s1,0x22
    80203f5e:	02048613          	addi	a2,s1,32
    80203f62:	f6c43423          	sd	a2,-152(s0)
    80203f66:	f6b40823          	sb	a1,-144(s0)
    80203f6a:	f6a43c23          	sd	a0,-136(s0)
    80203f6e:	f8a43423          	sd	a0,-120(s0)
    80203f72:	f8a43c23          	sd	a0,-104(s0)
    80203f76:	fac43023          	sd	a2,-96(s0)
    80203f7a:	fab40423          	sb	a1,-88(s0)

0000000080203f7e <.Lpcrel_hi57>:
    80203f7e:	0000b517          	auipc	a0,0xb
    80203f82:	9c250513          	addi	a0,a0,-1598 # 8020e940 <.Lanon.6a46c64e42596067554903e2843242d1.36>
    80203f86:	eca43c23          	sd	a0,-296(s0)
    80203f8a:	4511                	li	a0,4
    80203f8c:	eea43023          	sd	a0,-288(s0)
    80203f90:	f0840513          	addi	a0,s0,-248
    80203f94:	eea43c23          	sd	a0,-264(s0)
    80203f98:	f0b43023          	sd	a1,-256(s0)
    80203f9c:	fb040513          	addi	a0,s0,-80
    80203fa0:	eea43423          	sd	a0,-280(s0)
    80203fa4:	eeb43823          	sd	a1,-272(s0)
    80203fa8:	ed840513          	addi	a0,s0,-296
    80203fac:	00004097          	auipc	ra,0x4
    80203fb0:	87e080e7          	jalr	-1922(ra) # 8020782a <_ZN2os7console5print17hb0238f93bcb82e2aE>
    80203fb4:	5579                	li	a0,-2
    80203fb6:	00003097          	auipc	ra,0x3
    80203fba:	f70080e7          	jalr	-144(ra) # 80206f26 <_ZN2os4task25exit_current_and_run_next17h852c15de548e53f0E>
    80203fbe:	00000097          	auipc	ra,0x0
    80203fc2:	04e080e7          	jalr	78(ra) # 8020400c <trap_return>

0000000080203fc6 <.LBB16_14>:
    80203fc6:	00005097          	auipc	ra,0x5
    80203fca:	d56080e7          	jalr	-682(ra) # 80208d1c <_ZN2os4task9processor15current_trap_cx17hf62b44980fe8801cE>
    80203fce:	10853583          	ld	a1,264(a0)
    80203fd2:	0591                	addi	a1,a1,4
    80203fd4:	10b53423          	sd	a1,264(a0)
    80203fd8:	692c                	ld	a1,80(a0)
    80203fda:	6d30                	ld	a2,88(a0)
    80203fdc:	7134                	ld	a3,96(a0)
    80203fde:	6548                	ld	a0,136(a0)
    80203fe0:	f0b43423          	sd	a1,-248(s0)
    80203fe4:	f0c43823          	sd	a2,-240(s0)
    80203fe8:	f0d43c23          	sd	a3,-232(s0)
    80203fec:	f0840593          	addi	a1,s0,-248
    80203ff0:	00002097          	auipc	ra,0x2
    80203ff4:	53e080e7          	jalr	1342(ra) # 8020652e <_ZN2os7syscall7syscall17h978a9f4fbef7ae5fE>
    80203ff8:	84aa                	mv	s1,a0
    80203ffa:	00005097          	auipc	ra,0x5
    80203ffe:	d22080e7          	jalr	-734(ra) # 80208d1c <_ZN2os4task9processor15current_trap_cx17hf62b44980fe8801cE>
    80204002:	e924                	sd	s1,80(a0)
    80204004:	00000097          	auipc	ra,0x0
    80204008:	008080e7          	jalr	8(ra) # 8020400c <trap_return>

000000008020400c <trap_return>:
    8020400c:	1101                	addi	sp,sp,-32
    8020400e:	ec06                	sd	ra,24(sp)
    80204010:	e822                	sd	s0,16(sp)
    80204012:	e426                	sd	s1,8(sp)
    80204014:	1000                	addi	s0,sp,32
    80204016:	74fd                	lui	s1,0xfffff
    80204018:	10549073          	csrw	stvec,s1
    8020401c:	00005097          	auipc	ra,0x5
    80204020:	c3c080e7          	jalr	-964(ra) # 80208c58 <_ZN2os4task9processor18current_user_token17h8e740027dcd15aa1E>
    80204024:	85aa                	mv	a1,a0

0000000080204026 <.Lpcrel_hi59>:
    80204026:	ffffd517          	auipc	a0,0xffffd
    8020402a:	fda50513          	addi	a0,a0,-38 # 80201000 <__alltraps>

000000008020402e <.Lpcrel_hi60>:
    8020402e:	ffffd617          	auipc	a2,0xffffd
    80204032:	03260613          	addi	a2,a2,50 # 80201060 <__restore>
    80204036:	8e09                	sub	a2,a2,a0
    80204038:	9626                	add	a2,a2,s1
    8020403a:	7579                	lui	a0,0xffffe
    8020403c:	0000100f          	.insn	4, 0x100f
    80204040:	8602                	jr	a2
	...

0000000080204044 <trap_from_kernel>:
    80204044:	711d                	addi	sp,sp,-96
    80204046:	ec86                	sd	ra,88(sp)
    80204048:	e8a2                	sd	s0,80(sp)
    8020404a:	1080                	addi	s0,sp,96
    8020404c:	14202573          	csrr	a0,scause
    80204050:	fffff097          	auipc	ra,0xfffff
    80204054:	4d6080e7          	jalr	1238(ra) # 80203526 <_ZN5riscv8register6scause6Scause5cause17h14393655cc5a70a7E>
    80204058:	8905                	andi	a0,a0,1
    8020405a:	fea40723          	sb	a0,-18(s0)
    8020405e:	feb407a3          	sb	a1,-17(s0)
    80204062:	fee40513          	addi	a0,s0,-18
    80204066:	fca43c23          	sd	a0,-40(s0)

000000008020406a <.Lpcrel_hi61>:
    8020406a:	fffff517          	auipc	a0,0xfffff
    8020406e:	50850513          	addi	a0,a0,1288 # 80203572 <_ZN66_$LT$riscv..register..scause..Trap$u20$as$u20$core..fmt..Debug$GT$3fmt17h9da53a8b789a023eE>
    80204072:	fea43023          	sd	a0,-32(s0)

0000000080204076 <.Lpcrel_hi62>:
    80204076:	0000b517          	auipc	a0,0xb
    8020407a:	99a50513          	addi	a0,a0,-1638 # 8020ea10 <.Lanon.6a46c64e42596067554903e2843242d1.45>
    8020407e:	faa43423          	sd	a0,-88(s0)
    80204082:	4509                	li	a0,2
    80204084:	faa43823          	sd	a0,-80(s0)
    80204088:	fc043423          	sd	zero,-56(s0)
    8020408c:	fd840513          	addi	a0,s0,-40
    80204090:	faa43c23          	sd	a0,-72(s0)
    80204094:	4505                	li	a0,1
    80204096:	fca43023          	sd	a0,-64(s0)

000000008020409a <.Lpcrel_hi63>:
    8020409a:	0000b517          	auipc	a0,0xb
    8020409e:	99650593          	addi	a1,a0,-1642 # 8020ea30 <.Lanon.6a46c64e42596067554903e2843242d1.46>
    802040a2:	fa840513          	addi	a0,s0,-88
    802040a6:	00006097          	auipc	ra,0x6
    802040aa:	5a6080e7          	jalr	1446(ra) # 8020a64c <_ZN4core9panicking9panic_fmt17hc25dbb51a4d67a42E>

00000000802040ae <_ZN4core3fmt3num52_$LT$impl$u20$core..fmt..Debug$u20$for$u20$usize$GT$3fmt17h1c8a6d16de8eed31E>:
    802040ae:	1141                	addi	sp,sp,-16
    802040b0:	e406                	sd	ra,8(sp)
    802040b2:	e022                	sd	s0,0(sp)
    802040b4:	0800                	addi	s0,sp,16
    802040b6:	0345e603          	lwu	a2,52(a1)
    802040ba:	01067693          	andi	a3,a2,16
    802040be:	ea99                	bnez	a3,802040d4 <_ZN4core3fmt3num52_$LT$impl$u20$core..fmt..Debug$u20$for$u20$usize$GT$3fmt17h1c8a6d16de8eed31E+0x26>
    802040c0:	02067613          	andi	a2,a2,32
    802040c4:	ee19                	bnez	a2,802040e2 <_ZN4core3fmt3num52_$LT$impl$u20$core..fmt..Debug$u20$for$u20$usize$GT$3fmt17h1c8a6d16de8eed31E+0x34>
    802040c6:	60a2                	ld	ra,8(sp)
    802040c8:	6402                	ld	s0,0(sp)
    802040ca:	0141                	addi	sp,sp,16
    802040cc:	00009317          	auipc	t1,0x9
    802040d0:	ba030067          	jr	-1120(t1) # 8020cc6c <_ZN4core3fmt3num3imp52_$LT$impl$u20$core..fmt..Display$u20$for$u20$u64$GT$3fmt17hdc568abe5d51f18fE>
    802040d4:	60a2                	ld	ra,8(sp)
    802040d6:	6402                	ld	s0,0(sp)
    802040d8:	0141                	addi	sp,sp,16
    802040da:	00008317          	auipc	t1,0x8
    802040de:	6ec30067          	jr	1772(t1) # 8020c7c6 <_ZN4core3fmt3num53_$LT$impl$u20$core..fmt..LowerHex$u20$for$u20$i64$GT$3fmt17h2c0862d8e5218d41E>
    802040e2:	60a2                	ld	ra,8(sp)
    802040e4:	6402                	ld	s0,0(sp)
    802040e6:	0141                	addi	sp,sp,16
    802040e8:	00008317          	auipc	t1,0x8
    802040ec:	75430067          	jr	1876(t1) # 8020c83c <_ZN4core3fmt3num53_$LT$impl$u20$core..fmt..UpperHex$u20$for$u20$i64$GT$3fmt17hdf92147260748110E>

00000000802040f0 <_ZN4core3ptr26drop_in_place$LT$usize$GT$17h40a7505068525d3fE>:
    802040f0:	1141                	addi	sp,sp,-16
    802040f2:	e406                	sd	ra,8(sp)
    802040f4:	e022                	sd	s0,0(sp)
    802040f6:	0800                	addi	s0,sp,16
    802040f8:	60a2                	ld	ra,8(sp)
    802040fa:	6402                	ld	s0,0(sp)
    802040fc:	0141                	addi	sp,sp,16
    802040fe:	8082                	ret

0000000080204100 <_ZN4spin4once17Once$LT$T$C$R$GT$18try_call_once_slow17h03859503446bdfc1E.llvm.18273212518176036961>:
    80204100:	1141                	addi	sp,sp,-16
    80204102:	e406                	sd	ra,8(sp)
    80204104:	e022                	sd	s0,0(sp)
    80204106:	0800                	addi	s0,sp,16
    80204108:	02850593          	addi	a1,a0,40
    8020410c:	ffc5f613          	andi	a2,a1,-4
    80204110:	0ff00813          	li	a6,255
    80204114:	4705                	li	a4,1
    80204116:	140627af          	lr.w.aq	a5,(a2)
    8020411a:	0107f6b3          	and	a3,a5,a6
    8020411e:	ea89                	bnez	a3,80204130 <_ZN4spin4once17Once$LT$T$C$R$GT$18try_call_once_slow17h03859503446bdfc1E.llvm.18273212518176036961+0x30>
    80204120:	00e7c6b3          	xor	a3,a5,a4
    80204124:	0106f6b3          	and	a3,a3,a6
    80204128:	8ebd                	xor	a3,a3,a5
    8020412a:	18d626af          	sc.w	a3,a3,(a2)
    8020412e:	f6e5                	bnez	a3,80204116 <_ZN4spin4once17Once$LT$T$C$R$GT$18try_call_once_slow17h03859503446bdfc1E.llvm.18273212518176036961+0x16>
    80204130:	0ff7f693          	zext.b	a3,a5
    80204134:	ca95                	beqz	a3,80204168 <_ZN4spin4once17Once$LT$T$C$R$GT$18try_call_once_slow17h03859503446bdfc1E.llvm.18273212518176036961+0x68>
    80204136:	0ff7f793          	zext.b	a5,a5
    8020413a:	fcf05ee3          	blez	a5,80204116 <_ZN4spin4once17Once$LT$T$C$R$GT$18try_call_once_slow17h03859503446bdfc1E.llvm.18273212518176036961+0x16>
    8020413e:	00e78563          	beq	a5,a4,80204148 <_ZN4spin4once17Once$LT$T$C$R$GT$18try_call_once_slow17h03859503446bdfc1E.llvm.18273212518176036961+0x48>
    80204142:	a0b1                	j	8020418e <_ZN4spin4once17Once$LT$T$C$R$GT$18try_call_once_slow17h03859503446bdfc1E.llvm.18273212518176036961+0x8e>
    80204144:	0100000f          	fence	w,unknown
    80204148:	00058783          	lb	a5,0(a1)
    8020414c:	0230000f          	fence	r,rw
    80204150:	fee78ae3          	beq	a5,a4,80204144 <_ZN4spin4once17Once$LT$T$C$R$GT$18try_call_once_slow17h03859503446bdfc1E.llvm.18273212518176036961+0x44>
    80204154:	0ff7f793          	zext.b	a5,a5
    80204158:	dfdd                	beqz	a5,80204116 <_ZN4spin4once17Once$LT$T$C$R$GT$18try_call_once_slow17h03859503446bdfc1E.llvm.18273212518176036961+0x16>
    8020415a:	4589                	li	a1,2
    8020415c:	04b79963          	bne	a5,a1,802041ae <.Lpcrel_hi0>
    80204160:	60a2                	ld	ra,8(sp)
    80204162:	6402                	ld	s0,0(sp)
    80204164:	0141                	addi	sp,sp,16
    80204166:	8082                	ret
    80204168:	00053423          	sd	zero,8(a0)
    8020416c:	00053023          	sd	zero,0(a0)
    80204170:	45a1                	li	a1,8
    80204172:	e90c                	sd	a1,16(a0)
    80204174:	00053c23          	sd	zero,24(a0)
    80204178:	02053023          	sd	zero,32(a0)
    8020417c:	0310000f          	fence	rw,w
    80204180:	4589                	li	a1,2
    80204182:	02b50423          	sb	a1,40(a0)
    80204186:	60a2                	ld	ra,8(sp)
    80204188:	6402                	ld	s0,0(sp)
    8020418a:	0141                	addi	sp,sp,16
    8020418c:	8082                	ret
    8020418e:	4589                	li	a1,2
    80204190:	fcb788e3          	beq	a5,a1,80204160 <_ZN4spin4once17Once$LT$T$C$R$GT$18try_call_once_slow17h03859503446bdfc1E.llvm.18273212518176036961+0x60>

0000000080204194 <.Lpcrel_hi2>:
    80204194:	0000b517          	auipc	a0,0xb
    80204198:	8d750513          	addi	a0,a0,-1833 # 8020ea6b <anon.fa3a93afb1962c64d2dee2034174ad88.0.llvm.18273212518176036961>

000000008020419c <.Lpcrel_hi3>:
    8020419c:	0000b597          	auipc	a1,0xb
    802041a0:	93c58613          	addi	a2,a1,-1732 # 8020ead8 <anon.fa3a93afb1962c64d2dee2034174ad88.2.llvm.18273212518176036961>
    802041a4:	45b5                	li	a1,13
    802041a6:	00006097          	auipc	ra,0x6
    802041aa:	4d8080e7          	jalr	1240(ra) # 8020a67e <_ZN4core9panicking5panic17h14cc1607a430f055E>

00000000802041ae <.Lpcrel_hi0>:
    802041ae:	0000b517          	auipc	a0,0xb
    802041b2:	94250513          	addi	a0,a0,-1726 # 8020eaf0 <anon.fa3a93afb1962c64d2dee2034174ad88.3.llvm.18273212518176036961>

00000000802041b6 <.Lpcrel_hi1>:
    802041b6:	0000b597          	auipc	a1,0xb
    802041ba:	96258613          	addi	a2,a1,-1694 # 8020eb18 <anon.fa3a93afb1962c64d2dee2034174ad88.4.llvm.18273212518176036961>
    802041be:	02600593          	li	a1,38
    802041c2:	00006097          	auipc	ra,0x6
    802041c6:	4bc080e7          	jalr	1212(ra) # 8020a67e <_ZN4core9panicking5panic17h14cc1607a430f055E>

00000000802041ca <_ZN4spin4once17Once$LT$T$C$R$GT$18try_call_once_slow17h248f831427eadf2aE.llvm.18273212518176036961>:
    802041ca:	1141                	addi	sp,sp,-16
    802041cc:	e406                	sd	ra,8(sp)
    802041ce:	e022                	sd	s0,0(sp)
    802041d0:	0800                	addi	s0,sp,16
    802041d2:	03050593          	addi	a1,a0,48
    802041d6:	ffc5f613          	andi	a2,a1,-4
    802041da:	0ff00813          	li	a6,255
    802041de:	4705                	li	a4,1
    802041e0:	140627af          	lr.w.aq	a5,(a2)
    802041e4:	0107f6b3          	and	a3,a5,a6
    802041e8:	ea89                	bnez	a3,802041fa <_ZN4spin4once17Once$LT$T$C$R$GT$18try_call_once_slow17h248f831427eadf2aE.llvm.18273212518176036961+0x30>
    802041ea:	00e7c6b3          	xor	a3,a5,a4
    802041ee:	0106f6b3          	and	a3,a3,a6
    802041f2:	8ebd                	xor	a3,a3,a5
    802041f4:	18d626af          	sc.w	a3,a3,(a2)
    802041f8:	f6e5                	bnez	a3,802041e0 <_ZN4spin4once17Once$LT$T$C$R$GT$18try_call_once_slow17h248f831427eadf2aE.llvm.18273212518176036961+0x16>
    802041fa:	0ff7f693          	zext.b	a3,a5
    802041fe:	ca95                	beqz	a3,80204232 <_ZN4spin4once17Once$LT$T$C$R$GT$18try_call_once_slow17h248f831427eadf2aE.llvm.18273212518176036961+0x68>
    80204200:	0ff7f793          	zext.b	a5,a5
    80204204:	fcf05ee3          	blez	a5,802041e0 <_ZN4spin4once17Once$LT$T$C$R$GT$18try_call_once_slow17h248f831427eadf2aE.llvm.18273212518176036961+0x16>
    80204208:	00e78563          	beq	a5,a4,80204212 <_ZN4spin4once17Once$LT$T$C$R$GT$18try_call_once_slow17h248f831427eadf2aE.llvm.18273212518176036961+0x48>
    8020420c:	a881                	j	8020425c <_ZN4spin4once17Once$LT$T$C$R$GT$18try_call_once_slow17h248f831427eadf2aE.llvm.18273212518176036961+0x92>
    8020420e:	0100000f          	fence	w,unknown
    80204212:	00058783          	lb	a5,0(a1)
    80204216:	0230000f          	fence	r,rw
    8020421a:	fee78ae3          	beq	a5,a4,8020420e <_ZN4spin4once17Once$LT$T$C$R$GT$18try_call_once_slow17h248f831427eadf2aE.llvm.18273212518176036961+0x44>
    8020421e:	0ff7f793          	zext.b	a5,a5
    80204222:	dfdd                	beqz	a5,802041e0 <_ZN4spin4once17Once$LT$T$C$R$GT$18try_call_once_slow17h248f831427eadf2aE.llvm.18273212518176036961+0x16>
    80204224:	4589                	li	a1,2
    80204226:	04b79b63          	bne	a5,a1,8020427c <.Lpcrel_hi4>
    8020422a:	60a2                	ld	ra,8(sp)
    8020422c:	6402                	ld	s0,0(sp)
    8020422e:	0141                	addi	sp,sp,16
    80204230:	8082                	ret
    80204232:	00053423          	sd	zero,8(a0)
    80204236:	00053023          	sd	zero,0(a0)
    8020423a:	45a1                	li	a1,8
    8020423c:	e90c                	sd	a1,16(a0)
    8020423e:	00053c23          	sd	zero,24(a0)
    80204242:	02053023          	sd	zero,32(a0)
    80204246:	02053423          	sd	zero,40(a0)
    8020424a:	0310000f          	fence	rw,w
    8020424e:	4589                	li	a1,2
    80204250:	02b50823          	sb	a1,48(a0)
    80204254:	60a2                	ld	ra,8(sp)
    80204256:	6402                	ld	s0,0(sp)
    80204258:	0141                	addi	sp,sp,16
    8020425a:	8082                	ret
    8020425c:	4589                	li	a1,2
    8020425e:	fcb786e3          	beq	a5,a1,8020422a <_ZN4spin4once17Once$LT$T$C$R$GT$18try_call_once_slow17h248f831427eadf2aE.llvm.18273212518176036961+0x60>

0000000080204262 <.Lpcrel_hi6>:
    80204262:	0000b517          	auipc	a0,0xb
    80204266:	80950513          	addi	a0,a0,-2039 # 8020ea6b <anon.fa3a93afb1962c64d2dee2034174ad88.0.llvm.18273212518176036961>

000000008020426a <.Lpcrel_hi7>:
    8020426a:	0000b597          	auipc	a1,0xb
    8020426e:	86e58613          	addi	a2,a1,-1938 # 8020ead8 <anon.fa3a93afb1962c64d2dee2034174ad88.2.llvm.18273212518176036961>
    80204272:	45b5                	li	a1,13
    80204274:	00006097          	auipc	ra,0x6
    80204278:	40a080e7          	jalr	1034(ra) # 8020a67e <_ZN4core9panicking5panic17h14cc1607a430f055E>

000000008020427c <.Lpcrel_hi4>:
    8020427c:	0000b517          	auipc	a0,0xb
    80204280:	87450513          	addi	a0,a0,-1932 # 8020eaf0 <anon.fa3a93afb1962c64d2dee2034174ad88.3.llvm.18273212518176036961>

0000000080204284 <.Lpcrel_hi5>:
    80204284:	0000b597          	auipc	a1,0xb
    80204288:	89458613          	addi	a2,a1,-1900 # 8020eb18 <anon.fa3a93afb1962c64d2dee2034174ad88.4.llvm.18273212518176036961>
    8020428c:	02600593          	li	a1,38
    80204290:	00006097          	auipc	ra,0x6
    80204294:	3ee080e7          	jalr	1006(ra) # 8020a67e <_ZN4core9panicking5panic17h14cc1607a430f055E>

0000000080204298 <_ZN4spin4once17Once$LT$T$C$R$GT$18try_call_once_slow17h453df6ba65f3ba7aE.llvm.18273212518176036961>:
    80204298:	712d                	addi	sp,sp,-288
    8020429a:	ee06                	sd	ra,280(sp)
    8020429c:	ea22                	sd	s0,272(sp)
    8020429e:	e626                	sd	s1,264(sp)
    802042a0:	e24a                	sd	s2,256(sp)
    802042a2:	1200                	addi	s0,sp,288
    802042a4:	00850593          	addi	a1,a0,8
    802042a8:	ffc5f613          	andi	a2,a1,-4
    802042ac:	0ff00693          	li	a3,255
    802042b0:	4705                	li	a4,1
    802042b2:	140627af          	lr.w.aq	a5,(a2)
    802042b6:	00d7f4b3          	and	s1,a5,a3
    802042ba:	e881                	bnez	s1,802042ca <_ZN4spin4once17Once$LT$T$C$R$GT$18try_call_once_slow17h453df6ba65f3ba7aE.llvm.18273212518176036961+0x32>
    802042bc:	00e7c4b3          	xor	s1,a5,a4
    802042c0:	8cf5                	and	s1,s1,a3
    802042c2:	8cbd                	xor	s1,s1,a5
    802042c4:	189624af          	sc.w	s1,s1,(a2)
    802042c8:	f4ed                	bnez	s1,802042b2 <_ZN4spin4once17Once$LT$T$C$R$GT$18try_call_once_slow17h453df6ba65f3ba7aE.llvm.18273212518176036961+0x1a>
    802042ca:	0ff7f493          	zext.b	s1,a5
    802042ce:	c4a1                	beqz	s1,80204316 <.Lpcrel_hi13+0x14>
    802042d0:	0ff7f793          	zext.b	a5,a5
    802042d4:	fcf05fe3          	blez	a5,802042b2 <_ZN4spin4once17Once$LT$T$C$R$GT$18try_call_once_slow17h453df6ba65f3ba7aE.llvm.18273212518176036961+0x1a>
    802042d8:	00e78563          	beq	a5,a4,802042e2 <_ZN4spin4once17Once$LT$T$C$R$GT$18try_call_once_slow17h453df6ba65f3ba7aE.llvm.18273212518176036961+0x4a>
    802042dc:	a0c1                	j	8020439c <.Lpcrel_hi11+0x50>
    802042de:	0100000f          	fence	w,unknown
    802042e2:	00058783          	lb	a5,0(a1)
    802042e6:	0230000f          	fence	r,rw
    802042ea:	fee78ae3          	beq	a5,a4,802042de <_ZN4spin4once17Once$LT$T$C$R$GT$18try_call_once_slow17h453df6ba65f3ba7aE.llvm.18273212518176036961+0x46>
    802042ee:	0ff7f793          	zext.b	a5,a5
    802042f2:	d3e1                	beqz	a5,802042b2 <_ZN4spin4once17Once$LT$T$C$R$GT$18try_call_once_slow17h453df6ba65f3ba7aE.llvm.18273212518176036961+0x1a>
    802042f4:	4589                	li	a1,2
    802042f6:	08b78d63          	beq	a5,a1,80204390 <.Lpcrel_hi11+0x44>

00000000802042fa <.Lpcrel_hi12>:
    802042fa:	0000a517          	auipc	a0,0xa
    802042fe:	7f650513          	addi	a0,a0,2038 # 8020eaf0 <anon.fa3a93afb1962c64d2dee2034174ad88.3.llvm.18273212518176036961>

0000000080204302 <.Lpcrel_hi13>:
    80204302:	0000b597          	auipc	a1,0xb
    80204306:	81658613          	addi	a2,a1,-2026 # 8020eb18 <anon.fa3a93afb1962c64d2dee2034174ad88.4.llvm.18273212518176036961>
    8020430a:	02600593          	li	a1,38
    8020430e:	00006097          	auipc	ra,0x6
    80204312:	370080e7          	jalr	880(ra) # 8020a67e <_ZN4core9panicking5panic17h14cc1607a430f055E>
    80204316:	892a                	mv	s2,a0

0000000080204318 <.Lpcrel_hi8>:
    80204318:	0000b517          	auipc	a0,0xb
    8020431c:	91850513          	addi	a0,a0,-1768 # 8020ec30 <anon.fa3a93afb1962c64d2dee2034174ad88.14.llvm.18273212518176036961>
    80204320:	45a1                	li	a1,8
    80204322:	00003097          	auipc	ra,0x3
    80204326:	558080e7          	jalr	1368(ra) # 8020787a <_ZN2os6loader20get_app_data_by_name17h27490dcfb0927bb1E>
    8020432a:	c949                	beqz	a0,802043bc <.Lpcrel_hi9>
    8020432c:	862a                	mv	a2,a0
    8020432e:	86ae                	mv	a3,a1
    80204330:	ee840513          	addi	a0,s0,-280
    80204334:	85b2                	mv	a1,a2
    80204336:	8636                	mv	a2,a3
    80204338:	00005097          	auipc	ra,0x5
    8020433c:	ab6080e7          	jalr	-1354(ra) # 80208dee <_ZN2os4task4task16TaskControlBlock3new17h65189b3f6f757f4eE>

0000000080204340 <.Lpcrel_hi10>:
    80204340:	00333517          	auipc	a0,0x333
    80204344:	f4950513          	addi	a0,a0,-183 # 80537289 <__rust_no_alloc_shim_is_unstable>
    80204348:	00054003          	lbu	zero,0(a0)

000000008020434c <.Lpcrel_hi11>:
    8020434c:	00333517          	auipc	a0,0x333
    80204350:	d5c50513          	addi	a0,a0,-676 # 805370a8 <_ZN2os2mm14heap_allocator14HEAP_ALLOCATOR17hdb009eb0a1c201beE.llvm.13289308715828321855>
    80204354:	45a1                	li	a1,8
    80204356:	10800613          	li	a2,264
    8020435a:	00006097          	auipc	ra,0x6
    8020435e:	b66080e7          	jalr	-1178(ra) # 80209ec0 <_ZN87_$LT$buddy_system_allocator..LockedHeap$u20$as$u20$core..alloc..global..GlobalAlloc$GT$5alloc17h3b694276a2754c9bE>
    80204362:	c52d                	beqz	a0,802043cc <.Lpcrel_hi9+0x10>
    80204364:	84aa                	mv	s1,a0
    80204366:	4505                	li	a0,1
    80204368:	e088                	sd	a0,0(s1)
    8020436a:	e488                	sd	a0,8(s1)
    8020436c:	01048513          	addi	a0,s1,16 # fffffffffffff010 <ebss+0xffffffff7fac7010>
    80204370:	ee840593          	addi	a1,s0,-280
    80204374:	0f800613          	li	a2,248
    80204378:	00009097          	auipc	ra,0x9
    8020437c:	da0080e7          	jalr	-608(ra) # 8020d118 <memcpy>
    80204380:	854a                	mv	a0,s2
    80204382:	00993023          	sd	s1,0(s2)
    80204386:	0310000f          	fence	rw,w
    8020438a:	4589                	li	a1,2
    8020438c:	00b90423          	sb	a1,8(s2)
    80204390:	60f2                	ld	ra,280(sp)
    80204392:	6452                	ld	s0,272(sp)
    80204394:	64b2                	ld	s1,264(sp)
    80204396:	6912                	ld	s2,256(sp)
    80204398:	6115                	addi	sp,sp,288
    8020439a:	8082                	ret
    8020439c:	4589                	li	a1,2
    8020439e:	feb789e3          	beq	a5,a1,80204390 <.Lpcrel_hi11+0x44>

00000000802043a2 <.Lpcrel_hi14>:
    802043a2:	0000a517          	auipc	a0,0xa
    802043a6:	6c950513          	addi	a0,a0,1737 # 8020ea6b <anon.fa3a93afb1962c64d2dee2034174ad88.0.llvm.18273212518176036961>

00000000802043aa <.Lpcrel_hi15>:
    802043aa:	0000a597          	auipc	a1,0xa
    802043ae:	72e58613          	addi	a2,a1,1838 # 8020ead8 <anon.fa3a93afb1962c64d2dee2034174ad88.2.llvm.18273212518176036961>
    802043b2:	45b5                	li	a1,13
    802043b4:	00006097          	auipc	ra,0x6
    802043b8:	2ca080e7          	jalr	714(ra) # 8020a67e <_ZN4core9panicking5panic17h14cc1607a430f055E>

00000000802043bc <.Lpcrel_hi9>:
    802043bc:	0000b517          	auipc	a0,0xb
    802043c0:	88c50513          	addi	a0,a0,-1908 # 8020ec48 <anon.fa3a93afb1962c64d2dee2034174ad88.16.llvm.18273212518176036961>
    802043c4:	00006097          	auipc	ra,0x6
    802043c8:	24c080e7          	jalr	588(ra) # 8020a610 <_ZN4core6option13unwrap_failed17h3c70806c841faa93E>
    802043cc:	4521                	li	a0,8
    802043ce:	10800593          	li	a1,264
    802043d2:	00006097          	auipc	ra,0x6
    802043d6:	d1a080e7          	jalr	-742(ra) # 8020a0ec <_ZN5alloc5alloc18handle_alloc_error17h712b744ef0f4e031E>

00000000802043da <_ZN4spin4once17Once$LT$T$C$R$GT$18try_call_once_slow17h755755071e18d5f0E.llvm.18273212518176036961>:
    802043da:	7171                	addi	sp,sp,-176
    802043dc:	f506                	sd	ra,168(sp)
    802043de:	f122                	sd	s0,160(sp)
    802043e0:	ed26                	sd	s1,152(sp)
    802043e2:	e94a                	sd	s2,144(sp)
    802043e4:	e54e                	sd	s3,136(sp)
    802043e6:	e152                	sd	s4,128(sp)
    802043e8:	fcd6                	sd	s5,120(sp)
    802043ea:	f8da                	sd	s6,112(sp)
    802043ec:	f4de                	sd	s7,104(sp)
    802043ee:	f0e2                	sd	s8,96(sp)
    802043f0:	ece6                	sd	s9,88(sp)
    802043f2:	1900                	addi	s0,sp,176
    802043f4:	892a                	mv	s2,a0
    802043f6:	0561                	addi	a0,a0,24
    802043f8:	ffc57593          	andi	a1,a0,-4
    802043fc:	0ff00613          	li	a2,255
    80204400:	4685                	li	a3,1
    80204402:	1405a72f          	lr.w.aq	a4,(a1)
    80204406:	00c777b3          	and	a5,a4,a2
    8020440a:	eb81                	bnez	a5,8020441a <_ZN4spin4once17Once$LT$T$C$R$GT$18try_call_once_slow17h755755071e18d5f0E.llvm.18273212518176036961+0x40>
    8020440c:	00d747b3          	xor	a5,a4,a3
    80204410:	8ff1                	and	a5,a5,a2
    80204412:	8fb9                	xor	a5,a5,a4
    80204414:	18f5a7af          	sc.w	a5,a5,(a1)
    80204418:	f7ed                	bnez	a5,80204402 <_ZN4spin4once17Once$LT$T$C$R$GT$18try_call_once_slow17h755755071e18d5f0E.llvm.18273212518176036961+0x28>
    8020441a:	0ff77793          	zext.b	a5,a4
    8020441e:	c7a1                	beqz	a5,80204466 <.Lpcrel_hi16>
    80204420:	0ff77713          	zext.b	a4,a4
    80204424:	fce05fe3          	blez	a4,80204402 <_ZN4spin4once17Once$LT$T$C$R$GT$18try_call_once_slow17h755755071e18d5f0E.llvm.18273212518176036961+0x28>
    80204428:	00d70563          	beq	a4,a3,80204432 <_ZN4spin4once17Once$LT$T$C$R$GT$18try_call_once_slow17h755755071e18d5f0E.llvm.18273212518176036961+0x58>
    8020442c:	aa29                	j	80204546 <.Lpcrel_hi17+0xc0>
    8020442e:	0100000f          	fence	w,unknown
    80204432:	00050703          	lb	a4,0(a0)
    80204436:	0230000f          	fence	r,rw
    8020443a:	fed70ae3          	beq	a4,a3,8020442e <_ZN4spin4once17Once$LT$T$C$R$GT$18try_call_once_slow17h755755071e18d5f0E.llvm.18273212518176036961+0x54>
    8020443e:	0ff77713          	zext.b	a4,a4
    80204442:	d361                	beqz	a4,80204402 <_ZN4spin4once17Once$LT$T$C$R$GT$18try_call_once_slow17h755755071e18d5f0E.llvm.18273212518176036961+0x28>
    80204444:	4509                	li	a0,2
    80204446:	0ea70263          	beq	a4,a0,8020452a <.Lpcrel_hi17+0xa4>

000000008020444a <.Lpcrel_hi21>:
    8020444a:	0000a517          	auipc	a0,0xa
    8020444e:	6a650513          	addi	a0,a0,1702 # 8020eaf0 <anon.fa3a93afb1962c64d2dee2034174ad88.3.llvm.18273212518176036961>

0000000080204452 <.Lpcrel_hi22>:
    80204452:	0000a597          	auipc	a1,0xa
    80204456:	6c658613          	addi	a2,a1,1734 # 8020eb18 <anon.fa3a93afb1962c64d2dee2034174ad88.4.llvm.18273212518176036961>
    8020445a:	02600593          	li	a1,38
    8020445e:	00006097          	auipc	ra,0x6
    80204462:	220080e7          	jalr	544(ra) # 8020a67e <_ZN4core9panicking5panic17h14cc1607a430f055E>

0000000080204466 <.Lpcrel_hi16>:
    80204466:	0000e517          	auipc	a0,0xe
    8020446a:	b9a50513          	addi	a0,a0,-1126 # 80212000 <_num_app>
    8020446e:	00053983          	ld	s3,0(a0)
    80204472:	f6043423          	sd	zero,-152(s0)
    80204476:	4521                	li	a0,8
    80204478:	f6a43823          	sd	a0,-144(s0)
    8020447c:	f6043c23          	sd	zero,-136(s0)
    80204480:	06098e63          	beqz	s3,802044fc <.Lpcrel_hi17+0x76>
    80204484:	4a81                	li	s5,0

0000000080204486 <.Lpcrel_hi17>:
    80204486:	0000e517          	auipc	a0,0xe
    8020448a:	c1250b13          	addi	s6,a0,-1006 # 80212098 <_app_names>
    8020448e:	f8840a13          	addi	s4,s0,-120
    80204492:	a00d                	j	802044b4 <.Lpcrel_hi17+0x2e>
    80204494:	f7043503          	ld	a0,-144(s0)
    80204498:	0a85                	addi	s5,s5,1
    8020449a:	9b26                	add	s6,s6,s1
    8020449c:	004c1593          	slli	a1,s8,0x4
    802044a0:	952e                	add	a0,a0,a1
    802044a2:	01753023          	sd	s7,0(a0)
    802044a6:	01953423          	sd	s9,8(a0)
    802044aa:	0c05                	addi	s8,s8,1
    802044ac:	f7843c23          	sd	s8,-136(s0)
    802044b0:	053a8663          	beq	s5,s3,802044fc <.Lpcrel_hi17+0x76>
    802044b4:	4481                	li	s1,0
    802044b6:	009b0533          	add	a0,s6,s1
    802044ba:	00054503          	lbu	a0,0(a0)
    802044be:	0485                	addi	s1,s1,1
    802044c0:	f97d                	bnez	a0,802044b6 <.Lpcrel_hi17+0x30>
    802044c2:	fff48613          	addi	a2,s1,-1
    802044c6:	f8040513          	addi	a0,s0,-128
    802044ca:	85da                	mv	a1,s6
    802044cc:	00008097          	auipc	ra,0x8
    802044d0:	8fa080e7          	jalr	-1798(ra) # 8020bdc6 <_ZN4core3str8converts9from_utf817ha74d029ccfc0885eE>
    802044d4:	f8043503          	ld	a0,-128(s0)
    802044d8:	e559                	bnez	a0,80204566 <.Lpcrel_hi24+0x12>
    802044da:	f8843b83          	ld	s7,-120(s0)
    802044de:	f7843c03          	ld	s8,-136(s0)
    802044e2:	f6843503          	ld	a0,-152(s0)
    802044e6:	f9043c83          	ld	s9,-112(s0)
    802044ea:	faac15e3          	bne	s8,a0,80204494 <.Lpcrel_hi17+0xe>
    802044ee:	f6840513          	addi	a0,s0,-152
    802044f2:	00000097          	auipc	ra,0x0
    802044f6:	53a080e7          	jalr	1338(ra) # 80204a2c <_ZN5alloc7raw_vec19RawVec$LT$T$C$A$GT$8grow_one17h70c82eb509dbe0d8E>
    802044fa:	bf69                	j	80204494 <.Lpcrel_hi17+0xe>
    802044fc:	f7843503          	ld	a0,-136(s0)
    80204500:	f7043583          	ld	a1,-144(s0)
    80204504:	f6843603          	ld	a2,-152(s0)
    80204508:	f6a43023          	sd	a0,-160(s0)
    8020450c:	f4b43c23          	sd	a1,-168(s0)
    80204510:	f4c43823          	sd	a2,-176(s0)
    80204514:	00a93823          	sd	a0,16(s2)
    80204518:	00b93423          	sd	a1,8(s2)
    8020451c:	00c93023          	sd	a2,0(s2)
    80204520:	0310000f          	fence	rw,w
    80204524:	4509                	li	a0,2
    80204526:	00a90c23          	sb	a0,24(s2)
    8020452a:	854a                	mv	a0,s2
    8020452c:	70aa                	ld	ra,168(sp)
    8020452e:	740a                	ld	s0,160(sp)
    80204530:	64ea                	ld	s1,152(sp)
    80204532:	694a                	ld	s2,144(sp)
    80204534:	69aa                	ld	s3,136(sp)
    80204536:	6a0a                	ld	s4,128(sp)
    80204538:	7ae6                	ld	s5,120(sp)
    8020453a:	7b46                	ld	s6,112(sp)
    8020453c:	7ba6                	ld	s7,104(sp)
    8020453e:	7c06                	ld	s8,96(sp)
    80204540:	6ce6                	ld	s9,88(sp)
    80204542:	614d                	addi	sp,sp,176
    80204544:	8082                	ret
    80204546:	4509                	li	a0,2
    80204548:	fea701e3          	beq	a4,a0,8020452a <.Lpcrel_hi17+0xa4>

000000008020454c <.Lpcrel_hi23>:
    8020454c:	0000a517          	auipc	a0,0xa
    80204550:	51f50513          	addi	a0,a0,1311 # 8020ea6b <anon.fa3a93afb1962c64d2dee2034174ad88.0.llvm.18273212518176036961>

0000000080204554 <.Lpcrel_hi24>:
    80204554:	0000a597          	auipc	a1,0xa
    80204558:	58458613          	addi	a2,a1,1412 # 8020ead8 <anon.fa3a93afb1962c64d2dee2034174ad88.2.llvm.18273212518176036961>
    8020455c:	45b5                	li	a1,13
    8020455e:	00006097          	auipc	ra,0x6
    80204562:	120080e7          	jalr	288(ra) # 8020a67e <_ZN4core9panicking5panic17h14cc1607a430f055E>
    80204566:	008a3503          	ld	a0,8(s4)
    8020456a:	000a3583          	ld	a1,0(s4)
    8020456e:	faa43023          	sd	a0,-96(s0)
    80204572:	f8b43c23          	sd	a1,-104(s0)

0000000080204576 <.Lpcrel_hi18>:
    80204576:	0000a517          	auipc	a0,0xa
    8020457a:	62250513          	addi	a0,a0,1570 # 8020eb98 <.Lanon.fa3a93afb1962c64d2dee2034174ad88.10>

000000008020457e <.Lpcrel_hi19>:
    8020457e:	0000a597          	auipc	a1,0xa
    80204582:	64a58693          	addi	a3,a1,1610 # 8020ebc8 <.Lanon.fa3a93afb1962c64d2dee2034174ad88.11>

0000000080204586 <.Lpcrel_hi20>:
    80204586:	0000a597          	auipc	a1,0xa
    8020458a:	67258713          	addi	a4,a1,1650 # 8020ebf8 <.Lanon.fa3a93afb1962c64d2dee2034174ad88.13>
    8020458e:	02b00593          	li	a1,43
    80204592:	f9840613          	addi	a2,s0,-104
    80204596:	00006097          	auipc	ra,0x6
    8020459a:	302080e7          	jalr	770(ra) # 8020a898 <_ZN4core6result13unwrap_failed17h68f4211cf4faa05bE>

000000008020459e <_ZN4spin4once17Once$LT$T$C$R$GT$18try_call_once_slow17ha07339b329b608a7E.llvm.18273212518176036961>:
    8020459e:	1101                	addi	sp,sp,-32
    802045a0:	ec06                	sd	ra,24(sp)
    802045a2:	e822                	sd	s0,16(sp)
    802045a4:	e426                	sd	s1,8(sp)
    802045a6:	1000                	addi	s0,sp,32
    802045a8:	08050593          	addi	a1,a0,128
    802045ac:	ffc5f613          	andi	a2,a1,-4
    802045b0:	0ff00693          	li	a3,255
    802045b4:	4705                	li	a4,1
    802045b6:	140627af          	lr.w.aq	a5,(a2)
    802045ba:	00d7f4b3          	and	s1,a5,a3
    802045be:	e881                	bnez	s1,802045ce <_ZN4spin4once17Once$LT$T$C$R$GT$18try_call_once_slow17ha07339b329b608a7E.llvm.18273212518176036961+0x30>
    802045c0:	00e7c4b3          	xor	s1,a5,a4
    802045c4:	8cf5                	and	s1,s1,a3
    802045c6:	8cbd                	xor	s1,s1,a5
    802045c8:	189624af          	sc.w	s1,s1,(a2)
    802045cc:	f4ed                	bnez	s1,802045b6 <_ZN4spin4once17Once$LT$T$C$R$GT$18try_call_once_slow17ha07339b329b608a7E.llvm.18273212518176036961+0x18>
    802045ce:	0ff7f493          	zext.b	s1,a5
    802045d2:	c4a1                	beqz	s1,8020461a <.Lpcrel_hi26+0x14>
    802045d4:	0ff7f793          	zext.b	a5,a5
    802045d8:	fcf05fe3          	blez	a5,802045b6 <_ZN4spin4once17Once$LT$T$C$R$GT$18try_call_once_slow17ha07339b329b608a7E.llvm.18273212518176036961+0x18>
    802045dc:	00e78563          	beq	a5,a4,802045e6 <_ZN4spin4once17Once$LT$T$C$R$GT$18try_call_once_slow17ha07339b329b608a7E.llvm.18273212518176036961+0x48>
    802045e0:	a085                	j	80204640 <.Lpcrel_hi26+0x3a>
    802045e2:	0100000f          	fence	w,unknown
    802045e6:	00058783          	lb	a5,0(a1)
    802045ea:	0230000f          	fence	r,rw
    802045ee:	fee78ae3          	beq	a5,a4,802045e2 <_ZN4spin4once17Once$LT$T$C$R$GT$18try_call_once_slow17ha07339b329b608a7E.llvm.18273212518176036961+0x44>
    802045f2:	0ff7f793          	zext.b	a5,a5
    802045f6:	d3e1                	beqz	a5,802045b6 <_ZN4spin4once17Once$LT$T$C$R$GT$18try_call_once_slow17ha07339b329b608a7E.llvm.18273212518176036961+0x18>
    802045f8:	4589                	li	a1,2
    802045fa:	02b78e63          	beq	a5,a1,80204636 <.Lpcrel_hi26+0x30>

00000000802045fe <.Lpcrel_hi25>:
    802045fe:	0000a517          	auipc	a0,0xa
    80204602:	4f250513          	addi	a0,a0,1266 # 8020eaf0 <anon.fa3a93afb1962c64d2dee2034174ad88.3.llvm.18273212518176036961>

0000000080204606 <.Lpcrel_hi26>:
    80204606:	0000a597          	auipc	a1,0xa
    8020460a:	51258613          	addi	a2,a1,1298 # 8020eb18 <anon.fa3a93afb1962c64d2dee2034174ad88.4.llvm.18273212518176036961>
    8020460e:	02600593          	li	a1,38
    80204612:	00006097          	auipc	ra,0x6
    80204616:	06c080e7          	jalr	108(ra) # 8020a67e <_ZN4core9panicking5panic17h14cc1607a430f055E>
    8020461a:	08000613          	li	a2,128
    8020461e:	84aa                	mv	s1,a0
    80204620:	4581                	li	a1,0
    80204622:	00009097          	auipc	ra,0x9
    80204626:	aca080e7          	jalr	-1334(ra) # 8020d0ec <memset>
    8020462a:	8526                	mv	a0,s1
    8020462c:	0310000f          	fence	rw,w
    80204630:	4589                	li	a1,2
    80204632:	08b48023          	sb	a1,128(s1)
    80204636:	60e2                	ld	ra,24(sp)
    80204638:	6442                	ld	s0,16(sp)
    8020463a:	64a2                	ld	s1,8(sp)
    8020463c:	6105                	addi	sp,sp,32
    8020463e:	8082                	ret
    80204640:	4589                	li	a1,2
    80204642:	feb78ae3          	beq	a5,a1,80204636 <.Lpcrel_hi26+0x30>

0000000080204646 <.Lpcrel_hi27>:
    80204646:	0000a517          	auipc	a0,0xa
    8020464a:	42550513          	addi	a0,a0,1061 # 8020ea6b <anon.fa3a93afb1962c64d2dee2034174ad88.0.llvm.18273212518176036961>

000000008020464e <.Lpcrel_hi28>:
    8020464e:	0000a597          	auipc	a1,0xa
    80204652:	48a58613          	addi	a2,a1,1162 # 8020ead8 <anon.fa3a93afb1962c64d2dee2034174ad88.2.llvm.18273212518176036961>
    80204656:	45b5                	li	a1,13
    80204658:	00006097          	auipc	ra,0x6
    8020465c:	026080e7          	jalr	38(ra) # 8020a67e <_ZN4core9panicking5panic17h14cc1607a430f055E>

0000000080204660 <_ZN4spin4once17Once$LT$T$C$R$GT$18try_call_once_slow17hd4618571af06a6feE.llvm.18273212518176036961>:
    80204660:	715d                	addi	sp,sp,-80
    80204662:	e486                	sd	ra,72(sp)
    80204664:	e0a2                	sd	s0,64(sp)
    80204666:	fc26                	sd	s1,56(sp)
    80204668:	0880                	addi	s0,sp,80
    8020466a:	00850593          	addi	a1,a0,8
    8020466e:	ffc5f613          	andi	a2,a1,-4
    80204672:	0ff00693          	li	a3,255
    80204676:	4705                	li	a4,1
    80204678:	140627af          	lr.w.aq	a5,(a2)
    8020467c:	00d7f4b3          	and	s1,a5,a3
    80204680:	e881                	bnez	s1,80204690 <_ZN4spin4once17Once$LT$T$C$R$GT$18try_call_once_slow17hd4618571af06a6feE.llvm.18273212518176036961+0x30>
    80204682:	00e7c4b3          	xor	s1,a5,a4
    80204686:	8cf5                	and	s1,s1,a3
    80204688:	8cbd                	xor	s1,s1,a5
    8020468a:	189624af          	sc.w	s1,s1,(a2)
    8020468e:	f4ed                	bnez	s1,80204678 <_ZN4spin4once17Once$LT$T$C$R$GT$18try_call_once_slow17hd4618571af06a6feE.llvm.18273212518176036961+0x18>
    80204690:	0ff7f493          	zext.b	s1,a5
    80204694:	c4a1                	beqz	s1,802046dc <.Lpcrel_hi32+0x14>
    80204696:	0ff7f793          	zext.b	a5,a5
    8020469a:	fcf05fe3          	blez	a5,80204678 <_ZN4spin4once17Once$LT$T$C$R$GT$18try_call_once_slow17hd4618571af06a6feE.llvm.18273212518176036961+0x18>
    8020469e:	00e78563          	beq	a5,a4,802046a8 <_ZN4spin4once17Once$LT$T$C$R$GT$18try_call_once_slow17hd4618571af06a6feE.llvm.18273212518176036961+0x48>
    802046a2:	a86d                	j	8020475c <.Lpcrel_hi30+0x66>
    802046a4:	0100000f          	fence	w,unknown
    802046a8:	00058783          	lb	a5,0(a1)
    802046ac:	0230000f          	fence	r,rw
    802046b0:	fee78ae3          	beq	a5,a4,802046a4 <_ZN4spin4once17Once$LT$T$C$R$GT$18try_call_once_slow17hd4618571af06a6feE.llvm.18273212518176036961+0x44>
    802046b4:	0ff7f793          	zext.b	a5,a5
    802046b8:	d3e1                	beqz	a5,80204678 <_ZN4spin4once17Once$LT$T$C$R$GT$18try_call_once_slow17hd4618571af06a6feE.llvm.18273212518176036961+0x18>
    802046ba:	4589                	li	a1,2
    802046bc:	08b78b63          	beq	a5,a1,80204752 <.Lpcrel_hi30+0x5c>

00000000802046c0 <.Lpcrel_hi31>:
    802046c0:	0000a517          	auipc	a0,0xa
    802046c4:	43050513          	addi	a0,a0,1072 # 8020eaf0 <anon.fa3a93afb1962c64d2dee2034174ad88.3.llvm.18273212518176036961>

00000000802046c8 <.Lpcrel_hi32>:
    802046c8:	0000a597          	auipc	a1,0xa
    802046cc:	45058613          	addi	a2,a1,1104 # 8020eb18 <anon.fa3a93afb1962c64d2dee2034174ad88.4.llvm.18273212518176036961>
    802046d0:	02600593          	li	a1,38
    802046d4:	00006097          	auipc	ra,0x6
    802046d8:	faa080e7          	jalr	-86(ra) # 8020a67e <_ZN4core9panicking5panic17h14cc1607a430f055E>
    802046dc:	84aa                	mv	s1,a0
    802046de:	fb040513          	addi	a0,s0,-80
    802046e2:	00001097          	auipc	ra,0x1
    802046e6:	aa2080e7          	jalr	-1374(ra) # 80205184 <_ZN2os2mm10memory_set9MemorySet10new_kernel17h1ae7b4cf63067f17E>

00000000802046ea <.Lpcrel_hi29>:
    802046ea:	00333517          	auipc	a0,0x333
    802046ee:	b9f50513          	addi	a0,a0,-1121 # 80537289 <__rust_no_alloc_shim_is_unstable>
    802046f2:	00054003          	lbu	zero,0(a0)

00000000802046f6 <.Lpcrel_hi30>:
    802046f6:	00333517          	auipc	a0,0x333
    802046fa:	9b250513          	addi	a0,a0,-1614 # 805370a8 <_ZN2os2mm14heap_allocator14HEAP_ALLOCATOR17hdb009eb0a1c201beE.llvm.13289308715828321855>
    802046fe:	45a1                	li	a1,8
    80204700:	05000613          	li	a2,80
    80204704:	00005097          	auipc	ra,0x5
    80204708:	7bc080e7          	jalr	1980(ra) # 80209ec0 <_ZN87_$LT$buddy_system_allocator..LockedHeap$u20$as$u20$core..alloc..global..GlobalAlloc$GT$5alloc17h3b694276a2754c9bE>
    8020470c:	c925                	beqz	a0,8020477c <.Lpcrel_hi34+0x12>
    8020470e:	85aa                	mv	a1,a0
    80204710:	4505                	li	a0,1
    80204712:	e188                	sd	a0,0(a1)
    80204714:	fb043603          	ld	a2,-80(s0)
    80204718:	fb843683          	ld	a3,-72(s0)
    8020471c:	e588                	sd	a0,8(a1)
    8020471e:	fc043503          	ld	a0,-64(s0)
    80204722:	ed90                	sd	a2,24(a1)
    80204724:	f194                	sd	a3,32(a1)
    80204726:	fc843603          	ld	a2,-56(s0)
    8020472a:	f588                	sd	a0,40(a1)
    8020472c:	fd043503          	ld	a0,-48(s0)
    80204730:	fd843683          	ld	a3,-40(s0)
    80204734:	f990                	sd	a2,48(a1)
    80204736:	fe043603          	ld	a2,-32(s0)
    8020473a:	fd88                	sd	a0,56(a1)
    8020473c:	e1b4                	sd	a3,64(a1)
    8020473e:	0005b823          	sd	zero,16(a1)
    80204742:	e5b0                	sd	a2,72(a1)
    80204744:	8526                	mv	a0,s1
    80204746:	e08c                	sd	a1,0(s1)
    80204748:	0310000f          	fence	rw,w
    8020474c:	4589                	li	a1,2
    8020474e:	00b48423          	sb	a1,8(s1)
    80204752:	60a6                	ld	ra,72(sp)
    80204754:	6406                	ld	s0,64(sp)
    80204756:	74e2                	ld	s1,56(sp)
    80204758:	6161                	addi	sp,sp,80
    8020475a:	8082                	ret
    8020475c:	4589                	li	a1,2
    8020475e:	feb78ae3          	beq	a5,a1,80204752 <.Lpcrel_hi30+0x5c>

0000000080204762 <.Lpcrel_hi33>:
    80204762:	0000a517          	auipc	a0,0xa
    80204766:	30950513          	addi	a0,a0,777 # 8020ea6b <anon.fa3a93afb1962c64d2dee2034174ad88.0.llvm.18273212518176036961>

000000008020476a <.Lpcrel_hi34>:
    8020476a:	0000a597          	auipc	a1,0xa
    8020476e:	36e58613          	addi	a2,a1,878 # 8020ead8 <anon.fa3a93afb1962c64d2dee2034174ad88.2.llvm.18273212518176036961>
    80204772:	45b5                	li	a1,13
    80204774:	00006097          	auipc	ra,0x6
    80204778:	f0a080e7          	jalr	-246(ra) # 8020a67e <_ZN4core9panicking5panic17h14cc1607a430f055E>
    8020477c:	4521                	li	a0,8
    8020477e:	05000593          	li	a1,80
    80204782:	00006097          	auipc	ra,0x6
    80204786:	96a080e7          	jalr	-1686(ra) # 8020a0ec <_ZN5alloc5alloc18handle_alloc_error17h712b744ef0f4e031E>

000000008020478a <_ZN64_$LT$core..str..error..Utf8Error$u20$as$u20$core..fmt..Debug$GT$3fmt17h5d232dabea914102E>:
    8020478a:	7179                	addi	sp,sp,-48
    8020478c:	f406                	sd	ra,40(sp)
    8020478e:	f022                	sd	s0,32(sp)
    80204790:	1800                	addi	s0,sp,48
    80204792:	82ae                	mv	t0,a1
    80204794:	87aa                	mv	a5,a0
    80204796:	0521                	addi	a0,a0,8
    80204798:	fea43423          	sd	a0,-24(s0)

000000008020479c <.Lpcrel_hi35>:
    8020479c:	0000a517          	auipc	a0,0xa
    802047a0:	3dc50513          	addi	a0,a0,988 # 8020eb78 <.Lanon.fa3a93afb1962c64d2dee2034174ad88.9>
    802047a4:	e82a                	sd	a0,16(sp)
    802047a6:	fe840513          	addi	a0,s0,-24
    802047aa:	e42a                	sd	a0,8(sp)
    802047ac:	4525                	li	a0,9

00000000802047ae <.Lpcrel_hi36>:
    802047ae:	0000a597          	auipc	a1,0xa
    802047b2:	38258593          	addi	a1,a1,898 # 8020eb30 <.Lanon.fa3a93afb1962c64d2dee2034174ad88.5>

00000000802047b6 <.Lpcrel_hi37>:
    802047b6:	0000a617          	auipc	a2,0xa
    802047ba:	38360693          	addi	a3,a2,899 # 8020eb39 <.Lanon.fa3a93afb1962c64d2dee2034174ad88.6>

00000000802047be <.Lpcrel_hi38>:
    802047be:	0000a617          	auipc	a2,0xa
    802047c2:	38a60813          	addi	a6,a2,906 # 8020eb48 <.Lanon.fa3a93afb1962c64d2dee2034174ad88.7>

00000000802047c6 <.Lpcrel_hi39>:
    802047c6:	0000a617          	auipc	a2,0xa
    802047ca:	3a260893          	addi	a7,a2,930 # 8020eb68 <.Lanon.fa3a93afb1962c64d2dee2034174ad88.8>
    802047ce:	4625                	li	a2,9
    802047d0:	472d                	li	a4,11
    802047d2:	e02a                	sd	a0,0(sp)
    802047d4:	8516                	mv	a0,t0
    802047d6:	00007097          	auipc	ra,0x7
    802047da:	e88080e7          	jalr	-376(ra) # 8020b65e <_ZN4core3fmt9Formatter26debug_struct_field2_finish17hbec8a996f47ae8f1E>
    802047de:	70a2                	ld	ra,40(sp)
    802047e0:	7402                	ld	s0,32(sp)
    802047e2:	6145                	addi	sp,sp,48
    802047e4:	8082                	ret

00000000802047e6 <_ZN5alloc7raw_vec11finish_grow17h0ff00e5c6de3ca6bE.llvm.8741583896301154875>:
    802047e6:	7139                	addi	sp,sp,-64
    802047e8:	fc06                	sd	ra,56(sp)
    802047ea:	f822                	sd	s0,48(sp)
    802047ec:	f426                	sd	s1,40(sp)
    802047ee:	f04a                	sd	s2,32(sp)
    802047f0:	ec4e                	sd	s3,24(sp)
    802047f2:	e852                	sd	s4,16(sp)
    802047f4:	e456                	sd	s5,8(sp)
    802047f6:	e05a                	sd	s6,0(sp)
    802047f8:	0080                	addi	s0,sp,64
    802047fa:	89aa                	mv	s3,a0
    802047fc:	cdb1                	beqz	a1,80204858 <.Lpcrel_hi3+0x22>
    802047fe:	8932                	mv	s2,a2
    80204800:	84ae                	mv	s1,a1
    80204802:	6688                	ld	a0,8(a3)
    80204804:	cd29                	beqz	a0,8020485e <.Lpcrel_hi3+0x28>
    80204806:	0106ba03          	ld	s4,16(a3)
    8020480a:	060a0763          	beqz	s4,80204878 <.Lpcrel_hi5+0xa>
    8020480e:	0006ba83          	ld	s5,0(a3)

0000000080204812 <.Lpcrel_hi2>:
    80204812:	00333517          	auipc	a0,0x333
    80204816:	89650513          	addi	a0,a0,-1898 # 805370a8 <_ZN2os2mm14heap_allocator14HEAP_ALLOCATOR17hdb009eb0a1c201beE.llvm.13289308715828321855>
    8020481a:	85a6                	mv	a1,s1
    8020481c:	864a                	mv	a2,s2
    8020481e:	00005097          	auipc	ra,0x5
    80204822:	6a2080e7          	jalr	1698(ra) # 80209ec0 <_ZN87_$LT$buddy_system_allocator..LockedHeap$u20$as$u20$core..alloc..global..GlobalAlloc$GT$5alloc17h3b694276a2754c9bE>
    80204826:	cd41                	beqz	a0,802048be <.Lpcrel_hi1+0x36>
    80204828:	8b2a                	mv	s6,a0
    8020482a:	85d6                	mv	a1,s5
    8020482c:	8652                	mv	a2,s4
    8020482e:	00009097          	auipc	ra,0x9
    80204832:	8ea080e7          	jalr	-1814(ra) # 8020d118 <memcpy>

0000000080204836 <.Lpcrel_hi3>:
    80204836:	00333517          	auipc	a0,0x333
    8020483a:	87250513          	addi	a0,a0,-1934 # 805370a8 <_ZN2os2mm14heap_allocator14HEAP_ALLOCATOR17hdb009eb0a1c201beE.llvm.13289308715828321855>
    8020483e:	85d6                	mv	a1,s5
    80204840:	8626                	mv	a2,s1
    80204842:	86d2                	mv	a3,s4
    80204844:	00005097          	auipc	ra,0x5
    80204848:	6ca080e7          	jalr	1738(ra) # 80209f0e <_ZN87_$LT$buddy_system_allocator..LockedHeap$u20$as$u20$core..alloc..global..GlobalAlloc$GT$7dealloc17h5e5f6d74b20ea42eE>
    8020484c:	855a                	mv	a0,s6
    8020484e:	00898593          	addi	a1,s3,8
    80204852:	01098613          	addi	a2,s3,16
    80204856:	a8b9                	j	802048b4 <.Lpcrel_hi1+0x2c>
    80204858:	0009b423          	sd	zero,8(s3)
    8020485c:	a885                	j	802048cc <.Lpcrel_hi1+0x44>
    8020485e:	04090563          	beqz	s2,802048a8 <.Lpcrel_hi1+0x20>

0000000080204862 <.Lpcrel_hi4>:
    80204862:	00333517          	auipc	a0,0x333
    80204866:	a2750513          	addi	a0,a0,-1497 # 80537289 <__rust_no_alloc_shim_is_unstable>
    8020486a:	00054003          	lbu	zero,0(a0)

000000008020486e <.Lpcrel_hi5>:
    8020486e:	00333517          	auipc	a0,0x333
    80204872:	83a50513          	addi	a0,a0,-1990 # 805370a8 <_ZN2os2mm14heap_allocator14HEAP_ALLOCATOR17hdb009eb0a1c201beE.llvm.13289308715828321855>
    80204876:	a829                	j	80204890 <.Lpcrel_hi1+0x8>
    80204878:	02090863          	beqz	s2,802048a8 <.Lpcrel_hi1+0x20>

000000008020487c <.Lpcrel_hi0>:
    8020487c:	00333517          	auipc	a0,0x333
    80204880:	a0d50513          	addi	a0,a0,-1523 # 80537289 <__rust_no_alloc_shim_is_unstable>
    80204884:	00054003          	lbu	zero,0(a0)

0000000080204888 <.Lpcrel_hi1>:
    80204888:	00333517          	auipc	a0,0x333
    8020488c:	82050513          	addi	a0,a0,-2016 # 805370a8 <_ZN2os2mm14heap_allocator14HEAP_ALLOCATOR17hdb009eb0a1c201beE.llvm.13289308715828321855>
    80204890:	85a6                	mv	a1,s1
    80204892:	864a                	mv	a2,s2
    80204894:	00005097          	auipc	ra,0x5
    80204898:	62c080e7          	jalr	1580(ra) # 80209ec0 <_ZN87_$LT$buddy_system_allocator..LockedHeap$u20$as$u20$core..alloc..global..GlobalAlloc$GT$5alloc17h3b694276a2754c9bE>
    8020489c:	00898593          	addi	a1,s3,8
    802048a0:	01098613          	addi	a2,s3,16
    802048a4:	e901                	bnez	a0,802048b4 <.Lpcrel_hi1+0x2c>
    802048a6:	a005                	j	802048c6 <.Lpcrel_hi1+0x3e>
    802048a8:	8526                	mv	a0,s1
    802048aa:	00898593          	addi	a1,s3,8
    802048ae:	01098613          	addi	a2,s3,16
    802048b2:	c891                	beqz	s1,802048c6 <.Lpcrel_hi1+0x3e>
    802048b4:	4681                	li	a3,0
    802048b6:	e188                	sd	a0,0(a1)
    802048b8:	01263023          	sd	s2,0(a2)
    802048bc:	a809                	j	802048ce <.Lpcrel_hi1+0x46>
    802048be:	00898593          	addi	a1,s3,8
    802048c2:	01098613          	addi	a2,s3,16
    802048c6:	e184                	sd	s1,0(a1)
    802048c8:	01263023          	sd	s2,0(a2)
    802048cc:	4685                	li	a3,1
    802048ce:	00d9b023          	sd	a3,0(s3)
    802048d2:	70e2                	ld	ra,56(sp)
    802048d4:	7442                	ld	s0,48(sp)
    802048d6:	74a2                	ld	s1,40(sp)
    802048d8:	7902                	ld	s2,32(sp)
    802048da:	69e2                	ld	s3,24(sp)
    802048dc:	6a42                	ld	s4,16(sp)
    802048de:	6aa2                	ld	s5,8(sp)
    802048e0:	6b02                	ld	s6,0(sp)
    802048e2:	6121                	addi	sp,sp,64
    802048e4:	8082                	ret

00000000802048e6 <_ZN5alloc7raw_vec19RawVec$LT$T$C$A$GT$7reserve21do_reserve_and_handle17h03a99d7be388e8ccE>:
    802048e6:	715d                	addi	sp,sp,-80
    802048e8:	e486                	sd	ra,72(sp)
    802048ea:	e0a2                	sd	s0,64(sp)
    802048ec:	fc26                	sd	s1,56(sp)
    802048ee:	f84a                	sd	s2,48(sp)
    802048f0:	0880                	addi	s0,sp,80
    802048f2:	962e                	add	a2,a2,a1
    802048f4:	06b66a63          	bltu	a2,a1,80204968 <_ZN5alloc7raw_vec19RawVec$LT$T$C$A$GT$7reserve21do_reserve_and_handle17h03a99d7be388e8ccE+0x82>
    802048f8:	892a                	mv	s2,a0
    802048fa:	6108                	ld	a0,0(a0)
    802048fc:	00151493          	slli	s1,a0,0x1
    80204900:	04967a63          	bgeu	a2,s1,80204954 <_ZN5alloc7raw_vec19RawVec$LT$T$C$A$GT$7reserve21do_reserve_and_handle17h03a99d7be388e8ccE+0x6e>
    80204904:	45a1                	li	a1,8
    80204906:	0495fb63          	bgeu	a1,s1,8020495c <_ZN5alloc7raw_vec19RawVec$LT$T$C$A$GT$7reserve21do_reserve_and_handle17h03a99d7be388e8ccE+0x76>
    8020490a:	fff4c593          	not	a1,s1
    8020490e:	91fd                	srli	a1,a1,0x3f
    80204910:	c901                	beqz	a0,80204920 <_ZN5alloc7raw_vec19RawVec$LT$T$C$A$GT$7reserve21do_reserve_and_handle17h03a99d7be388e8ccE+0x3a>
    80204912:	00893603          	ld	a2,8(s2)
    80204916:	fcc43423          	sd	a2,-56(s0)
    8020491a:	fca43c23          	sd	a0,-40(s0)
    8020491e:	4505                	li	a0,1
    80204920:	fca43823          	sd	a0,-48(s0)
    80204924:	fb040513          	addi	a0,s0,-80
    80204928:	fc840693          	addi	a3,s0,-56
    8020492c:	8626                	mv	a2,s1
    8020492e:	00000097          	auipc	ra,0x0
    80204932:	eb8080e7          	jalr	-328(ra) # 802047e6 <_ZN5alloc7raw_vec11finish_grow17h0ff00e5c6de3ca6bE.llvm.8741583896301154875>
    80204936:	fb043503          	ld	a0,-80(s0)
    8020493a:	ed05                	bnez	a0,80204972 <_ZN5alloc7raw_vec19RawVec$LT$T$C$A$GT$7reserve21do_reserve_and_handle17h03a99d7be388e8ccE+0x8c>
    8020493c:	fb843503          	ld	a0,-72(s0)
    80204940:	00a93423          	sd	a0,8(s2)
    80204944:	00993023          	sd	s1,0(s2)
    80204948:	60a6                	ld	ra,72(sp)
    8020494a:	6406                	ld	s0,64(sp)
    8020494c:	74e2                	ld	s1,56(sp)
    8020494e:	7942                	ld	s2,48(sp)
    80204950:	6161                	addi	sp,sp,80
    80204952:	8082                	ret
    80204954:	84b2                	mv	s1,a2
    80204956:	45a1                	li	a1,8
    80204958:	fac5e9e3          	bltu	a1,a2,8020490a <_ZN5alloc7raw_vec19RawVec$LT$T$C$A$GT$7reserve21do_reserve_and_handle17h03a99d7be388e8ccE+0x24>
    8020495c:	44a1                	li	s1,8
    8020495e:	fff4c593          	not	a1,s1
    80204962:	91fd                	srli	a1,a1,0x3f
    80204964:	f55d                	bnez	a0,80204912 <_ZN5alloc7raw_vec19RawVec$LT$T$C$A$GT$7reserve21do_reserve_and_handle17h03a99d7be388e8ccE+0x2c>
    80204966:	bf6d                	j	80204920 <_ZN5alloc7raw_vec19RawVec$LT$T$C$A$GT$7reserve21do_reserve_and_handle17h03a99d7be388e8ccE+0x3a>
    80204968:	4501                	li	a0,0
    8020496a:	00005097          	auipc	ra,0x5
    8020496e:	768080e7          	jalr	1896(ra) # 8020a0d2 <_ZN5alloc7raw_vec12handle_error17h45a6360b6b8d4731E>
    80204972:	fb843503          	ld	a0,-72(s0)
    80204976:	fc043583          	ld	a1,-64(s0)
    8020497a:	00005097          	auipc	ra,0x5
    8020497e:	758080e7          	jalr	1880(ra) # 8020a0d2 <_ZN5alloc7raw_vec12handle_error17h45a6360b6b8d4731E>

0000000080204982 <_ZN5alloc7raw_vec19RawVec$LT$T$C$A$GT$8grow_one17h2bc8d088edac8da0E>:
    80204982:	715d                	addi	sp,sp,-80
    80204984:	e486                	sd	ra,72(sp)
    80204986:	e0a2                	sd	s0,64(sp)
    80204988:	fc26                	sd	s1,56(sp)
    8020498a:	f84a                	sd	s2,48(sp)
    8020498c:	0880                	addi	s0,sp,80
    8020498e:	892a                	mv	s2,a0
    80204990:	6108                	ld	a0,0(a0)
    80204992:	00150593          	addi	a1,a0,1
    80204996:	cdb5                	beqz	a1,80204a12 <_ZN5alloc7raw_vec19RawVec$LT$T$C$A$GT$8grow_one17h2bc8d088edac8da0E+0x90>
    80204998:	00151493          	slli	s1,a0,0x1
    8020499c:	0495fe63          	bgeu	a1,s1,802049f8 <_ZN5alloc7raw_vec19RawVec$LT$T$C$A$GT$8grow_one17h2bc8d088edac8da0E+0x76>
    802049a0:	03c4d593          	srli	a1,s1,0x3c
    802049a4:	4611                	li	a2,4
    802049a6:	0015b593          	seqz	a1,a1
    802049aa:	04967e63          	bgeu	a2,s1,80204a06 <_ZN5alloc7raw_vec19RawVec$LT$T$C$A$GT$8grow_one17h2bc8d088edac8da0E+0x84>
    802049ae:	00349613          	slli	a2,s1,0x3
    802049b2:	058e                	slli	a1,a1,0x3
    802049b4:	c909                	beqz	a0,802049c6 <_ZN5alloc7raw_vec19RawVec$LT$T$C$A$GT$8grow_one17h2bc8d088edac8da0E+0x44>
    802049b6:	00893683          	ld	a3,8(s2)
    802049ba:	050e                	slli	a0,a0,0x3
    802049bc:	fcd43423          	sd	a3,-56(s0)
    802049c0:	fca43c23          	sd	a0,-40(s0)
    802049c4:	4521                	li	a0,8
    802049c6:	fca43823          	sd	a0,-48(s0)
    802049ca:	fb040513          	addi	a0,s0,-80
    802049ce:	fc840693          	addi	a3,s0,-56
    802049d2:	00000097          	auipc	ra,0x0
    802049d6:	e14080e7          	jalr	-492(ra) # 802047e6 <_ZN5alloc7raw_vec11finish_grow17h0ff00e5c6de3ca6bE.llvm.8741583896301154875>
    802049da:	fb043503          	ld	a0,-80(s0)
    802049de:	ed1d                	bnez	a0,80204a1c <_ZN5alloc7raw_vec19RawVec$LT$T$C$A$GT$8grow_one17h2bc8d088edac8da0E+0x9a>
    802049e0:	fb843503          	ld	a0,-72(s0)
    802049e4:	00a93423          	sd	a0,8(s2)
    802049e8:	00993023          	sd	s1,0(s2)
    802049ec:	60a6                	ld	ra,72(sp)
    802049ee:	6406                	ld	s0,64(sp)
    802049f0:	74e2                	ld	s1,56(sp)
    802049f2:	7942                	ld	s2,48(sp)
    802049f4:	6161                	addi	sp,sp,80
    802049f6:	8082                	ret
    802049f8:	84ae                	mv	s1,a1
    802049fa:	91f1                	srli	a1,a1,0x3c
    802049fc:	4611                	li	a2,4
    802049fe:	0015b593          	seqz	a1,a1
    80204a02:	fa9666e3          	bltu	a2,s1,802049ae <_ZN5alloc7raw_vec19RawVec$LT$T$C$A$GT$8grow_one17h2bc8d088edac8da0E+0x2c>
    80204a06:	4491                	li	s1,4
    80204a08:	00349613          	slli	a2,s1,0x3
    80204a0c:	058e                	slli	a1,a1,0x3
    80204a0e:	f545                	bnez	a0,802049b6 <_ZN5alloc7raw_vec19RawVec$LT$T$C$A$GT$8grow_one17h2bc8d088edac8da0E+0x34>
    80204a10:	bf5d                	j	802049c6 <_ZN5alloc7raw_vec19RawVec$LT$T$C$A$GT$8grow_one17h2bc8d088edac8da0E+0x44>
    80204a12:	4501                	li	a0,0
    80204a14:	00005097          	auipc	ra,0x5
    80204a18:	6be080e7          	jalr	1726(ra) # 8020a0d2 <_ZN5alloc7raw_vec12handle_error17h45a6360b6b8d4731E>
    80204a1c:	fb843503          	ld	a0,-72(s0)
    80204a20:	fc043583          	ld	a1,-64(s0)
    80204a24:	00005097          	auipc	ra,0x5
    80204a28:	6ae080e7          	jalr	1710(ra) # 8020a0d2 <_ZN5alloc7raw_vec12handle_error17h45a6360b6b8d4731E>

0000000080204a2c <_ZN5alloc7raw_vec19RawVec$LT$T$C$A$GT$8grow_one17h70c82eb509dbe0d8E>:
    80204a2c:	715d                	addi	sp,sp,-80
    80204a2e:	e486                	sd	ra,72(sp)
    80204a30:	e0a2                	sd	s0,64(sp)
    80204a32:	fc26                	sd	s1,56(sp)
    80204a34:	f84a                	sd	s2,48(sp)
    80204a36:	0880                	addi	s0,sp,80
    80204a38:	892a                	mv	s2,a0
    80204a3a:	6108                	ld	a0,0(a0)
    80204a3c:	00150593          	addi	a1,a0,1
    80204a40:	cdb5                	beqz	a1,80204abc <_ZN5alloc7raw_vec19RawVec$LT$T$C$A$GT$8grow_one17h70c82eb509dbe0d8E+0x90>
    80204a42:	00151493          	slli	s1,a0,0x1
    80204a46:	0495fe63          	bgeu	a1,s1,80204aa2 <_ZN5alloc7raw_vec19RawVec$LT$T$C$A$GT$8grow_one17h70c82eb509dbe0d8E+0x76>
    80204a4a:	03b4d593          	srli	a1,s1,0x3b
    80204a4e:	4611                	li	a2,4
    80204a50:	0015b593          	seqz	a1,a1
    80204a54:	04967e63          	bgeu	a2,s1,80204ab0 <_ZN5alloc7raw_vec19RawVec$LT$T$C$A$GT$8grow_one17h70c82eb509dbe0d8E+0x84>
    80204a58:	00449613          	slli	a2,s1,0x4
    80204a5c:	058e                	slli	a1,a1,0x3
    80204a5e:	c909                	beqz	a0,80204a70 <_ZN5alloc7raw_vec19RawVec$LT$T$C$A$GT$8grow_one17h70c82eb509dbe0d8E+0x44>
    80204a60:	00893683          	ld	a3,8(s2)
    80204a64:	0512                	slli	a0,a0,0x4
    80204a66:	fcd43423          	sd	a3,-56(s0)
    80204a6a:	fca43c23          	sd	a0,-40(s0)
    80204a6e:	4521                	li	a0,8
    80204a70:	fca43823          	sd	a0,-48(s0)
    80204a74:	fb040513          	addi	a0,s0,-80
    80204a78:	fc840693          	addi	a3,s0,-56
    80204a7c:	00000097          	auipc	ra,0x0
    80204a80:	d6a080e7          	jalr	-662(ra) # 802047e6 <_ZN5alloc7raw_vec11finish_grow17h0ff00e5c6de3ca6bE.llvm.8741583896301154875>
    80204a84:	fb043503          	ld	a0,-80(s0)
    80204a88:	ed1d                	bnez	a0,80204ac6 <_ZN5alloc7raw_vec19RawVec$LT$T$C$A$GT$8grow_one17h70c82eb509dbe0d8E+0x9a>
    80204a8a:	fb843503          	ld	a0,-72(s0)
    80204a8e:	00a93423          	sd	a0,8(s2)
    80204a92:	00993023          	sd	s1,0(s2)
    80204a96:	60a6                	ld	ra,72(sp)
    80204a98:	6406                	ld	s0,64(sp)
    80204a9a:	74e2                	ld	s1,56(sp)
    80204a9c:	7942                	ld	s2,48(sp)
    80204a9e:	6161                	addi	sp,sp,80
    80204aa0:	8082                	ret
    80204aa2:	84ae                	mv	s1,a1
    80204aa4:	91ed                	srli	a1,a1,0x3b
    80204aa6:	4611                	li	a2,4
    80204aa8:	0015b593          	seqz	a1,a1
    80204aac:	fa9666e3          	bltu	a2,s1,80204a58 <_ZN5alloc7raw_vec19RawVec$LT$T$C$A$GT$8grow_one17h70c82eb509dbe0d8E+0x2c>
    80204ab0:	4491                	li	s1,4
    80204ab2:	00449613          	slli	a2,s1,0x4
    80204ab6:	058e                	slli	a1,a1,0x3
    80204ab8:	f545                	bnez	a0,80204a60 <_ZN5alloc7raw_vec19RawVec$LT$T$C$A$GT$8grow_one17h70c82eb509dbe0d8E+0x34>
    80204aba:	bf5d                	j	80204a70 <_ZN5alloc7raw_vec19RawVec$LT$T$C$A$GT$8grow_one17h70c82eb509dbe0d8E+0x44>
    80204abc:	4501                	li	a0,0
    80204abe:	00005097          	auipc	ra,0x5
    80204ac2:	614080e7          	jalr	1556(ra) # 8020a0d2 <_ZN5alloc7raw_vec12handle_error17h45a6360b6b8d4731E>
    80204ac6:	fb843503          	ld	a0,-72(s0)
    80204aca:	fc043583          	ld	a1,-64(s0)
    80204ace:	00005097          	auipc	ra,0x5
    80204ad2:	604080e7          	jalr	1540(ra) # 8020a0d2 <_ZN5alloc7raw_vec12handle_error17h45a6360b6b8d4731E>

0000000080204ad6 <_ZN5alloc7raw_vec19RawVec$LT$T$C$A$GT$8grow_one17h939d09ebbe09f4e5E>:
    80204ad6:	715d                	addi	sp,sp,-80
    80204ad8:	e486                	sd	ra,72(sp)
    80204ada:	e0a2                	sd	s0,64(sp)
    80204adc:	fc26                	sd	s1,56(sp)
    80204ade:	f84a                	sd	s2,48(sp)
    80204ae0:	0880                	addi	s0,sp,80
    80204ae2:	892a                	mv	s2,a0
    80204ae4:	6108                	ld	a0,0(a0)
    80204ae6:	00150593          	addi	a1,a0,1
    80204aea:	c5bd                	beqz	a1,80204b58 <_ZN5alloc7raw_vec19RawVec$LT$T$C$A$GT$8grow_one17h939d09ebbe09f4e5E+0x82>
    80204aec:	00151493          	slli	s1,a0,0x1
    80204af0:	0495fa63          	bgeu	a1,s1,80204b44 <_ZN5alloc7raw_vec19RawVec$LT$T$C$A$GT$8grow_one17h939d09ebbe09f4e5E+0x6e>
    80204af4:	45a1                	li	a1,8
    80204af6:	0495fb63          	bgeu	a1,s1,80204b4c <_ZN5alloc7raw_vec19RawVec$LT$T$C$A$GT$8grow_one17h939d09ebbe09f4e5E+0x76>
    80204afa:	fff4c593          	not	a1,s1
    80204afe:	91fd                	srli	a1,a1,0x3f
    80204b00:	c901                	beqz	a0,80204b10 <_ZN5alloc7raw_vec19RawVec$LT$T$C$A$GT$8grow_one17h939d09ebbe09f4e5E+0x3a>
    80204b02:	00893603          	ld	a2,8(s2)
    80204b06:	fcc43423          	sd	a2,-56(s0)
    80204b0a:	fca43c23          	sd	a0,-40(s0)
    80204b0e:	4505                	li	a0,1
    80204b10:	fca43823          	sd	a0,-48(s0)
    80204b14:	fb040513          	addi	a0,s0,-80
    80204b18:	fc840693          	addi	a3,s0,-56
    80204b1c:	8626                	mv	a2,s1
    80204b1e:	00000097          	auipc	ra,0x0
    80204b22:	cc8080e7          	jalr	-824(ra) # 802047e6 <_ZN5alloc7raw_vec11finish_grow17h0ff00e5c6de3ca6bE.llvm.8741583896301154875>
    80204b26:	fb043503          	ld	a0,-80(s0)
    80204b2a:	ed05                	bnez	a0,80204b62 <_ZN5alloc7raw_vec19RawVec$LT$T$C$A$GT$8grow_one17h939d09ebbe09f4e5E+0x8c>
    80204b2c:	fb843503          	ld	a0,-72(s0)
    80204b30:	00a93423          	sd	a0,8(s2)
    80204b34:	00993023          	sd	s1,0(s2)
    80204b38:	60a6                	ld	ra,72(sp)
    80204b3a:	6406                	ld	s0,64(sp)
    80204b3c:	74e2                	ld	s1,56(sp)
    80204b3e:	7942                	ld	s2,48(sp)
    80204b40:	6161                	addi	sp,sp,80
    80204b42:	8082                	ret
    80204b44:	84ae                	mv	s1,a1
    80204b46:	45a1                	li	a1,8
    80204b48:	fa95e9e3          	bltu	a1,s1,80204afa <_ZN5alloc7raw_vec19RawVec$LT$T$C$A$GT$8grow_one17h939d09ebbe09f4e5E+0x24>
    80204b4c:	44a1                	li	s1,8
    80204b4e:	fff4c593          	not	a1,s1
    80204b52:	91fd                	srli	a1,a1,0x3f
    80204b54:	f55d                	bnez	a0,80204b02 <_ZN5alloc7raw_vec19RawVec$LT$T$C$A$GT$8grow_one17h939d09ebbe09f4e5E+0x2c>
    80204b56:	bf6d                	j	80204b10 <_ZN5alloc7raw_vec19RawVec$LT$T$C$A$GT$8grow_one17h939d09ebbe09f4e5E+0x3a>
    80204b58:	4501                	li	a0,0
    80204b5a:	00005097          	auipc	ra,0x5
    80204b5e:	578080e7          	jalr	1400(ra) # 8020a0d2 <_ZN5alloc7raw_vec12handle_error17h45a6360b6b8d4731E>
    80204b62:	fb843503          	ld	a0,-72(s0)
    80204b66:	fc043583          	ld	a1,-64(s0)
    80204b6a:	00005097          	auipc	ra,0x5
    80204b6e:	568080e7          	jalr	1384(ra) # 8020a0d2 <_ZN5alloc7raw_vec12handle_error17h45a6360b6b8d4731E>

0000000080204b72 <_ZN5alloc7raw_vec19RawVec$LT$T$C$A$GT$8grow_one17hcebffe460c4df07cE>:
    80204b72:	715d                	addi	sp,sp,-80
    80204b74:	e486                	sd	ra,72(sp)
    80204b76:	e0a2                	sd	s0,64(sp)
    80204b78:	fc26                	sd	s1,56(sp)
    80204b7a:	f84a                	sd	s2,48(sp)
    80204b7c:	0880                	addi	s0,sp,80
    80204b7e:	892a                	mv	s2,a0
    80204b80:	6108                	ld	a0,0(a0)
    80204b82:	00150593          	addi	a1,a0,1
    80204b86:	c9a5                	beqz	a1,80204bf6 <.Lpcrel_hi6+0x64>
    80204b88:	00151493          	slli	s1,a0,0x1
    80204b8c:	0095e363          	bltu	a1,s1,80204b92 <.Lpcrel_hi6>
    80204b90:	84ae                	mv	s1,a1

0000000080204b92 <.Lpcrel_hi6>:
    80204b92:	00122597          	auipc	a1,0x122
    80204b96:	b8e5b583          	ld	a1,-1138(a1) # 80326720 <app_16_end>
    80204b9a:	4611                	li	a2,4
    80204b9c:	00b4b5b3          	sltu	a1,s1,a1
    80204ba0:	00966363          	bltu	a2,s1,80204ba6 <.Lpcrel_hi6+0x14>
    80204ba4:	4491                	li	s1,4
    80204ba6:	03000693          	li	a3,48
    80204baa:	02d48633          	mul	a2,s1,a3
    80204bae:	058e                	slli	a1,a1,0x3
    80204bb0:	c911                	beqz	a0,80204bc4 <.Lpcrel_hi6+0x32>
    80204bb2:	00893703          	ld	a4,8(s2)
    80204bb6:	02d50533          	mul	a0,a0,a3
    80204bba:	fce43423          	sd	a4,-56(s0)
    80204bbe:	fca43c23          	sd	a0,-40(s0)
    80204bc2:	4521                	li	a0,8
    80204bc4:	fca43823          	sd	a0,-48(s0)
    80204bc8:	fb040513          	addi	a0,s0,-80
    80204bcc:	fc840693          	addi	a3,s0,-56
    80204bd0:	00000097          	auipc	ra,0x0
    80204bd4:	c16080e7          	jalr	-1002(ra) # 802047e6 <_ZN5alloc7raw_vec11finish_grow17h0ff00e5c6de3ca6bE.llvm.8741583896301154875>
    80204bd8:	fb043503          	ld	a0,-80(s0)
    80204bdc:	e115                	bnez	a0,80204c00 <.Lpcrel_hi6+0x6e>
    80204bde:	fb843503          	ld	a0,-72(s0)
    80204be2:	00a93423          	sd	a0,8(s2)
    80204be6:	00993023          	sd	s1,0(s2)
    80204bea:	60a6                	ld	ra,72(sp)
    80204bec:	6406                	ld	s0,64(sp)
    80204bee:	74e2                	ld	s1,56(sp)
    80204bf0:	7942                	ld	s2,48(sp)
    80204bf2:	6161                	addi	sp,sp,80
    80204bf4:	8082                	ret
    80204bf6:	4501                	li	a0,0
    80204bf8:	00005097          	auipc	ra,0x5
    80204bfc:	4da080e7          	jalr	1242(ra) # 8020a0d2 <_ZN5alloc7raw_vec12handle_error17h45a6360b6b8d4731E>
    80204c00:	fb843503          	ld	a0,-72(s0)
    80204c04:	fc043583          	ld	a1,-64(s0)
    80204c08:	00005097          	auipc	ra,0x5
    80204c0c:	4ca080e7          	jalr	1226(ra) # 8020a0d2 <_ZN5alloc7raw_vec12handle_error17h45a6360b6b8d4731E>

0000000080204c10 <_ZN42_$LT$$RF$T$u20$as$u20$core..fmt..Debug$GT$3fmt17h439a90954b264a10E>:
    80204c10:	1141                	addi	sp,sp,-16
    80204c12:	e406                	sd	ra,8(sp)
    80204c14:	e022                	sd	s0,0(sp)
    80204c16:	0800                	addi	s0,sp,16
    80204c18:	6108                	ld	a0,0(a0)
    80204c1a:	00054603          	lbu	a2,0(a0)
    80204c1e:	852e                	mv	a0,a1
    80204c20:	ce09                	beqz	a2,80204c3a <.Lpcrel_hi1+0x16>
    80204c22:	4619                	li	a2,6

0000000080204c24 <.Lpcrel_hi1>:
    80204c24:	0000a597          	auipc	a1,0xa
    80204c28:	60d58593          	addi	a1,a1,1549 # 8020f231 <.Lanon.d9326b764caf953d246fe4d565aa4f71.56>
    80204c2c:	60a2                	ld	ra,8(sp)
    80204c2e:	6402                	ld	s0,0(sp)
    80204c30:	0141                	addi	sp,sp,16
    80204c32:	00007317          	auipc	t1,0x7
    80204c36:	a1630067          	jr	-1514(t1) # 8020b648 <_ZN4core3fmt9Formatter9write_str17h3eab43551042ee87E>
    80204c3a:	4625                	li	a2,9

0000000080204c3c <.Lpcrel_hi0>:
    80204c3c:	0000a597          	auipc	a1,0xa
    80204c40:	5ec58593          	addi	a1,a1,1516 # 8020f228 <.Lanon.d9326b764caf953d246fe4d565aa4f71.55>
    80204c44:	60a2                	ld	ra,8(sp)
    80204c46:	6402                	ld	s0,0(sp)
    80204c48:	0141                	addi	sp,sp,16
    80204c4a:	00007317          	auipc	t1,0x7
    80204c4e:	9fe30067          	jr	-1538(t1) # 8020b648 <_ZN4core3fmt9Formatter9write_str17h3eab43551042ee87E>

0000000080204c52 <_ZN4core3ptr28drop_in_place$LT$$RF$str$GT$17h2430f6ed474402deE>:
    80204c52:	1141                	addi	sp,sp,-16
    80204c54:	e406                	sd	ra,8(sp)
    80204c56:	e022                	sd	s0,0(sp)
    80204c58:	0800                	addi	s0,sp,16
    80204c5a:	60a2                	ld	ra,8(sp)
    80204c5c:	6402                	ld	s0,0(sp)
    80204c5e:	0141                	addi	sp,sp,16
    80204c60:	8082                	ret

0000000080204c62 <_ZN2os2mm10memory_set9MemorySet26remove_area_with_start_vpn17h5ccde2ce30df2e57E>:
    80204c62:	7131                	addi	sp,sp,-192
    80204c64:	fd06                	sd	ra,184(sp)
    80204c66:	f922                	sd	s0,176(sp)
    80204c68:	f526                	sd	s1,168(sp)
    80204c6a:	f14a                	sd	s2,160(sp)
    80204c6c:	ed4e                	sd	s3,152(sp)
    80204c6e:	e952                	sd	s4,144(sp)
    80204c70:	e556                	sd	s5,136(sp)
    80204c72:	e15a                	sd	s6,128(sp)
    80204c74:	fcde                	sd	s7,120(sp)
    80204c76:	f8e2                	sd	s8,112(sp)
    80204c78:	f4e6                	sd	s9,104(sp)
    80204c7a:	f0ea                	sd	s10,96(sp)
    80204c7c:	ecee                	sd	s11,88(sp)
    80204c7e:	0180                	addi	s0,sp,192
    80204c80:	89aa                	mv	s3,a0
    80204c82:	7910                	ld	a2,48(a0)
    80204c84:	84ae                	mv	s1,a1
    80204c86:	4b81                	li	s7,0
    80204c88:	02853a03          	ld	s4,40(a0)
    80204c8c:	03000513          	li	a0,48
    80204c90:	02a60533          	mul	a0,a2,a0
    80204c94:	5afd                	li	s5,-1
    80204c96:	17750d63          	beq	a0,s7,80204e10 <_ZN2os2mm10memory_set9MemorySet26remove_area_with_start_vpn17h5ccde2ce30df2e57E+0x1ae>
    80204c9a:	017a05b3          	add	a1,s4,s7
    80204c9e:	618c                	ld	a1,0(a1)
    80204ca0:	030b8b93          	addi	s7,s7,48
    80204ca4:	0a85                	addi	s5,s5,1
    80204ca6:	fe9598e3          	bne	a1,s1,80204c96 <_ZN2os2mm10memory_set9MemorySet26remove_area_with_start_vpn17h5ccde2ce30df2e57E+0x34>
    80204caa:	f4c43423          	sd	a2,-184(s0)
    80204cae:	9a5e                	add	s4,s4,s7
    80204cb0:	fd8a3c03          	ld	s8,-40(s4)
    80204cb4:	0e9c0a63          	beq	s8,s1,80204da8 <_ZN2os2mm10memory_set9MemorySet26remove_area_with_start_vpn17h5ccde2ce30df2e57E+0x146>
    80204cb8:	fe0a0c93          	addi	s9,s4,-32
    80204cbc:	0189bd83          	ld	s11,24(s3)
    80204cc0:	fff00537          	lui	a0,0xfff00
    80204cc4:	00855d13          	srli	s10,a0,0x8
    80204cc8:	0db2                	slli	s11,s11,0xc
    80204cca:	6b05                	lui	s6,0x1
    80204ccc:	3b61                	addiw	s6,s6,-8 # ff8 <$d.12+0xa7>
    80204cce:	4905                	li	s2,1
    80204cd0:	ff9a4503          	lbu	a0,-7(s4)
    80204cd4:	c151                	beqz	a0,80204d58 <_ZN2os2mm10memory_set9MemorySet26remove_area_with_start_vpn17h5ccde2ce30df2e57E+0xf6>
    80204cd6:	fe0a3503          	ld	a0,-32(s4)
    80204cda:	cd3d                	beqz	a0,80204d58 <_ZN2os2mm10memory_set9MemorySet26remove_area_with_start_vpn17h5ccde2ce30df2e57E+0xf6>
    80204cdc:	fe8a3803          	ld	a6,-24(s4)
    80204ce0:	0ba55883          	lhu	a7,186(a0) # fffffffffff000ba <ebss+0xffffffff7f9c80ba>
    80204ce4:	00850793          	addi	a5,a0,8
    80204ce8:	00389713          	slli	a4,a7,0x3
    80204cec:	567d                	li	a2,-1
    80204cee:	c70d                	beqz	a4,80204d18 <_ZN2os2mm10memory_set9MemorySet26remove_area_with_start_vpn17h5ccde2ce30df2e57E+0xb6>
    80204cf0:	638c                	ld	a1,0(a5)
    80204cf2:	07a1                	addi	a5,a5,8
    80204cf4:	00b4b6b3          	sltu	a3,s1,a1
    80204cf8:	8da5                	xor	a1,a1,s1
    80204cfa:	00b035b3          	snez	a1,a1
    80204cfe:	40d006b3          	neg	a3,a3
    80204d02:	8dd5                	or	a1,a1,a3
    80204d04:	1761                	addi	a4,a4,-8
    80204d06:	0605                	addi	a2,a2,1
    80204d08:	ff2583e3          	beq	a1,s2,80204cee <_ZN2os2mm10memory_set9MemorySet26remove_area_with_start_vpn17h5ccde2ce30df2e57E+0x8c>
    80204d0c:	0ff5f593          	zext.b	a1,a1
    80204d10:	cd81                	beqz	a1,80204d28 <_ZN2os2mm10memory_set9MemorySet26remove_area_with_start_vpn17h5ccde2ce30df2e57E+0xc6>
    80204d12:	00081663          	bnez	a6,80204d1e <_ZN2os2mm10memory_set9MemorySet26remove_area_with_start_vpn17h5ccde2ce30df2e57E+0xbc>
    80204d16:	a089                	j	80204d58 <_ZN2os2mm10memory_set9MemorySet26remove_area_with_start_vpn17h5ccde2ce30df2e57E+0xf6>
    80204d18:	8646                	mv	a2,a7
    80204d1a:	02080f63          	beqz	a6,80204d58 <_ZN2os2mm10memory_set9MemorySet26remove_area_with_start_vpn17h5ccde2ce30df2e57E+0xf6>
    80204d1e:	060e                	slli	a2,a2,0x3
    80204d20:	9532                	add	a0,a0,a2
    80204d22:	6168                	ld	a0,192(a0)
    80204d24:	187d                	addi	a6,a6,-1 # fff <$d.12+0xae>
    80204d26:	bf6d                	j	80204ce0 <_ZN2os2mm10memory_set9MemorySet26remove_area_with_start_vpn17h5ccde2ce30df2e57E+0x7e>
    80204d28:	f4a43c23          	sd	a0,-168(s0)
    80204d2c:	f7043023          	sd	a6,-160(s0)
    80204d30:	f6c43423          	sd	a2,-152(s0)
    80204d34:	f7943823          	sd	s9,-144(s0)
    80204d38:	f5840513          	addi	a0,s0,-168
    80204d3c:	00002097          	auipc	ra,0x2
    80204d40:	cc0080e7          	jalr	-832(ra) # 802069fc <_ZN5alloc11collections5btree3map5entry30OccupiedEntry$LT$K$C$V$C$A$GT$9remove_kv17h387b455fd275d555E>
    80204d44:	f9243423          	sd	s2,-120(s0)
    80204d48:	f8b43823          	sd	a1,-112(s0)
    80204d4c:	f9040513          	addi	a0,s0,-112
    80204d50:	fffff097          	auipc	ra,0xfffff
    80204d54:	876080e7          	jalr	-1930(ra) # 802035c6 <_ZN79_$LT$os..mm..frame_allocator..FrameTracker$u20$as$u20$core..ops..drop..Drop$GT$4drop17h22547e58a5031c24E>
    80204d58:	f4943823          	sd	s1,-176(s0)
    80204d5c:	00f4d513          	srli	a0,s1,0xf
    80204d60:	01657533          	and	a0,a0,s6
    80204d64:	956e                	add	a0,a0,s11
    80204d66:	6108                	ld	a0,0(a0)
    80204d68:	00157593          	andi	a1,a0,1
    80204d6c:	c1e9                	beqz	a1,80204e2e <.Lpcrel_hi5>
    80204d6e:	050a                	slli	a0,a0,0x2
    80204d70:	01a57533          	and	a0,a0,s10
    80204d74:	0064d593          	srli	a1,s1,0x6
    80204d78:	0165f5b3          	and	a1,a1,s6
    80204d7c:	952e                	add	a0,a0,a1
    80204d7e:	6108                	ld	a0,0(a0)
    80204d80:	00157593          	andi	a1,a0,1
    80204d84:	c5cd                	beqz	a1,80204e2e <.Lpcrel_hi5>
    80204d86:	050a                	slli	a0,a0,0x2
    80204d88:	01a57533          	and	a0,a0,s10
    80204d8c:	c14d                	beqz	a0,80204e2e <.Lpcrel_hi5>
    80204d8e:	1ff4f593          	andi	a1,s1,511
    80204d92:	058e                	slli	a1,a1,0x3
    80204d94:	952e                	add	a0,a0,a1
    80204d96:	00054583          	lbu	a1,0(a0)
    80204d9a:	8985                	andi	a1,a1,1
    80204d9c:	c1cd                	beqz	a1,80204e3e <.Lpcrel_hi5+0x10>
    80204d9e:	0485                	addi	s1,s1,1
    80204da0:	00053023          	sd	zero,0(a0)
    80204da4:	f38496e3          	bne	s1,s8,80204cd0 <_ZN2os2mm10memory_set9MemorySet26remove_area_with_start_vpn17h5ccde2ce30df2e57E+0x6e>
    80204da8:	f4843483          	ld	s1,-184(s0)
    80204dac:	0c9aff63          	bgeu	s5,s1,80204e8a <.Lpcrel_hi9>
    80204db0:	ff8a3503          	ld	a0,-8(s4)
    80204db4:	ff0a3583          	ld	a1,-16(s4)
    80204db8:	fe8a3603          	ld	a2,-24(s4)
    80204dbc:	f8a43023          	sd	a0,-128(s0)
    80204dc0:	f6b43c23          	sd	a1,-136(s0)
    80204dc4:	fe0a3503          	ld	a0,-32(s4)
    80204dc8:	f6c43823          	sd	a2,-144(s0)
    80204dcc:	fd8a3583          	ld	a1,-40(s4)
    80204dd0:	fd0a3603          	ld	a2,-48(s4)
    80204dd4:	f6a43423          	sd	a0,-152(s0)
    80204dd8:	fd0a0513          	addi	a0,s4,-48
    80204ddc:	f6b43023          	sd	a1,-160(s0)
    80204de0:	f4c43c23          	sd	a2,-168(s0)
    80204de4:	f6840913          	addi	s2,s0,-152
    80204de8:	03000593          	li	a1,48
    80204dec:	02b485b3          	mul	a1,s1,a1
    80204df0:	41758633          	sub	a2,a1,s7
    80204df4:	85d2                	mv	a1,s4
    80204df6:	00008097          	auipc	ra,0x8
    80204dfa:	2e0080e7          	jalr	736(ra) # 8020d0d6 <memmove>
    80204dfe:	fff48513          	addi	a0,s1,-1
    80204e02:	02a9b823          	sd	a0,48(s3)
    80204e06:	854a                	mv	a0,s2
    80204e08:	00004097          	auipc	ra,0x4
    80204e0c:	a26080e7          	jalr	-1498(ra) # 8020882e <_ZN99_$LT$alloc..collections..btree..map..BTreeMap$LT$K$C$V$C$A$GT$$u20$as$u20$core..ops..drop..Drop$GT$4drop17h1b8eadadec77b2e0E>
    80204e10:	70ea                	ld	ra,184(sp)
    80204e12:	744a                	ld	s0,176(sp)
    80204e14:	74aa                	ld	s1,168(sp)
    80204e16:	790a                	ld	s2,160(sp)
    80204e18:	69ea                	ld	s3,152(sp)
    80204e1a:	6a4a                	ld	s4,144(sp)
    80204e1c:	6aaa                	ld	s5,136(sp)
    80204e1e:	6b0a                	ld	s6,128(sp)
    80204e20:	7be6                	ld	s7,120(sp)
    80204e22:	7c46                	ld	s8,112(sp)
    80204e24:	7ca6                	ld	s9,104(sp)
    80204e26:	7d06                	ld	s10,96(sp)
    80204e28:	6de6                	ld	s11,88(sp)
    80204e2a:	6129                	addi	sp,sp,192
    80204e2c:	8082                	ret

0000000080204e2e <.Lpcrel_hi5>:
    80204e2e:	0000a517          	auipc	a0,0xa
    80204e32:	9a250513          	addi	a0,a0,-1630 # 8020e7d0 <anon.6a46c64e42596067554903e2843242d1.22.llvm.9449326286350064217>
    80204e36:	00005097          	auipc	ra,0x5
    80204e3a:	7da080e7          	jalr	2010(ra) # 8020a610 <_ZN4core6option13unwrap_failed17h3c70806c841faa93E>
    80204e3e:	f5040513          	addi	a0,s0,-176
    80204e42:	f8a43423          	sd	a0,-120(s0)

0000000080204e46 <.Lpcrel_hi6>:
    80204e46:	00001517          	auipc	a0,0x1
    80204e4a:	50850513          	addi	a0,a0,1288 # 8020634e <_ZN65_$LT$os..mm..address..VirtPageNum$u20$as$u20$core..fmt..Debug$GT$3fmt17hc10c9c874bd62f33E>
    80204e4e:	f8a43823          	sd	a0,-112(s0)

0000000080204e52 <.Lpcrel_hi7>:
    80204e52:	0000a517          	auipc	a0,0xa
    80204e56:	9b650513          	addi	a0,a0,-1610 # 8020e808 <anon.6a46c64e42596067554903e2843242d1.24.llvm.9449326286350064217>
    80204e5a:	f4a43c23          	sd	a0,-168(s0)
    80204e5e:	4509                	li	a0,2
    80204e60:	f6a43023          	sd	a0,-160(s0)
    80204e64:	f6043c23          	sd	zero,-136(s0)
    80204e68:	f8840513          	addi	a0,s0,-120
    80204e6c:	f6a43423          	sd	a0,-152(s0)
    80204e70:	4505                	li	a0,1
    80204e72:	f6a43823          	sd	a0,-144(s0)

0000000080204e76 <.Lpcrel_hi8>:
    80204e76:	0000a517          	auipc	a0,0xa
    80204e7a:	9b250593          	addi	a1,a0,-1614 # 8020e828 <anon.6a46c64e42596067554903e2843242d1.25.llvm.9449326286350064217>
    80204e7e:	f5840513          	addi	a0,s0,-168
    80204e82:	00005097          	auipc	ra,0x5
    80204e86:	7ca080e7          	jalr	1994(ra) # 8020a64c <_ZN4core9panicking9panic_fmt17hc25dbb51a4d67a42E>

0000000080204e8a <.Lpcrel_hi9>:
    80204e8a:	0000a517          	auipc	a0,0xa
    80204e8e:	dee50613          	addi	a2,a0,-530 # 8020ec78 <anon.d9326b764caf953d246fe4d565aa4f71.1.llvm.3597140058814777251>
    80204e92:	8556                	mv	a0,s5
    80204e94:	85a6                	mv	a1,s1
    80204e96:	00005097          	auipc	ra,0x5
    80204e9a:	26c080e7          	jalr	620(ra) # 8020a102 <_ZN5alloc3vec16Vec$LT$T$C$A$GT$6remove13assert_failed17hdfc6f3f084a66feaE>

0000000080204e9e <_ZN2os2mm10memory_set9MemorySet4push17h213b40d2e087ac5cE.llvm.3597140058814777251>:
    80204e9e:	7135                	addi	sp,sp,-160
    80204ea0:	ed06                	sd	ra,152(sp)
    80204ea2:	e922                	sd	s0,144(sp)
    80204ea4:	e526                	sd	s1,136(sp)
    80204ea6:	e14a                	sd	s2,128(sp)
    80204ea8:	fcce                	sd	s3,120(sp)
    80204eaa:	f8d2                	sd	s4,112(sp)
    80204eac:	f4d6                	sd	s5,104(sp)
    80204eae:	f0da                	sd	s6,96(sp)
    80204eb0:	ecde                	sd	s7,88(sp)
    80204eb2:	e8e2                	sd	s8,80(sp)
    80204eb4:	e4e6                	sd	s9,72(sp)
    80204eb6:	e0ea                	sd	s10,64(sp)
    80204eb8:	fc6e                	sd	s11,56(sp)
    80204eba:	1100                	addi	s0,sp,160
    80204ebc:	89ae                	mv	s3,a1
    80204ebe:	0005bc83          	ld	s9,0(a1)
    80204ec2:	0085bd03          	ld	s10,8(a1)
    80204ec6:	8a36                	mv	s4,a3
    80204ec8:	8ab2                	mv	s5,a2
    80204eca:	f6a43023          	sd	a0,-160(s0)
    80204ece:	15ac9d63          	bne	s9,s10,80205028 <_ZN2os2mm10memory_set9MemorySet4push17h213b40d2e087ac5cE.llvm.3597140058814777251+0x18a>
    80204ed2:	0a0a8a63          	beqz	s5,80204f86 <_ZN2os2mm10memory_set9MemorySet4push17h213b40d2e087ac5cE.llvm.3597140058814777251+0xe8>
    80204ed6:	0299c503          	lbu	a0,41(s3)
    80204eda:	28050263          	beqz	a0,8020515e <.Lpcrel_hi12+0x10>
    80204ede:	4b81                	li	s7,0
    80204ee0:	fff00537          	lui	a0,0xfff00
    80204ee4:	00855b13          	srli	s6,a0,0x8
    80204ee8:	0009bd03          	ld	s10,0(s3)
    80204eec:	6c05                	lui	s8,0x1
    80204eee:	6c89                	lui	s9,0x2
    80204ef0:	ff8c0d9b          	addiw	s11,s8,-8 # ff8 <$d.12+0xa7>
    80204ef4:	001c091b          	addiw	s2,s8,1
    80204ef8:	6485                	lui	s1,0x1
    80204efa:	a819                	j	80204f10 <_ZN2os2mm10memory_set9MemorySet4push17h213b40d2e087ac5cE.llvm.3597140058814777251+0x72>
    80204efc:	0d05                	addi	s10,s10,1
    80204efe:	94e2                	add	s1,s1,s8
    80204f00:	9ce2                	add	s9,s9,s8
    80204f02:	9ae2                	add	s5,s5,s8
    80204f04:	800b8513          	addi	a0,s7,-2048
    80204f08:	80050b93          	addi	s7,a0,-2048 # ffffffffffeff800 <ebss+0xffffffff7f9c7800>
    80204f0c:	22048863          	beqz	s1,8020513c <.Lpcrel_hi15>
    80204f10:	8652                	mv	a2,s4
    80204f12:	009a6363          	bltu	s4,s1,80204f18 <_ZN2os2mm10memory_set9MemorySet4push17h213b40d2e087ac5cE.llvm.3597140058814777251+0x7a>
    80204f16:	8626                	mv	a2,s1
    80204f18:	f6043503          	ld	a0,-160(s0)
    80204f1c:	6d08                	ld	a0,24(a0)
    80204f1e:	0532                	slli	a0,a0,0xc
    80204f20:	00fd5593          	srli	a1,s10,0xf
    80204f24:	01b5f5b3          	and	a1,a1,s11
    80204f28:	8d4d                	or	a0,a0,a1
    80204f2a:	6108                	ld	a0,0(a0)
    80204f2c:	00157593          	andi	a1,a0,1
    80204f30:	1e058063          	beqz	a1,80205110 <.Lpcrel_hi16>
    80204f34:	050a                	slli	a0,a0,0x2
    80204f36:	01657533          	and	a0,a0,s6
    80204f3a:	006d5593          	srli	a1,s10,0x6
    80204f3e:	01b5f5b3          	and	a1,a1,s11
    80204f42:	952e                	add	a0,a0,a1
    80204f44:	6108                	ld	a0,0(a0)
    80204f46:	00157593          	andi	a1,a0,1
    80204f4a:	1c058363          	beqz	a1,80205110 <.Lpcrel_hi16>
    80204f4e:	050a                	slli	a0,a0,0x2
    80204f50:	01657533          	and	a0,a0,s6
    80204f54:	1a050e63          	beqz	a0,80205110 <.Lpcrel_hi16>
    80204f58:	965e                	add	a2,a2,s7
    80204f5a:	1d267363          	bgeu	a2,s2,80205120 <.Lpcrel_hi16+0x10>
    80204f5e:	1ffd7593          	andi	a1,s10,511
    80204f62:	058e                	slli	a1,a1,0x3
    80204f64:	952e                	add	a0,a0,a1
    80204f66:	6108                	ld	a0,0(a0)
    80204f68:	050a                	slli	a0,a0,0x2
    80204f6a:	01657533          	and	a0,a0,s6
    80204f6e:	85d6                	mv	a1,s5
    80204f70:	00008097          	auipc	ra,0x8
    80204f74:	1a8080e7          	jalr	424(ra) # 8020d118 <memcpy>
    80204f78:	0144f763          	bgeu	s1,s4,80204f86 <_ZN2os2mm10memory_set9MemorySet4push17h213b40d2e087ac5cE.llvm.3597140058814777251+0xe8>
    80204f7c:	85d2                	mv	a1,s4
    80204f7e:	f79a6fe3          	bltu	s4,s9,80204efc <_ZN2os2mm10memory_set9MemorySet4push17h213b40d2e087ac5cE.llvm.3597140058814777251+0x5e>
    80204f82:	85e6                	mv	a1,s9
    80204f84:	bfa5                	j	80204efc <_ZN2os2mm10memory_set9MemorySet4push17h213b40d2e087ac5cE.llvm.3597140058814777251+0x5e>
    80204f86:	0289b503          	ld	a0,40(s3)
    80204f8a:	0209b583          	ld	a1,32(s3)
    80204f8e:	f8a43823          	sd	a0,-112(s0)
    80204f92:	f8b43423          	sd	a1,-120(s0)
    80204f96:	0189b503          	ld	a0,24(s3)
    80204f9a:	0109b583          	ld	a1,16(s3)
    80204f9e:	0089b603          	ld	a2,8(s3)
    80204fa2:	0009b683          	ld	a3,0(s3)
    80204fa6:	f6043903          	ld	s2,-160(s0)
    80204faa:	03093483          	ld	s1,48(s2)
    80204fae:	02093703          	ld	a4,32(s2)
    80204fb2:	f8a43023          	sd	a0,-128(s0)
    80204fb6:	f6b43c23          	sd	a1,-136(s0)
    80204fba:	f6c43823          	sd	a2,-144(s0)
    80204fbe:	f6d43423          	sd	a3,-152(s0)
    80204fc2:	00e49863          	bne	s1,a4,80204fd2 <_ZN2os2mm10memory_set9MemorySet4push17h213b40d2e087ac5cE.llvm.3597140058814777251+0x134>
    80204fc6:	02090513          	addi	a0,s2,32
    80204fca:	00000097          	auipc	ra,0x0
    80204fce:	ba8080e7          	jalr	-1112(ra) # 80204b72 <_ZN5alloc7raw_vec19RawVec$LT$T$C$A$GT$8grow_one17hcebffe460c4df07cE>
    80204fd2:	02893503          	ld	a0,40(s2)
    80204fd6:	03000593          	li	a1,48
    80204fda:	f9043603          	ld	a2,-112(s0)
    80204fde:	f8843683          	ld	a3,-120(s0)
    80204fe2:	02b485b3          	mul	a1,s1,a1
    80204fe6:	952e                	add	a0,a0,a1
    80204fe8:	f510                	sd	a2,40(a0)
    80204fea:	f114                	sd	a3,32(a0)
    80204fec:	f8043583          	ld	a1,-128(s0)
    80204ff0:	f7843603          	ld	a2,-136(s0)
    80204ff4:	f7043683          	ld	a3,-144(s0)
    80204ff8:	f6843703          	ld	a4,-152(s0)
    80204ffc:	ed0c                	sd	a1,24(a0)
    80204ffe:	e910                	sd	a2,16(a0)
    80205000:	e514                	sd	a3,8(a0)
    80205002:	e118                	sd	a4,0(a0)
    80205004:	0485                	addi	s1,s1,1 # 1001 <$d.12+0xb0>
    80205006:	02993823          	sd	s1,48(s2)
    8020500a:	60ea                	ld	ra,152(sp)
    8020500c:	644a                	ld	s0,144(sp)
    8020500e:	64aa                	ld	s1,136(sp)
    80205010:	690a                	ld	s2,128(sp)
    80205012:	79e6                	ld	s3,120(sp)
    80205014:	7a46                	ld	s4,112(sp)
    80205016:	7aa6                	ld	s5,104(sp)
    80205018:	7b06                	ld	s6,96(sp)
    8020501a:	6be6                	ld	s7,88(sp)
    8020501c:	6c46                	ld	s8,80(sp)
    8020501e:	6ca6                	ld	s9,72(sp)
    80205020:	6d06                	ld	s10,64(sp)
    80205022:	7de2                	ld	s11,56(sp)
    80205024:	610d                	addi	sp,sp,160
    80205026:	8082                	ret
    80205028:	892a                	mv	s2,a0
    8020502a:	01098b13          	addi	s6,s3,16

000000008020502e <.Lpcrel_hi10>:
    8020502e:	00132517          	auipc	a0,0x132
    80205032:	fd250c13          	addi	s8,a0,-46 # 80337000 <_ZN84_$LT$os..mm..frame_allocator..FRAME_ALLOCATOR$u20$as$u20$core..ops..deref..Deref$GT$5deref11__stability4LAZY17h16ef9517e8cb8289E.llvm.9449326286350064217>
    80205036:	5bfd                	li	s7,-1
    80205038:	a00d                	j	8020505a <.Lpcrel_hi10+0x2c>
    8020503a:	f6043903          	ld	s2,-160(s0)
    8020503e:	0289c683          	lbu	a3,40(s3)
    80205042:	001c8493          	addi	s1,s9,1 # 2001 <$d.182+0x59>
    80205046:	854a                	mv	a0,s2
    80205048:	85e6                	mv	a1,s9
    8020504a:	866e                	mv	a2,s11
    8020504c:	ffffe097          	auipc	ra,0xffffe
    80205050:	79e080e7          	jalr	1950(ra) # 802037ea <_ZN2os2mm10page_table9PageTable3map17h9f6318b9af8290eaE>
    80205054:	8ca6                	mv	s9,s1
    80205056:	e69d0ee3          	beq	s10,s1,80204ed2 <_ZN2os2mm10memory_set9MemorySet4push17h213b40d2e087ac5cE.llvm.3597140058814777251+0x34>
    8020505a:	0299c503          	lbu	a0,41(s3)
    8020505e:	8de6                	mv	s11,s9
    80205060:	dd79                	beqz	a0,8020503e <.Lpcrel_hi10+0x10>
    80205062:	030c0503          	lb	a0,48(s8)
    80205066:	0230000f          	fence	r,rw
    8020506a:	4589                	li	a1,2
    8020506c:	08b51263          	bne	a0,a1,802050f0 <.Lpcrel_hi10+0xc2>
    80205070:	000c3503          	ld	a0,0(s8)
    80205074:	e551                	bnez	a0,80205100 <.Lpcrel_hi11>
    80205076:	018c3503          	ld	a0,24(s8)
    8020507a:	017c3023          	sd	s7,0(s8)
    8020507e:	c911                	beqz	a0,80205092 <.Lpcrel_hi10+0x64>
    80205080:	010c3583          	ld	a1,16(s8)
    80205084:	157d                	addi	a0,a0,-1
    80205086:	00ac3c23          	sd	a0,24(s8)
    8020508a:	050e                	slli	a0,a0,0x3
    8020508c:	952e                	add	a0,a0,a1
    8020508e:	6108                	ld	a0,0(a0)
    80205090:	a829                	j	802050aa <.Lpcrel_hi10+0x7c>
    80205092:	020c3503          	ld	a0,32(s8)
    80205096:	028c3583          	ld	a1,40(s8)
    8020509a:	00b51463          	bne	a0,a1,802050a2 <.Lpcrel_hi10+0x74>
    8020509e:	4901                	li	s2,0
    802050a0:	a00d                	j	802050c2 <.Lpcrel_hi10+0x94>
    802050a2:	00150593          	addi	a1,a0,1
    802050a6:	02bc3023          	sd	a1,32(s8)
    802050aa:	0552                	slli	a0,a0,0x14
    802050ac:	01455d93          	srli	s11,a0,0x14
    802050b0:	4905                	li	s2,1
    802050b2:	00cd9513          	slli	a0,s11,0xc
    802050b6:	6605                	lui	a2,0x1
    802050b8:	4581                	li	a1,0
    802050ba:	00008097          	auipc	ra,0x8
    802050be:	032080e7          	jalr	50(ra) # 8020d0ec <memset>
    802050c2:	000c3023          	sd	zero,0(s8)
    802050c6:	08090463          	beqz	s2,8020514e <.Lpcrel_hi12>
    802050ca:	855a                	mv	a0,s6
    802050cc:	85e6                	mv	a1,s9
    802050ce:	866e                	mv	a2,s11
    802050d0:	00003097          	auipc	ra,0x3
    802050d4:	648080e7          	jalr	1608(ra) # 80208718 <_ZN5alloc11collections5btree3map25BTreeMap$LT$K$C$V$C$A$GT$6insert17h24f17ef1ccdbc855E>
    802050d8:	f6a43423          	sd	a0,-152(s0)
    802050dc:	f6b43823          	sd	a1,-144(s0)
    802050e0:	dd29                	beqz	a0,8020503a <.Lpcrel_hi10+0xc>
    802050e2:	f7040513          	addi	a0,s0,-144
    802050e6:	ffffe097          	auipc	ra,0xffffe
    802050ea:	4e0080e7          	jalr	1248(ra) # 802035c6 <_ZN79_$LT$os..mm..frame_allocator..FrameTracker$u20$as$u20$core..ops..drop..Drop$GT$4drop17h22547e58a5031c24E>
    802050ee:	b7b1                	j	8020503a <.Lpcrel_hi10+0xc>
    802050f0:	8562                	mv	a0,s8
    802050f2:	fffff097          	auipc	ra,0xfffff
    802050f6:	0d8080e7          	jalr	216(ra) # 802041ca <_ZN4spin4once17Once$LT$T$C$R$GT$18try_call_once_slow17h248f831427eadf2aE.llvm.18273212518176036961>
    802050fa:	000c3503          	ld	a0,0(s8)
    802050fe:	dd25                	beqz	a0,80205076 <.Lpcrel_hi10+0x48>

0000000080205100 <.Lpcrel_hi11>:
    80205100:	0000a517          	auipc	a0,0xa
    80205104:	1f850513          	addi	a0,a0,504 # 8020f2f8 <anon.143638ba50f3ca5f2997057583b6f6e7.15.llvm.7411291366835535865>
    80205108:	00005097          	auipc	ra,0x5
    8020510c:	1a8080e7          	jalr	424(ra) # 8020a2b0 <_ZN4core4cell22panic_already_borrowed17h63023a1bd405c717E>

0000000080205110 <.Lpcrel_hi16>:
    80205110:	0000a517          	auipc	a0,0xa
    80205114:	ef850513          	addi	a0,a0,-264 # 8020f008 <.Lanon.d9326b764caf953d246fe4d565aa4f71.40>
    80205118:	00005097          	auipc	ra,0x5
    8020511c:	4f8080e7          	jalr	1272(ra) # 8020a610 <_ZN4core6option13unwrap_failed17h3c70806c841faa93E>
    80205120:	009a6363          	bltu	s4,s1,80205126 <.Lpcrel_hi16+0x16>
    80205124:	8a26                	mv	s4,s1
    80205126:	017a0533          	add	a0,s4,s7

000000008020512a <.Lpcrel_hi17>:
    8020512a:	0000a597          	auipc	a1,0xa
    8020512e:	ef658613          	addi	a2,a1,-266 # 8020f020 <.Lanon.d9326b764caf953d246fe4d565aa4f71.41>
    80205132:	6585                	lui	a1,0x1
    80205134:	00007097          	auipc	ra,0x7
    80205138:	bb2080e7          	jalr	-1102(ra) # 8020bce6 <_ZN4core5slice5index24slice_end_index_len_fail17h4f74974912d1b932E>

000000008020513c <.Lpcrel_hi15>:
    8020513c:	0000a517          	auipc	a0,0xa
    80205140:	eb450613          	addi	a2,a0,-332 # 8020eff0 <.Lanon.d9326b764caf953d246fe4d565aa4f71.39>
    80205144:	757d                	lui	a0,0xfffff
    80205146:	00007097          	auipc	ra,0x7
    8020514a:	c10080e7          	jalr	-1008(ra) # 8020bd56 <_ZN4core5slice5index22slice_index_order_fail17h883be29a657f36f8E>

000000008020514e <.Lpcrel_hi12>:
    8020514e:	0000a517          	auipc	a0,0xa
    80205152:	e8250513          	addi	a0,a0,-382 # 8020efd0 <.Lanon.d9326b764caf953d246fe4d565aa4f71.37>
    80205156:	00005097          	auipc	ra,0x5
    8020515a:	4ba080e7          	jalr	1210(ra) # 8020a610 <_ZN4core6option13unwrap_failed17h3c70806c841faa93E>
    8020515e:	f6043423          	sd	zero,-152(s0)
    80205162:	02998593          	addi	a1,s3,41

0000000080205166 <.Lpcrel_hi13>:
    80205166:	0000a517          	auipc	a0,0xa
    8020516a:	e8250613          	addi	a2,a0,-382 # 8020efe8 <.Lanon.d9326b764caf953d246fe4d565aa4f71.38>

000000008020516e <.Lpcrel_hi14>:
    8020516e:	0000a517          	auipc	a0,0xa
    80205172:	eca50713          	addi	a4,a0,-310 # 8020f038 <.Lanon.d9326b764caf953d246fe4d565aa4f71.43>
    80205176:	f6840693          	addi	a3,s0,-152
    8020517a:	4501                	li	a0,0
    8020517c:	00002097          	auipc	ra,0x2
    80205180:	5d2080e7          	jalr	1490(ra) # 8020774e <_ZN4core9panicking13assert_failed17hebd6b278d329e237E>

0000000080205184 <_ZN2os2mm10memory_set9MemorySet10new_kernel17h1ae7b4cf63067f17E>:
    80205184:	7121                	addi	sp,sp,-448
    80205186:	ff06                	sd	ra,440(sp)
    80205188:	fb22                	sd	s0,432(sp)
    8020518a:	f726                	sd	s1,424(sp)
    8020518c:	f34a                	sd	s2,416(sp)
    8020518e:	ef4e                	sd	s3,408(sp)
    80205190:	eb52                	sd	s4,400(sp)
    80205192:	e756                	sd	s5,392(sp)
    80205194:	e35a                	sd	s6,384(sp)
    80205196:	fede                	sd	s7,376(sp)
    80205198:	fae2                	sd	s8,368(sp)
    8020519a:	f6e6                	sd	s9,360(sp)
    8020519c:	f2ea                	sd	s10,352(sp)
    8020519e:	eeee                	sd	s11,344(sp)
    802051a0:	0380                	addi	s0,sp,448
    802051a2:	8baa                	mv	s7,a0
    802051a4:	6985                	lui	s3,0x1
    802051a6:	39fd                	addiw	s3,s3,-1 # fff <$d.12+0xae>
    802051a8:	e8840513          	addi	a0,s0,-376
    802051ac:	ffffe097          	auipc	ra,0xffffe
    802051b0:	548080e7          	jalr	1352(ra) # 802036f4 <_ZN2os2mm10page_table9PageTable3new17h5fd3c51769ca48f7E>
    802051b4:	ea043423          	sd	zero,-344(s0)
    802051b8:	4521                	li	a0,8
    802051ba:	eaa43823          	sd	a0,-336(s0)
    802051be:	ea043c23          	sd	zero,-328(s0)

00000000802051c2 <.Lpcrel_hi18>:
    802051c2:	ffffc517          	auipc	a0,0xffffc
    802051c6:	e3e50513          	addi	a0,a0,-450 # 80201000 <__alltraps>
    802051ca:	013575b3          	and	a1,a0,s3
    802051ce:	ecb43423          	sd	a1,-312(s0)
    802051d2:	5c059c63          	bnez	a1,802057aa <.Lpcrel_hi55+0xae>
    802051d6:	55fd                	li	a1,-1
    802051d8:	81e5                	srli	a1,a1,0x19
    802051da:	e6b43823          	sd	a1,-400(s0)
    802051de:	08000937          	lui	s2,0x8000
    802051e2:	397d                	addiw	s2,s2,-1 # 7ffffff <$d.6+0x7f391a4>
    802051e4:	0522                	slli	a0,a0,0x8
    802051e6:	01455613          	srli	a2,a0,0x14
    802051ea:	e8840513          	addi	a0,s0,-376
    802051ee:	46a9                	li	a3,10
    802051f0:	85ca                	mv	a1,s2
    802051f2:	ffffe097          	auipc	ra,0xffffe
    802051f6:	5f8080e7          	jalr	1528(ra) # 802037ea <_ZN2os2mm10page_table9PageTable3map17h9f6318b9af8290eaE>

00000000802051fa <.Lpcrel_hi21>:
    802051fa:	ffffb517          	auipc	a0,0xffffb
    802051fe:	e0650513          	addi	a0,a0,-506 # 80200000 <_start>
    80205202:	e8a43023          	sd	a0,-384(s0)
    80205206:	f0a43c23          	sd	a0,-232(s0)

000000008020520a <.Lpcrel_hi22>:
    8020520a:	00009517          	auipc	a0,0x9
    8020520e:	df650513          	addi	a0,a0,-522 # 8020e000 <etext>
    80205212:	e6a43c23          	sd	a0,-392(s0)
    80205216:	f8a43823          	sd	a0,-112(s0)
    8020521a:	f1840513          	addi	a0,s0,-232
    8020521e:	eea43c23          	sd	a0,-264(s0)

0000000080205222 <.Lpcrel_hi23>:
    80205222:	00007517          	auipc	a0,0x7
    80205226:	5a450a93          	addi	s5,a0,1444 # 8020c7c6 <_ZN4core3fmt3num53_$LT$impl$u20$core..fmt..LowerHex$u20$for$u20$i64$GT$3fmt17h2c0862d8e5218d41E>
    8020522a:	f1543023          	sd	s5,-256(s0)
    8020522e:	f9040d93          	addi	s11,s0,-112
    80205232:	f1b43423          	sd	s11,-248(s0)
    80205236:	f1543823          	sd	s5,-240(s0)
    8020523a:	4489                	li	s1,2
    8020523c:	f2943023          	sd	s1,-224(s0)
    80205240:	f2943823          	sd	s1,-208(s0)
    80205244:	f4043023          	sd	zero,-192(s0)
    80205248:	4c05                	li	s8,1
    8020524a:	022c1513          	slli	a0,s8,0x22
    8020524e:	02050a13          	addi	s4,a0,32
    80205252:	f5443423          	sd	s4,-184(s0)
    80205256:	4b0d                	li	s6,3
    80205258:	f5640823          	sb	s6,-176(s0)
    8020525c:	f4943c23          	sd	s1,-168(s0)
    80205260:	f6943423          	sd	s1,-152(s0)
    80205264:	f7843c23          	sd	s8,-136(s0)
    80205268:	f9443023          	sd	s4,-128(s0)
    8020526c:	f9640423          	sb	s6,-120(s0)

0000000080205270 <.Lpcrel_hi24>:
    80205270:	0000a517          	auipc	a0,0xa
    80205274:	a3050513          	addi	a0,a0,-1488 # 8020eca0 <.Lanon.d9326b764caf953d246fe4d565aa4f71.5>
    80205278:	eca43423          	sd	a0,-312(s0)
    8020527c:	ed643823          	sd	s6,-304(s0)
    80205280:	f2040513          	addi	a0,s0,-224
    80205284:	eea43423          	sd	a0,-280(s0)
    80205288:	f2040c93          	addi	s9,s0,-224
    8020528c:	ee943823          	sd	s1,-272(s0)
    80205290:	ef840d13          	addi	s10,s0,-264
    80205294:	eda43c23          	sd	s10,-296(s0)
    80205298:	ee943023          	sd	s1,-288(s0)
    8020529c:	ec840513          	addi	a0,s0,-312
    802052a0:	00002097          	auipc	ra,0x2
    802052a4:	58a080e7          	jalr	1418(ra) # 8020782a <_ZN2os7console5print17hb0238f93bcb82e2aE>

00000000802052a8 <.Lpcrel_hi25>:
    802052a8:	00009517          	auipc	a0,0x9
    802052ac:	d5850513          	addi	a0,a0,-680 # 8020e000 <etext>
    802052b0:	e6a43423          	sd	a0,-408(s0)
    802052b4:	f0a43c23          	sd	a0,-232(s0)

00000000802052b8 <.Lpcrel_hi26>:
    802052b8:	0000d517          	auipc	a0,0xd
    802052bc:	d4850513          	addi	a0,a0,-696 # 80212000 <_num_app>
    802052c0:	e6a43023          	sd	a0,-416(s0)
    802052c4:	f8a43823          	sd	a0,-112(s0)
    802052c8:	f1840513          	addi	a0,s0,-232
    802052cc:	eea43c23          	sd	a0,-264(s0)
    802052d0:	f1543023          	sd	s5,-256(s0)
    802052d4:	f1b43423          	sd	s11,-248(s0)
    802052d8:	f1543823          	sd	s5,-240(s0)
    802052dc:	f2943023          	sd	s1,-224(s0)
    802052e0:	f2943823          	sd	s1,-208(s0)
    802052e4:	f4043023          	sd	zero,-192(s0)
    802052e8:	f5443423          	sd	s4,-184(s0)
    802052ec:	f5640823          	sb	s6,-176(s0)
    802052f0:	f4943c23          	sd	s1,-168(s0)
    802052f4:	f6943423          	sd	s1,-152(s0)
    802052f8:	f7843c23          	sd	s8,-136(s0)
    802052fc:	f9443023          	sd	s4,-128(s0)
    80205300:	f9640423          	sb	s6,-120(s0)

0000000080205304 <.Lpcrel_hi27>:
    80205304:	0000a517          	auipc	a0,0xa
    80205308:	9dc50513          	addi	a0,a0,-1572 # 8020ece0 <.Lanon.d9326b764caf953d246fe4d565aa4f71.7>
    8020530c:	eca43423          	sd	a0,-312(s0)
    80205310:	ed643823          	sd	s6,-304(s0)
    80205314:	ef943423          	sd	s9,-280(s0)
    80205318:	ee943823          	sd	s1,-272(s0)
    8020531c:	eda43c23          	sd	s10,-296(s0)
    80205320:	ee943023          	sd	s1,-288(s0)
    80205324:	ec840513          	addi	a0,s0,-312
    80205328:	00002097          	auipc	ra,0x2
    8020532c:	502080e7          	jalr	1282(ra) # 8020782a <_ZN2os7console5print17hb0238f93bcb82e2aE>

0000000080205330 <.Lpcrel_hi28>:
    80205330:	0000d517          	auipc	a0,0xd
    80205334:	ec144583          	lbu	a1,-319(s0)
    80205338:	cd050513          	addi	a0,a0,-816 # 80212000 <_num_app>
    8020533c:	e4a43c23          	sd	a0,-424(s0)
    80205340:	f0a43c23          	sd	a0,-232(s0)
    80205344:	ec244503          	lbu	a0,-318(s0)
    80205348:	f8b404a3          	sb	a1,-119(s0)

000000008020534c <.Lpcrel_hi29>:
    8020534c:	00122597          	auipc	a1,0x122
    80205350:	cb458593          	addi	a1,a1,-844 # 80327000 <boot_stack_lower_bound>
    80205354:	f8a40523          	sb	a0,-118(s0)
    80205358:	ec344503          	lbu	a0,-317(s0)
    8020535c:	e4b43823          	sd	a1,-432(s0)
    80205360:	f8b43823          	sd	a1,-112(s0)
    80205364:	f1840593          	addi	a1,s0,-232
    80205368:	eeb43c23          	sd	a1,-264(s0)
    8020536c:	f1840c93          	addi	s9,s0,-232
    80205370:	f1543023          	sd	s5,-256(s0)
    80205374:	f8a405a3          	sb	a0,-117(s0)
    80205378:	ec444503          	lbu	a0,-316(s0)
    8020537c:	f1b43423          	sd	s11,-248(s0)
    80205380:	f1543823          	sd	s5,-240(s0)
    80205384:	f2943023          	sd	s1,-224(s0)
    80205388:	f8a40623          	sb	a0,-116(s0)
    8020538c:	ec544503          	lbu	a0,-315(s0)
    80205390:	f2943823          	sd	s1,-208(s0)
    80205394:	f4043023          	sd	zero,-192(s0)
    80205398:	f5443423          	sd	s4,-184(s0)
    8020539c:	f8a406a3          	sb	a0,-115(s0)
    802053a0:	ec644503          	lbu	a0,-314(s0)
    802053a4:	f5640823          	sb	s6,-176(s0)
    802053a8:	f4943c23          	sd	s1,-168(s0)
    802053ac:	f6943423          	sd	s1,-152(s0)
    802053b0:	f8a40723          	sb	a0,-114(s0)
    802053b4:	ec744503          	lbu	a0,-313(s0)
    802053b8:	f7843c23          	sd	s8,-136(s0)
    802053bc:	f9443023          	sd	s4,-128(s0)
    802053c0:	f9640423          	sb	s6,-120(s0)
    802053c4:	f8a407a3          	sb	a0,-113(s0)

00000000802053c8 <.Lpcrel_hi30>:
    802053c8:	0000a517          	auipc	a0,0xa
    802053cc:	95050513          	addi	a0,a0,-1712 # 8020ed18 <.Lanon.d9326b764caf953d246fe4d565aa4f71.9>
    802053d0:	eca43423          	sd	a0,-312(s0)
    802053d4:	ed643823          	sd	s6,-304(s0)
    802053d8:	f2040513          	addi	a0,s0,-224
    802053dc:	eea43423          	sd	a0,-280(s0)
    802053e0:	ee943823          	sd	s1,-272(s0)
    802053e4:	eda43c23          	sd	s10,-296(s0)
    802053e8:	ee943023          	sd	s1,-288(s0)
    802053ec:	ec840513          	addi	a0,s0,-312
    802053f0:	00002097          	auipc	ra,0x2
    802053f4:	43a080e7          	jalr	1082(ra) # 8020782a <_ZN2os7console5print17hb0238f93bcb82e2aE>

00000000802053f8 <.Lpcrel_hi31>:
    802053f8:	00122517          	auipc	a0,0x122
    802053fc:	c0850513          	addi	a0,a0,-1016 # 80327000 <boot_stack_lower_bound>
    80205400:	e4a43423          	sd	a0,-440(s0)
    80205404:	f0a43c23          	sd	a0,-232(s0)

0000000080205408 <.Lpcrel_hi32>:
    80205408:	00333517          	auipc	a0,0x333
    8020540c:	bf850d13          	addi	s10,a0,-1032 # 80538000 <ebss>
    80205410:	f9a43823          	sd	s10,-112(s0)
    80205414:	ef943c23          	sd	s9,-264(s0)
    80205418:	e7043c83          	ld	s9,-400(s0)
    8020541c:	f1543023          	sd	s5,-256(s0)
    80205420:	f1b43423          	sd	s11,-248(s0)
    80205424:	f1543823          	sd	s5,-240(s0)
    80205428:	ef840a93          	addi	s5,s0,-264
    8020542c:	f2943023          	sd	s1,-224(s0)
    80205430:	f2943823          	sd	s1,-208(s0)
    80205434:	f4043023          	sd	zero,-192(s0)
    80205438:	f5443423          	sd	s4,-184(s0)
    8020543c:	f5640823          	sb	s6,-176(s0)
    80205440:	ec144503          	lbu	a0,-319(s0)
    80205444:	f4943c23          	sd	s1,-168(s0)
    80205448:	f6943423          	sd	s1,-152(s0)
    8020544c:	f9443023          	sd	s4,-128(s0)
    80205450:	f8a404a3          	sb	a0,-119(s0)
    80205454:	ec244503          	lbu	a0,-318(s0)
    80205458:	ec344583          	lbu	a1,-317(s0)
    8020545c:	ec444603          	lbu	a2,-316(s0)
    80205460:	f7843c23          	sd	s8,-136(s0)
    80205464:	f8a40523          	sb	a0,-118(s0)
    80205468:	f8b405a3          	sb	a1,-117(s0)
    8020546c:	f8c40623          	sb	a2,-116(s0)
    80205470:	ec544503          	lbu	a0,-315(s0)
    80205474:	ec644583          	lbu	a1,-314(s0)
    80205478:	ec744603          	lbu	a2,-313(s0)
    8020547c:	f9640423          	sb	s6,-120(s0)
    80205480:	f8a406a3          	sb	a0,-115(s0)
    80205484:	f8b40723          	sb	a1,-114(s0)
    80205488:	f8c407a3          	sb	a2,-113(s0)

000000008020548c <.Lpcrel_hi33>:
    8020548c:	0000a517          	auipc	a0,0xa
    80205490:	8c450513          	addi	a0,a0,-1852 # 8020ed50 <.Lanon.d9326b764caf953d246fe4d565aa4f71.11>
    80205494:	eca43423          	sd	a0,-312(s0)
    80205498:	ed643823          	sd	s6,-304(s0)
    8020549c:	f2040513          	addi	a0,s0,-224
    802054a0:	eea43423          	sd	a0,-280(s0)
    802054a4:	ee943823          	sd	s1,-272(s0)
    802054a8:	ed543c23          	sd	s5,-296(s0)
    802054ac:	ee943023          	sd	s1,-288(s0)
    802054b0:	ec840513          	addi	a0,s0,-312
    802054b4:	ec840a13          	addi	s4,s0,-312
    802054b8:	00002097          	auipc	ra,0x2
    802054bc:	372080e7          	jalr	882(ra) # 8020782a <_ZN2os7console5print17hb0238f93bcb82e2aE>

00000000802054c0 <.Lpcrel_hi34>:
    802054c0:	0000a517          	auipc	a0,0xa
    802054c4:	8d850513          	addi	a0,a0,-1832 # 8020ed98 <.Lanon.d9326b764caf953d246fe4d565aa4f71.13>
    802054c8:	f2a43023          	sd	a0,-224(s0)
    802054cc:	f3843423          	sd	s8,-216(s0)
    802054d0:	f4043023          	sd	zero,-192(s0)
    802054d4:	4521                	li	a0,8
    802054d6:	f2a43823          	sd	a0,-208(s0)
    802054da:	f2043c23          	sd	zero,-200(s0)
    802054de:	f2040513          	addi	a0,s0,-224
    802054e2:	00002097          	auipc	ra,0x2
    802054e6:	348080e7          	jalr	840(ra) # 8020782a <_ZN2os7console5print17hb0238f93bcb82e2aE>
    802054ea:	e7843503          	ld	a0,-392(s0)
    802054ee:	01957533          	and	a0,a0,s9
    802054f2:	954e                	add	a0,a0,s3
    802054f4:	8131                	srli	a0,a0,0xc
    802054f6:	e8043583          	ld	a1,-384(s0)
    802054fa:	05e6                	slli	a1,a1,0x19
    802054fc:	9195                	srli	a1,a1,0x25
    802054fe:	f8b43823          	sd	a1,-112(s0)
    80205502:	eea43c23          	sd	a0,-264(s0)
    80205506:	2cb56563          	bltu	a0,a1,802057d0 <.Lpcrel_hi20+0x1a>
    8020550a:	f2b43023          	sd	a1,-224(s0)
    8020550e:	f2a43423          	sd	a0,-216(s0)
    80205512:	f2043823          	sd	zero,-208(s0)
    80205516:	f4043023          	sd	zero,-192(s0)
    8020551a:	4529                	li	a0,10
    8020551c:	f4a41423          	sh	a0,-184(s0)
    80205520:	e8840513          	addi	a0,s0,-376
    80205524:	f2040593          	addi	a1,s0,-224
    80205528:	4601                	li	a2,0
    8020552a:	00000097          	auipc	ra,0x0
    8020552e:	974080e7          	jalr	-1676(ra) # 80204e9e <_ZN2os2mm10memory_set9MemorySet4push17h213b40d2e087ac5cE.llvm.3597140058814777251>

0000000080205532 <.Lpcrel_hi38>:
    80205532:	0000a517          	auipc	a0,0xa
    80205536:	88e50513          	addi	a0,a0,-1906 # 8020edc0 <.Lanon.d9326b764caf953d246fe4d565aa4f71.15>
    8020553a:	f2a43023          	sd	a0,-224(s0)
    8020553e:	f3843423          	sd	s8,-216(s0)
    80205542:	f4043023          	sd	zero,-192(s0)
    80205546:	4aa1                	li	s5,8
    80205548:	f3543823          	sd	s5,-208(s0)
    8020554c:	f2043c23          	sd	zero,-200(s0)
    80205550:	f2040513          	addi	a0,s0,-224
    80205554:	00002097          	auipc	ra,0x2
    80205558:	2d6080e7          	jalr	726(ra) # 8020782a <_ZN2os7console5print17hb0238f93bcb82e2aE>
    8020555c:	e6043503          	ld	a0,-416(s0)
    80205560:	01957533          	and	a0,a0,s9
    80205564:	954e                	add	a0,a0,s3
    80205566:	8131                	srli	a0,a0,0xc
    80205568:	e6843583          	ld	a1,-408(s0)
    8020556c:	81b1                	srli	a1,a1,0xc
    8020556e:	0125f5b3          	and	a1,a1,s2
    80205572:	f8b43823          	sd	a1,-112(s0)
    80205576:	eea43c23          	sd	a0,-264(s0)
    8020557a:	2ab56163          	bltu	a0,a1,8020581c <.Lpcrel_hi37+0x14>
    8020557e:	f2b43023          	sd	a1,-224(s0)
    80205582:	f2a43423          	sd	a0,-216(s0)
    80205586:	f2043823          	sd	zero,-208(s0)
    8020558a:	f4043023          	sd	zero,-192(s0)
    8020558e:	4a09                	li	s4,2
    80205590:	f5441423          	sh	s4,-184(s0)
    80205594:	e8840513          	addi	a0,s0,-376
    80205598:	f2040593          	addi	a1,s0,-224
    8020559c:	4601                	li	a2,0
    8020559e:	00000097          	auipc	ra,0x0
    802055a2:	900080e7          	jalr	-1792(ra) # 80204e9e <_ZN2os2mm10memory_set9MemorySet4push17h213b40d2e087ac5cE.llvm.3597140058814777251>

00000000802055a6 <.Lpcrel_hi42>:
    802055a6:	0000a517          	auipc	a0,0xa
    802055aa:	84250513          	addi	a0,a0,-1982 # 8020ede8 <.Lanon.d9326b764caf953d246fe4d565aa4f71.17>
    802055ae:	f2a43023          	sd	a0,-224(s0)
    802055b2:	4485                	li	s1,1
    802055b4:	f2943423          	sd	s1,-216(s0)
    802055b8:	f4043023          	sd	zero,-192(s0)
    802055bc:	f3543823          	sd	s5,-208(s0)
    802055c0:	f2043c23          	sd	zero,-200(s0)
    802055c4:	f2040513          	addi	a0,s0,-224
    802055c8:	00002097          	auipc	ra,0x2
    802055cc:	262080e7          	jalr	610(ra) # 8020782a <_ZN2os7console5print17hb0238f93bcb82e2aE>
    802055d0:	e5043503          	ld	a0,-432(s0)
    802055d4:	01957533          	and	a0,a0,s9
    802055d8:	954e                	add	a0,a0,s3
    802055da:	8131                	srli	a0,a0,0xc
    802055dc:	e5843583          	ld	a1,-424(s0)
    802055e0:	81b1                	srli	a1,a1,0xc
    802055e2:	0125f5b3          	and	a1,a1,s2
    802055e6:	f8b43823          	sd	a1,-112(s0)
    802055ea:	eea43c23          	sd	a0,-264(s0)
    802055ee:	28b56363          	bltu	a0,a1,80205874 <.Lpcrel_hi41+0x14>
    802055f2:	f2b43023          	sd	a1,-224(s0)
    802055f6:	f2a43423          	sd	a0,-216(s0)
    802055fa:	f2043823          	sd	zero,-208(s0)
    802055fe:	f4043023          	sd	zero,-192(s0)
    80205602:	4a19                	li	s4,6
    80205604:	f5441423          	sh	s4,-184(s0)
    80205608:	e8840513          	addi	a0,s0,-376
    8020560c:	f2040593          	addi	a1,s0,-224
    80205610:	4601                	li	a2,0
    80205612:	00000097          	auipc	ra,0x0
    80205616:	88c080e7          	jalr	-1908(ra) # 80204e9e <_ZN2os2mm10memory_set9MemorySet4push17h213b40d2e087ac5cE.llvm.3597140058814777251>

000000008020561a <.Lpcrel_hi46>:
    8020561a:	00009517          	auipc	a0,0x9
    8020561e:	7f650513          	addi	a0,a0,2038 # 8020ee10 <.Lanon.d9326b764caf953d246fe4d565aa4f71.19>
    80205622:	f2a43023          	sd	a0,-224(s0)
    80205626:	f2943423          	sd	s1,-216(s0)
    8020562a:	f4043023          	sd	zero,-192(s0)
    8020562e:	44a1                	li	s1,8
    80205630:	f2943823          	sd	s1,-208(s0)
    80205634:	f2043c23          	sd	zero,-200(s0)
    80205638:	f2040513          	addi	a0,s0,-224
    8020563c:	00002097          	auipc	ra,0x2
    80205640:	1ee080e7          	jalr	494(ra) # 8020782a <_ZN2os7console5print17hb0238f93bcb82e2aE>
    80205644:	019d7533          	and	a0,s10,s9
    80205648:	954e                	add	a0,a0,s3
    8020564a:	8131                	srli	a0,a0,0xc
    8020564c:	e4843583          	ld	a1,-440(s0)
    80205650:	81b1                	srli	a1,a1,0xc
    80205652:	0125f5b3          	and	a1,a1,s2
    80205656:	f8b43823          	sd	a1,-112(s0)
    8020565a:	eea43c23          	sd	a0,-264(s0)
    8020565e:	26b56663          	bltu	a0,a1,802058ca <.Lpcrel_hi45+0x14>
    80205662:	f2b43023          	sd	a1,-224(s0)
    80205666:	f2a43423          	sd	a0,-216(s0)
    8020566a:	f2043823          	sd	zero,-208(s0)
    8020566e:	f4043023          	sd	zero,-192(s0)
    80205672:	f5441423          	sh	s4,-184(s0)
    80205676:	e8840513          	addi	a0,s0,-376
    8020567a:	f2040593          	addi	a1,s0,-224
    8020567e:	4601                	li	a2,0
    80205680:	00000097          	auipc	ra,0x0
    80205684:	81e080e7          	jalr	-2018(ra) # 80204e9e <_ZN2os2mm10memory_set9MemorySet4push17h213b40d2e087ac5cE.llvm.3597140058814777251>

0000000080205688 <.Lpcrel_hi50>:
    80205688:	00009517          	auipc	a0,0x9
    8020568c:	7b050513          	addi	a0,a0,1968 # 8020ee38 <.Lanon.d9326b764caf953d246fe4d565aa4f71.21>
    80205690:	f2a43023          	sd	a0,-224(s0)
    80205694:	4985                	li	s3,1
    80205696:	f3343423          	sd	s3,-216(s0)
    8020569a:	f4043023          	sd	zero,-192(s0)
    8020569e:	f2943823          	sd	s1,-208(s0)
    802056a2:	f2043c23          	sd	zero,-200(s0)
    802056a6:	f2040513          	addi	a0,s0,-224
    802056aa:	00002097          	auipc	ra,0x2
    802056ae:	180080e7          	jalr	384(ra) # 8020782a <_ZN2os7console5print17hb0238f93bcb82e2aE>

00000000802056b2 <.Lpcrel_hi51>:
    802056b2:	00333517          	auipc	a0,0x333
    802056b6:	94e50513          	addi	a0,a0,-1714 # 80538000 <ebss>
    802056ba:	8131                	srli	a0,a0,0xc
    802056bc:	01257533          	and	a0,a0,s2
    802056c0:	f8a43823          	sd	a0,-112(s0)
    802056c4:	000885b7          	lui	a1,0x88
    802056c8:	0015861b          	addiw	a2,a1,1 # 88001 <$d.52+0x9913>
    802056cc:	eeb43c23          	sd	a1,-264(s0)
    802056d0:	24c57963          	bgeu	a0,a2,80205922 <.Lpcrel_hi49+0x14>
    802056d4:	f2a43023          	sd	a0,-224(s0)
    802056d8:	f2b43423          	sd	a1,-216(s0)
    802056dc:	f2043823          	sd	zero,-208(s0)
    802056e0:	f4043023          	sd	zero,-192(s0)
    802056e4:	4499                	li	s1,6
    802056e6:	f4941423          	sh	s1,-184(s0)
    802056ea:	e8840513          	addi	a0,s0,-376
    802056ee:	f2040593          	addi	a1,s0,-224
    802056f2:	4601                	li	a2,0
    802056f4:	fffff097          	auipc	ra,0xfffff
    802056f8:	7aa080e7          	jalr	1962(ra) # 80204e9e <_ZN2os2mm10memory_set9MemorySet4push17h213b40d2e087ac5cE.llvm.3597140058814777251>

00000000802056fc <.Lpcrel_hi55>:
    802056fc:	00009517          	auipc	a0,0x9
    80205700:	7ac50513          	addi	a0,a0,1964 # 8020eea8 <.Lanon.d9326b764caf953d246fe4d565aa4f71.23>
    80205704:	f2a43023          	sd	a0,-224(s0)
    80205708:	f3343423          	sd	s3,-216(s0)
    8020570c:	f4043023          	sd	zero,-192(s0)
    80205710:	4521                	li	a0,8
    80205712:	f2a43823          	sd	a0,-208(s0)
    80205716:	f2043c23          	sd	zero,-200(s0)
    8020571a:	f2040513          	addi	a0,s0,-224
    8020571e:	00002097          	auipc	ra,0x2
    80205722:	10c080e7          	jalr	268(ra) # 8020782a <_ZN2os7console5print17hb0238f93bcb82e2aE>
    80205726:	10000513          	li	a0,256
    8020572a:	f2a43023          	sd	a0,-224(s0)
    8020572e:	10200513          	li	a0,258
    80205732:	f2a43423          	sd	a0,-216(s0)
    80205736:	f2043823          	sd	zero,-208(s0)
    8020573a:	f4043023          	sd	zero,-192(s0)
    8020573e:	f4941423          	sh	s1,-184(s0)
    80205742:	e8840513          	addi	a0,s0,-376
    80205746:	f2040593          	addi	a1,s0,-224
    8020574a:	4601                	li	a2,0
    8020574c:	fffff097          	auipc	ra,0xfffff
    80205750:	752080e7          	jalr	1874(ra) # 80204e9e <_ZN2os2mm10memory_set9MemorySet4push17h213b40d2e087ac5cE.llvm.3597140058814777251>
    80205754:	eb843503          	ld	a0,-328(s0)
    80205758:	eb043583          	ld	a1,-336(s0)
    8020575c:	ea843603          	ld	a2,-344(s0)
    80205760:	02abb823          	sd	a0,48(s7)
    80205764:	02bbb423          	sd	a1,40(s7)
    80205768:	02cbb023          	sd	a2,32(s7)
    8020576c:	ea043503          	ld	a0,-352(s0)
    80205770:	e9843583          	ld	a1,-360(s0)
    80205774:	e9043603          	ld	a2,-368(s0)
    80205778:	e8843683          	ld	a3,-376(s0)
    8020577c:	00abbc23          	sd	a0,24(s7)
    80205780:	00bbb823          	sd	a1,16(s7)
    80205784:	00cbb423          	sd	a2,8(s7)
    80205788:	00dbb023          	sd	a3,0(s7)
    8020578c:	70fa                	ld	ra,440(sp)
    8020578e:	745a                	ld	s0,432(sp)
    80205790:	74ba                	ld	s1,424(sp)
    80205792:	791a                	ld	s2,416(sp)
    80205794:	69fa                	ld	s3,408(sp)
    80205796:	6a5a                	ld	s4,400(sp)
    80205798:	6aba                	ld	s5,392(sp)
    8020579a:	6b1a                	ld	s6,384(sp)
    8020579c:	7bf6                	ld	s7,376(sp)
    8020579e:	7c56                	ld	s8,368(sp)
    802057a0:	7cb6                	ld	s9,360(sp)
    802057a2:	7d16                	ld	s10,352(sp)
    802057a4:	6df6                	ld	s11,344(sp)
    802057a6:	6139                	addi	sp,sp,448
    802057a8:	8082                	ret
    802057aa:	f2043023          	sd	zero,-224(s0)

00000000802057ae <.Lpcrel_hi19>:
    802057ae:	00009517          	auipc	a0,0x9
    802057b2:	47250613          	addi	a2,a0,1138 # 8020ec20 <anon.143638ba50f3ca5f2997057583b6f6e7.4.llvm.7411291366835535865>

00000000802057b6 <.Lpcrel_hi20>:
    802057b6:	0000a517          	auipc	a0,0xa
    802057ba:	aaa50713          	addi	a4,a0,-1366 # 8020f260 <anon.143638ba50f3ca5f2997057583b6f6e7.7.llvm.7411291366835535865>
    802057be:	ec840593          	addi	a1,s0,-312
    802057c2:	f2040693          	addi	a3,s0,-224
    802057c6:	4501                	li	a0,0
    802057c8:	00002097          	auipc	ra,0x2
    802057cc:	f2a080e7          	jalr	-214(ra) # 802076f2 <_ZN4core9panicking13assert_failed17h15aff8796b99ea85E>
    802057d0:	f9040513          	addi	a0,s0,-112
    802057d4:	eca43423          	sd	a0,-312(s0)

00000000802057d8 <.Lpcrel_hi35>:
    802057d8:	00001517          	auipc	a0,0x1
    802057dc:	b7650513          	addi	a0,a0,-1162 # 8020634e <_ZN65_$LT$os..mm..address..VirtPageNum$u20$as$u20$core..fmt..Debug$GT$3fmt17hc10c9c874bd62f33E>
    802057e0:	eca43823          	sd	a0,-304(s0)
    802057e4:	ed543c23          	sd	s5,-296(s0)
    802057e8:	eea43023          	sd	a0,-288(s0)

00000000802057ec <.Lpcrel_hi36>:
    802057ec:	0000a517          	auipc	a0,0xa
    802057f0:	ab450513          	addi	a0,a0,-1356 # 8020f2a0 <anon.143638ba50f3ca5f2997057583b6f6e7.12.llvm.7411291366835535865>
    802057f4:	f2a43023          	sd	a0,-224(s0)
    802057f8:	f3643423          	sd	s6,-216(s0)
    802057fc:	f4043023          	sd	zero,-192(s0)
    80205800:	f3443823          	sd	s4,-208(s0)
    80205804:	f2943c23          	sd	s1,-200(s0)

0000000080205808 <.Lpcrel_hi37>:
    80205808:	0000a517          	auipc	a0,0xa
    8020580c:	ac850593          	addi	a1,a0,-1336 # 8020f2d0 <anon.143638ba50f3ca5f2997057583b6f6e7.13.llvm.7411291366835535865>
    80205810:	f2040513          	addi	a0,s0,-224
    80205814:	00005097          	auipc	ra,0x5
    80205818:	e38080e7          	jalr	-456(ra) # 8020a64c <_ZN4core9panicking9panic_fmt17hc25dbb51a4d67a42E>
    8020581c:	f9040513          	addi	a0,s0,-112
    80205820:	eca43423          	sd	a0,-312(s0)

0000000080205824 <.Lpcrel_hi39>:
    80205824:	00001517          	auipc	a0,0x1
    80205828:	b2a50513          	addi	a0,a0,-1238 # 8020634e <_ZN65_$LT$os..mm..address..VirtPageNum$u20$as$u20$core..fmt..Debug$GT$3fmt17hc10c9c874bd62f33E>
    8020582c:	eca43823          	sd	a0,-304(s0)
    80205830:	ef840593          	addi	a1,s0,-264
    80205834:	ecb43c23          	sd	a1,-296(s0)
    80205838:	eea43023          	sd	a0,-288(s0)

000000008020583c <.Lpcrel_hi40>:
    8020583c:	0000a517          	auipc	a0,0xa
    80205840:	a6450513          	addi	a0,a0,-1436 # 8020f2a0 <anon.143638ba50f3ca5f2997057583b6f6e7.12.llvm.7411291366835535865>
    80205844:	f2a43023          	sd	a0,-224(s0)
    80205848:	450d                	li	a0,3
    8020584a:	f2a43423          	sd	a0,-216(s0)
    8020584e:	f4043023          	sd	zero,-192(s0)
    80205852:	ec840513          	addi	a0,s0,-312
    80205856:	f2a43823          	sd	a0,-208(s0)
    8020585a:	4509                	li	a0,2
    8020585c:	f2a43c23          	sd	a0,-200(s0)

0000000080205860 <.Lpcrel_hi41>:
    80205860:	0000a517          	auipc	a0,0xa
    80205864:	a7050593          	addi	a1,a0,-1424 # 8020f2d0 <anon.143638ba50f3ca5f2997057583b6f6e7.13.llvm.7411291366835535865>
    80205868:	f2040513          	addi	a0,s0,-224
    8020586c:	00005097          	auipc	ra,0x5
    80205870:	de0080e7          	jalr	-544(ra) # 8020a64c <_ZN4core9panicking9panic_fmt17hc25dbb51a4d67a42E>
    80205874:	f9040513          	addi	a0,s0,-112
    80205878:	eca43423          	sd	a0,-312(s0)

000000008020587c <.Lpcrel_hi43>:
    8020587c:	00001517          	auipc	a0,0x1
    80205880:	ad250513          	addi	a0,a0,-1326 # 8020634e <_ZN65_$LT$os..mm..address..VirtPageNum$u20$as$u20$core..fmt..Debug$GT$3fmt17hc10c9c874bd62f33E>
    80205884:	eca43823          	sd	a0,-304(s0)
    80205888:	ef840593          	addi	a1,s0,-264
    8020588c:	ecb43c23          	sd	a1,-296(s0)
    80205890:	eea43023          	sd	a0,-288(s0)

0000000080205894 <.Lpcrel_hi44>:
    80205894:	0000a517          	auipc	a0,0xa
    80205898:	a0c50513          	addi	a0,a0,-1524 # 8020f2a0 <anon.143638ba50f3ca5f2997057583b6f6e7.12.llvm.7411291366835535865>
    8020589c:	f2a43023          	sd	a0,-224(s0)
    802058a0:	450d                	li	a0,3
    802058a2:	f2a43423          	sd	a0,-216(s0)
    802058a6:	f4043023          	sd	zero,-192(s0)
    802058aa:	ec840513          	addi	a0,s0,-312
    802058ae:	f2a43823          	sd	a0,-208(s0)
    802058b2:	f3443c23          	sd	s4,-200(s0)

00000000802058b6 <.Lpcrel_hi45>:
    802058b6:	0000a517          	auipc	a0,0xa
    802058ba:	a1a50593          	addi	a1,a0,-1510 # 8020f2d0 <anon.143638ba50f3ca5f2997057583b6f6e7.13.llvm.7411291366835535865>
    802058be:	f2040513          	addi	a0,s0,-224
    802058c2:	00005097          	auipc	ra,0x5
    802058c6:	d8a080e7          	jalr	-630(ra) # 8020a64c <_ZN4core9panicking9panic_fmt17hc25dbb51a4d67a42E>
    802058ca:	f9040513          	addi	a0,s0,-112
    802058ce:	eca43423          	sd	a0,-312(s0)

00000000802058d2 <.Lpcrel_hi47>:
    802058d2:	00001517          	auipc	a0,0x1
    802058d6:	a7c50513          	addi	a0,a0,-1412 # 8020634e <_ZN65_$LT$os..mm..address..VirtPageNum$u20$as$u20$core..fmt..Debug$GT$3fmt17hc10c9c874bd62f33E>
    802058da:	eca43823          	sd	a0,-304(s0)
    802058de:	ef840593          	addi	a1,s0,-264
    802058e2:	ecb43c23          	sd	a1,-296(s0)
    802058e6:	eea43023          	sd	a0,-288(s0)

00000000802058ea <.Lpcrel_hi48>:
    802058ea:	0000a517          	auipc	a0,0xa
    802058ee:	9b650513          	addi	a0,a0,-1610 # 8020f2a0 <anon.143638ba50f3ca5f2997057583b6f6e7.12.llvm.7411291366835535865>
    802058f2:	f2a43023          	sd	a0,-224(s0)
    802058f6:	450d                	li	a0,3
    802058f8:	f2a43423          	sd	a0,-216(s0)
    802058fc:	f4043023          	sd	zero,-192(s0)
    80205900:	ec840513          	addi	a0,s0,-312
    80205904:	f2a43823          	sd	a0,-208(s0)
    80205908:	4509                	li	a0,2
    8020590a:	f2a43c23          	sd	a0,-200(s0)

000000008020590e <.Lpcrel_hi49>:
    8020590e:	0000a517          	auipc	a0,0xa
    80205912:	9c250593          	addi	a1,a0,-1598 # 8020f2d0 <anon.143638ba50f3ca5f2997057583b6f6e7.13.llvm.7411291366835535865>
    80205916:	f2040513          	addi	a0,s0,-224
    8020591a:	00005097          	auipc	ra,0x5
    8020591e:	d32080e7          	jalr	-718(ra) # 8020a64c <_ZN4core9panicking9panic_fmt17hc25dbb51a4d67a42E>
    80205922:	f9040513          	addi	a0,s0,-112
    80205926:	eca43423          	sd	a0,-312(s0)

000000008020592a <.Lpcrel_hi52>:
    8020592a:	00001517          	auipc	a0,0x1
    8020592e:	a2450513          	addi	a0,a0,-1500 # 8020634e <_ZN65_$LT$os..mm..address..VirtPageNum$u20$as$u20$core..fmt..Debug$GT$3fmt17hc10c9c874bd62f33E>
    80205932:	eca43823          	sd	a0,-304(s0)
    80205936:	ef840593          	addi	a1,s0,-264
    8020593a:	ecb43c23          	sd	a1,-296(s0)
    8020593e:	eea43023          	sd	a0,-288(s0)

0000000080205942 <.Lpcrel_hi53>:
    80205942:	0000a517          	auipc	a0,0xa
    80205946:	95e50513          	addi	a0,a0,-1698 # 8020f2a0 <anon.143638ba50f3ca5f2997057583b6f6e7.12.llvm.7411291366835535865>
    8020594a:	f2a43023          	sd	a0,-224(s0)
    8020594e:	450d                	li	a0,3
    80205950:	f2a43423          	sd	a0,-216(s0)
    80205954:	f4043023          	sd	zero,-192(s0)
    80205958:	ec840513          	addi	a0,s0,-312
    8020595c:	f2a43823          	sd	a0,-208(s0)
    80205960:	4509                	li	a0,2
    80205962:	f2a43c23          	sd	a0,-200(s0)

0000000080205966 <.Lpcrel_hi54>:
    80205966:	0000a517          	auipc	a0,0xa
    8020596a:	96a50593          	addi	a1,a0,-1686 # 8020f2d0 <anon.143638ba50f3ca5f2997057583b6f6e7.13.llvm.7411291366835535865>
    8020596e:	f2040513          	addi	a0,s0,-224
    80205972:	00005097          	auipc	ra,0x5
    80205976:	cda080e7          	jalr	-806(ra) # 8020a64c <_ZN4core9panicking9panic_fmt17hc25dbb51a4d67a42E>

000000008020597a <_ZN2os2mm10memory_set9MemorySet8from_elf17h51230dd3d48231cbE>:
    8020597a:	712d                	addi	sp,sp,-288
    8020597c:	ee06                	sd	ra,280(sp)
    8020597e:	ea22                	sd	s0,272(sp)
    80205980:	e626                	sd	s1,264(sp)
    80205982:	e24a                	sd	s2,256(sp)
    80205984:	fdce                	sd	s3,248(sp)
    80205986:	f9d2                	sd	s4,240(sp)
    80205988:	f5d6                	sd	s5,232(sp)
    8020598a:	f1da                	sd	s6,224(sp)
    8020598c:	edde                	sd	s7,216(sp)
    8020598e:	1200                	addi	s0,sp,288
    80205990:	89b2                	mv	s3,a2
    80205992:	84ae                	mv	s1,a1
    80205994:	892a                	mv	s2,a0
    80205996:	6a05                	lui	s4,0x1
    80205998:	3a7d                	addiw	s4,s4,-1 # fff <$d.12+0xae>
    8020599a:	ee040513          	addi	a0,s0,-288
    8020599e:	ffffe097          	auipc	ra,0xffffe
    802059a2:	d56080e7          	jalr	-682(ra) # 802036f4 <_ZN2os2mm10page_table9PageTable3new17h5fd3c51769ca48f7E>
    802059a6:	f0043023          	sd	zero,-256(s0)
    802059aa:	4521                	li	a0,8
    802059ac:	f0a43423          	sd	a0,-248(s0)
    802059b0:	f0043823          	sd	zero,-240(s0)

00000000802059b4 <.Lpcrel_hi56>:
    802059b4:	ffffb517          	auipc	a0,0xffffb
    802059b8:	64c50513          	addi	a0,a0,1612 # 80201000 <__alltraps>
    802059bc:	014575b3          	and	a1,a0,s4
    802059c0:	f0b43c23          	sd	a1,-232(s0)
    802059c4:	38059b63          	bnez	a1,80205d5a <.Lpcrel_hi77+0x12>
    802059c8:	0522                	slli	a0,a0,0x8
    802059ca:	01455613          	srli	a2,a0,0x14
    802059ce:	080005b7          	lui	a1,0x8000
    802059d2:	35fd                	addiw	a1,a1,-1 # 7ffffff <$d.6+0x7f391a4>
    802059d4:	ee040513          	addi	a0,s0,-288
    802059d8:	46a9                	li	a3,10
    802059da:	ffffe097          	auipc	ra,0xffffe
    802059de:	e10080e7          	jalr	-496(ra) # 802037ea <_ZN2os2mm10page_table9PageTable3map17h9f6318b9af8290eaE>
    802059e2:	f6840513          	addi	a0,s0,-152
    802059e6:	85a6                	mv	a1,s1
    802059e8:	864e                	mv	a2,s3
    802059ea:	00004097          	auipc	ra,0x4
    802059ee:	c58080e7          	jalr	-936(ra) # 80209642 <_ZN8xmas_elf7ElfFile3new17h1f205622b316dc1eE>
    802059f2:	f6843503          	ld	a0,-152(s0)
    802059f6:	4589                	li	a1,2
    802059f8:	38b50463          	beq	a0,a1,80205d80 <.Lpcrel_hi58+0x1a>
    802059fc:	f8843503          	ld	a0,-120(s0)
    80205a00:	f2a43c23          	sd	a0,-200(s0)
    80205a04:	f8043603          	ld	a2,-128(s0)
    80205a08:	f7843683          	ld	a3,-136(s0)
    80205a0c:	f7043503          	ld	a0,-144(s0)
    80205a10:	f6843583          	ld	a1,-152(s0)
    80205a14:	f2c43823          	sd	a2,-208(s0)
    80205a18:	f2d43423          	sd	a3,-216(s0)
    80205a1c:	f2a43023          	sd	a0,-224(s0)
    80205a20:	f0b43c23          	sd	a1,-232(s0)
    80205a24:	0016c603          	lbu	a2,1(a3)
    80205a28:	0006c703          	lbu	a4,0(a3)
    80205a2c:	0026c783          	lbu	a5,2(a3)
    80205a30:	00368683          	lb	a3,3(a3)
    80205a34:	0622                	slli	a2,a2,0x8
    80205a36:	8e59                	or	a2,a2,a4
    80205a38:	07c2                	slli	a5,a5,0x10
    80205a3a:	06e2                	slli	a3,a3,0x18
    80205a3c:	8edd                	or	a3,a3,a5
    80205a3e:	8e55                	or	a2,a2,a3
    80205a40:	464c46b7          	lui	a3,0x464c4
    80205a44:	57f6869b          	addiw	a3,a3,1407 # 464c457f <$d.6+0x463fd724>
    80205a48:	f4c42223          	sw	a2,-188(s0)
    80205a4c:	36d61663          	bne	a2,a3,80205db8 <.Lpcrel_hi62>
    80205a50:	4671                	li	a2,28
    80205a52:	c199                	beqz	a1,80205a58 <.Lpcrel_hi56+0xa4>
    80205a54:	02800613          	li	a2,40
    80205a58:	9532                	add	a0,a0,a2
    80205a5a:	00055983          	lhu	s3,0(a0)
    80205a5e:	12098f63          	beqz	s3,80205b9c <.Lpcrel_hi78+0x28>
    80205a62:	4b81                	li	s7,0
    80205a64:	4481                	li	s1,0
    80205a66:	557d                	li	a0,-1
    80205a68:	01955a93          	srli	s5,a0,0x19
    80205a6c:	4b05                	li	s6,1
    80205a6e:	a015                	j	80205a92 <.Lpcrel_hi56+0xde>
    80205a70:	f3043603          	ld	a2,-208(s0)
    80205a74:	962a                	add	a2,a2,a0
    80205a76:	ee040513          	addi	a0,s0,-288
    80205a7a:	f6840593          	addi	a1,s0,-152
    80205a7e:	fffff097          	auipc	ra,0xfffff
    80205a82:	420080e7          	jalr	1056(ra) # 80204e9e <_ZN2os2mm10memory_set9MemorySet4push17h213b40d2e087ac5cE.llvm.3597140058814777251>
    80205a86:	0485                	addi	s1,s1,1
    80205a88:	03049513          	slli	a0,s1,0x30
    80205a8c:	9141                	srli	a0,a0,0x30
    80205a8e:	0f357c63          	bgeu	a0,s3,80205b86 <.Lpcrel_hi78+0x12>
    80205a92:	f6840513          	addi	a0,s0,-152
    80205a96:	f1840593          	addi	a1,s0,-232
    80205a9a:	8626                	mv	a2,s1
    80205a9c:	00004097          	auipc	ra,0x4
    80205aa0:	cc2080e7          	jalr	-830(ra) # 8020975e <_ZN8xmas_elf7ElfFile14program_header17h49dc9f191633e312E>
    80205aa4:	f6843503          	ld	a0,-152(s0)
    80205aa8:	20051863          	bnez	a0,80205cb8 <.Lpcrel_hi73+0x18>
    80205aac:	f7043503          	ld	a0,-144(s0)
    80205ab0:	f7843583          	ld	a1,-136(s0)
    80205ab4:	f4a43423          	sd	a0,-184(s0)
    80205ab8:	f4b43823          	sd	a1,-176(s0)
    80205abc:	f9840513          	addi	a0,s0,-104
    80205ac0:	f4840593          	addi	a1,s0,-184
    80205ac4:	00004097          	auipc	ra,0x4
    80205ac8:	e68080e7          	jalr	-408(ra) # 8020992c <_ZN8xmas_elf7program13ProgramHeader8get_type17h631d57fe87e2a30cE>
    80205acc:	f9843503          	ld	a0,-104(s0)
    80205ad0:	1a051a63          	bnez	a0,80205c84 <.Lpcrel_hi78+0x110>
    80205ad4:	fa042503          	lw	a0,-96(s0)
    80205ad8:	fb6517e3          	bne	a0,s6,80205a86 <.Lpcrel_hi56+0xd2>
    80205adc:	f4843503          	ld	a0,-184(s0)
    80205ae0:	f5043583          	ld	a1,-176(s0)
    80205ae4:	c519                	beqz	a0,80205af2 <.Lpcrel_hi56+0x13e>
    80205ae6:	6990                	ld	a2,16(a1)
    80205ae8:	7598                	ld	a4,40(a1)
    80205aea:	015676b3          	and	a3,a2,s5
    80205aee:	4791                	li	a5,4
    80205af0:	a039                	j	80205afe <.Lpcrel_hi56+0x14a>
    80205af2:	0085e603          	lwu	a2,8(a1)
    80205af6:	0145e703          	lwu	a4,20(a1)
    80205afa:	47e1                	li	a5,24
    80205afc:	86b2                	mv	a3,a2
    80205afe:	963a                	add	a2,a2,a4
    80205b00:	01567733          	and	a4,a2,s5
    80205b04:	97ae                	add	a5,a5,a1
    80205b06:	4390                	lw	a2,0(a5)
    80205b08:	9752                	add	a4,a4,s4
    80205b0a:	00c75b93          	srli	s7,a4,0xc
    80205b0e:	82b1                	srli	a3,a3,0xc
    80205b10:	f4d43c23          	sd	a3,-168(s0)
    80205b14:	f7743023          	sd	s7,-160(s0)
    80205b18:	1cdbec63          	bltu	s7,a3,80205cf0 <.Lpcrel_hi70+0x18>
    80205b1c:	00467793          	andi	a5,a2,4
    80205b20:	4741                	li	a4,16
    80205b22:	c391                	beqz	a5,80205b26 <.Lpcrel_hi56+0x172>
    80205b24:	4749                	li	a4,18
    80205b26:	00161793          	slli	a5,a2,0x1
    80205b2a:	8b91                	andi	a5,a5,4
    80205b2c:	8f5d                	or	a4,a4,a5
    80205b2e:	060e                	slli	a2,a2,0x3
    80205b30:	8a21                	andi	a2,a2,8
    80205b32:	8e59                	or	a2,a2,a4
    80205b34:	f6d43423          	sd	a3,-152(s0)
    80205b38:	f7743823          	sd	s7,-144(s0)
    80205b3c:	f6043c23          	sd	zero,-136(s0)
    80205b40:	f8043423          	sd	zero,-120(s0)
    80205b44:	f8c40823          	sb	a2,-112(s0)
    80205b48:	f96408a3          	sb	s6,-111(s0)
    80205b4c:	c901                	beqz	a0,80205b5c <.Lpcrel_hi56+0x1a8>
    80205b4e:	6588                	ld	a0,8(a1)
    80205b50:	7194                	ld	a3,32(a1)
    80205b52:	00a68733          	add	a4,a3,a0
    80205b56:	00d77b63          	bgeu	a4,a3,80205b6c <.Lpcrel_hi56+0x1b8>
    80205b5a:	a2fd                	j	80205d48 <.Lpcrel_hi77>
    80205b5c:	0045e503          	lwu	a0,4(a1)
    80205b60:	0105e683          	lwu	a3,16(a1)
    80205b64:	00a68733          	add	a4,a3,a0
    80205b68:	1ed76063          	bltu	a4,a3,80205d48 <.Lpcrel_hi77>
    80205b6c:	f3843583          	ld	a1,-200(s0)
    80205b70:	f0e5f0e3          	bgeu	a1,a4,80205a70 <.Lpcrel_hi56+0xbc>

0000000080205b74 <.Lpcrel_hi78>:
    80205b74:	00009517          	auipc	a0,0x9
    80205b78:	37c50613          	addi	a2,a0,892 # 8020eef0 <.Lanon.d9326b764caf953d246fe4d565aa4f71.28>
    80205b7c:	853a                	mv	a0,a4
    80205b7e:	00006097          	auipc	ra,0x6
    80205b82:	168080e7          	jalr	360(ra) # 8020bce6 <_ZN4core5slice5index24slice_end_index_len_fail17h4f74974912d1b932E>
    80205b86:	0bb2                	slli	s7,s7,0xc
    80205b88:	026bd513          	srli	a0,s7,0x26
    80205b8c:	00153513          	seqz	a0,a0
    80205b90:	157d                	addi	a0,a0,-1
    80205b92:	911d                	srli	a0,a0,0x27
    80205b94:	151e                	slli	a0,a0,0x27
    80205b96:	00abe4b3          	or	s1,s7,a0
    80205b9a:	a011                	j	80205b9e <.Lpcrel_hi78+0x2a>
    80205b9c:	4481                	li	s1,0
    80205b9e:	6505                	lui	a0,0x1
    80205ba0:	00a485b3          	add	a1,s1,a0
    80205ba4:	650d                	lui	a0,0x3
    80205ba6:	94aa                	add	s1,s1,a0
    80205ba8:	01949513          	slli	a0,s1,0x19
    80205bac:	9115                	srli	a0,a0,0x25
    80205bae:	05e6                	slli	a1,a1,0x19
    80205bb0:	9195                	srli	a1,a1,0x25
    80205bb2:	f6b43023          	sd	a1,-160(s0)
    80205bb6:	f4a43423          	sd	a0,-184(s0)
    80205bba:	24b56063          	bltu	a0,a1,80205dfa <.Lpcrel_hi64+0x1a>
    80205bbe:	f6b43423          	sd	a1,-152(s0)
    80205bc2:	f6a43823          	sd	a0,-144(s0)
    80205bc6:	f6043c23          	sd	zero,-136(s0)
    80205bca:	f8043423          	sd	zero,-120(s0)
    80205bce:	11600513          	li	a0,278
    80205bd2:	f8a41823          	sh	a0,-112(s0)
    80205bd6:	ee040513          	addi	a0,s0,-288
    80205bda:	f6840593          	addi	a1,s0,-152
    80205bde:	4601                	li	a2,0
    80205be0:	fffff097          	auipc	ra,0xfffff
    80205be4:	2be080e7          	jalr	702(ra) # 80204e9e <_ZN2os2mm10memory_set9MemorySet4push17h213b40d2e087ac5cE.llvm.3597140058814777251>
    80205be8:	08000537          	lui	a0,0x8000
    80205bec:	ffe5059b          	addiw	a1,a0,-2 # 7fffffe <$d.6+0x7f391a3>
    80205bf0:	f6b43423          	sd	a1,-152(s0)
    80205bf4:	357d                	addiw	a0,a0,-1
    80205bf6:	f6a43823          	sd	a0,-144(s0)
    80205bfa:	f6043c23          	sd	zero,-136(s0)
    80205bfe:	f8043423          	sd	zero,-120(s0)
    80205c02:	10600513          	li	a0,262
    80205c06:	f8a41823          	sh	a0,-112(s0)
    80205c0a:	ee040513          	addi	a0,s0,-288
    80205c0e:	f6840593          	addi	a1,s0,-152
    80205c12:	4601                	li	a2,0
    80205c14:	fffff097          	auipc	ra,0xfffff
    80205c18:	28a080e7          	jalr	650(ra) # 80204e9e <_ZN2os2mm10memory_set9MemorySet4push17h213b40d2e087ac5cE.llvm.3597140058814777251>
    80205c1c:	f1843583          	ld	a1,-232(s0)
    80205c20:	f2043503          	ld	a0,-224(s0)
    80205c24:	c199                	beqz	a1,80205c2a <.Lpcrel_hi78+0xb6>
    80205c26:	6508                	ld	a0,8(a0)
    80205c28:	a019                	j	80205c2e <.Lpcrel_hi78+0xba>
    80205c2a:	00856503          	lwu	a0,8(a0)
    80205c2e:	f1043583          	ld	a1,-240(s0)
    80205c32:	f0843603          	ld	a2,-248(s0)
    80205c36:	f0043683          	ld	a3,-256(s0)
    80205c3a:	02b93823          	sd	a1,48(s2)
    80205c3e:	02c93423          	sd	a2,40(s2)
    80205c42:	02d93023          	sd	a3,32(s2)
    80205c46:	ef843583          	ld	a1,-264(s0)
    80205c4a:	ef043603          	ld	a2,-272(s0)
    80205c4e:	ee843683          	ld	a3,-280(s0)
    80205c52:	ee043703          	ld	a4,-288(s0)
    80205c56:	00b93c23          	sd	a1,24(s2)
    80205c5a:	00c93823          	sd	a2,16(s2)
    80205c5e:	00d93423          	sd	a3,8(s2)
    80205c62:	00e93023          	sd	a4,0(s2)
    80205c66:	02993c23          	sd	s1,56(s2)
    80205c6a:	04a93023          	sd	a0,64(s2)
    80205c6e:	60f2                	ld	ra,280(sp)
    80205c70:	6452                	ld	s0,272(sp)
    80205c72:	64b2                	ld	s1,264(sp)
    80205c74:	6912                	ld	s2,256(sp)
    80205c76:	79ee                	ld	s3,248(sp)
    80205c78:	7a4e                	ld	s4,240(sp)
    80205c7a:	7aae                	ld	s5,232(sp)
    80205c7c:	7b0e                	ld	s6,224(sp)
    80205c7e:	6bee                	ld	s7,216(sp)
    80205c80:	6115                	addi	sp,sp,288
    80205c82:	8082                	ret
    80205c84:	fa043583          	ld	a1,-96(s0)
    80205c88:	f6a43423          	sd	a0,-152(s0)
    80205c8c:	f6b43823          	sd	a1,-144(s0)

0000000080205c90 <.Lpcrel_hi71>:
    80205c90:	00009517          	auipc	a0,0x9
    80205c94:	27850513          	addi	a0,a0,632 # 8020ef08 <.Lanon.d9326b764caf953d246fe4d565aa4f71.29>

0000000080205c98 <.Lpcrel_hi72>:
    80205c98:	00009597          	auipc	a1,0x9
    80205c9c:	2a058693          	addi	a3,a1,672 # 8020ef38 <.Lanon.d9326b764caf953d246fe4d565aa4f71.30>

0000000080205ca0 <.Lpcrel_hi73>:
    80205ca0:	00009597          	auipc	a1,0x9
    80205ca4:	2b858713          	addi	a4,a1,696 # 8020ef58 <.Lanon.d9326b764caf953d246fe4d565aa4f71.31>
    80205ca8:	02b00593          	li	a1,43
    80205cac:	f6840613          	addi	a2,s0,-152
    80205cb0:	00005097          	auipc	ra,0x5
    80205cb4:	be8080e7          	jalr	-1048(ra) # 8020a898 <_ZN4core6result13unwrap_failed17h68f4211cf4faa05bE>
    80205cb8:	f7043503          	ld	a0,-144(s0)
    80205cbc:	f7843583          	ld	a1,-136(s0)
    80205cc0:	f8a43c23          	sd	a0,-104(s0)
    80205cc4:	fab43023          	sd	a1,-96(s0)

0000000080205cc8 <.Lpcrel_hi68>:
    80205cc8:	00009517          	auipc	a0,0x9
    80205ccc:	24050513          	addi	a0,a0,576 # 8020ef08 <.Lanon.d9326b764caf953d246fe4d565aa4f71.29>

0000000080205cd0 <.Lpcrel_hi69>:
    80205cd0:	00009597          	auipc	a1,0x9
    80205cd4:	26858693          	addi	a3,a1,616 # 8020ef38 <.Lanon.d9326b764caf953d246fe4d565aa4f71.30>

0000000080205cd8 <.Lpcrel_hi70>:
    80205cd8:	00009597          	auipc	a1,0x9
    80205cdc:	29858713          	addi	a4,a1,664 # 8020ef70 <.Lanon.d9326b764caf953d246fe4d565aa4f71.32>
    80205ce0:	02b00593          	li	a1,43
    80205ce4:	f9840613          	addi	a2,s0,-104
    80205ce8:	00005097          	auipc	ra,0x5
    80205cec:	bb0080e7          	jalr	-1104(ra) # 8020a898 <_ZN4core6result13unwrap_failed17h68f4211cf4faa05bE>
    80205cf0:	f5840513          	addi	a0,s0,-168
    80205cf4:	f8a43c23          	sd	a0,-104(s0)

0000000080205cf8 <.Lpcrel_hi74>:
    80205cf8:	00000517          	auipc	a0,0x0
    80205cfc:	65650513          	addi	a0,a0,1622 # 8020634e <_ZN65_$LT$os..mm..address..VirtPageNum$u20$as$u20$core..fmt..Debug$GT$3fmt17hc10c9c874bd62f33E>
    80205d00:	faa43023          	sd	a0,-96(s0)
    80205d04:	f6040593          	addi	a1,s0,-160
    80205d08:	fab43423          	sd	a1,-88(s0)
    80205d0c:	faa43823          	sd	a0,-80(s0)

0000000080205d10 <.Lpcrel_hi75>:
    80205d10:	00009517          	auipc	a0,0x9
    80205d14:	59050513          	addi	a0,a0,1424 # 8020f2a0 <anon.143638ba50f3ca5f2997057583b6f6e7.12.llvm.7411291366835535865>
    80205d18:	f6a43423          	sd	a0,-152(s0)
    80205d1c:	450d                	li	a0,3
    80205d1e:	f6a43823          	sd	a0,-144(s0)
    80205d22:	f8043423          	sd	zero,-120(s0)
    80205d26:	f9840513          	addi	a0,s0,-104
    80205d2a:	f6a43c23          	sd	a0,-136(s0)
    80205d2e:	4509                	li	a0,2
    80205d30:	f8a43023          	sd	a0,-128(s0)

0000000080205d34 <.Lpcrel_hi76>:
    80205d34:	00009517          	auipc	a0,0x9
    80205d38:	59c50593          	addi	a1,a0,1436 # 8020f2d0 <anon.143638ba50f3ca5f2997057583b6f6e7.13.llvm.7411291366835535865>
    80205d3c:	f6840513          	addi	a0,s0,-152
    80205d40:	00005097          	auipc	ra,0x5
    80205d44:	90c080e7          	jalr	-1780(ra) # 8020a64c <_ZN4core9panicking9panic_fmt17hc25dbb51a4d67a42E>

0000000080205d48 <.Lpcrel_hi77>:
    80205d48:	00009597          	auipc	a1,0x9
    80205d4c:	1a858613          	addi	a2,a1,424 # 8020eef0 <.Lanon.d9326b764caf953d246fe4d565aa4f71.28>
    80205d50:	85ba                	mv	a1,a4
    80205d52:	00006097          	auipc	ra,0x6
    80205d56:	004080e7          	jalr	4(ra) # 8020bd56 <_ZN4core5slice5index22slice_index_order_fail17h883be29a657f36f8E>
    80205d5a:	f6043423          	sd	zero,-152(s0)

0000000080205d5e <.Lpcrel_hi57>:
    80205d5e:	00009517          	auipc	a0,0x9
    80205d62:	ec250613          	addi	a2,a0,-318 # 8020ec20 <anon.143638ba50f3ca5f2997057583b6f6e7.4.llvm.7411291366835535865>

0000000080205d66 <.Lpcrel_hi58>:
    80205d66:	00009517          	auipc	a0,0x9
    80205d6a:	4fa50713          	addi	a4,a0,1274 # 8020f260 <anon.143638ba50f3ca5f2997057583b6f6e7.7.llvm.7411291366835535865>
    80205d6e:	f1840593          	addi	a1,s0,-232
    80205d72:	f6840693          	addi	a3,s0,-152
    80205d76:	4501                	li	a0,0
    80205d78:	00002097          	auipc	ra,0x2
    80205d7c:	97a080e7          	jalr	-1670(ra) # 802076f2 <_ZN4core9panicking13assert_failed17h15aff8796b99ea85E>
    80205d80:	f7043503          	ld	a0,-144(s0)
    80205d84:	f7843583          	ld	a1,-136(s0)
    80205d88:	f0a43c23          	sd	a0,-232(s0)
    80205d8c:	f2b43023          	sd	a1,-224(s0)

0000000080205d90 <.Lpcrel_hi59>:
    80205d90:	00009517          	auipc	a0,0x9
    80205d94:	17850513          	addi	a0,a0,376 # 8020ef08 <.Lanon.d9326b764caf953d246fe4d565aa4f71.29>

0000000080205d98 <.Lpcrel_hi60>:
    80205d98:	00009597          	auipc	a1,0x9
    80205d9c:	1a058693          	addi	a3,a1,416 # 8020ef38 <.Lanon.d9326b764caf953d246fe4d565aa4f71.30>

0000000080205da0 <.Lpcrel_hi61>:
    80205da0:	00009597          	auipc	a1,0x9
    80205da4:	1e858713          	addi	a4,a1,488 # 8020ef88 <.Lanon.d9326b764caf953d246fe4d565aa4f71.33>
    80205da8:	02b00593          	li	a1,43
    80205dac:	f1840613          	addi	a2,s0,-232
    80205db0:	00005097          	auipc	ra,0x5
    80205db4:	ae8080e7          	jalr	-1304(ra) # 8020a898 <_ZN4core6result13unwrap_failed17h68f4211cf4faa05bE>

0000000080205db8 <.Lpcrel_hi62>:
    80205db8:	00009517          	auipc	a0,0x9
    80205dbc:	11050513          	addi	a0,a0,272 # 8020eec8 <.Lanon.d9326b764caf953d246fe4d565aa4f71.26>
    80205dc0:	f6a43423          	sd	a0,-152(s0)
    80205dc4:	4505                	li	a0,1
    80205dc6:	f6a43823          	sd	a0,-144(s0)
    80205dca:	4521                	li	a0,8
    80205dcc:	f6a43c23          	sd	a0,-136(s0)
    80205dd0:	f8043023          	sd	zero,-128(s0)
    80205dd4:	f8043423          	sd	zero,-120(s0)

0000000080205dd8 <.Lpcrel_hi63>:
    80205dd8:	00009517          	auipc	a0,0x9
    80205ddc:	99450613          	addi	a2,a0,-1644 # 8020e76c <$d.36>

0000000080205de0 <.Lpcrel_hi64>:
    80205de0:	00009517          	auipc	a0,0x9
    80205de4:	0f850713          	addi	a4,a0,248 # 8020eed8 <.Lanon.d9326b764caf953d246fe4d565aa4f71.27>
    80205de8:	f4440593          	addi	a1,s0,-188
    80205dec:	f6840693          	addi	a3,s0,-152
    80205df0:	4501                	li	a0,0
    80205df2:	00002097          	auipc	ra,0x2
    80205df6:	92e080e7          	jalr	-1746(ra) # 80207720 <_ZN4core9panicking13assert_failed17h2a35b697366b8d2fE>
    80205dfa:	f6040513          	addi	a0,s0,-160
    80205dfe:	f8a43c23          	sd	a0,-104(s0)

0000000080205e02 <.Lpcrel_hi65>:
    80205e02:	00000517          	auipc	a0,0x0
    80205e06:	54c50513          	addi	a0,a0,1356 # 8020634e <_ZN65_$LT$os..mm..address..VirtPageNum$u20$as$u20$core..fmt..Debug$GT$3fmt17hc10c9c874bd62f33E>
    80205e0a:	faa43023          	sd	a0,-96(s0)
    80205e0e:	f4840593          	addi	a1,s0,-184
    80205e12:	fab43423          	sd	a1,-88(s0)
    80205e16:	faa43823          	sd	a0,-80(s0)

0000000080205e1a <.Lpcrel_hi66>:
    80205e1a:	00009517          	auipc	a0,0x9
    80205e1e:	48650513          	addi	a0,a0,1158 # 8020f2a0 <anon.143638ba50f3ca5f2997057583b6f6e7.12.llvm.7411291366835535865>
    80205e22:	f6a43423          	sd	a0,-152(s0)
    80205e26:	450d                	li	a0,3
    80205e28:	f6a43823          	sd	a0,-144(s0)
    80205e2c:	f8043423          	sd	zero,-120(s0)
    80205e30:	f9840513          	addi	a0,s0,-104
    80205e34:	f6a43c23          	sd	a0,-136(s0)
    80205e38:	4509                	li	a0,2
    80205e3a:	f8a43023          	sd	a0,-128(s0)

0000000080205e3e <.Lpcrel_hi67>:
    80205e3e:	00009517          	auipc	a0,0x9
    80205e42:	49250593          	addi	a1,a0,1170 # 8020f2d0 <anon.143638ba50f3ca5f2997057583b6f6e7.13.llvm.7411291366835535865>
    80205e46:	f6840513          	addi	a0,s0,-152
    80205e4a:	00005097          	auipc	ra,0x5
    80205e4e:	802080e7          	jalr	-2046(ra) # 8020a64c <_ZN4core9panicking9panic_fmt17hc25dbb51a4d67a42E>

0000000080205e52 <_ZN2os2mm10memory_set9MemorySet17from_existed_user17ha37a3ba89cdff7efE>:
    80205e52:	712d                	addi	sp,sp,-288
    80205e54:	ee06                	sd	ra,280(sp)
    80205e56:	ea22                	sd	s0,272(sp)
    80205e58:	e626                	sd	s1,264(sp)
    80205e5a:	e24a                	sd	s2,256(sp)
    80205e5c:	fdce                	sd	s3,248(sp)
    80205e5e:	f9d2                	sd	s4,240(sp)
    80205e60:	f5d6                	sd	s5,232(sp)
    80205e62:	f1da                	sd	s6,224(sp)
    80205e64:	edde                	sd	s7,216(sp)
    80205e66:	e9e2                	sd	s8,208(sp)
    80205e68:	1200                	addi	s0,sp,288
    80205e6a:	89ae                	mv	s3,a1
    80205e6c:	892a                	mv	s2,a0
    80205e6e:	ee840513          	addi	a0,s0,-280
    80205e72:	ffffe097          	auipc	ra,0xffffe
    80205e76:	882080e7          	jalr	-1918(ra) # 802036f4 <_ZN2os2mm10page_table9PageTable3new17h5fd3c51769ca48f7E>
    80205e7a:	f0043423          	sd	zero,-248(s0)
    80205e7e:	4521                	li	a0,8
    80205e80:	f0a43823          	sd	a0,-240(s0)
    80205e84:	f0043c23          	sd	zero,-232(s0)

0000000080205e88 <.Lpcrel_hi79>:
    80205e88:	ffffb517          	auipc	a0,0xffffb
    80205e8c:	17850513          	addi	a0,a0,376 # 80201000 <__alltraps>
    80205e90:	03451593          	slli	a1,a0,0x34
    80205e94:	91d1                	srli	a1,a1,0x34
    80205e96:	f8b43823          	sd	a1,-112(s0)
    80205e9a:	1e059763          	bnez	a1,80206088 <.Lpcrel_hi84+0x14>
    80205e9e:	0522                	slli	a0,a0,0x8
    80205ea0:	01455613          	srli	a2,a0,0x14
    80205ea4:	080005b7          	lui	a1,0x8000
    80205ea8:	35fd                	addiw	a1,a1,-1 # 7ffffff <$d.6+0x7f391a4>
    80205eaa:	ee840513          	addi	a0,s0,-280
    80205eae:	46a9                	li	a3,10
    80205eb0:	ffffe097          	auipc	ra,0xffffe
    80205eb4:	93a080e7          	jalr	-1734(ra) # 802037ea <_ZN2os2mm10page_table9PageTable3map17h9f6318b9af8290eaE>
    80205eb8:	0309b503          	ld	a0,48(s3)
    80205ebc:	10050263          	beqz	a0,80205fc0 <.Lpcrel_hi79+0x138>
    80205ec0:	0289ba03          	ld	s4,40(s3)
    80205ec4:	03000593          	li	a1,48
    80205ec8:	02b50533          	mul	a0,a0,a1
    80205ecc:	0189ba83          	ld	s5,24(s3)
    80205ed0:	00aa09b3          	add	s3,s4,a0
    80205ed4:	fff004b7          	lui	s1,0xfff00
    80205ed8:	0084dc13          	srli	s8,s1,0x8
    80205edc:	0ab2                	slli	s5,s5,0xc
    80205ede:	a029                	j	80205ee8 <.Lpcrel_hi79+0x60>
    80205ee0:	030a0a13          	addi	s4,s4,48
    80205ee4:	0d3a0e63          	beq	s4,s3,80205fc0 <.Lpcrel_hi79+0x138>
    80205ee8:	000a3503          	ld	a0,0(s4)
    80205eec:	008a3583          	ld	a1,8(s4)
    80205ef0:	f4a43823          	sd	a0,-176(s0)
    80205ef4:	f4b43c23          	sd	a1,-168(s0)
    80205ef8:	12a5ec63          	bltu	a1,a0,80206030 <.Lpcrel_hi86+0x10>
    80205efc:	028a1603          	lh	a2,40(s4)
    80205f00:	f2a43023          	sd	a0,-224(s0)
    80205f04:	f2b43423          	sd	a1,-216(s0)
    80205f08:	f2043823          	sd	zero,-208(s0)
    80205f0c:	f4043023          	sd	zero,-192(s0)
    80205f10:	f4c41423          	sh	a2,-184(s0)
    80205f14:	ee840513          	addi	a0,s0,-280
    80205f18:	f2040593          	addi	a1,s0,-224
    80205f1c:	4601                	li	a2,0
    80205f1e:	fffff097          	auipc	ra,0xfffff
    80205f22:	f80080e7          	jalr	-128(ra) # 80204e9e <_ZN2os2mm10memory_set9MemorySet4push17h213b40d2e087ac5cE.llvm.3597140058814777251>
    80205f26:	000a3503          	ld	a0,0(s4)
    80205f2a:	008a3b03          	ld	s6,8(s4)
    80205f2e:	fb6509e3          	beq	a0,s6,80205ee0 <.Lpcrel_hi79+0x58>
    80205f32:	f0043b83          	ld	s7,-256(s0)
    80205f36:	0bb2                	slli	s7,s7,0xc
    80205f38:	02551593          	slli	a1,a0,0x25
    80205f3c:	91dd                	srli	a1,a1,0x37
    80205f3e:	00359613          	slli	a2,a1,0x3
    80205f42:	00ca85b3          	add	a1,s5,a2
    80205f46:	618c                	ld	a1,0(a1)
    80205f48:	0015f693          	andi	a3,a1,1
    80205f4c:	c2f1                	beqz	a3,80206010 <.Lpcrel_hi85>
    80205f4e:	02e51693          	slli	a3,a0,0x2e
    80205f52:	92dd                	srli	a3,a3,0x37
    80205f54:	058a                	slli	a1,a1,0x2
    80205f56:	0185f5b3          	and	a1,a1,s8
    80205f5a:	068e                	slli	a3,a3,0x3
    80205f5c:	95b6                	add	a1,a1,a3
    80205f5e:	618c                	ld	a1,0(a1)
    80205f60:	0015f713          	andi	a4,a1,1
    80205f64:	c755                	beqz	a4,80206010 <.Lpcrel_hi85>
    80205f66:	058a                	slli	a1,a1,0x2
    80205f68:	0185f5b3          	and	a1,a1,s8
    80205f6c:	c1d5                	beqz	a1,80206010 <.Lpcrel_hi85>
    80205f6e:	965e                	add	a2,a2,s7
    80205f70:	6210                	ld	a2,0(a2)
    80205f72:	00167713          	andi	a4,a2,1
    80205f76:	c74d                	beqz	a4,80206020 <.Lpcrel_hi86>
    80205f78:	060a                	slli	a2,a2,0x2
    80205f7a:	01867633          	and	a2,a2,s8
    80205f7e:	9636                	add	a2,a2,a3
    80205f80:	6210                	ld	a2,0(a2)
    80205f82:	00167693          	andi	a3,a2,1
    80205f86:	cec9                	beqz	a3,80206020 <.Lpcrel_hi86>
    80205f88:	060a                	slli	a2,a2,0x2
    80205f8a:	01867633          	and	a2,a2,s8
    80205f8e:	ca49                	beqz	a2,80206020 <.Lpcrel_hi86>
    80205f90:	1ff57693          	andi	a3,a0,511
    80205f94:	068e                	slli	a3,a3,0x3
    80205f96:	9636                	add	a2,a2,a3
    80205f98:	6210                	ld	a2,0(a2)
    80205f9a:	95b6                	add	a1,a1,a3
    80205f9c:	618c                	ld	a1,0(a1)
    80205f9e:	00150493          	addi	s1,a0,1
    80205fa2:	060a                	slli	a2,a2,0x2
    80205fa4:	01867533          	and	a0,a2,s8
    80205fa8:	058a                	slli	a1,a1,0x2
    80205faa:	0185f5b3          	and	a1,a1,s8
    80205fae:	6605                	lui	a2,0x1
    80205fb0:	00007097          	auipc	ra,0x7
    80205fb4:	168080e7          	jalr	360(ra) # 8020d118 <memcpy>
    80205fb8:	8526                	mv	a0,s1
    80205fba:	f69b1fe3          	bne	s6,s1,80205f38 <.Lpcrel_hi79+0xb0>
    80205fbe:	b70d                	j	80205ee0 <.Lpcrel_hi79+0x58>
    80205fc0:	f1843503          	ld	a0,-232(s0)
    80205fc4:	f1043583          	ld	a1,-240(s0)
    80205fc8:	f0843603          	ld	a2,-248(s0)
    80205fcc:	02a93823          	sd	a0,48(s2)
    80205fd0:	02b93423          	sd	a1,40(s2)
    80205fd4:	02c93023          	sd	a2,32(s2)
    80205fd8:	f0043503          	ld	a0,-256(s0)
    80205fdc:	ef843583          	ld	a1,-264(s0)
    80205fe0:	ef043603          	ld	a2,-272(s0)
    80205fe4:	ee843683          	ld	a3,-280(s0)
    80205fe8:	00a93c23          	sd	a0,24(s2)
    80205fec:	00b93823          	sd	a1,16(s2)
    80205ff0:	00c93423          	sd	a2,8(s2)
    80205ff4:	00d93023          	sd	a3,0(s2)
    80205ff8:	60f2                	ld	ra,280(sp)
    80205ffa:	6452                	ld	s0,272(sp)
    80205ffc:	64b2                	ld	s1,264(sp)
    80205ffe:	6912                	ld	s2,256(sp)
    80206000:	79ee                	ld	s3,248(sp)
    80206002:	7a4e                	ld	s4,240(sp)
    80206004:	7aae                	ld	s5,232(sp)
    80206006:	7b0e                	ld	s6,224(sp)
    80206008:	6bee                	ld	s7,216(sp)
    8020600a:	6c4e                	ld	s8,208(sp)
    8020600c:	6115                	addi	sp,sp,288
    8020600e:	8082                	ret

0000000080206010 <.Lpcrel_hi85>:
    80206010:	00009517          	auipc	a0,0x9
    80206014:	f9050513          	addi	a0,a0,-112 # 8020efa0 <anon.d9326b764caf953d246fe4d565aa4f71.34.llvm.3597140058814777251>
    80206018:	00004097          	auipc	ra,0x4
    8020601c:	5f8080e7          	jalr	1528(ra) # 8020a610 <_ZN4core6option13unwrap_failed17h3c70806c841faa93E>

0000000080206020 <.Lpcrel_hi86>:
    80206020:	00009517          	auipc	a0,0x9
    80206024:	f9850513          	addi	a0,a0,-104 # 8020efb8 <anon.d9326b764caf953d246fe4d565aa4f71.35.llvm.3597140058814777251>
    80206028:	00004097          	auipc	ra,0x4
    8020602c:	5e8080e7          	jalr	1512(ra) # 8020a610 <_ZN4core6option13unwrap_failed17h3c70806c841faa93E>
    80206030:	f5040513          	addi	a0,s0,-176
    80206034:	f8a43823          	sd	a0,-112(s0)

0000000080206038 <.Lpcrel_hi82>:
    80206038:	00000517          	auipc	a0,0x0
    8020603c:	31650513          	addi	a0,a0,790 # 8020634e <_ZN65_$LT$os..mm..address..VirtPageNum$u20$as$u20$core..fmt..Debug$GT$3fmt17hc10c9c874bd62f33E>
    80206040:	f8a43c23          	sd	a0,-104(s0)
    80206044:	f5840593          	addi	a1,s0,-168
    80206048:	fab43023          	sd	a1,-96(s0)
    8020604c:	faa43423          	sd	a0,-88(s0)

0000000080206050 <.Lpcrel_hi83>:
    80206050:	00009517          	auipc	a0,0x9
    80206054:	25050513          	addi	a0,a0,592 # 8020f2a0 <anon.143638ba50f3ca5f2997057583b6f6e7.12.llvm.7411291366835535865>
    80206058:	f6a43023          	sd	a0,-160(s0)
    8020605c:	450d                	li	a0,3
    8020605e:	f6a43423          	sd	a0,-152(s0)
    80206062:	f8043023          	sd	zero,-128(s0)
    80206066:	f9040513          	addi	a0,s0,-112
    8020606a:	f6a43823          	sd	a0,-144(s0)
    8020606e:	4509                	li	a0,2
    80206070:	f6a43c23          	sd	a0,-136(s0)

0000000080206074 <.Lpcrel_hi84>:
    80206074:	00009517          	auipc	a0,0x9
    80206078:	25c50593          	addi	a1,a0,604 # 8020f2d0 <anon.143638ba50f3ca5f2997057583b6f6e7.13.llvm.7411291366835535865>
    8020607c:	f6040513          	addi	a0,s0,-160
    80206080:	00004097          	auipc	ra,0x4
    80206084:	5cc080e7          	jalr	1484(ra) # 8020a64c <_ZN4core9panicking9panic_fmt17hc25dbb51a4d67a42E>
    80206088:	f6043023          	sd	zero,-160(s0)

000000008020608c <.Lpcrel_hi80>:
    8020608c:	00009517          	auipc	a0,0x9
    80206090:	b9450613          	addi	a2,a0,-1132 # 8020ec20 <anon.143638ba50f3ca5f2997057583b6f6e7.4.llvm.7411291366835535865>

0000000080206094 <.Lpcrel_hi81>:
    80206094:	00009517          	auipc	a0,0x9
    80206098:	1cc50713          	addi	a4,a0,460 # 8020f260 <anon.143638ba50f3ca5f2997057583b6f6e7.7.llvm.7411291366835535865>
    8020609c:	f9040593          	addi	a1,s0,-112
    802060a0:	f6040693          	addi	a3,s0,-160
    802060a4:	4501                	li	a0,0
    802060a6:	00001097          	auipc	ra,0x1
    802060aa:	64c080e7          	jalr	1612(ra) # 802076f2 <_ZN4core9panicking13assert_failed17h15aff8796b99ea85E>

00000000802060ae <_ZN2os2mm10memory_set10remap_test17h5b1346cd2c5ef4bfE>:
    802060ae:	715d                	addi	sp,sp,-80
    802060b0:	e486                	sd	ra,72(sp)
    802060b2:	e0a2                	sd	s0,64(sp)
    802060b4:	fc26                	sd	s1,56(sp)
    802060b6:	0880                	addi	s0,sp,80

00000000802060b8 <.Lpcrel_hi87>:
    802060b8:	00131517          	auipc	a0,0x131
    802060bc:	f8050493          	addi	s1,a0,-128 # 80337038 <_ZN76_$LT$os..mm..memory_set..KERNEL_SPACE$u20$as$u20$core..ops..deref..Deref$GT$5deref11__stability4LAZY17hc3a1022202feb424E.llvm.3597140058814777251>
    802060c0:	00848503          	lb	a0,8(s1) # fffffffffff00008 <ebss+0xffffffff7f9c8008>
    802060c4:	4589                	li	a1,2
    802060c6:	0230000f          	fence	r,rw
    802060ca:	14b51a63          	bne	a0,a1,8020621e <.Lpcrel_hi88>
    802060ce:	6084                	ld	s1,0(s1)
    802060d0:	6888                	ld	a0,16(s1)
    802060d2:	16051263          	bnez	a0,80206236 <.Lpcrel_hi89>
    802060d6:	557d                	li	a0,-1
    802060d8:	e888                	sd	a0,16(s1)

00000000802060da <.Lpcrel_hi90>:
    802060da:	00008517          	auipc	a0,0x8
    802060de:	f2650613          	addi	a2,a0,-218 # 8020e000 <etext>
    802060e2:	788c                	ld	a1,48(s1)

00000000802060e4 <.Lpcrel_hi91>:
    802060e4:	ffffa517          	auipc	a0,0xffffa
    802060e8:	f1c50513          	addi	a0,a0,-228 # 80200000 <_start>
    802060ec:	962a                	add	a2,a2,a0
    802060ee:	05b2                	slli	a1,a1,0xc
    802060f0:	01c65513          	srli	a0,a2,0x1c
    802060f4:	6685                	lui	a3,0x1
    802060f6:	36e1                	addiw	a3,a3,-8 # ff8 <$d.12+0xa7>
    802060f8:	8d75                	and	a0,a0,a3
    802060fa:	8d4d                	or	a0,a0,a1
    802060fc:	6118                	ld	a4,0(a0)
    802060fe:	00177513          	andi	a0,a4,1
    80206102:	14050263          	beqz	a0,80206246 <.Lpcrel_hi92>
    80206106:	fff00537          	lui	a0,0xfff00
    8020610a:	8121                	srli	a0,a0,0x8
    8020610c:	070a                	slli	a4,a4,0x2
    8020610e:	8f69                	and	a4,a4,a0
    80206110:	01365793          	srli	a5,a2,0x13
    80206114:	8efd                	and	a3,a3,a5
    80206116:	8ed9                	or	a3,a3,a4
    80206118:	6294                	ld	a3,0(a3)
    8020611a:	0016f713          	andi	a4,a3,1
    8020611e:	12070463          	beqz	a4,80206246 <.Lpcrel_hi92>
    80206122:	068a                	slli	a3,a3,0x2
    80206124:	8ee9                	and	a3,a3,a0
    80206126:	12068063          	beqz	a3,80206246 <.Lpcrel_hi92>
    8020612a:	162a                	slli	a2,a2,0x2a
    8020612c:	925d                	srli	a2,a2,0x37
    8020612e:	060e                	slli	a2,a2,0x3
    80206130:	9636                	add	a2,a2,a3
    80206132:	00064603          	lbu	a2,0(a2) # 1000 <$d.12+0xaf>
    80206136:	8a11                	andi	a2,a2,4
    80206138:	12061f63          	bnez	a2,80206276 <.Lpcrel_hi95>

000000008020613c <.Lpcrel_hi93>:
    8020613c:	0000c617          	auipc	a2,0xc
    80206140:	ec460613          	addi	a2,a2,-316 # 80212000 <_num_app>

0000000080206144 <.Lpcrel_hi94>:
    80206144:	00008697          	auipc	a3,0x8
    80206148:	ebc68693          	addi	a3,a3,-324 # 8020e000 <etext>
    8020614c:	9636                	add	a2,a2,a3
    8020614e:	01c65713          	srli	a4,a2,0x1c
    80206152:	6685                	lui	a3,0x1
    80206154:	36e1                	addiw	a3,a3,-8 # ff8 <$d.12+0xa7>
    80206156:	8f75                	and	a4,a4,a3
    80206158:	972e                	add	a4,a4,a1
    8020615a:	6318                	ld	a4,0(a4)
    8020615c:	00177793          	andi	a5,a4,1
    80206160:	cbfd                	beqz	a5,80206256 <.Lpcrel_hi97>
    80206162:	070a                	slli	a4,a4,0x2
    80206164:	8f69                	and	a4,a4,a0
    80206166:	01365793          	srli	a5,a2,0x13
    8020616a:	8efd                	and	a3,a3,a5
    8020616c:	96ba                	add	a3,a3,a4
    8020616e:	6294                	ld	a3,0(a3)
    80206170:	0016f713          	andi	a4,a3,1
    80206174:	c36d                	beqz	a4,80206256 <.Lpcrel_hi97>
    80206176:	068a                	slli	a3,a3,0x2
    80206178:	8ee9                	and	a3,a3,a0
    8020617a:	cef1                	beqz	a3,80206256 <.Lpcrel_hi97>
    8020617c:	8235                	srli	a2,a2,0xd
    8020617e:	1ff67613          	andi	a2,a2,511
    80206182:	060e                	slli	a2,a2,0x3
    80206184:	9636                	add	a2,a2,a3
    80206186:	00064603          	lbu	a2,0(a2)
    8020618a:	8a11                	andi	a2,a2,4
    8020618c:	10061363          	bnez	a2,80206292 <.Lpcrel_hi100>

0000000080206190 <.Lpcrel_hi98>:
    80206190:	00121617          	auipc	a2,0x121
    80206194:	e7060613          	addi	a2,a2,-400 # 80327000 <boot_stack_lower_bound>

0000000080206198 <.Lpcrel_hi99>:
    80206198:	0000c697          	auipc	a3,0xc
    8020619c:	e6868693          	addi	a3,a3,-408 # 80212000 <_num_app>
    802061a0:	9636                	add	a2,a2,a3
    802061a2:	01c65713          	srli	a4,a2,0x1c
    802061a6:	6685                	lui	a3,0x1
    802061a8:	36e1                	addiw	a3,a3,-8 # ff8 <$d.12+0xa7>
    802061aa:	8f75                	and	a4,a4,a3
    802061ac:	95ba                	add	a1,a1,a4
    802061ae:	618c                	ld	a1,0(a1)
    802061b0:	0015f713          	andi	a4,a1,1
    802061b4:	cb4d                	beqz	a4,80206266 <.Lpcrel_hi102>
    802061b6:	058a                	slli	a1,a1,0x2
    802061b8:	8de9                	and	a1,a1,a0
    802061ba:	01365713          	srli	a4,a2,0x13
    802061be:	8ef9                	and	a3,a3,a4
    802061c0:	95b6                	add	a1,a1,a3
    802061c2:	618c                	ld	a1,0(a1)
    802061c4:	0015f693          	andi	a3,a1,1
    802061c8:	ced9                	beqz	a3,80206266 <.Lpcrel_hi102>
    802061ca:	058a                	slli	a1,a1,0x2
    802061cc:	8d6d                	and	a0,a0,a1
    802061ce:	cd41                	beqz	a0,80206266 <.Lpcrel_hi102>
    802061d0:	8235                	srli	a2,a2,0xd
    802061d2:	1ff67593          	andi	a1,a2,511
    802061d6:	058e                	slli	a1,a1,0x3
    802061d8:	952e                	add	a0,a0,a1
    802061da:	00054503          	lbu	a0,0(a0) # fffffffffff00000 <ebss+0xffffffff7f9c8000>
    802061de:	8921                	andi	a0,a0,8
    802061e0:	e579                	bnez	a0,802062ae <.Lpcrel_hi104>

00000000802061e2 <.Lpcrel_hi103>:
    802061e2:	00009517          	auipc	a0,0x9
    802061e6:	ece50513          	addi	a0,a0,-306 # 8020f0b0 <anon.d9326b764caf953d246fe4d565aa4f71.48.llvm.3597140058814777251>
    802061ea:	faa43c23          	sd	a0,-72(s0)
    802061ee:	4505                	li	a0,1
    802061f0:	fca43023          	sd	a0,-64(s0)
    802061f4:	fc043c23          	sd	zero,-40(s0)
    802061f8:	4521                	li	a0,8
    802061fa:	fca43423          	sd	a0,-56(s0)
    802061fe:	fc043823          	sd	zero,-48(s0)
    80206202:	fb840513          	addi	a0,s0,-72
    80206206:	00001097          	auipc	ra,0x1
    8020620a:	624080e7          	jalr	1572(ra) # 8020782a <_ZN2os7console5print17hb0238f93bcb82e2aE>
    8020620e:	6888                	ld	a0,16(s1)
    80206210:	0505                	addi	a0,a0,1
    80206212:	e888                	sd	a0,16(s1)
    80206214:	60a6                	ld	ra,72(sp)
    80206216:	6406                	ld	s0,64(sp)
    80206218:	74e2                	ld	s1,56(sp)
    8020621a:	6161                	addi	sp,sp,80
    8020621c:	8082                	ret

000000008020621e <.Lpcrel_hi88>:
    8020621e:	00131517          	auipc	a0,0x131
    80206222:	e1a50513          	addi	a0,a0,-486 # 80337038 <_ZN76_$LT$os..mm..memory_set..KERNEL_SPACE$u20$as$u20$core..ops..deref..Deref$GT$5deref11__stability4LAZY17hc3a1022202feb424E.llvm.3597140058814777251>
    80206226:	ffffe097          	auipc	ra,0xffffe
    8020622a:	43a080e7          	jalr	1082(ra) # 80204660 <_ZN4spin4once17Once$LT$T$C$R$GT$18try_call_once_slow17hd4618571af06a6feE.llvm.18273212518176036961>
    8020622e:	6084                	ld	s1,0(s1)
    80206230:	6888                	ld	a0,16(s1)
    80206232:	ea0502e3          	beqz	a0,802060d6 <.Lpcrel_hi87+0x1e>

0000000080206236 <.Lpcrel_hi89>:
    80206236:	00009517          	auipc	a0,0x9
    8020623a:	0c250513          	addi	a0,a0,194 # 8020f2f8 <anon.143638ba50f3ca5f2997057583b6f6e7.15.llvm.7411291366835535865>
    8020623e:	00004097          	auipc	ra,0x4
    80206242:	072080e7          	jalr	114(ra) # 8020a2b0 <_ZN4core4cell22panic_already_borrowed17h63023a1bd405c717E>

0000000080206246 <.Lpcrel_hi92>:
    80206246:	00009517          	auipc	a0,0x9
    8020624a:	e0a50513          	addi	a0,a0,-502 # 8020f050 <anon.d9326b764caf953d246fe4d565aa4f71.44.llvm.3597140058814777251>
    8020624e:	00004097          	auipc	ra,0x4
    80206252:	3c2080e7          	jalr	962(ra) # 8020a610 <_ZN4core6option13unwrap_failed17h3c70806c841faa93E>

0000000080206256 <.Lpcrel_hi97>:
    80206256:	00009517          	auipc	a0,0x9
    8020625a:	e1250513          	addi	a0,a0,-494 # 8020f068 <anon.d9326b764caf953d246fe4d565aa4f71.45.llvm.3597140058814777251>
    8020625e:	00004097          	auipc	ra,0x4
    80206262:	3b2080e7          	jalr	946(ra) # 8020a610 <_ZN4core6option13unwrap_failed17h3c70806c841faa93E>

0000000080206266 <.Lpcrel_hi102>:
    80206266:	00009517          	auipc	a0,0x9
    8020626a:	e1a50513          	addi	a0,a0,-486 # 8020f080 <anon.d9326b764caf953d246fe4d565aa4f71.46.llvm.3597140058814777251>
    8020626e:	00004097          	auipc	ra,0x4
    80206272:	3a2080e7          	jalr	930(ra) # 8020a610 <_ZN4core6option13unwrap_failed17h3c70806c841faa93E>

0000000080206276 <.Lpcrel_hi95>:
    80206276:	00009517          	auipc	a0,0x9
    8020627a:	f3a50513          	addi	a0,a0,-198 # 8020f1b0 <anon.d9326b764caf953d246fe4d565aa4f71.53.llvm.3597140058814777251>

000000008020627e <.Lpcrel_hi96>:
    8020627e:	00009597          	auipc	a1,0x9
    80206282:	f9258613          	addi	a2,a1,-110 # 8020f210 <anon.d9326b764caf953d246fe4d565aa4f71.54.llvm.3597140058814777251>
    80206286:	05a00593          	li	a1,90
    8020628a:	00004097          	auipc	ra,0x4
    8020628e:	3f4080e7          	jalr	1012(ra) # 8020a67e <_ZN4core9panicking5panic17h14cc1607a430f055E>

0000000080206292 <.Lpcrel_hi100>:
    80206292:	00009517          	auipc	a0,0x9
    80206296:	ea650513          	addi	a0,a0,-346 # 8020f138 <anon.d9326b764caf953d246fe4d565aa4f71.51.llvm.3597140058814777251>

000000008020629a <.Lpcrel_hi101>:
    8020629a:	00009597          	auipc	a1,0x9
    8020629e:	efe58613          	addi	a2,a1,-258 # 8020f198 <anon.d9326b764caf953d246fe4d565aa4f71.52.llvm.3597140058814777251>
    802062a2:	05c00593          	li	a1,92
    802062a6:	00004097          	auipc	ra,0x4
    802062aa:	3d8080e7          	jalr	984(ra) # 8020a67e <_ZN4core9panicking5panic17h14cc1607a430f055E>

00000000802062ae <.Lpcrel_hi104>:
    802062ae:	00009517          	auipc	a0,0x9
    802062b2:	e1250513          	addi	a0,a0,-494 # 8020f0c0 <anon.d9326b764caf953d246fe4d565aa4f71.49.llvm.3597140058814777251>

00000000802062b6 <.Lpcrel_hi105>:
    802062b6:	00009597          	auipc	a1,0x9
    802062ba:	e6a58613          	addi	a2,a1,-406 # 8020f120 <anon.d9326b764caf953d246fe4d565aa4f71.50.llvm.3597140058814777251>
    802062be:	05c00593          	li	a1,92
    802062c2:	00004097          	auipc	ra,0x4
    802062c6:	3bc080e7          	jalr	956(ra) # 8020a67e <_ZN4core9panicking5panic17h14cc1607a430f055E>

00000000802062ca <_ZN5alloc11collections9vec_deque21VecDeque$LT$T$C$A$GT$4grow17hb847be41881224acE.llvm.7411291366835535865>:
    802062ca:	1101                	addi	sp,sp,-32
    802062cc:	ec06                	sd	ra,24(sp)
    802062ce:	e822                	sd	s0,16(sp)
    802062d0:	e426                	sd	s1,8(sp)
    802062d2:	e04a                	sd	s2,0(sp)
    802062d4:	1000                	addi	s0,sp,32
    802062d6:	84aa                	mv	s1,a0
    802062d8:	00053903          	ld	s2,0(a0)
    802062dc:	ffffe097          	auipc	ra,0xffffe
    802062e0:	6a6080e7          	jalr	1702(ra) # 80204982 <_ZN5alloc7raw_vec19RawVec$LT$T$C$A$GT$8grow_one17h2bc8d088edac8da0E>
    802062e4:	6c94                	ld	a3,24(s1)
    802062e6:	6888                	ld	a0,16(s1)
    802062e8:	40d905b3          	sub	a1,s2,a3
    802062ec:	04a5fb63          	bgeu	a1,a0,80206342 <_ZN5alloc11collections9vec_deque21VecDeque$LT$T$C$A$GT$4grow17hb847be41881224acE.llvm.7411291366835535865+0x78>
    802062f0:	608c                	ld	a1,0(s1)
    802062f2:	40a90633          	sub	a2,s2,a0
    802062f6:	8e91                	sub	a3,a3,a2
    802062f8:	02c6f563          	bgeu	a3,a2,80206322 <_ZN5alloc11collections9vec_deque21VecDeque$LT$T$C$A$GT$4grow17hb847be41881224acE.llvm.7411291366835535865+0x58>
    802062fc:	41258733          	sub	a4,a1,s2
    80206300:	02d76163          	bltu	a4,a3,80206322 <_ZN5alloc11collections9vec_deque21VecDeque$LT$T$C$A$GT$4grow17hb847be41881224acE.llvm.7411291366835535865+0x58>
    80206304:	648c                	ld	a1,8(s1)
    80206306:	00391513          	slli	a0,s2,0x3
    8020630a:	952e                	add	a0,a0,a1
    8020630c:	00369613          	slli	a2,a3,0x3
    80206310:	60e2                	ld	ra,24(sp)
    80206312:	6442                	ld	s0,16(sp)
    80206314:	64a2                	ld	s1,8(sp)
    80206316:	6902                	ld	s2,0(sp)
    80206318:	6105                	addi	sp,sp,32
    8020631a:	00007317          	auipc	t1,0x7
    8020631e:	dfe30067          	jr	-514(t1) # 8020d118 <memcpy>
    80206322:	6494                	ld	a3,8(s1)
    80206324:	40c58933          	sub	s2,a1,a2
    80206328:	050e                	slli	a0,a0,0x3
    8020632a:	00a685b3          	add	a1,a3,a0
    8020632e:	00391513          	slli	a0,s2,0x3
    80206332:	9536                	add	a0,a0,a3
    80206334:	060e                	slli	a2,a2,0x3
    80206336:	00007097          	auipc	ra,0x7
    8020633a:	da0080e7          	jalr	-608(ra) # 8020d0d6 <memmove>
    8020633e:	0124b823          	sd	s2,16(s1)
    80206342:	60e2                	ld	ra,24(sp)
    80206344:	6442                	ld	s0,16(sp)
    80206346:	64a2                	ld	s1,8(sp)
    80206348:	6902                	ld	s2,0(sp)
    8020634a:	6105                	addi	sp,sp,32
    8020634c:	8082                	ret

000000008020634e <_ZN65_$LT$os..mm..address..VirtPageNum$u20$as$u20$core..fmt..Debug$GT$3fmt17hc10c9c874bd62f33E>:
    8020634e:	7175                	addi	sp,sp,-144
    80206350:	e506                	sd	ra,136(sp)
    80206352:	e122                	sd	s0,128(sp)
    80206354:	0900                	addi	s0,sp,144
    80206356:	faa43423          	sd	a0,-88(s0)

000000008020635a <.Lpcrel_hi0>:
    8020635a:	00006517          	auipc	a0,0x6
    8020635e:	46c50513          	addi	a0,a0,1132 # 8020c7c6 <_ZN4core3fmt3num53_$LT$impl$u20$core..fmt..LowerHex$u20$for$u20$i64$GT$3fmt17h2c0862d8e5218d41E>
    80206362:	faa43823          	sd	a0,-80(s0)
    80206366:	4509                	li	a0,2
    80206368:	faa43c23          	sd	a0,-72(s0)
    8020636c:	fca43423          	sd	a0,-56(s0)
    80206370:	fc043c23          	sd	zero,-40(s0)
    80206374:	4605                	li	a2,1
    80206376:	02261513          	slli	a0,a2,0x22
    8020637a:	02050513          	addi	a0,a0,32
    8020637e:	fea43023          	sd	a0,-32(s0)
    80206382:	450d                	li	a0,3
    80206384:	fea40423          	sb	a0,-24(s0)

0000000080206388 <.Lpcrel_hi1>:
    80206388:	00009517          	auipc	a0,0x9
    8020638c:	eb050513          	addi	a0,a0,-336 # 8020f238 <.Lanon.143638ba50f3ca5f2997057583b6f6e7.3>
    80206390:	f6a43c23          	sd	a0,-136(s0)
    80206394:	fb840513          	addi	a0,s0,-72
    80206398:	f8a43c23          	sd	a0,-104(s0)
    8020639c:	fa840513          	addi	a0,s0,-88
    802063a0:	f8a43423          	sd	a0,-120(s0)
    802063a4:	7188                	ld	a0,32(a1)
    802063a6:	758c                	ld	a1,40(a1)
    802063a8:	f8c43023          	sd	a2,-128(s0)
    802063ac:	fac43023          	sd	a2,-96(s0)
    802063b0:	f8c43823          	sd	a2,-112(s0)
    802063b4:	f7840613          	addi	a2,s0,-136
    802063b8:	00005097          	auipc	ra,0x5
    802063bc:	c36080e7          	jalr	-970(ra) # 8020afee <_ZN4core3fmt5write17h7149f27b6a64b164E>
    802063c0:	60aa                	ld	ra,136(sp)
    802063c2:	640a                	ld	s0,128(sp)
    802063c4:	6149                	addi	sp,sp,144
    802063c6:	8082                	ret

00000000802063c8 <_ZN2os2mm4init17h027a7fd49d87ea5dE>:
    802063c8:	7159                	addi	sp,sp,-112
    802063ca:	f486                	sd	ra,104(sp)
    802063cc:	f0a2                	sd	s0,96(sp)
    802063ce:	eca6                	sd	s1,88(sp)
    802063d0:	e8ca                	sd	s2,80(sp)
    802063d2:	1880                	addi	s0,sp,112

00000000802063d4 <.Lpcrel_hi12>:
    802063d4:	00331517          	auipc	a0,0x331
    802063d8:	cd450493          	addi	s1,a0,-812 # 805370a8 <_ZN2os2mm14heap_allocator14HEAP_ALLOCATOR17hdb009eb0a1c201beE.llvm.13289308715828321855>
    802063dc:	4505                	li	a0,1
    802063de:	00a4b92f          	amoadd.d	s2,a0,(s1)
    802063e2:	6488                	ld	a0,8(s1)
    802063e4:	0230000f          	fence	r,rw
    802063e8:	01250963          	beq	a0,s2,802063fa <.Lpcrel_hi12+0x26>
    802063ec:	0100000f          	fence	w,unknown
    802063f0:	6488                	ld	a0,8(s1)
    802063f2:	0230000f          	fence	r,rw
    802063f6:	ff251be3          	bne	a0,s2,802063ec <.Lpcrel_hi12+0x18>
    802063fa:	01048513          	addi	a0,s1,16

00000000802063fe <.Lpcrel_hi13>:
    802063fe:	00131597          	auipc	a1,0x131
    80206402:	caa58593          	addi	a1,a1,-854 # 803370a8 <_ZN2os2mm14heap_allocator10HEAP_SPACE17he73959a51cce6306E.llvm.13289308715828321855>
    80206406:	00200637          	lui	a2,0x200
    8020640a:	00003097          	auipc	ra,0x3
    8020640e:	60c080e7          	jalr	1548(ra) # 80209a16 <_ZN22buddy_system_allocator4Heap4init17h9809b7aa78ce5d5dE>
    80206412:	0905                	addi	s2,s2,1
    80206414:	0310000f          	fence	rw,w
    80206418:	0124b423          	sd	s2,8(s1)

000000008020641c <.Lpcrel_hi14>:
    8020641c:	00131517          	auipc	a0,0x131
    80206420:	be450493          	addi	s1,a0,-1052 # 80337000 <_ZN84_$LT$os..mm..frame_allocator..FRAME_ALLOCATOR$u20$as$u20$core..ops..deref..Deref$GT$5deref11__stability4LAZY17h16ef9517e8cb8289E.llvm.9449326286350064217>
    80206424:	03048503          	lb	a0,48(s1)
    80206428:	4589                	li	a1,2
    8020642a:	0230000f          	fence	r,rw
    8020642e:	0ab51b63          	bne	a0,a1,802064e4 <.Lpcrel_hi15>
    80206432:	6088                	ld	a0,0(s1)
    80206434:	e171                	bnez	a0,802064f8 <.Lpcrel_hi16>
    80206436:	557d                	li	a0,-1
    80206438:	e088                	sd	a0,0(s1)

000000008020643a <.Lpcrel_hi17>:
    8020643a:	00332517          	auipc	a0,0x332
    8020643e:	bc650513          	addi	a0,a0,-1082 # 80538000 <ebss>
    80206442:	0522                	slli	a0,a0,0x8
    80206444:	8121                	srli	a0,a0,0x8
    80206446:	6585                	lui	a1,0x1
    80206448:	35fd                	addiw	a1,a1,-1 # fff <$d.12+0xae>
    8020644a:	952e                	add	a0,a0,a1
    8020644c:	8131                	srli	a0,a0,0xc
    8020644e:	f088                	sd	a0,32(s1)
    80206450:	000885b7          	lui	a1,0x88
    80206454:	f48c                	sd	a1,40(s1)
    80206456:	8d89                	sub	a1,a1,a0
    80206458:	fcb43c23          	sd	a1,-40(s0)
    8020645c:	fd840513          	addi	a0,s0,-40
    80206460:	fca43423          	sd	a0,-56(s0)

0000000080206464 <.Lpcrel_hi18>:
    80206464:	00007517          	auipc	a0,0x7
    80206468:	80850513          	addi	a0,a0,-2040 # 8020cc6c <_ZN4core3fmt3num3imp52_$LT$impl$u20$core..fmt..Display$u20$for$u20$u64$GT$3fmt17hdc568abe5d51f18fE>
    8020646c:	fca43823          	sd	a0,-48(s0)

0000000080206470 <.Lpcrel_hi19>:
    80206470:	00008517          	auipc	a0,0x8
    80206474:	1e850513          	addi	a0,a0,488 # 8020e658 <anon.6a46c64e42596067554903e2843242d1.6.llvm.9449326286350064217>
    80206478:	f8a43c23          	sd	a0,-104(s0)
    8020647c:	4909                	li	s2,2
    8020647e:	fb243023          	sd	s2,-96(s0)
    80206482:	fa043c23          	sd	zero,-72(s0)
    80206486:	fc840513          	addi	a0,s0,-56
    8020648a:	faa43423          	sd	a0,-88(s0)
    8020648e:	4505                	li	a0,1
    80206490:	faa43823          	sd	a0,-80(s0)
    80206494:	f9840513          	addi	a0,s0,-104
    80206498:	00001097          	auipc	ra,0x1
    8020649c:	392080e7          	jalr	914(ra) # 8020782a <_ZN2os7console5print17hb0238f93bcb82e2aE>
    802064a0:	6088                	ld	a0,0(s1)
    802064a2:	0505                	addi	a0,a0,1
    802064a4:	e088                	sd	a0,0(s1)

00000000802064a6 <.Lpcrel_hi20>:
    802064a6:	00131517          	auipc	a0,0x131
    802064aa:	b9250493          	addi	s1,a0,-1134 # 80337038 <_ZN76_$LT$os..mm..memory_set..KERNEL_SPACE$u20$as$u20$core..ops..deref..Deref$GT$5deref11__stability4LAZY17hc3a1022202feb424E.llvm.3597140058814777251>
    802064ae:	00848503          	lb	a0,8(s1)
    802064b2:	0230000f          	fence	r,rw
    802064b6:	05251963          	bne	a0,s2,80206508 <.Lpcrel_hi21>
    802064ba:	6088                	ld	a0,0(s1)
    802064bc:	690c                	ld	a1,16(a0)
    802064be:	e1a5                	bnez	a1,8020651e <.Lpcrel_hi22>
    802064c0:	790c                	ld	a1,48(a0)
    802064c2:	567d                	li	a2,-1
    802064c4:	e910                	sd	a2,16(a0)
    802064c6:	167e                	slli	a2,a2,0x3f
    802064c8:	8dd1                	or	a1,a1,a2
    802064ca:	18059073          	csrw	satp,a1
    802064ce:	12000073          	sfence.vma
    802064d2:	690c                	ld	a1,16(a0)
    802064d4:	0585                	addi	a1,a1,1 # 88001 <$d.52+0x9913>
    802064d6:	e90c                	sd	a1,16(a0)
    802064d8:	70a6                	ld	ra,104(sp)
    802064da:	7406                	ld	s0,96(sp)
    802064dc:	64e6                	ld	s1,88(sp)
    802064de:	6946                	ld	s2,80(sp)
    802064e0:	6165                	addi	sp,sp,112
    802064e2:	8082                	ret

00000000802064e4 <.Lpcrel_hi15>:
    802064e4:	00131517          	auipc	a0,0x131
    802064e8:	b1c50513          	addi	a0,a0,-1252 # 80337000 <_ZN84_$LT$os..mm..frame_allocator..FRAME_ALLOCATOR$u20$as$u20$core..ops..deref..Deref$GT$5deref11__stability4LAZY17h16ef9517e8cb8289E.llvm.9449326286350064217>
    802064ec:	ffffe097          	auipc	ra,0xffffe
    802064f0:	cde080e7          	jalr	-802(ra) # 802041ca <_ZN4spin4once17Once$LT$T$C$R$GT$18try_call_once_slow17h248f831427eadf2aE.llvm.18273212518176036961>
    802064f4:	6088                	ld	a0,0(s1)
    802064f6:	d121                	beqz	a0,80206436 <.Lpcrel_hi14+0x1a>

00000000802064f8 <.Lpcrel_hi16>:
    802064f8:	00009517          	auipc	a0,0x9
    802064fc:	e0050513          	addi	a0,a0,-512 # 8020f2f8 <anon.143638ba50f3ca5f2997057583b6f6e7.15.llvm.7411291366835535865>
    80206500:	00004097          	auipc	ra,0x4
    80206504:	db0080e7          	jalr	-592(ra) # 8020a2b0 <_ZN4core4cell22panic_already_borrowed17h63023a1bd405c717E>

0000000080206508 <.Lpcrel_hi21>:
    80206508:	00131517          	auipc	a0,0x131
    8020650c:	b3050513          	addi	a0,a0,-1232 # 80337038 <_ZN76_$LT$os..mm..memory_set..KERNEL_SPACE$u20$as$u20$core..ops..deref..Deref$GT$5deref11__stability4LAZY17hc3a1022202feb424E.llvm.3597140058814777251>
    80206510:	ffffe097          	auipc	ra,0xffffe
    80206514:	150080e7          	jalr	336(ra) # 80204660 <_ZN4spin4once17Once$LT$T$C$R$GT$18try_call_once_slow17hd4618571af06a6feE.llvm.18273212518176036961>
    80206518:	6088                	ld	a0,0(s1)
    8020651a:	690c                	ld	a1,16(a0)
    8020651c:	d1d5                	beqz	a1,802064c0 <.Lpcrel_hi20+0x1a>

000000008020651e <.Lpcrel_hi22>:
    8020651e:	00009517          	auipc	a0,0x9
    80206522:	dda50513          	addi	a0,a0,-550 # 8020f2f8 <anon.143638ba50f3ca5f2997057583b6f6e7.15.llvm.7411291366835535865>
    80206526:	00004097          	auipc	ra,0x4
    8020652a:	d8a080e7          	jalr	-630(ra) # 8020a2b0 <_ZN4core4cell22panic_already_borrowed17h63023a1bd405c717E>

000000008020652e <_ZN2os7syscall7syscall17h978a9f4fbef7ae5fE>:
    8020652e:	711d                	addi	sp,sp,-96
    80206530:	ec86                	sd	ra,88(sp)
    80206532:	e8a2                	sd	s0,80(sp)
    80206534:	e4a6                	sd	s1,72(sp)
    80206536:	1080                	addi	s0,sp,96
    80206538:	0ab00613          	li	a2,171
    8020653c:	faa43023          	sd	a0,-96(s0)
    80206540:	02a64963          	blt	a2,a0,80206572 <.Lpcrel_hi27+0x12>
    80206544:	05c00613          	li	a2,92
    80206548:	06a65b63          	bge	a2,a0,802065be <.Lpcrel_hi27+0x5e>
    8020654c:	07c00613          	li	a2,124
    80206550:	10c50b63          	beq	a0,a2,80206666 <.Lpcrel_hi28+0x82>
    80206554:	0a900613          	li	a2,169
    80206558:	14c51363          	bne	a0,a2,8020669e <.Lpcrel_hi30+0x10>
    8020655c:	c0102573          	rdtime	a0

0000000080206560 <.Lpcrel_hi27>:
    80206560:	00120597          	auipc	a1,0x120
    80206564:	1c85b583          	ld	a1,456(a1) # 80326728 <$d.12>
    80206568:	8109                	srli	a0,a0,0x2
    8020656a:	02b53533          	mulhu	a0,a0,a1
    8020656e:	8125                	srli	a0,a0,0x9
    80206570:	a201                	j	80206670 <.Lpcrel_hi28+0x8c>
    80206572:	0dc00613          	li	a2,220
    80206576:	02a64263          	blt	a2,a0,8020659a <.Lpcrel_hi27+0x3a>
    8020657a:	0ac00593          	li	a1,172
    8020657e:	06b50363          	beq	a0,a1,802065e4 <.Lpcrel_hi28>
    80206582:	0dc00593          	li	a1,220
    80206586:	12b51563          	bne	a0,a1,802066b0 <.Lpcrel_hi30+0x22>
    8020658a:	60e6                	ld	ra,88(sp)
    8020658c:	6446                	ld	s0,80(sp)
    8020658e:	64a6                	ld	s1,72(sp)
    80206590:	6125                	addi	sp,sp,96
    80206592:	00002317          	auipc	t1,0x2
    80206596:	c0830067          	jr	-1016(t1) # 8020819a <_ZN2os7syscall7process8sys_fork17hd5820a2932953d0bE>
    8020659a:	0dd00613          	li	a2,221
    8020659e:	08c50f63          	beq	a0,a2,8020663c <.Lpcrel_hi28+0x58>
    802065a2:	10400613          	li	a2,260
    802065a6:	10c51563          	bne	a0,a2,802066b0 <.Lpcrel_hi30+0x22>
    802065aa:	6188                	ld	a0,0(a1)
    802065ac:	658c                	ld	a1,8(a1)
    802065ae:	60e6                	ld	ra,88(sp)
    802065b0:	6446                	ld	s0,80(sp)
    802065b2:	64a6                	ld	s1,72(sp)
    802065b4:	6125                	addi	sp,sp,96
    802065b6:	00002317          	auipc	t1,0x2
    802065ba:	e8a30067          	jr	-374(t1) # 80208440 <_ZN2os7syscall7process11sys_waitpid17h2d5cee31ec3b16c2E>
    802065be:	03f00613          	li	a2,63
    802065c2:	08c50663          	beq	a0,a2,8020664e <.Lpcrel_hi28+0x6a>
    802065c6:	04000613          	li	a2,64
    802065ca:	0ec51363          	bne	a0,a2,802066b0 <.Lpcrel_hi30+0x22>
    802065ce:	6188                	ld	a0,0(a1)
    802065d0:	6590                	ld	a2,8(a1)
    802065d2:	6984                	ld	s1,16(a1)
    802065d4:	85b2                	mv	a1,a2
    802065d6:	8626                	mv	a2,s1
    802065d8:	00002097          	auipc	ra,0x2
    802065dc:	900080e7          	jalr	-1792(ra) # 80207ed8 <_ZN2os7syscall2fs9sys_write17h4276035010912fe8E>
    802065e0:	8526                	mv	a0,s1
    802065e2:	a079                	j	80206670 <.Lpcrel_hi28+0x8c>

00000000802065e4 <.Lpcrel_hi28>:
    802065e4:	00331517          	auipc	a0,0x331
    802065e8:	c1c50493          	addi	s1,a0,-996 # 80537200 <_ZN74_$LT$os..task..processor..PROCESSOR$u20$as$u20$core..ops..deref..Deref$GT$5deref11__stability4LAZY17hb7c09ecbcf5ec318E.llvm.4771765091264844042>
    802065ec:	08048503          	lb	a0,128(s1)
    802065f0:	4589                	li	a1,2
    802065f2:	0230000f          	fence	r,rw
    802065f6:	08b51263          	bne	a0,a1,8020667a <.Lpcrel_hi29>
    802065fa:	6088                	ld	a0,0(s1)
    802065fc:	e949                	bnez	a0,8020668e <.Lpcrel_hi30>
    802065fe:	7cac                	ld	a1,120(s1)
    80206600:	557d                	li	a0,-1
    80206602:	e088                	sd	a0,0(s1)
    80206604:	c9fd                	beqz	a1,802066fa <.Lpcrel_hi26+0x14>
    80206606:	4605                	li	a2,1
    80206608:	00c5b52f          	amoadd.d	a0,a2,(a1)
    8020660c:	10054163          	bltz	a0,8020670e <.Lpcrel_hi31+0x10>
    80206610:	6088                	ld	a0,0(s1)
    80206612:	0505                	addi	a0,a0,1
    80206614:	e088                	sd	a0,0(s1)
    80206616:	fab43423          	sd	a1,-88(s0)
    8020661a:	6988                	ld	a0,16(a1)
    8020661c:	56fd                	li	a3,-1
    8020661e:	02d5b5af          	amoadd.d.rl	a1,a3,(a1)
    80206622:	04c59763          	bne	a1,a2,80206670 <.Lpcrel_hi28+0x8c>
    80206626:	0230000f          	fence	r,rw
    8020662a:	84aa                	mv	s1,a0
    8020662c:	fa840513          	addi	a0,s0,-88
    80206630:	00000097          	auipc	ra,0x0
    80206634:	47c080e7          	jalr	1148(ra) # 80206aac <_ZN5alloc4sync16Arc$LT$T$C$A$GT$9drop_slow17ha4dcf4d52c6b29e9E>
    80206638:	8526                	mv	a0,s1
    8020663a:	a81d                	j	80206670 <.Lpcrel_hi28+0x8c>
    8020663c:	6188                	ld	a0,0(a1)
    8020663e:	60e6                	ld	ra,88(sp)
    80206640:	6446                	ld	s0,80(sp)
    80206642:	64a6                	ld	s1,72(sp)
    80206644:	6125                	addi	sp,sp,96
    80206646:	00002317          	auipc	t1,0x2
    8020664a:	cd630067          	jr	-810(t1) # 8020831c <_ZN2os7syscall7process8sys_exec17hc4dbe954adbf7e2aE>
    8020664e:	6188                	ld	a0,0(a1)
    80206650:	6594                	ld	a3,8(a1)
    80206652:	6990                	ld	a2,16(a1)
    80206654:	85b6                	mv	a1,a3
    80206656:	60e6                	ld	ra,88(sp)
    80206658:	6446                	ld	s0,80(sp)
    8020665a:	64a6                	ld	s1,72(sp)
    8020665c:	6125                	addi	sp,sp,96
    8020665e:	00002317          	auipc	t1,0x2
    80206662:	9ea30067          	jr	-1558(t1) # 80208048 <_ZN2os7syscall2fs8sys_read17hcb3b5270bf8f37b2E>
    80206666:	00000097          	auipc	ra,0x0
    8020666a:	758080e7          	jalr	1880(ra) # 80206dbe <_ZN2os4task28suspend_current_and_run_next17haf6a7b431a6fa8bbE>
    8020666e:	4501                	li	a0,0
    80206670:	60e6                	ld	ra,88(sp)
    80206672:	6446                	ld	s0,80(sp)
    80206674:	64a6                	ld	s1,72(sp)
    80206676:	6125                	addi	sp,sp,96
    80206678:	8082                	ret

000000008020667a <.Lpcrel_hi29>:
    8020667a:	00331517          	auipc	a0,0x331
    8020667e:	b8650513          	addi	a0,a0,-1146 # 80537200 <_ZN74_$LT$os..task..processor..PROCESSOR$u20$as$u20$core..ops..deref..Deref$GT$5deref11__stability4LAZY17hb7c09ecbcf5ec318E.llvm.4771765091264844042>
    80206682:	ffffe097          	auipc	ra,0xffffe
    80206686:	f1c080e7          	jalr	-228(ra) # 8020459e <_ZN4spin4once17Once$LT$T$C$R$GT$18try_call_once_slow17ha07339b329b608a7E.llvm.18273212518176036961>
    8020668a:	6088                	ld	a0,0(s1)
    8020668c:	d92d                	beqz	a0,802065fe <.Lpcrel_hi28+0x1a>

000000008020668e <.Lpcrel_hi30>:
    8020668e:	00009517          	auipc	a0,0x9
    80206692:	c6a50513          	addi	a0,a0,-918 # 8020f2f8 <anon.143638ba50f3ca5f2997057583b6f6e7.15.llvm.7411291366835535865>
    80206696:	00004097          	auipc	ra,0x4
    8020669a:	c1a080e7          	jalr	-998(ra) # 8020a2b0 <_ZN4core4cell22panic_already_borrowed17h63023a1bd405c717E>
    8020669e:	05d00613          	li	a2,93
    802066a2:	00c51763          	bne	a0,a2,802066b0 <.Lpcrel_hi30+0x22>
    802066a6:	6188                	ld	a0,0(a1)
    802066a8:	00002097          	auipc	ra,0x2
    802066ac:	aae080e7          	jalr	-1362(ra) # 80208156 <_ZN2os7syscall7process8sys_exit17h29f7d4519d8f7cd9E>
    802066b0:	fa040513          	addi	a0,s0,-96
    802066b4:	fca43c23          	sd	a0,-40(s0)

00000000802066b8 <.Lpcrel_hi24>:
    802066b8:	00006517          	auipc	a0,0x6
    802066bc:	5b450513          	addi	a0,a0,1460 # 8020cc6c <_ZN4core3fmt3num3imp52_$LT$impl$u20$core..fmt..Display$u20$for$u20$u64$GT$3fmt17hdc568abe5d51f18fE>
    802066c0:	fea43023          	sd	a0,-32(s0)

00000000802066c4 <.Lpcrel_hi25>:
    802066c4:	00009517          	auipc	a0,0x9
    802066c8:	c6450513          	addi	a0,a0,-924 # 8020f328 <anon.143638ba50f3ca5f2997057583b6f6e7.17.llvm.7411291366835535865>
    802066cc:	faa43423          	sd	a0,-88(s0)
    802066d0:	4505                	li	a0,1
    802066d2:	faa43823          	sd	a0,-80(s0)
    802066d6:	fc043423          	sd	zero,-56(s0)
    802066da:	fd840593          	addi	a1,s0,-40
    802066de:	fab43c23          	sd	a1,-72(s0)
    802066e2:	fca43023          	sd	a0,-64(s0)

00000000802066e6 <.Lpcrel_hi26>:
    802066e6:	00009517          	auipc	a0,0x9
    802066ea:	c6a50593          	addi	a1,a0,-918 # 8020f350 <anon.143638ba50f3ca5f2997057583b6f6e7.19.llvm.7411291366835535865>
    802066ee:	fa840513          	addi	a0,s0,-88
    802066f2:	00004097          	auipc	ra,0x4
    802066f6:	f5a080e7          	jalr	-166(ra) # 8020a64c <_ZN4core9panicking9panic_fmt17hc25dbb51a4d67a42E>
    802066fa:	0004b023          	sd	zero,0(s1)

00000000802066fe <.Lpcrel_hi31>:
    802066fe:	0000a517          	auipc	a0,0xa
    80206702:	82250513          	addi	a0,a0,-2014 # 8020ff20 <anon.f74f78ffd666ce5c7fdd8ef97087ab59.25.llvm.17946426208055529105>
    80206706:	00004097          	auipc	ra,0x4
    8020670a:	f0a080e7          	jalr	-246(ra) # 8020a610 <_ZN4core6option13unwrap_failed17h3c70806c841faa93E>
	...

0000000080206710 <_ZN66_$LT$os..task..pid..PidHandle$u20$as$u20$core..ops..drop..Drop$GT$4drop17ha30b66f233231962E>:
    80206710:	7159                	addi	sp,sp,-112
    80206712:	f486                	sd	ra,104(sp)
    80206714:	f0a2                	sd	s0,96(sp)
    80206716:	eca6                	sd	s1,88(sp)
    80206718:	e8ca                	sd	s2,80(sp)
    8020671a:	e4ce                	sd	s3,72(sp)
    8020671c:	1880                	addi	s0,sp,112

000000008020671e <.Lpcrel_hi38>:
    8020671e:	00131597          	auipc	a1,0x131
    80206722:	95a58913          	addi	s2,a1,-1702 # 80337078 <_ZN72_$LT$os..task..pid..PID_ALLOCATOR$u20$as$u20$core..ops..deref..Deref$GT$5deref11__stability4LAZY17h34a9ea5ae9c6611dE.llvm.7411291366835535865>
    80206726:	02890583          	lb	a1,40(s2)
    8020672a:	4609                	li	a2,2
    8020672c:	0230000f          	fence	r,rw
    80206730:	0cc59163          	bne	a1,a2,802067f2 <.Lpcrel_hi39>
    80206734:	00093583          	ld	a1,0(s2)
    80206738:	e9f9                	bnez	a1,8020680e <.Lpcrel_hi40>
    8020673a:	6104                	ld	s1,0(a0)
    8020673c:	02093503          	ld	a0,32(s2)
    80206740:	55fd                	li	a1,-1
    80206742:	00b93023          	sd	a1,0(s2)
    80206746:	f8943823          	sd	s1,-112(s0)
    8020674a:	0ca4fa63          	bgeu	s1,a0,8020681e <.Lpcrel_hi41>
    8020674e:	01093503          	ld	a0,16(s2)
    80206752:	01893983          	ld	s3,24(s2)
    80206756:	00399593          	slli	a1,s3,0x3
    8020675a:	862a                	mv	a2,a0
    8020675c:	cda1                	beqz	a1,802067b4 <.Lpcrel_hi45+0x14>
    8020675e:	6214                	ld	a3,0(a2)
    80206760:	0621                	addi	a2,a2,8 # 200008 <$d.6+0x1391ad>
    80206762:	15e1                	addi	a1,a1,-8
    80206764:	fe969ce3          	bne	a3,s1,8020675c <.Lpcrel_hi38+0x3e>
    80206768:	f9040513          	addi	a0,s0,-112
    8020676c:	fca43423          	sd	a0,-56(s0)

0000000080206770 <.Lpcrel_hi43>:
    80206770:	00006517          	auipc	a0,0x6
    80206774:	4fc50513          	addi	a0,a0,1276 # 8020cc6c <_ZN4core3fmt3num3imp52_$LT$impl$u20$core..fmt..Display$u20$for$u20$u64$GT$3fmt17hdc568abe5d51f18fE>
    80206778:	fca43823          	sd	a0,-48(s0)

000000008020677c <.Lpcrel_hi44>:
    8020677c:	00009517          	auipc	a0,0x9
    80206780:	c5450513          	addi	a0,a0,-940 # 8020f3d0 <anon.143638ba50f3ca5f2997057583b6f6e7.25.llvm.7411291366835535865>
    80206784:	f8a43c23          	sd	a0,-104(s0)
    80206788:	4509                	li	a0,2
    8020678a:	faa43023          	sd	a0,-96(s0)
    8020678e:	fa043c23          	sd	zero,-72(s0)
    80206792:	fc840513          	addi	a0,s0,-56
    80206796:	faa43423          	sd	a0,-88(s0)
    8020679a:	4505                	li	a0,1
    8020679c:	faa43823          	sd	a0,-80(s0)

00000000802067a0 <.Lpcrel_hi45>:
    802067a0:	00009517          	auipc	a0,0x9
    802067a4:	c5050593          	addi	a1,a0,-944 # 8020f3f0 <anon.143638ba50f3ca5f2997057583b6f6e7.26.llvm.7411291366835535865>
    802067a8:	f9840513          	addi	a0,s0,-104
    802067ac:	00004097          	auipc	ra,0x4
    802067b0:	ea0080e7          	jalr	-352(ra) # 8020a64c <_ZN4core9panicking9panic_fmt17hc25dbb51a4d67a42E>
    802067b4:	00893583          	ld	a1,8(s2)
    802067b8:	00b99a63          	bne	s3,a1,802067cc <.Lpcrel_hi45+0x2c>
    802067bc:	00890513          	addi	a0,s2,8
    802067c0:	ffffe097          	auipc	ra,0xffffe
    802067c4:	1c2080e7          	jalr	450(ra) # 80204982 <_ZN5alloc7raw_vec19RawVec$LT$T$C$A$GT$8grow_one17h2bc8d088edac8da0E>
    802067c8:	01093503          	ld	a0,16(s2)
    802067cc:	00399593          	slli	a1,s3,0x3
    802067d0:	952e                	add	a0,a0,a1
    802067d2:	e104                	sd	s1,0(a0)
    802067d4:	00093503          	ld	a0,0(s2)
    802067d8:	0985                	addi	s3,s3,1
    802067da:	01393c23          	sd	s3,24(s2)
    802067de:	0505                	addi	a0,a0,1
    802067e0:	00a93023          	sd	a0,0(s2)
    802067e4:	70a6                	ld	ra,104(sp)
    802067e6:	7406                	ld	s0,96(sp)
    802067e8:	64e6                	ld	s1,88(sp)
    802067ea:	6946                	ld	s2,80(sp)
    802067ec:	69a6                	ld	s3,72(sp)
    802067ee:	6165                	addi	sp,sp,112
    802067f0:	8082                	ret

00000000802067f2 <.Lpcrel_hi39>:
    802067f2:	00131597          	auipc	a1,0x131
    802067f6:	88658593          	addi	a1,a1,-1914 # 80337078 <_ZN72_$LT$os..task..pid..PID_ALLOCATOR$u20$as$u20$core..ops..deref..Deref$GT$5deref11__stability4LAZY17h34a9ea5ae9c6611dE.llvm.7411291366835535865>
    802067fa:	84aa                	mv	s1,a0
    802067fc:	852e                	mv	a0,a1
    802067fe:	ffffe097          	auipc	ra,0xffffe
    80206802:	902080e7          	jalr	-1790(ra) # 80204100 <_ZN4spin4once17Once$LT$T$C$R$GT$18try_call_once_slow17h03859503446bdfc1E.llvm.18273212518176036961>
    80206806:	8526                	mv	a0,s1
    80206808:	00093583          	ld	a1,0(s2)
    8020680c:	d59d                	beqz	a1,8020673a <.Lpcrel_hi38+0x1c>

000000008020680e <.Lpcrel_hi40>:
    8020680e:	00009517          	auipc	a0,0x9
    80206812:	aea50513          	addi	a0,a0,-1302 # 8020f2f8 <anon.143638ba50f3ca5f2997057583b6f6e7.15.llvm.7411291366835535865>
    80206816:	00004097          	auipc	ra,0x4
    8020681a:	a9a080e7          	jalr	-1382(ra) # 8020a2b0 <_ZN4core4cell22panic_already_borrowed17h63023a1bd405c717E>

000000008020681e <.Lpcrel_hi41>:
    8020681e:	00009517          	auipc	a0,0x9
    80206822:	b4a50513          	addi	a0,a0,-1206 # 8020f368 <anon.143638ba50f3ca5f2997057583b6f6e7.20.llvm.7411291366835535865>

0000000080206826 <.Lpcrel_hi42>:
    80206826:	00009597          	auipc	a1,0x9
    8020682a:	b7a58613          	addi	a2,a1,-1158 # 8020f3a0 <anon.143638ba50f3ca5f2997057583b6f6e7.22.llvm.7411291366835535865>
    8020682e:	02400593          	li	a1,36
    80206832:	00004097          	auipc	ra,0x4
    80206836:	e4c080e7          	jalr	-436(ra) # 8020a67e <_ZN4core9panicking5panic17h14cc1607a430f055E>

000000008020683a <_ZN2os4task3pid11KernelStack3new17ha7ab7a91b870a19fE>:
    8020683a:	7119                	addi	sp,sp,-128
    8020683c:	fc86                	sd	ra,120(sp)
    8020683e:	f8a2                	sd	s0,112(sp)
    80206840:	f4a6                	sd	s1,104(sp)
    80206842:	f0ca                	sd	s2,96(sp)
    80206844:	0100                	addi	s0,sp,128
    80206846:	00053903          	ld	s2,0(a0)

000000008020684a <.Lpcrel_hi49>:
    8020684a:	00130517          	auipc	a0,0x130
    8020684e:	7ee50493          	addi	s1,a0,2030 # 80337038 <_ZN76_$LT$os..mm..memory_set..KERNEL_SPACE$u20$as$u20$core..ops..deref..Deref$GT$5deref11__stability4LAZY17hc3a1022202feb424E.llvm.3597140058814777251>
    80206852:	00848503          	lb	a0,8(s1)
    80206856:	4589                	li	a1,2
    80206858:	0230000f          	fence	r,rw
    8020685c:	06b51d63          	bne	a0,a1,802068d6 <.Lpcrel_hi50>
    80206860:	6084                	ld	s1,0(s1)
    80206862:	6888                	ld	a0,16(s1)
    80206864:	e541                	bnez	a0,802068ec <.Lpcrel_hi51>
    80206866:	7575                	lui	a0,0xffffd
    80206868:	02a90533          	mul	a0,s2,a0
    8020686c:	080005b7          	lui	a1,0x8000
    80206870:	ffd5861b          	addiw	a2,a1,-3 # 7fffffd <$d.6+0x7f391a2>
    80206874:	0632                	slli	a2,a2,0xc
    80206876:	962a                	add	a2,a2,a0
    80206878:	35fd                	addiw	a1,a1,-1
    8020687a:	05b2                	slli	a1,a1,0xc
    8020687c:	952e                	add	a0,a0,a1
    8020687e:	55fd                	li	a1,-1
    80206880:	e88c                	sd	a1,16(s1)
    80206882:	0566                	slli	a0,a0,0x19
    80206884:	02555593          	srli	a1,a0,0x25
    80206888:	0666                	slli	a2,a2,0x19
    8020688a:	9215                	srli	a2,a2,0x25
    8020688c:	f8c43023          	sd	a2,-128(s0)
    80206890:	f8b43423          	sd	a1,-120(s0)
    80206894:	06c5e463          	bltu	a1,a2,802068fc <.Lpcrel_hi51+0x10>
    80206898:	01848513          	addi	a0,s1,24
    8020689c:	f8c43823          	sd	a2,-112(s0)
    802068a0:	f8b43c23          	sd	a1,-104(s0)
    802068a4:	fa043023          	sd	zero,-96(s0)
    802068a8:	fa043823          	sd	zero,-80(s0)
    802068ac:	10600593          	li	a1,262
    802068b0:	fab41c23          	sh	a1,-72(s0)
    802068b4:	f9040593          	addi	a1,s0,-112
    802068b8:	4601                	li	a2,0
    802068ba:	ffffe097          	auipc	ra,0xffffe
    802068be:	5e4080e7          	jalr	1508(ra) # 80204e9e <_ZN2os2mm10memory_set9MemorySet4push17h213b40d2e087ac5cE.llvm.3597140058814777251>
    802068c2:	6888                	ld	a0,16(s1)
    802068c4:	0505                	addi	a0,a0,1 # ffffffffffffd001 <ebss+0xffffffff7fac5001>
    802068c6:	e888                	sd	a0,16(s1)
    802068c8:	854a                	mv	a0,s2
    802068ca:	70e6                	ld	ra,120(sp)
    802068cc:	7446                	ld	s0,112(sp)
    802068ce:	74a6                	ld	s1,104(sp)
    802068d0:	7906                	ld	s2,96(sp)
    802068d2:	6109                	addi	sp,sp,128
    802068d4:	8082                	ret

00000000802068d6 <.Lpcrel_hi50>:
    802068d6:	00130517          	auipc	a0,0x130
    802068da:	76250513          	addi	a0,a0,1890 # 80337038 <_ZN76_$LT$os..mm..memory_set..KERNEL_SPACE$u20$as$u20$core..ops..deref..Deref$GT$5deref11__stability4LAZY17hc3a1022202feb424E.llvm.3597140058814777251>
    802068de:	ffffe097          	auipc	ra,0xffffe
    802068e2:	d82080e7          	jalr	-638(ra) # 80204660 <_ZN4spin4once17Once$LT$T$C$R$GT$18try_call_once_slow17hd4618571af06a6feE.llvm.18273212518176036961>
    802068e6:	6084                	ld	s1,0(s1)
    802068e8:	6888                	ld	a0,16(s1)
    802068ea:	dd35                	beqz	a0,80206866 <.Lpcrel_hi49+0x1c>

00000000802068ec <.Lpcrel_hi51>:
    802068ec:	00009517          	auipc	a0,0x9
    802068f0:	a0c50513          	addi	a0,a0,-1524 # 8020f2f8 <anon.143638ba50f3ca5f2997057583b6f6e7.15.llvm.7411291366835535865>
    802068f4:	00004097          	auipc	ra,0x4
    802068f8:	9bc080e7          	jalr	-1604(ra) # 8020a2b0 <_ZN4core4cell22panic_already_borrowed17h63023a1bd405c717E>
    802068fc:	f8040513          	addi	a0,s0,-128
    80206900:	fca43023          	sd	a0,-64(s0)

0000000080206904 <.Lpcrel_hi52>:
    80206904:	00000517          	auipc	a0,0x0
    80206908:	a4a50513          	addi	a0,a0,-1462 # 8020634e <_ZN65_$LT$os..mm..address..VirtPageNum$u20$as$u20$core..fmt..Debug$GT$3fmt17hc10c9c874bd62f33E>
    8020690c:	fca43423          	sd	a0,-56(s0)
    80206910:	f8840593          	addi	a1,s0,-120
    80206914:	fcb43823          	sd	a1,-48(s0)
    80206918:	fca43c23          	sd	a0,-40(s0)

000000008020691c <.Lpcrel_hi53>:
    8020691c:	00009517          	auipc	a0,0x9
    80206920:	98450513          	addi	a0,a0,-1660 # 8020f2a0 <anon.143638ba50f3ca5f2997057583b6f6e7.12.llvm.7411291366835535865>
    80206924:	f8a43823          	sd	a0,-112(s0)
    80206928:	450d                	li	a0,3
    8020692a:	f8a43c23          	sd	a0,-104(s0)
    8020692e:	fa043823          	sd	zero,-80(s0)
    80206932:	fc040513          	addi	a0,s0,-64
    80206936:	faa43023          	sd	a0,-96(s0)
    8020693a:	4509                	li	a0,2
    8020693c:	faa43423          	sd	a0,-88(s0)

0000000080206940 <.Lpcrel_hi54>:
    80206940:	00009517          	auipc	a0,0x9
    80206944:	99050593          	addi	a1,a0,-1648 # 8020f2d0 <anon.143638ba50f3ca5f2997057583b6f6e7.13.llvm.7411291366835535865>
    80206948:	f9040513          	addi	a0,s0,-112
    8020694c:	00004097          	auipc	ra,0x4
    80206950:	d00080e7          	jalr	-768(ra) # 8020a64c <_ZN4core9panicking9panic_fmt17hc25dbb51a4d67a42E>

0000000080206954 <_ZN4core3fmt3num52_$LT$impl$u20$core..fmt..Debug$u20$for$u20$usize$GT$3fmt17h1c8a6d16de8eed31E>:
    80206954:	1141                	addi	sp,sp,-16
    80206956:	e406                	sd	ra,8(sp)
    80206958:	e022                	sd	s0,0(sp)
    8020695a:	0800                	addi	s0,sp,16
    8020695c:	0345e603          	lwu	a2,52(a1)
    80206960:	01067693          	andi	a3,a2,16
    80206964:	ea99                	bnez	a3,8020697a <_ZN4core3fmt3num52_$LT$impl$u20$core..fmt..Debug$u20$for$u20$usize$GT$3fmt17h1c8a6d16de8eed31E+0x26>
    80206966:	02067613          	andi	a2,a2,32
    8020696a:	ee19                	bnez	a2,80206988 <_ZN4core3fmt3num52_$LT$impl$u20$core..fmt..Debug$u20$for$u20$usize$GT$3fmt17h1c8a6d16de8eed31E+0x34>
    8020696c:	60a2                	ld	ra,8(sp)
    8020696e:	6402                	ld	s0,0(sp)
    80206970:	0141                	addi	sp,sp,16
    80206972:	00006317          	auipc	t1,0x6
    80206976:	2fa30067          	jr	762(t1) # 8020cc6c <_ZN4core3fmt3num3imp52_$LT$impl$u20$core..fmt..Display$u20$for$u20$u64$GT$3fmt17hdc568abe5d51f18fE>
    8020697a:	60a2                	ld	ra,8(sp)
    8020697c:	6402                	ld	s0,0(sp)
    8020697e:	0141                	addi	sp,sp,16
    80206980:	00006317          	auipc	t1,0x6
    80206984:	e4630067          	jr	-442(t1) # 8020c7c6 <_ZN4core3fmt3num53_$LT$impl$u20$core..fmt..LowerHex$u20$for$u20$i64$GT$3fmt17h2c0862d8e5218d41E>
    80206988:	60a2                	ld	ra,8(sp)
    8020698a:	6402                	ld	s0,0(sp)
    8020698c:	0141                	addi	sp,sp,16
    8020698e:	00006317          	auipc	t1,0x6
    80206992:	eae30067          	jr	-338(t1) # 8020c83c <_ZN4core3fmt3num53_$LT$impl$u20$core..fmt..UpperHex$u20$for$u20$i64$GT$3fmt17hdf92147260748110E>

0000000080206996 <_ZN4core3ptr26drop_in_place$LT$usize$GT$17h40a7505068525d3fE>:
    80206996:	1141                	addi	sp,sp,-16
    80206998:	e406                	sd	ra,8(sp)
    8020699a:	e022                	sd	s0,0(sp)
    8020699c:	0800                	addi	s0,sp,16
    8020699e:	60a2                	ld	ra,8(sp)
    802069a0:	6402                	ld	s0,0(sp)
    802069a2:	0141                	addi	sp,sp,16
    802069a4:	8082                	ret

00000000802069a6 <_ZN4core9panicking13panic_display17hec9890bd8dd636faE>:
    802069a6:	715d                	addi	sp,sp,-80
    802069a8:	e486                	sd	ra,72(sp)
    802069aa:	e0a2                	sd	s0,64(sp)
    802069ac:	0880                	addi	s0,sp,80

00000000802069ae <.Lpcrel_hi0>:
    802069ae:	00009517          	auipc	a0,0x9
    802069b2:	b9a50513          	addi	a0,a0,-1126 # 8020f548 <.Lanon.27350e15de5d016ee03e2199cffb0e8d.4>
    802069b6:	fea43023          	sd	a0,-32(s0)

00000000802069ba <.Lpcrel_hi1>:
    802069ba:	00001517          	auipc	a0,0x1
    802069be:	43650513          	addi	a0,a0,1078 # 80207df0 <_ZN44_$LT$$RF$T$u20$as$u20$core..fmt..Display$GT$3fmt17h94ae1e7ddf36d575E>
    802069c2:	fea43423          	sd	a0,-24(s0)

00000000802069c6 <.Lpcrel_hi2>:
    802069c6:	00009517          	auipc	a0,0x9
    802069ca:	ab250513          	addi	a0,a0,-1358 # 8020f478 <anon.f74f78ffd666ce5c7fdd8ef97087ab59.5.llvm.17946426208055529105>
    802069ce:	faa43823          	sd	a0,-80(s0)
    802069d2:	4505                	li	a0,1
    802069d4:	faa43c23          	sd	a0,-72(s0)
    802069d8:	fc043823          	sd	zero,-48(s0)
    802069dc:	fe040593          	addi	a1,s0,-32
    802069e0:	fcb43023          	sd	a1,-64(s0)
    802069e4:	fca43423          	sd	a0,-56(s0)

00000000802069e8 <.Lpcrel_hi3>:
    802069e8:	00009517          	auipc	a0,0x9
    802069ec:	bc050593          	addi	a1,a0,-1088 # 8020f5a8 <.Lanon.27350e15de5d016ee03e2199cffb0e8d.6>
    802069f0:	fb040513          	addi	a0,s0,-80
    802069f4:	00004097          	auipc	ra,0x4
    802069f8:	c58080e7          	jalr	-936(ra) # 8020a64c <_ZN4core9panicking9panic_fmt17hc25dbb51a4d67a42E>

00000000802069fc <_ZN5alloc11collections5btree3map5entry30OccupiedEntry$LT$K$C$V$C$A$GT$9remove_kv17h387b455fd275d555E>:
    802069fc:	715d                	addi	sp,sp,-80
    802069fe:	e486                	sd	ra,72(sp)
    80206a00:	e0a2                	sd	s0,64(sp)
    80206a02:	fc26                	sd	s1,56(sp)
    80206a04:	f84a                	sd	s2,48(sp)
    80206a06:	0880                	addi	s0,sp,80
    80206a08:	84aa                	mv	s1,a0
    80206a0a:	fa040ba3          	sb	zero,-73(s0)
    80206a0e:	fb840513          	addi	a0,s0,-72
    80206a12:	fb740613          	addi	a2,s0,-73
    80206a16:	85a6                	mv	a1,s1
    80206a18:	ffffd097          	auipc	ra,0xffffd
    80206a1c:	950080e7          	jalr	-1712(ra) # 80203368 <_ZN5alloc11collections5btree6remove269_$LT$impl$u20$alloc..collections..btree..node..Handle$LT$alloc..collections..btree..node..NodeRef$LT$alloc..collections..btree..node..marker..Mut$C$K$C$V$C$alloc..collections..btree..node..marker..LeafOrInternal$GT$$C$alloc..collections..btree..node..marker..KV$GT$$GT$18remove_kv_tracking17h122efe7f6256d38dE>
    80206a20:	6c88                	ld	a0,24(s1)
    80206a22:	fb843903          	ld	s2,-72(s0)
    80206a26:	690c                	ld	a1,16(a0)
    80206a28:	fb744603          	lbu	a2,-73(s0)
    80206a2c:	fc043483          	ld	s1,-64(s0)
    80206a30:	15fd                	addi	a1,a1,-1
    80206a32:	e90c                	sd	a1,16(a0)
    80206a34:	c615                	beqz	a2,80206a60 <.Lpcrel_hi9+0x16>
    80206a36:	610c                	ld	a1,0(a0)
    80206a38:	cd85                	beqz	a1,80206a70 <.Lpcrel_hi6>
    80206a3a:	6510                	ld	a2,8(a0)
    80206a3c:	c231                	beqz	a2,80206a80 <.Lpcrel_hi7>
    80206a3e:	61f4                	ld	a3,192(a1)
    80206a40:	e114                	sd	a3,0(a0)
    80206a42:	167d                	addi	a2,a2,-1
    80206a44:	e510                	sd	a2,8(a0)
    80206a46:	0006b023          	sd	zero,0(a3)

0000000080206a4a <.Lpcrel_hi9>:
    80206a4a:	00330517          	auipc	a0,0x330
    80206a4e:	65e50513          	addi	a0,a0,1630 # 805370a8 <_ZN2os2mm14heap_allocator14HEAP_ALLOCATOR17hdb009eb0a1c201beE.llvm.13289308715828321855>
    80206a52:	4621                	li	a2,8
    80206a54:	12000693          	li	a3,288
    80206a58:	00003097          	auipc	ra,0x3
    80206a5c:	4b6080e7          	jalr	1206(ra) # 80209f0e <_ZN87_$LT$buddy_system_allocator..LockedHeap$u20$as$u20$core..alloc..global..GlobalAlloc$GT$7dealloc17h5e5f6d74b20ea42eE>
    80206a60:	854a                	mv	a0,s2
    80206a62:	85a6                	mv	a1,s1
    80206a64:	60a6                	ld	ra,72(sp)
    80206a66:	6406                	ld	s0,64(sp)
    80206a68:	74e2                	ld	s1,56(sp)
    80206a6a:	7942                	ld	s2,48(sp)
    80206a6c:	6161                	addi	sp,sp,80
    80206a6e:	8082                	ret

0000000080206a70 <.Lpcrel_hi6>:
    80206a70:	00009517          	auipc	a0,0x9
    80206a74:	aa850513          	addi	a0,a0,-1368 # 8020f518 <anon.27350e15de5d016ee03e2199cffb0e8d.2.llvm.13289308715828321855>
    80206a78:	00004097          	auipc	ra,0x4
    80206a7c:	b98080e7          	jalr	-1128(ra) # 8020a610 <_ZN4core6option13unwrap_failed17h3c70806c841faa93E>

0000000080206a80 <.Lpcrel_hi7>:
    80206a80:	00007517          	auipc	a0,0x7
    80206a84:	70850513          	addi	a0,a0,1800 # 8020e188 <anon.c9bd757c4b1eb4bed5837722d22f1849.11.llvm.3360772450061652031>

0000000080206a88 <.Lpcrel_hi8>:
    80206a88:	00007597          	auipc	a1,0x7
    80206a8c:	72858613          	addi	a2,a1,1832 # 8020e1b0 <anon.c9bd757c4b1eb4bed5837722d22f1849.12.llvm.3360772450061652031>
    80206a90:	02100593          	li	a1,33
    80206a94:	00004097          	auipc	ra,0x4
    80206a98:	bea080e7          	jalr	-1046(ra) # 8020a67e <_ZN4core9panicking5panic17h14cc1607a430f055E>

0000000080206a9c <_ZN5alloc4sync16Arc$LT$T$C$A$GT$9downgrade18panic_cold_display17h2f1e0dddf020d748E.llvm.13289308715828321855>:
    80206a9c:	1141                	addi	sp,sp,-16
    80206a9e:	e406                	sd	ra,8(sp)
    80206aa0:	e022                	sd	s0,0(sp)
    80206aa2:	0800                	addi	s0,sp,16
    80206aa4:	00000097          	auipc	ra,0x0
    80206aa8:	f02080e7          	jalr	-254(ra) # 802069a6 <_ZN4core9panicking13panic_display17hec9890bd8dd636faE>

0000000080206aac <_ZN5alloc4sync16Arc$LT$T$C$A$GT$9drop_slow17ha4dcf4d52c6b29e9E>:
    80206aac:	7139                	addi	sp,sp,-64
    80206aae:	fc06                	sd	ra,56(sp)
    80206ab0:	f822                	sd	s0,48(sp)
    80206ab2:	f426                	sd	s1,40(sp)
    80206ab4:	f04a                	sd	s2,32(sp)
    80206ab6:	ec4e                	sd	s3,24(sp)
    80206ab8:	e852                	sd	s4,16(sp)
    80206aba:	e456                	sd	s5,8(sp)
    80206abc:	0080                	addi	s0,sp,64
    80206abe:	00053903          	ld	s2,0(a0)
    80206ac2:	01090513          	addi	a0,s2,16
    80206ac6:	00000097          	auipc	ra,0x0
    80206aca:	c4a080e7          	jalr	-950(ra) # 80206710 <_ZN66_$LT$os..task..pid..PidHandle$u20$as$u20$core..ops..drop..Drop$GT$4drop17ha30b66f233231962E>
    80206ace:	01893983          	ld	s3,24(s2)

0000000080206ad2 <.Lpcrel_hi10>:
    80206ad2:	00130517          	auipc	a0,0x130
    80206ad6:	56650493          	addi	s1,a0,1382 # 80337038 <_ZN76_$LT$os..mm..memory_set..KERNEL_SPACE$u20$as$u20$core..ops..deref..Deref$GT$5deref11__stability4LAZY17hc3a1022202feb424E.llvm.3597140058814777251>
    80206ada:	00848503          	lb	a0,8(s1)
    80206ade:	4589                	li	a1,2
    80206ae0:	0230000f          	fence	r,rw
    80206ae4:	18b51a63          	bne	a0,a1,80206c78 <.Lpcrel_hi11>
    80206ae8:	6084                	ld	s1,0(s1)
    80206aea:	6888                	ld	a0,16(s1)
    80206aec:	1a051263          	bnez	a0,80206c90 <.Lpcrel_hi12>
    80206af0:	08000537          	lui	a0,0x8000
    80206af4:	3575                	addiw	a0,a0,-3 # 7fffffd <$d.6+0x7f391a2>
    80206af6:	0532                	slli	a0,a0,0xc
    80206af8:	02a985b3          	mul	a1,s3,a0
    80206afc:	95aa                	add	a1,a1,a0
    80206afe:	557d                	li	a0,-1
    80206b00:	e888                	sd	a0,16(s1)
    80206b02:	01848513          	addi	a0,s1,24
    80206b06:	05e6                	slli	a1,a1,0x19
    80206b08:	9195                	srli	a1,a1,0x25
    80206b0a:	ffffe097          	auipc	ra,0xffffe
    80206b0e:	158080e7          	jalr	344(ra) # 80204c62 <_ZN2os2mm10memory_set9MemorySet26remove_area_with_start_vpn17h5ccde2ce30df2e57E>
    80206b12:	6888                	ld	a0,16(s1)
    80206b14:	0505                	addi	a0,a0,1
    80206b16:	e888                	sd	a0,16(s1)
    80206b18:	03893983          	ld	s3,56(s2)
    80206b1c:	00098d63          	beqz	s3,80206b36 <.Lpcrel_hi10+0x64>
    80206b20:	03093483          	ld	s1,48(s2)
    80206b24:	8526                	mv	a0,s1
    80206b26:	ffffd097          	auipc	ra,0xffffd
    80206b2a:	aa0080e7          	jalr	-1376(ra) # 802035c6 <_ZN79_$LT$os..mm..frame_allocator..FrameTracker$u20$as$u20$core..ops..drop..Drop$GT$4drop17h22547e58a5031c24E>
    80206b2e:	19fd                	addi	s3,s3,-1
    80206b30:	04a1                	addi	s1,s1,8
    80206b32:	fe0999e3          	bnez	s3,80206b24 <.Lpcrel_hi10+0x52>
    80206b36:	02893683          	ld	a3,40(s2)
    80206b3a:	ce89                	beqz	a3,80206b54 <.Lpcrel_hi13+0x12>
    80206b3c:	03093583          	ld	a1,48(s2)
    80206b40:	068e                	slli	a3,a3,0x3

0000000080206b42 <.Lpcrel_hi13>:
    80206b42:	00330517          	auipc	a0,0x330
    80206b46:	56650513          	addi	a0,a0,1382 # 805370a8 <_ZN2os2mm14heap_allocator14HEAP_ALLOCATOR17hdb009eb0a1c201beE.llvm.13289308715828321855>
    80206b4a:	4621                	li	a2,8
    80206b4c:	00003097          	auipc	ra,0x3
    80206b50:	3c2080e7          	jalr	962(ra) # 80209f0e <_ZN87_$LT$buddy_system_allocator..LockedHeap$u20$as$u20$core..alloc..global..GlobalAlloc$GT$7dealloc17h5e5f6d74b20ea42eE>
    80206b54:	05893983          	ld	s3,88(s2)
    80206b58:	00098f63          	beqz	s3,80206b76 <.Lpcrel_hi13+0x34>
    80206b5c:	05093483          	ld	s1,80(s2)
    80206b60:	04c1                	addi	s1,s1,16
    80206b62:	8526                	mv	a0,s1
    80206b64:	00002097          	auipc	ra,0x2
    80206b68:	cca080e7          	jalr	-822(ra) # 8020882e <_ZN99_$LT$alloc..collections..btree..map..BTreeMap$LT$K$C$V$C$A$GT$$u20$as$u20$core..ops..drop..Drop$GT$4drop17h1b8eadadec77b2e0E>
    80206b6c:	19fd                	addi	s3,s3,-1
    80206b6e:	03048493          	addi	s1,s1,48
    80206b72:	fe0998e3          	bnez	s3,80206b62 <.Lpcrel_hi13+0x20>
    80206b76:	04893503          	ld	a0,72(s2)
    80206b7a:	c105                	beqz	a0,80206b9a <.Lpcrel_hi14+0x12>
    80206b7c:	05093583          	ld	a1,80(s2)
    80206b80:	03000613          	li	a2,48
    80206b84:	02c506b3          	mul	a3,a0,a2

0000000080206b88 <.Lpcrel_hi14>:
    80206b88:	00330517          	auipc	a0,0x330
    80206b8c:	52050513          	addi	a0,a0,1312 # 805370a8 <_ZN2os2mm14heap_allocator14HEAP_ALLOCATOR17hdb009eb0a1c201beE.llvm.13289308715828321855>
    80206b90:	4621                	li	a2,8
    80206b92:	00003097          	auipc	ra,0x3
    80206b96:	37c080e7          	jalr	892(ra) # 80209f0e <_ZN87_$LT$buddy_system_allocator..LockedHeap$u20$as$u20$core..alloc..global..GlobalAlloc$GT$7dealloc17h5e5f6d74b20ea42eE>
    80206b9a:	0f893583          	ld	a1,248(s2)
    80206b9e:	00158513          	addi	a0,a1,1
    80206ba2:	4609                	li	a2,2
    80206ba4:	0ac57463          	bgeu	a0,a2,80206c4c <.Lpcrel_hi17+0x3e>
    80206ba8:	07093983          	ld	s3,112(s2)
    80206bac:	02098863          	beqz	s3,80206bdc <.Lpcrel_hi14+0x54>
    80206bb0:	06893483          	ld	s1,104(s2)
    80206bb4:	5a7d                	li	s4,-1
    80206bb6:	4a85                	li	s5,1
    80206bb8:	a029                	j	80206bc2 <.Lpcrel_hi14+0x3a>
    80206bba:	19fd                	addi	s3,s3,-1
    80206bbc:	04a1                	addi	s1,s1,8
    80206bbe:	00098f63          	beqz	s3,80206bdc <.Lpcrel_hi14+0x54>
    80206bc2:	6088                	ld	a0,0(s1)
    80206bc4:	0345352f          	amoadd.d.rl	a0,s4,(a0)
    80206bc8:	ff5519e3          	bne	a0,s5,80206bba <.Lpcrel_hi14+0x32>
    80206bcc:	0230000f          	fence	r,rw
    80206bd0:	8526                	mv	a0,s1
    80206bd2:	00000097          	auipc	ra,0x0
    80206bd6:	eda080e7          	jalr	-294(ra) # 80206aac <_ZN5alloc4sync16Arc$LT$T$C$A$GT$9drop_slow17ha4dcf4d52c6b29e9E>
    80206bda:	b7c5                	j	80206bba <.Lpcrel_hi14+0x32>
    80206bdc:	06093683          	ld	a3,96(s2)
    80206be0:	ce89                	beqz	a3,80206bfa <.Lpcrel_hi16+0x12>
    80206be2:	06893583          	ld	a1,104(s2)
    80206be6:	068e                	slli	a3,a3,0x3

0000000080206be8 <.Lpcrel_hi16>:
    80206be8:	00330517          	auipc	a0,0x330
    80206bec:	4c050513          	addi	a0,a0,1216 # 805370a8 <_ZN2os2mm14heap_allocator14HEAP_ALLOCATOR17hdb009eb0a1c201beE.llvm.13289308715828321855>
    80206bf0:	4621                	li	a2,8
    80206bf2:	00003097          	auipc	ra,0x3
    80206bf6:	31c080e7          	jalr	796(ra) # 80209f0e <_ZN87_$LT$buddy_system_allocator..LockedHeap$u20$as$u20$core..alloc..global..GlobalAlloc$GT$7dealloc17h5e5f6d74b20ea42eE>
    80206bfa:	557d                	li	a0,-1
    80206bfc:	02a90f63          	beq	s2,a0,80206c3a <.Lpcrel_hi17+0x2c>
    80206c00:	00890593          	addi	a1,s2,8
    80206c04:	02a5b52f          	amoadd.d.rl	a0,a0,(a1)
    80206c08:	4585                	li	a1,1
    80206c0a:	02b51863          	bne	a0,a1,80206c3a <.Lpcrel_hi17+0x2c>

0000000080206c0e <.Lpcrel_hi17>:
    80206c0e:	00330517          	auipc	a0,0x330
    80206c12:	49a50513          	addi	a0,a0,1178 # 805370a8 <_ZN2os2mm14heap_allocator14HEAP_ALLOCATOR17hdb009eb0a1c201beE.llvm.13289308715828321855>
    80206c16:	4621                	li	a2,8
    80206c18:	10800693          	li	a3,264
    80206c1c:	0230000f          	fence	r,rw
    80206c20:	85ca                	mv	a1,s2
    80206c22:	70e2                	ld	ra,56(sp)
    80206c24:	7442                	ld	s0,48(sp)
    80206c26:	74a2                	ld	s1,40(sp)
    80206c28:	7902                	ld	s2,32(sp)
    80206c2a:	69e2                	ld	s3,24(sp)
    80206c2c:	6a42                	ld	s4,16(sp)
    80206c2e:	6aa2                	ld	s5,8(sp)
    80206c30:	6121                	addi	sp,sp,64
    80206c32:	00003317          	auipc	t1,0x3
    80206c36:	2dc30067          	jr	732(t1) # 80209f0e <_ZN87_$LT$buddy_system_allocator..LockedHeap$u20$as$u20$core..alloc..global..GlobalAlloc$GT$7dealloc17h5e5f6d74b20ea42eE>
    80206c3a:	70e2                	ld	ra,56(sp)
    80206c3c:	7442                	ld	s0,48(sp)
    80206c3e:	74a2                	ld	s1,40(sp)
    80206c40:	7902                	ld	s2,32(sp)
    80206c42:	69e2                	ld	s3,24(sp)
    80206c44:	6a42                	ld	s4,16(sp)
    80206c46:	6aa2                	ld	s5,8(sp)
    80206c48:	6121                	addi	sp,sp,64
    80206c4a:	8082                	ret
    80206c4c:	00858513          	addi	a0,a1,8
    80206c50:	567d                	li	a2,-1
    80206c52:	02c5352f          	amoadd.d.rl	a0,a2,(a0)
    80206c56:	4605                	li	a2,1
    80206c58:	f4c518e3          	bne	a0,a2,80206ba8 <.Lpcrel_hi14+0x20>
    80206c5c:	0230000f          	fence	r,rw

0000000080206c60 <.Lpcrel_hi15>:
    80206c60:	00330517          	auipc	a0,0x330
    80206c64:	44850513          	addi	a0,a0,1096 # 805370a8 <_ZN2os2mm14heap_allocator14HEAP_ALLOCATOR17hdb009eb0a1c201beE.llvm.13289308715828321855>
    80206c68:	4621                	li	a2,8
    80206c6a:	10800693          	li	a3,264
    80206c6e:	00003097          	auipc	ra,0x3
    80206c72:	2a0080e7          	jalr	672(ra) # 80209f0e <_ZN87_$LT$buddy_system_allocator..LockedHeap$u20$as$u20$core..alloc..global..GlobalAlloc$GT$7dealloc17h5e5f6d74b20ea42eE>
    80206c76:	bf0d                	j	80206ba8 <.Lpcrel_hi14+0x20>

0000000080206c78 <.Lpcrel_hi11>:
    80206c78:	00130517          	auipc	a0,0x130
    80206c7c:	3c050513          	addi	a0,a0,960 # 80337038 <_ZN76_$LT$os..mm..memory_set..KERNEL_SPACE$u20$as$u20$core..ops..deref..Deref$GT$5deref11__stability4LAZY17hc3a1022202feb424E.llvm.3597140058814777251>
    80206c80:	ffffe097          	auipc	ra,0xffffe
    80206c84:	9e0080e7          	jalr	-1568(ra) # 80204660 <_ZN4spin4once17Once$LT$T$C$R$GT$18try_call_once_slow17hd4618571af06a6feE.llvm.18273212518176036961>
    80206c88:	6084                	ld	s1,0(s1)
    80206c8a:	6888                	ld	a0,16(s1)
    80206c8c:	e60502e3          	beqz	a0,80206af0 <.Lpcrel_hi10+0x1e>

0000000080206c90 <.Lpcrel_hi12>:
    80206c90:	00008517          	auipc	a0,0x8
    80206c94:	66850513          	addi	a0,a0,1640 # 8020f2f8 <anon.143638ba50f3ca5f2997057583b6f6e7.15.llvm.7411291366835535865>
    80206c98:	00003097          	auipc	ra,0x3
    80206c9c:	618080e7          	jalr	1560(ra) # 8020a2b0 <_ZN4core4cell22panic_already_borrowed17h63023a1bd405c717E>

0000000080206ca0 <_ZN64_$LT$core..alloc..layout..Layout$u20$as$u20$core..fmt..Debug$GT$3fmt17h51e5266db9ce105fE>:
    80206ca0:	7179                	addi	sp,sp,-48
    80206ca2:	f406                	sd	ra,40(sp)
    80206ca4:	f022                	sd	s0,32(sp)
    80206ca6:	1800                	addi	s0,sp,48
    80206ca8:	82ae                	mv	t0,a1
    80206caa:	00850793          	addi	a5,a0,8
    80206cae:	fea43423          	sd	a0,-24(s0)

0000000080206cb2 <.Lpcrel_hi18>:
    80206cb2:	00009517          	auipc	a0,0x9
    80206cb6:	93e50513          	addi	a0,a0,-1730 # 8020f5f0 <.Lanon.27350e15de5d016ee03e2199cffb0e8d.11>
    80206cba:	e82a                	sd	a0,16(sp)
    80206cbc:	fe840513          	addi	a0,s0,-24
    80206cc0:	e42a                	sd	a0,8(sp)
    80206cc2:	4515                	li	a0,5

0000000080206cc4 <.Lpcrel_hi19>:
    80206cc4:	00009597          	auipc	a1,0x9
    80206cc8:	8fc58593          	addi	a1,a1,-1796 # 8020f5c0 <.Lanon.27350e15de5d016ee03e2199cffb0e8d.7>

0000000080206ccc <.Lpcrel_hi20>:
    80206ccc:	00008617          	auipc	a2,0x8
    80206cd0:	aac60693          	addi	a3,a2,-1364 # 8020e778 <$d.30>

0000000080206cd4 <.Lpcrel_hi21>:
    80206cd4:	00009617          	auipc	a2,0x9
    80206cd8:	8f460813          	addi	a6,a2,-1804 # 8020f5c8 <.Lanon.27350e15de5d016ee03e2199cffb0e8d.9>

0000000080206cdc <.Lpcrel_hi22>:
    80206cdc:	00009617          	auipc	a2,0x9
    80206ce0:	90c60893          	addi	a7,a2,-1780 # 8020f5e8 <.Lanon.27350e15de5d016ee03e2199cffb0e8d.10>
    80206ce4:	4619                	li	a2,6
    80206ce6:	4711                	li	a4,4
    80206ce8:	e02a                	sd	a0,0(sp)
    80206cea:	8516                	mv	a0,t0
    80206cec:	00005097          	auipc	ra,0x5
    80206cf0:	972080e7          	jalr	-1678(ra) # 8020b65e <_ZN4core3fmt9Formatter26debug_struct_field2_finish17hbec8a996f47ae8f1E>
    80206cf4:	70a2                	ld	ra,40(sp)
    80206cf6:	7402                	ld	s0,32(sp)
    80206cf8:	6145                	addi	sp,sp,48
    80206cfa:	8082                	ret

0000000080206cfc <rust_begin_unwind>:
    80206cfc:	7175                	addi	sp,sp,-144
    80206cfe:	e506                	sd	ra,136(sp)
    80206d00:	e122                	sd	s0,128(sp)
    80206d02:	0900                	addi	s0,sp,144
    80206d04:	6d0c                	ld	a1,24(a0)

0000000080206d06 <.Lpcrel_hi24>:
    80206d06:	00330617          	auipc	a2,0x330
    80206d0a:	59260613          	addi	a2,a2,1426 # 80537298 <_ZN3log20MAX_LOG_LEVEL_FILTER17hb4cf212c3d31f4afE>
    80206d0e:	6210                	ld	a2,0(a2)
    80206d10:	c255                	beqz	a2,80206db4 <.Lpcrel_hi30+0x1a>
    80206d12:	6190                	ld	a2,0(a1)
    80206d14:	6594                	ld	a3,8(a1)
    80206d16:	498c                	lw	a1,16(a1)
    80206d18:	6908                	ld	a0,16(a0)
    80206d1a:	fcc43823          	sd	a2,-48(s0)
    80206d1e:	fcd43c23          	sd	a3,-40(s0)
    80206d22:	feb42223          	sw	a1,-28(s0)
    80206d26:	e909                	bnez	a0,80206d38 <.Lpcrel_hi25+0x10>

0000000080206d28 <.Lpcrel_hi25>:
    80206d28:	00009517          	auipc	a0,0x9
    80206d2c:	98050513          	addi	a0,a0,-1664 # 8020f6a8 <.Lanon.27350e15de5d016ee03e2199cffb0e8d.19>
    80206d30:	00004097          	auipc	ra,0x4
    80206d34:	8e0080e7          	jalr	-1824(ra) # 8020a610 <_ZN4core6option13unwrap_failed17h3c70806c841faa93E>
    80206d38:	fea43423          	sd	a0,-24(s0)
    80206d3c:	fd040513          	addi	a0,s0,-48
    80206d40:	faa43023          	sd	a0,-96(s0)

0000000080206d44 <.Lpcrel_hi26>:
    80206d44:	00001517          	auipc	a0,0x1
    80206d48:	0ac50513          	addi	a0,a0,172 # 80207df0 <_ZN44_$LT$$RF$T$u20$as$u20$core..fmt..Display$GT$3fmt17h94ae1e7ddf36d575E>
    80206d4c:	faa43423          	sd	a0,-88(s0)
    80206d50:	fe440513          	addi	a0,s0,-28
    80206d54:	faa43823          	sd	a0,-80(s0)

0000000080206d58 <.Lpcrel_hi27>:
    80206d58:	00006517          	auipc	a0,0x6
    80206d5c:	ef650513          	addi	a0,a0,-266 # 8020cc4e <_ZN4core3fmt3num3imp52_$LT$impl$u20$core..fmt..Display$u20$for$u20$u32$GT$3fmt17hd2e5044e983b3e9aE>
    80206d60:	faa43c23          	sd	a0,-72(s0)
    80206d64:	fe840513          	addi	a0,s0,-24
    80206d68:	fca43023          	sd	a0,-64(s0)

0000000080206d6c <.Lpcrel_hi28>:
    80206d6c:	00001517          	auipc	a0,0x1
    80206d70:	0a650513          	addi	a0,a0,166 # 80207e12 <_ZN44_$LT$$RF$T$u20$as$u20$core..fmt..Display$GT$3fmt17ha5cf166c7bdb4b65E>
    80206d74:	fca43423          	sd	a0,-56(s0)

0000000080206d78 <.Lpcrel_hi29>:
    80206d78:	00009517          	auipc	a0,0x9
    80206d7c:	90050513          	addi	a0,a0,-1792 # 8020f678 <.Lanon.27350e15de5d016ee03e2199cffb0e8d.18>
    80206d80:	f6a43823          	sd	a0,-144(s0)
    80206d84:	450d                	li	a0,3
    80206d86:	f6a43c23          	sd	a0,-136(s0)
    80206d8a:	f8043823          	sd	zero,-112(s0)
    80206d8e:	fa040593          	addi	a1,s0,-96
    80206d92:	f8b43023          	sd	a1,-128(s0)
    80206d96:	f8a43423          	sd	a0,-120(s0)

0000000080206d9a <.Lpcrel_hi30>:
    80206d9a:	00009517          	auipc	a0,0x9
    80206d9e:	89650613          	addi	a2,a0,-1898 # 8020f630 <.Lanon.27350e15de5d016ee03e2199cffb0e8d.14>
    80206da2:	f7040513          	addi	a0,s0,-144
    80206da6:	4585                	li	a1,1
    80206da8:	46a5                	li	a3,9
    80206daa:	4701                	li	a4,0
    80206dac:	00003097          	auipc	ra,0x3
    80206db0:	1f2080e7          	jalr	498(ra) # 80209f9e <_ZN3log13__private_api8log_impl17hdbe05055724c6cbbE>
    80206db4:	4505                	li	a0,1
    80206db6:	00002097          	auipc	ra,0x2
    80206dba:	bc4080e7          	jalr	-1084(ra) # 8020897a <_ZN2os3sbi8shutdown17hd2d2866f4c34dd21E>

0000000080206dbe <_ZN2os4task28suspend_current_and_run_next17haf6a7b431a6fa8bbE>:
    80206dbe:	7179                	addi	sp,sp,-48
    80206dc0:	f406                	sd	ra,40(sp)
    80206dc2:	f022                	sd	s0,32(sp)
    80206dc4:	ec26                	sd	s1,24(sp)
    80206dc6:	e84a                	sd	s2,16(sp)
    80206dc8:	e44e                	sd	s3,8(sp)
    80206dca:	1800                	addi	s0,sp,48

0000000080206dcc <.Lpcrel_hi33>:
    80206dcc:	00330517          	auipc	a0,0x330
    80206dd0:	43450993          	addi	s3,a0,1076 # 80537200 <_ZN74_$LT$os..task..processor..PROCESSOR$u20$as$u20$core..ops..deref..Deref$GT$5deref11__stability4LAZY17hb7c09ecbcf5ec318E.llvm.4771765091264844042>
    80206dd4:	08098503          	lb	a0,128(s3)
    80206dd8:	4589                	li	a1,2
    80206dda:	0230000f          	fence	r,rw
    80206dde:	0ab51c63          	bne	a0,a1,80206e96 <.Lpcrel_hi34>
    80206de2:	0009b503          	ld	a0,0(s3)
    80206de6:	e179                	bnez	a0,80206eac <.Lpcrel_hi35>
    80206de8:	0789b903          	ld	s2,120(s3)
    80206dec:	0609bc23          	sd	zero,120(s3)
    80206df0:	0009b023          	sd	zero,0(s3)
    80206df4:	10090963          	beqz	s2,80206f06 <.Lpcrel_hi36>
    80206df8:	02093503          	ld	a0,32(s2)
    80206dfc:	10051d63          	bnez	a0,80206f16 <.Lpcrel_hi37>
    80206e00:	10090223          	sb	zero,260(s2)
    80206e04:	02093023          	sd	zero,32(s2)

0000000080206e08 <.Lpcrel_hi38>:
    80206e08:	00130517          	auipc	a0,0x130
    80206e0c:	24050493          	addi	s1,a0,576 # 80337048 <_ZN75_$LT$os..task..manager..TASK_MANAGER$u20$as$u20$core..ops..deref..Deref$GT$5deref11__stability4LAZY17h0f96fcc08b9753d5E.llvm.7411291366835535865>
    80206e10:	02848503          	lb	a0,40(s1)
    80206e14:	4589                	li	a1,2
    80206e16:	0230000f          	fence	r,rw
    80206e1a:	0ab51163          	bne	a0,a1,80206ebc <.Lpcrel_hi39>
    80206e1e:	6088                	ld	a0,0(s1)
    80206e20:	e945                	bnez	a0,80206ed0 <.Lpcrel_hi40>
    80206e22:	708c                	ld	a1,32(s1)
    80206e24:	6488                	ld	a0,8(s1)
    80206e26:	567d                	li	a2,-1
    80206e28:	e090                	sd	a2,0(s1)
    80206e2a:	00a59a63          	bne	a1,a0,80206e3e <.Lpcrel_hi38+0x36>
    80206e2e:	00848513          	addi	a0,s1,8
    80206e32:	fffff097          	auipc	ra,0xfffff
    80206e36:	498080e7          	jalr	1176(ra) # 802062ca <_ZN5alloc11collections9vec_deque21VecDeque$LT$T$C$A$GT$4grow17hb847be41881224acE.llvm.7411291366835535865>
    80206e3a:	708c                	ld	a1,32(s1)
    80206e3c:	6488                	ld	a0,8(s1)
    80206e3e:	6c90                	ld	a2,24(s1)
    80206e40:	95b2                	add	a1,a1,a2
    80206e42:	00a5b633          	sltu	a2,a1,a0
    80206e46:	167d                	addi	a2,a2,-1
    80206e48:	6894                	ld	a3,16(s1)
    80206e4a:	8d71                	and	a0,a0,a2
    80206e4c:	8d89                	sub	a1,a1,a0
    80206e4e:	058e                	slli	a1,a1,0x3
    80206e50:	95b6                	add	a1,a1,a3
    80206e52:	0125b023          	sd	s2,0(a1)
    80206e56:	7088                	ld	a0,32(s1)
    80206e58:	608c                	ld	a1,0(s1)
    80206e5a:	0505                	addi	a0,a0,1
    80206e5c:	f088                	sd	a0,32(s1)
    80206e5e:	0585                	addi	a1,a1,1
    80206e60:	e08c                	sd	a1,0(s1)
    80206e62:	08098503          	lb	a0,128(s3)
    80206e66:	4589                	li	a1,2
    80206e68:	0230000f          	fence	r,rw
    80206e6c:	06b51a63          	bne	a0,a1,80206ee0 <.Lpcrel_hi41>
    80206e70:	0009b503          	ld	a0,0(s3)
    80206e74:	e149                	bnez	a0,80206ef6 <.Lpcrel_hi42>
    80206e76:	08890513          	addi	a0,s2,136
    80206e7a:	00898593          	addi	a1,s3,8
    80206e7e:	0009b023          	sd	zero,0(s3)
    80206e82:	70a2                	ld	ra,40(sp)
    80206e84:	7402                	ld	s0,32(sp)
    80206e86:	64e2                	ld	s1,24(sp)
    80206e88:	6942                	ld	s2,16(sp)
    80206e8a:	69a2                	ld	s3,8(sp)
    80206e8c:	6145                	addi	sp,sp,48
    80206e8e:	00000317          	auipc	t1,0x0
    80206e92:	5ac30067          	jr	1452(t1) # 8020743a <__switch>

0000000080206e96 <.Lpcrel_hi34>:
    80206e96:	00330517          	auipc	a0,0x330
    80206e9a:	36a50513          	addi	a0,a0,874 # 80537200 <_ZN74_$LT$os..task..processor..PROCESSOR$u20$as$u20$core..ops..deref..Deref$GT$5deref11__stability4LAZY17hb7c09ecbcf5ec318E.llvm.4771765091264844042>
    80206e9e:	ffffd097          	auipc	ra,0xffffd
    80206ea2:	700080e7          	jalr	1792(ra) # 8020459e <_ZN4spin4once17Once$LT$T$C$R$GT$18try_call_once_slow17ha07339b329b608a7E.llvm.18273212518176036961>
    80206ea6:	0009b503          	ld	a0,0(s3)
    80206eaa:	dd1d                	beqz	a0,80206de8 <.Lpcrel_hi33+0x1c>

0000000080206eac <.Lpcrel_hi35>:
    80206eac:	00008517          	auipc	a0,0x8
    80206eb0:	44c50513          	addi	a0,a0,1100 # 8020f2f8 <anon.143638ba50f3ca5f2997057583b6f6e7.15.llvm.7411291366835535865>
    80206eb4:	00003097          	auipc	ra,0x3
    80206eb8:	3fc080e7          	jalr	1020(ra) # 8020a2b0 <_ZN4core4cell22panic_already_borrowed17h63023a1bd405c717E>

0000000080206ebc <.Lpcrel_hi39>:
    80206ebc:	00130517          	auipc	a0,0x130
    80206ec0:	18c50513          	addi	a0,a0,396 # 80337048 <_ZN75_$LT$os..task..manager..TASK_MANAGER$u20$as$u20$core..ops..deref..Deref$GT$5deref11__stability4LAZY17h0f96fcc08b9753d5E.llvm.7411291366835535865>
    80206ec4:	ffffd097          	auipc	ra,0xffffd
    80206ec8:	23c080e7          	jalr	572(ra) # 80204100 <_ZN4spin4once17Once$LT$T$C$R$GT$18try_call_once_slow17h03859503446bdfc1E.llvm.18273212518176036961>
    80206ecc:	6088                	ld	a0,0(s1)
    80206ece:	d931                	beqz	a0,80206e22 <.Lpcrel_hi38+0x1a>

0000000080206ed0 <.Lpcrel_hi40>:
    80206ed0:	00008517          	auipc	a0,0x8
    80206ed4:	42850513          	addi	a0,a0,1064 # 8020f2f8 <anon.143638ba50f3ca5f2997057583b6f6e7.15.llvm.7411291366835535865>
    80206ed8:	00003097          	auipc	ra,0x3
    80206edc:	3d8080e7          	jalr	984(ra) # 8020a2b0 <_ZN4core4cell22panic_already_borrowed17h63023a1bd405c717E>

0000000080206ee0 <.Lpcrel_hi41>:
    80206ee0:	00330517          	auipc	a0,0x330
    80206ee4:	32050513          	addi	a0,a0,800 # 80537200 <_ZN74_$LT$os..task..processor..PROCESSOR$u20$as$u20$core..ops..deref..Deref$GT$5deref11__stability4LAZY17hb7c09ecbcf5ec318E.llvm.4771765091264844042>
    80206ee8:	ffffd097          	auipc	ra,0xffffd
    80206eec:	6b6080e7          	jalr	1718(ra) # 8020459e <_ZN4spin4once17Once$LT$T$C$R$GT$18try_call_once_slow17ha07339b329b608a7E.llvm.18273212518176036961>
    80206ef0:	0009b503          	ld	a0,0(s3)
    80206ef4:	d149                	beqz	a0,80206e76 <.Lpcrel_hi38+0x6e>

0000000080206ef6 <.Lpcrel_hi42>:
    80206ef6:	00008517          	auipc	a0,0x8
    80206efa:	40250513          	addi	a0,a0,1026 # 8020f2f8 <anon.143638ba50f3ca5f2997057583b6f6e7.15.llvm.7411291366835535865>
    80206efe:	00003097          	auipc	ra,0x3
    80206f02:	3b2080e7          	jalr	946(ra) # 8020a2b0 <_ZN4core4cell22panic_already_borrowed17h63023a1bd405c717E>

0000000080206f06 <.Lpcrel_hi36>:
    80206f06:	00008517          	auipc	a0,0x8
    80206f0a:	7ca50513          	addi	a0,a0,1994 # 8020f6d0 <anon.27350e15de5d016ee03e2199cffb0e8d.21.llvm.13289308715828321855>
    80206f0e:	00003097          	auipc	ra,0x3
    80206f12:	702080e7          	jalr	1794(ra) # 8020a610 <_ZN4core6option13unwrap_failed17h3c70806c841faa93E>

0000000080206f16 <.Lpcrel_hi37>:
    80206f16:	00008517          	auipc	a0,0x8
    80206f1a:	3e250513          	addi	a0,a0,994 # 8020f2f8 <anon.143638ba50f3ca5f2997057583b6f6e7.15.llvm.7411291366835535865>
    80206f1e:	00003097          	auipc	ra,0x3
    80206f22:	392080e7          	jalr	914(ra) # 8020a2b0 <_ZN4core4cell22panic_already_borrowed17h63023a1bd405c717E>

0000000080206f26 <_ZN2os4task25exit_current_and_run_next17h852c15de548e53f0E>:
    80206f26:	716d                	addi	sp,sp,-272
    80206f28:	e606                	sd	ra,264(sp)
    80206f2a:	e222                	sd	s0,256(sp)
    80206f2c:	fda6                	sd	s1,248(sp)
    80206f2e:	f9ca                	sd	s2,240(sp)
    80206f30:	f5ce                	sd	s3,232(sp)
    80206f32:	f1d2                	sd	s4,224(sp)
    80206f34:	edd6                	sd	s5,216(sp)
    80206f36:	e9da                	sd	s6,208(sp)
    80206f38:	e5de                	sd	s7,200(sp)
    80206f3a:	e1e2                	sd	s8,192(sp)
    80206f3c:	fd66                	sd	s9,184(sp)
    80206f3e:	f96a                	sd	s10,176(sp)
    80206f40:	f56e                	sd	s11,168(sp)
    80206f42:	0a00                	addi	s0,sp,272
    80206f44:	f0a42a23          	sw	a0,-236(s0)

0000000080206f48 <.Lpcrel_hi43>:
    80206f48:	00330597          	auipc	a1,0x330
    80206f4c:	2b858a93          	addi	s5,a1,696 # 80537200 <_ZN74_$LT$os..task..processor..PROCESSOR$u20$as$u20$core..ops..deref..Deref$GT$5deref11__stability4LAZY17hb7c09ecbcf5ec318E.llvm.4771765091264844042>
    80206f50:	080a8583          	lb	a1,128(s5)
    80206f54:	4609                	li	a2,2
    80206f56:	0230000f          	fence	r,rw
    80206f5a:	24c59d63          	bne	a1,a2,802071b4 <.Lpcrel_hi44>
    80206f5e:	000ab583          	ld	a1,0(s5)
    80206f62:	26059863          	bnez	a1,802071d2 <.Lpcrel_hi45>
    80206f66:	078abc03          	ld	s8,120(s5)
    80206f6a:	060abc23          	sd	zero,120(s5)
    80206f6e:	000ab023          	sd	zero,0(s5)
    80206f72:	2c0c0e63          	beqz	s8,8020724e <.Lpcrel_hi46>
    80206f76:	010c3583          	ld	a1,16(s8)
    80206f7a:	2e058263          	beqz	a1,8020725e <.Lpcrel_hi46+0x10>
    80206f7e:	020c3583          	ld	a1,32(s8)
    80206f82:	32059763          	bnez	a1,802072b0 <.Lpcrel_hi47>
    80206f86:	55fd                	li	a1,-1
    80206f88:	02bc3023          	sd	a1,32(s8)
    80206f8c:	4589                	li	a1,2
    80206f8e:	10bc0223          	sb	a1,260(s8)
    80206f92:	10ac2023          	sw	a0,256(s8)

0000000080206f96 <.Lpcrel_hi48>:
    80206f96:	00330517          	auipc	a0,0x330
    80206f9a:	23a50b13          	addi	s6,a0,570 # 805371d0 <_ZN62_$LT$os..task..INITPROC$u20$as$u20$core..ops..deref..Deref$GT$5deref11__stability4LAZY17h621ff5e5df04952fE.llvm.13289308715828321855>
    80206f9e:	008b0503          	lb	a0,8(s6)
    80206fa2:	0230000f          	fence	r,rw
    80206fa6:	22b51e63          	bne	a0,a1,802071e2 <.Lpcrel_hi49>
    80206faa:	000b3b83          	ld	s7,0(s6)
    80206fae:	020bb503          	ld	a0,32(s7)
    80206fb2:	24051663          	bnez	a0,802071fe <.Lpcrel_hi50>
    80206fb6:	54fd                	li	s1,-1
    80206fb8:	029bb023          	sd	s1,32(s7)
    80206fbc:	070c3503          	ld	a0,112(s8)
    80206fc0:	10050863          	beqz	a0,802070d0 <.Lpcrel_hi51+0xf2>
    80206fc4:	f1543023          	sd	s5,-256(s0)
    80206fc8:	ef843c23          	sd	s8,-264(s0)
    80206fcc:	068c3d83          	ld	s11,104(s8)
    80206fd0:	050e                	slli	a0,a0,0x3
    80206fd2:	00ad8c33          	add	s8,s11,a0
    80206fd6:	060b8913          	addi	s2,s7,96
    80206fda:	4c89                	li	s9,2
    80206fdc:	4d05                	li	s10,1

0000000080206fde <.Lpcrel_hi51>:
    80206fde:	00330517          	auipc	a0,0x330
    80206fe2:	0ca50513          	addi	a0,a0,202 # 805370a8 <_ZN2os2mm14heap_allocator14HEAP_ALLOCATOR17hdb009eb0a1c201beE.llvm.13289308715828321855>
    80206fe6:	f0a43423          	sd	a0,-248(s0)
    80206fea:	a831                	j	80207006 <.Lpcrel_hi51+0x28>
    80206fec:	068bb503          	ld	a0,104(s7)
    80206ff0:	003a9593          	slli	a1,s5,0x3
    80206ff4:	952e                	add	a0,a0,a1
    80206ff6:	01353023          	sd	s3,0(a0)
    80206ffa:	0a85                	addi	s5,s5,1
    80206ffc:	075bb823          	sd	s5,112(s7)
    80207000:	8dd2                	mv	s11,s4
    80207002:	0d8a0063          	beq	s4,s8,802070c2 <.Lpcrel_hi51+0xe4>
    80207006:	008b0503          	lb	a0,8(s6)
    8020700a:	0230000f          	fence	r,rw
    8020700e:	0b951463          	bne	a0,s9,802070b6 <.Lpcrel_hi51+0xd8>
    80207012:	000b3983          	ld	s3,0(s6)
    80207016:	008d8a13          	addi	s4,s11,8
    8020701a:	00898513          	addi	a0,s3,8
    8020701e:	a019                	j	80207024 <.Lpcrel_hi51+0x46>
    80207020:	0100000f          	fence	w,unknown
    80207024:	0089b603          	ld	a2,8(s3)
    80207028:	fe960ce3          	beq	a2,s1,80207020 <.Lpcrel_hi51+0x42>
    8020702c:	85b2                	mv	a1,a2
    8020702e:	20064363          	bltz	a2,80207234 <.Lpcrel_hi55+0x10>
    80207032:	00158693          	addi	a3,a1,1
    80207036:	1405362f          	lr.d.aq	a2,(a0)
    8020703a:	feb617e3          	bne	a2,a1,80207028 <.Lpcrel_hi51+0x4a>
    8020703e:	18d5372f          	sc.d	a4,a3,(a0)
    80207042:	fb75                	bnez	a4,80207036 <.Lpcrel_hi51+0x58>
    80207044:	000dba83          	ld	s5,0(s11)
    80207048:	020ab503          	ld	a0,32(s5)
    8020704c:	1e051963          	bnez	a0,8020723e <.Lpcrel_hi56>
    80207050:	0f8ab583          	ld	a1,248(s5)
    80207054:	00158513          	addi	a0,a1,1
    80207058:	029ab023          	sd	s1,32(s5)
    8020705c:	03957b63          	bgeu	a0,s9,80207092 <.Lpcrel_hi51+0xb4>
    80207060:	020ab503          	ld	a0,32(s5)
    80207064:	0f3abc23          	sd	s3,248(s5)
    80207068:	0505                	addi	a0,a0,1
    8020706a:	02aab023          	sd	a0,32(s5)
    8020706e:	000db983          	ld	s3,0(s11)
    80207072:	01a9b52f          	amoadd.d	a0,s10,(s3)
    80207076:	1c054363          	bltz	a0,8020723c <.Lpcrel_hi55+0x18>
    8020707a:	070bba83          	ld	s5,112(s7)
    8020707e:	060bb503          	ld	a0,96(s7)
    80207082:	f6aa95e3          	bne	s5,a0,80206fec <.Lpcrel_hi51+0xe>
    80207086:	854a                	mv	a0,s2
    80207088:	ffffe097          	auipc	ra,0xffffe
    8020708c:	8fa080e7          	jalr	-1798(ra) # 80204982 <_ZN5alloc7raw_vec19RawVec$LT$T$C$A$GT$8grow_one17h2bc8d088edac8da0E>
    80207090:	bfb1                	j	80206fec <.Lpcrel_hi51+0xe>
    80207092:	00858513          	addi	a0,a1,8
    80207096:	0295352f          	amoadd.d.rl	a0,s1,(a0)
    8020709a:	fda513e3          	bne	a0,s10,80207060 <.Lpcrel_hi51+0x82>
    8020709e:	0230000f          	fence	r,rw
    802070a2:	4621                	li	a2,8
    802070a4:	10800693          	li	a3,264
    802070a8:	f0843503          	ld	a0,-248(s0)
    802070ac:	00003097          	auipc	ra,0x3
    802070b0:	e62080e7          	jalr	-414(ra) # 80209f0e <_ZN87_$LT$buddy_system_allocator..LockedHeap$u20$as$u20$core..alloc..global..GlobalAlloc$GT$7dealloc17h5e5f6d74b20ea42eE>
    802070b4:	b775                	j	80207060 <.Lpcrel_hi51+0x82>
    802070b6:	855a                	mv	a0,s6
    802070b8:	ffffd097          	auipc	ra,0xffffd
    802070bc:	1e0080e7          	jalr	480(ra) # 80204298 <_ZN4spin4once17Once$LT$T$C$R$GT$18try_call_once_slow17h453df6ba65f3ba7aE.llvm.18273212518176036961>
    802070c0:	bf89                	j	80207012 <.Lpcrel_hi51+0x34>
    802070c2:	020bb503          	ld	a0,32(s7)
    802070c6:	0505                	addi	a0,a0,1
    802070c8:	f0043a83          	ld	s5,-256(s0)
    802070cc:	ef843c03          	ld	s8,-264(s0)
    802070d0:	02abb023          	sd	a0,32(s7)
    802070d4:	070c3903          	ld	s2,112(s8)
    802070d8:	068c3483          	ld	s1,104(s8)
    802070dc:	060c3823          	sd	zero,112(s8)
    802070e0:	02090663          	beqz	s2,8020710c <.Lpcrel_hi51+0x12e>
    802070e4:	59fd                	li	s3,-1
    802070e6:	4a05                	li	s4,1
    802070e8:	a029                	j	802070f2 <.Lpcrel_hi51+0x114>
    802070ea:	197d                	addi	s2,s2,-1
    802070ec:	04a1                	addi	s1,s1,8
    802070ee:	00090f63          	beqz	s2,8020710c <.Lpcrel_hi51+0x12e>
    802070f2:	6088                	ld	a0,0(s1)
    802070f4:	0335352f          	amoadd.d.rl	a0,s3,(a0)
    802070f8:	ff4519e3          	bne	a0,s4,802070ea <.Lpcrel_hi51+0x10c>
    802070fc:	0230000f          	fence	r,rw
    80207100:	8526                	mv	a0,s1
    80207102:	00000097          	auipc	ra,0x0
    80207106:	9aa080e7          	jalr	-1622(ra) # 80206aac <_ZN5alloc4sync16Arc$LT$T$C$A$GT$9drop_slow17ha4dcf4d52c6b29e9E>
    8020710a:	b7c5                	j	802070ea <.Lpcrel_hi51+0x10c>
    8020710c:	058c3903          	ld	s2,88(s8)
    80207110:	050c3483          	ld	s1,80(s8)
    80207114:	040c3c23          	sd	zero,88(s8)
    80207118:	00090d63          	beqz	s2,80207132 <.Lpcrel_hi51+0x154>
    8020711c:	04c1                	addi	s1,s1,16
    8020711e:	8526                	mv	a0,s1
    80207120:	00001097          	auipc	ra,0x1
    80207124:	70e080e7          	jalr	1806(ra) # 8020882e <_ZN99_$LT$alloc..collections..btree..map..BTreeMap$LT$K$C$V$C$A$GT$$u20$as$u20$core..ops..drop..Drop$GT$4drop17h1b8eadadec77b2e0E>
    80207128:	197d                	addi	s2,s2,-1
    8020712a:	03048493          	addi	s1,s1,48
    8020712e:	fe0918e3          	bnez	s2,8020711e <.Lpcrel_hi51+0x140>
    80207132:	020c3503          	ld	a0,32(s8)
    80207136:	0505                	addi	a0,a0,1
    80207138:	02ac3023          	sd	a0,32(s8)
    8020713c:	f3843423          	sd	s8,-216(s0)
    80207140:	557d                	li	a0,-1
    80207142:	02ac352f          	amoadd.d.rl	a0,a0,(s8)
    80207146:	4585                	li	a1,1
    80207148:	00b51a63          	bne	a0,a1,8020715c <.Lpcrel_hi51+0x17e>
    8020714c:	0230000f          	fence	r,rw
    80207150:	f2840513          	addi	a0,s0,-216
    80207154:	00000097          	auipc	ra,0x0
    80207158:	958080e7          	jalr	-1704(ra) # 80206aac <_ZN5alloc4sync16Arc$LT$T$C$A$GT$9drop_slow17ha4dcf4d52c6b29e9E>
    8020715c:	f2840513          	addi	a0,s0,-216
    80207160:	07000613          	li	a2,112
    80207164:	4581                	li	a1,0
    80207166:	00006097          	auipc	ra,0x6
    8020716a:	f86080e7          	jalr	-122(ra) # 8020d0ec <memset>
    8020716e:	080a8503          	lb	a0,128(s5)
    80207172:	4589                	li	a1,2
    80207174:	0230000f          	fence	r,rw
    80207178:	08b51b63          	bne	a0,a1,8020720e <.Lpcrel_hi54>
    8020717c:	000ab503          	ld	a0,0(s5)
    80207180:	e155                	bnez	a0,80207224 <.Lpcrel_hi55>
    80207182:	000ab023          	sd	zero,0(s5)
    80207186:	008a8593          	addi	a1,s5,8
    8020718a:	f2840513          	addi	a0,s0,-216
    8020718e:	00000097          	auipc	ra,0x0
    80207192:	2ac080e7          	jalr	684(ra) # 8020743a <__switch>
    80207196:	60b2                	ld	ra,264(sp)
    80207198:	6412                	ld	s0,256(sp)
    8020719a:	74ee                	ld	s1,248(sp)
    8020719c:	794e                	ld	s2,240(sp)
    8020719e:	79ae                	ld	s3,232(sp)
    802071a0:	7a0e                	ld	s4,224(sp)
    802071a2:	6aee                	ld	s5,216(sp)
    802071a4:	6b4e                	ld	s6,208(sp)
    802071a6:	6bae                	ld	s7,200(sp)
    802071a8:	6c0e                	ld	s8,192(sp)
    802071aa:	7cea                	ld	s9,184(sp)
    802071ac:	7d4a                	ld	s10,176(sp)
    802071ae:	7daa                	ld	s11,168(sp)
    802071b0:	6151                	addi	sp,sp,272
    802071b2:	8082                	ret

00000000802071b4 <.Lpcrel_hi44>:
    802071b4:	00330597          	auipc	a1,0x330
    802071b8:	04c58593          	addi	a1,a1,76 # 80537200 <_ZN74_$LT$os..task..processor..PROCESSOR$u20$as$u20$core..ops..deref..Deref$GT$5deref11__stability4LAZY17hb7c09ecbcf5ec318E.llvm.4771765091264844042>
    802071bc:	84aa                	mv	s1,a0
    802071be:	852e                	mv	a0,a1
    802071c0:	ffffd097          	auipc	ra,0xffffd
    802071c4:	3de080e7          	jalr	990(ra) # 8020459e <_ZN4spin4once17Once$LT$T$C$R$GT$18try_call_once_slow17ha07339b329b608a7E.llvm.18273212518176036961>
    802071c8:	8526                	mv	a0,s1
    802071ca:	000ab583          	ld	a1,0(s5)
    802071ce:	d8058ce3          	beqz	a1,80206f66 <.Lpcrel_hi43+0x1e>

00000000802071d2 <.Lpcrel_hi45>:
    802071d2:	00008517          	auipc	a0,0x8
    802071d6:	12650513          	addi	a0,a0,294 # 8020f2f8 <anon.143638ba50f3ca5f2997057583b6f6e7.15.llvm.7411291366835535865>
    802071da:	00003097          	auipc	ra,0x3
    802071de:	0d6080e7          	jalr	214(ra) # 8020a2b0 <_ZN4core4cell22panic_already_borrowed17h63023a1bd405c717E>

00000000802071e2 <.Lpcrel_hi49>:
    802071e2:	00330517          	auipc	a0,0x330
    802071e6:	fee50513          	addi	a0,a0,-18 # 805371d0 <_ZN62_$LT$os..task..INITPROC$u20$as$u20$core..ops..deref..Deref$GT$5deref11__stability4LAZY17h621ff5e5df04952fE.llvm.13289308715828321855>
    802071ea:	ffffd097          	auipc	ra,0xffffd
    802071ee:	0ae080e7          	jalr	174(ra) # 80204298 <_ZN4spin4once17Once$LT$T$C$R$GT$18try_call_once_slow17h453df6ba65f3ba7aE.llvm.18273212518176036961>
    802071f2:	000b3b83          	ld	s7,0(s6)
    802071f6:	020bb503          	ld	a0,32(s7)
    802071fa:	da050ee3          	beqz	a0,80206fb6 <.Lpcrel_hi48+0x20>

00000000802071fe <.Lpcrel_hi50>:
    802071fe:	00008517          	auipc	a0,0x8
    80207202:	0fa50513          	addi	a0,a0,250 # 8020f2f8 <anon.143638ba50f3ca5f2997057583b6f6e7.15.llvm.7411291366835535865>
    80207206:	00003097          	auipc	ra,0x3
    8020720a:	0aa080e7          	jalr	170(ra) # 8020a2b0 <_ZN4core4cell22panic_already_borrowed17h63023a1bd405c717E>

000000008020720e <.Lpcrel_hi54>:
    8020720e:	00330517          	auipc	a0,0x330
    80207212:	ff250513          	addi	a0,a0,-14 # 80537200 <_ZN74_$LT$os..task..processor..PROCESSOR$u20$as$u20$core..ops..deref..Deref$GT$5deref11__stability4LAZY17hb7c09ecbcf5ec318E.llvm.4771765091264844042>
    80207216:	ffffd097          	auipc	ra,0xffffd
    8020721a:	388080e7          	jalr	904(ra) # 8020459e <_ZN4spin4once17Once$LT$T$C$R$GT$18try_call_once_slow17ha07339b329b608a7E.llvm.18273212518176036961>
    8020721e:	000ab503          	ld	a0,0(s5)
    80207222:	d125                	beqz	a0,80207182 <.Lpcrel_hi51+0x1a4>

0000000080207224 <.Lpcrel_hi55>:
    80207224:	00008517          	auipc	a0,0x8
    80207228:	0d450513          	addi	a0,a0,212 # 8020f2f8 <anon.143638ba50f3ca5f2997057583b6f6e7.15.llvm.7411291366835535865>
    8020722c:	00003097          	auipc	ra,0x3
    80207230:	084080e7          	jalr	132(ra) # 8020a2b0 <_ZN4core4cell22panic_already_borrowed17h63023a1bd405c717E>
    80207234:	00000097          	auipc	ra,0x0
    80207238:	868080e7          	jalr	-1944(ra) # 80206a9c <_ZN5alloc4sync16Arc$LT$T$C$A$GT$9downgrade18panic_cold_display17h2f1e0dddf020d748E.llvm.13289308715828321855>
	...

000000008020723e <.Lpcrel_hi56>:
    8020723e:	00008517          	auipc	a0,0x8
    80207242:	0ba50513          	addi	a0,a0,186 # 8020f2f8 <anon.143638ba50f3ca5f2997057583b6f6e7.15.llvm.7411291366835535865>
    80207246:	00003097          	auipc	ra,0x3
    8020724a:	06a080e7          	jalr	106(ra) # 8020a2b0 <_ZN4core4cell22panic_already_borrowed17h63023a1bd405c717E>

000000008020724e <.Lpcrel_hi46>:
    8020724e:	00008517          	auipc	a0,0x8
    80207252:	49a50513          	addi	a0,a0,1178 # 8020f6e8 <.Lanon.27350e15de5d016ee03e2199cffb0e8d.22>
    80207256:	00003097          	auipc	ra,0x3
    8020725a:	3ba080e7          	jalr	954(ra) # 8020a610 <_ZN4core6option13unwrap_failed17h3c70806c841faa93E>
    8020725e:	f1440513          	addi	a0,s0,-236
    80207262:	f0a43c23          	sd	a0,-232(s0)

0000000080207266 <.Lpcrel_hi52>:
    80207266:	00006517          	auipc	a0,0x6
    8020726a:	9b850513          	addi	a0,a0,-1608 # 8020cc1e <_ZN4core3fmt3num3imp52_$LT$impl$u20$core..fmt..Display$u20$for$u20$i32$GT$3fmt17h2bd07d710de2d86aE>
    8020726e:	f2a43023          	sd	a0,-224(s0)

0000000080207272 <.Lpcrel_hi53>:
    80207272:	00008517          	auipc	a0,0x8
    80207276:	4be50513          	addi	a0,a0,1214 # 8020f730 <.Lanon.27350e15de5d016ee03e2199cffb0e8d.25>
    8020727a:	f2a43423          	sd	a0,-216(s0)
    8020727e:	4509                	li	a0,2
    80207280:	f2a43823          	sd	a0,-208(s0)
    80207284:	f4043423          	sd	zero,-184(s0)
    80207288:	f1840513          	addi	a0,s0,-232
    8020728c:	f2a43c23          	sd	a0,-200(s0)
    80207290:	4505                	li	a0,1
    80207292:	f4a43023          	sd	a0,-192(s0)
    80207296:	f2840513          	addi	a0,s0,-216
    8020729a:	00000097          	auipc	ra,0x0
    8020729e:	590080e7          	jalr	1424(ra) # 8020782a <_ZN2os7console5print17hb0238f93bcb82e2aE>
    802072a2:	f1442503          	lw	a0,-236(s0)
    802072a6:	ed09                	bnez	a0,802072c0 <.Lpcrel_hi47+0x10>
    802072a8:	00001097          	auipc	ra,0x1
    802072ac:	6d2080e7          	jalr	1746(ra) # 8020897a <_ZN2os3sbi8shutdown17hd2d2866f4c34dd21E>

00000000802072b0 <.Lpcrel_hi47>:
    802072b0:	00008517          	auipc	a0,0x8
    802072b4:	04850513          	addi	a0,a0,72 # 8020f2f8 <anon.143638ba50f3ca5f2997057583b6f6e7.15.llvm.7411291366835535865>
    802072b8:	00003097          	auipc	ra,0x3
    802072bc:	ff8080e7          	jalr	-8(ra) # 8020a2b0 <_ZN4core4cell22panic_already_borrowed17h63023a1bd405c717E>
    802072c0:	4505                	li	a0,1
    802072c2:	00001097          	auipc	ra,0x1
    802072c6:	6b8080e7          	jalr	1720(ra) # 8020897a <_ZN2os3sbi8shutdown17hd2d2866f4c34dd21E>

00000000802072ca <_ZN2os4task12add_initproc17hc3491e9cdc958ce2E>:
    802072ca:	1101                	addi	sp,sp,-32
    802072cc:	ec06                	sd	ra,24(sp)
    802072ce:	e822                	sd	s0,16(sp)
    802072d0:	e426                	sd	s1,8(sp)
    802072d2:	e04a                	sd	s2,0(sp)
    802072d4:	1000                	addi	s0,sp,32

00000000802072d6 <.Lpcrel_hi57>:
    802072d6:	00330517          	auipc	a0,0x330
    802072da:	efa50493          	addi	s1,a0,-262 # 805371d0 <_ZN62_$LT$os..task..INITPROC$u20$as$u20$core..ops..deref..Deref$GT$5deref11__stability4LAZY17h621ff5e5df04952fE.llvm.13289308715828321855>
    802072de:	00848503          	lb	a0,8(s1)
    802072e2:	4589                	li	a1,2
    802072e4:	0230000f          	fence	r,rw
    802072e8:	06b51c63          	bne	a0,a1,80207360 <.Lpcrel_hi58>
    802072ec:	0004b903          	ld	s2,0(s1)
    802072f0:	4505                	li	a0,1
    802072f2:	00a9352f          	amoadd.d	a0,a0,(s2)
    802072f6:	08054463          	bltz	a0,8020737e <.Lpcrel_hi58+0x1e>

00000000802072fa <.Lpcrel_hi59>:
    802072fa:	00130517          	auipc	a0,0x130
    802072fe:	d4e50493          	addi	s1,a0,-690 # 80337048 <_ZN75_$LT$os..task..manager..TASK_MANAGER$u20$as$u20$core..ops..deref..Deref$GT$5deref11__stability4LAZY17h0f96fcc08b9753d5E.llvm.7411291366835535865>
    80207302:	02848503          	lb	a0,40(s1)
    80207306:	4589                	li	a1,2
    80207308:	0230000f          	fence	r,rw
    8020730c:	06b51a63          	bne	a0,a1,80207380 <.Lpcrel_hi60>
    80207310:	6088                	ld	a0,0(s1)
    80207312:	e149                	bnez	a0,80207394 <.Lpcrel_hi61>
    80207314:	708c                	ld	a1,32(s1)
    80207316:	6488                	ld	a0,8(s1)
    80207318:	567d                	li	a2,-1
    8020731a:	e090                	sd	a2,0(s1)
    8020731c:	00a59a63          	bne	a1,a0,80207330 <.Lpcrel_hi59+0x36>
    80207320:	00848513          	addi	a0,s1,8
    80207324:	fffff097          	auipc	ra,0xfffff
    80207328:	fa6080e7          	jalr	-90(ra) # 802062ca <_ZN5alloc11collections9vec_deque21VecDeque$LT$T$C$A$GT$4grow17hb847be41881224acE.llvm.7411291366835535865>
    8020732c:	708c                	ld	a1,32(s1)
    8020732e:	6488                	ld	a0,8(s1)
    80207330:	6c90                	ld	a2,24(s1)
    80207332:	95b2                	add	a1,a1,a2
    80207334:	00a5b633          	sltu	a2,a1,a0
    80207338:	167d                	addi	a2,a2,-1
    8020733a:	6894                	ld	a3,16(s1)
    8020733c:	8d71                	and	a0,a0,a2
    8020733e:	8d89                	sub	a1,a1,a0
    80207340:	058e                	slli	a1,a1,0x3
    80207342:	95b6                	add	a1,a1,a3
    80207344:	0125b023          	sd	s2,0(a1)
    80207348:	7088                	ld	a0,32(s1)
    8020734a:	608c                	ld	a1,0(s1)
    8020734c:	0505                	addi	a0,a0,1
    8020734e:	f088                	sd	a0,32(s1)
    80207350:	0585                	addi	a1,a1,1
    80207352:	e08c                	sd	a1,0(s1)
    80207354:	60e2                	ld	ra,24(sp)
    80207356:	6442                	ld	s0,16(sp)
    80207358:	64a2                	ld	s1,8(sp)
    8020735a:	6902                	ld	s2,0(sp)
    8020735c:	6105                	addi	sp,sp,32
    8020735e:	8082                	ret

0000000080207360 <.Lpcrel_hi58>:
    80207360:	00330517          	auipc	a0,0x330
    80207364:	e7050513          	addi	a0,a0,-400 # 805371d0 <_ZN62_$LT$os..task..INITPROC$u20$as$u20$core..ops..deref..Deref$GT$5deref11__stability4LAZY17h621ff5e5df04952fE.llvm.13289308715828321855>
    80207368:	ffffd097          	auipc	ra,0xffffd
    8020736c:	f30080e7          	jalr	-208(ra) # 80204298 <_ZN4spin4once17Once$LT$T$C$R$GT$18try_call_once_slow17h453df6ba65f3ba7aE.llvm.18273212518176036961>
    80207370:	0004b903          	ld	s2,0(s1)
    80207374:	4505                	li	a0,1
    80207376:	00a9352f          	amoadd.d	a0,a0,(s2)
    8020737a:	f80550e3          	bgez	a0,802072fa <.Lpcrel_hi59>
	...

0000000080207380 <.Lpcrel_hi60>:
    80207380:	00130517          	auipc	a0,0x130
    80207384:	cc850513          	addi	a0,a0,-824 # 80337048 <_ZN75_$LT$os..task..manager..TASK_MANAGER$u20$as$u20$core..ops..deref..Deref$GT$5deref11__stability4LAZY17h0f96fcc08b9753d5E.llvm.7411291366835535865>
    80207388:	ffffd097          	auipc	ra,0xffffd
    8020738c:	d78080e7          	jalr	-648(ra) # 80204100 <_ZN4spin4once17Once$LT$T$C$R$GT$18try_call_once_slow17h03859503446bdfc1E.llvm.18273212518176036961>
    80207390:	6088                	ld	a0,0(s1)
    80207392:	d149                	beqz	a0,80207314 <.Lpcrel_hi59+0x1a>

0000000080207394 <.Lpcrel_hi61>:
    80207394:	00008517          	auipc	a0,0x8
    80207398:	f6450513          	addi	a0,a0,-156 # 8020f2f8 <anon.143638ba50f3ca5f2997057583b6f6e7.15.llvm.7411291366835535865>
    8020739c:	00003097          	auipc	ra,0x3
    802073a0:	f14080e7          	jalr	-236(ra) # 8020a2b0 <_ZN4core4cell22panic_already_borrowed17h63023a1bd405c717E>

00000000802073a4 <__rust_dealloc>:
    802073a4:	1141                	addi	sp,sp,-16
    802073a6:	e406                	sd	ra,8(sp)
    802073a8:	e022                	sd	s0,0(sp)
    802073aa:	0800                	addi	s0,sp,16

00000000802073ac <.Lpcrel_hi63>:
    802073ac:	00330697          	auipc	a3,0x330
    802073b0:	cfc68693          	addi	a3,a3,-772 # 805370a8 <_ZN2os2mm14heap_allocator14HEAP_ALLOCATOR17hdb009eb0a1c201beE.llvm.13289308715828321855>
    802073b4:	872e                	mv	a4,a1
    802073b6:	85aa                	mv	a1,a0
    802073b8:	8536                	mv	a0,a3
    802073ba:	86ba                	mv	a3,a4
    802073bc:	60a2                	ld	ra,8(sp)
    802073be:	6402                	ld	s0,0(sp)
    802073c0:	0141                	addi	sp,sp,16
    802073c2:	00003317          	auipc	t1,0x3
    802073c6:	b4c30067          	jr	-1204(t1) # 80209f0e <_ZN87_$LT$buddy_system_allocator..LockedHeap$u20$as$u20$core..alloc..global..GlobalAlloc$GT$7dealloc17h5e5f6d74b20ea42eE>

00000000802073ca <_ZN2os2mm14heap_allocator18handle_alloc_error17ha1d55b1d47b8888eE>:
    802073ca:	711d                	addi	sp,sp,-96
    802073cc:	ec86                	sd	ra,88(sp)
    802073ce:	e8a2                	sd	s0,80(sp)
    802073d0:	1080                	addi	s0,sp,96
    802073d2:	faa43023          	sd	a0,-96(s0)
    802073d6:	fab43423          	sd	a1,-88(s0)
    802073da:	fa040513          	addi	a0,s0,-96
    802073de:	fea43023          	sd	a0,-32(s0)

00000000802073e2 <.Lpcrel_hi67>:
    802073e2:	00000517          	auipc	a0,0x0
    802073e6:	8be50513          	addi	a0,a0,-1858 # 80206ca0 <_ZN64_$LT$core..alloc..layout..Layout$u20$as$u20$core..fmt..Debug$GT$3fmt17h51e5266db9ce105fE>
    802073ea:	fea43423          	sd	a0,-24(s0)

00000000802073ee <.Lpcrel_hi68>:
    802073ee:	00008517          	auipc	a0,0x8
    802073f2:	36250513          	addi	a0,a0,866 # 8020f750 <.Lanon.27350e15de5d016ee03e2199cffb0e8d.27>
    802073f6:	faa43823          	sd	a0,-80(s0)
    802073fa:	4505                	li	a0,1
    802073fc:	faa43c23          	sd	a0,-72(s0)
    80207400:	fc043823          	sd	zero,-48(s0)
    80207404:	fe040593          	addi	a1,s0,-32
    80207408:	fcb43023          	sd	a1,-64(s0)
    8020740c:	fca43423          	sd	a0,-56(s0)

0000000080207410 <.Lpcrel_hi69>:
    80207410:	00008517          	auipc	a0,0x8
    80207414:	36850593          	addi	a1,a0,872 # 8020f778 <.Lanon.27350e15de5d016ee03e2199cffb0e8d.29>
    80207418:	fb040513          	addi	a0,s0,-80
    8020741c:	00003097          	auipc	ra,0x3
    80207420:	230080e7          	jalr	560(ra) # 8020a64c <_ZN4core9panicking9panic_fmt17hc25dbb51a4d67a42E>

0000000080207424 <__rg_oom>:
    80207424:	1141                	addi	sp,sp,-16
    80207426:	e406                	sd	ra,8(sp)
    80207428:	e022                	sd	s0,0(sp)
    8020742a:	0800                	addi	s0,sp,16
    8020742c:	862a                	mv	a2,a0
    8020742e:	852e                	mv	a0,a1
    80207430:	85b2                	mv	a1,a2
    80207432:	00000097          	auipc	ra,0x0
    80207436:	f98080e7          	jalr	-104(ra) # 802073ca <_ZN2os2mm14heap_allocator18handle_alloc_error17ha1d55b1d47b8888eE>

000000008020743a <__switch>:
    8020743a:	00253423          	sd	sp,8(a0)
    8020743e:	00153023          	sd	ra,0(a0)
    80207442:	e900                	sd	s0,16(a0)
    80207444:	ed04                	sd	s1,24(a0)
    80207446:	03253023          	sd	s2,32(a0)
    8020744a:	03353423          	sd	s3,40(a0)
    8020744e:	03453823          	sd	s4,48(a0)
    80207452:	03553c23          	sd	s5,56(a0)
    80207456:	05653023          	sd	s6,64(a0)
    8020745a:	05753423          	sd	s7,72(a0)
    8020745e:	05853823          	sd	s8,80(a0)
    80207462:	05953c23          	sd	s9,88(a0)
    80207466:	07a53023          	sd	s10,96(a0)
    8020746a:	07b53423          	sd	s11,104(a0)
    8020746e:	0005b083          	ld	ra,0(a1)
    80207472:	6980                	ld	s0,16(a1)
    80207474:	6d84                	ld	s1,24(a1)
    80207476:	0205b903          	ld	s2,32(a1)
    8020747a:	0285b983          	ld	s3,40(a1)
    8020747e:	0305ba03          	ld	s4,48(a1)
    80207482:	0385ba83          	ld	s5,56(a1)
    80207486:	0405bb03          	ld	s6,64(a1)
    8020748a:	0485bb83          	ld	s7,72(a1)
    8020748e:	0505bc03          	ld	s8,80(a1)
    80207492:	0585bc83          	ld	s9,88(a1)
    80207496:	0605bd03          	ld	s10,96(a1)
    8020749a:	0685bd83          	ld	s11,104(a1)
    8020749e:	0085b103          	ld	sp,8(a1)
    802074a2:	8082                	ret

00000000802074a4 <_ZN42_$LT$$RF$T$u20$as$u20$core..fmt..Debug$GT$3fmt17h0928b133c07d2c3eE>:
    802074a4:	1141                	addi	sp,sp,-16
    802074a6:	e406                	sd	ra,8(sp)
    802074a8:	e022                	sd	s0,0(sp)
    802074aa:	0800                	addi	s0,sp,16
    802074ac:	6108                	ld	a0,0(a0)
    802074ae:	00054503          	lbu	a0,0(a0)
    802074b2:	050e                	slli	a0,a0,0x3

00000000802074b4 <.Lpcrel_hi1>:
    802074b4:	00008617          	auipc	a2,0x8
    802074b8:	68460613          	addi	a2,a2,1668 # 8020fb38 <.Lswitch.table._ZN42_$LT$$RF$T$u20$as$u20$core..fmt..Debug$GT$3fmt17h0928b133c07d2c3eE>
    802074bc:	962a                	add	a2,a2,a0
    802074be:	6210                	ld	a2,0(a2)

00000000802074c0 <.Lpcrel_hi2>:
    802074c0:	00008697          	auipc	a3,0x8
    802074c4:	6c868693          	addi	a3,a3,1736 # 8020fb88 <.Lswitch.table._ZN42_$LT$$RF$T$u20$as$u20$core..fmt..Debug$GT$3fmt17h0928b133c07d2c3eE.31>
    802074c8:	9536                	add	a0,a0,a3
    802074ca:	6114                	ld	a3,0(a0)
    802074cc:	852e                	mv	a0,a1
    802074ce:	85b6                	mv	a1,a3
    802074d0:	60a2                	ld	ra,8(sp)
    802074d2:	6402                	ld	s0,0(sp)
    802074d4:	0141                	addi	sp,sp,16
    802074d6:	00004317          	auipc	t1,0x4
    802074da:	17230067          	jr	370(t1) # 8020b648 <_ZN4core3fmt9Formatter9write_str17h3eab43551042ee87E>

00000000802074de <_ZN42_$LT$$RF$T$u20$as$u20$core..fmt..Debug$GT$3fmt17h2bff18ee679463b1E>:
    802074de:	1141                	addi	sp,sp,-16
    802074e0:	e406                	sd	ra,8(sp)
    802074e2:	e022                	sd	s0,0(sp)
    802074e4:	0800                	addi	s0,sp,16
    802074e6:	6108                	ld	a0,0(a0)
    802074e8:	60a2                	ld	ra,8(sp)
    802074ea:	6402                	ld	s0,0(sp)
    802074ec:	0141                	addi	sp,sp,16
    802074ee:	00003317          	auipc	t1,0x3
    802074f2:	c9630067          	jr	-874(t1) # 8020a184 <_ZN68_$LT$core..ptr..alignment..Alignment$u20$as$u20$core..fmt..Debug$GT$3fmt17h933950c19d2abe15E>

00000000802074f6 <_ZN42_$LT$$RF$T$u20$as$u20$core..fmt..Debug$GT$3fmt17h464bdb2a4ffab622E>:
    802074f6:	6110                	ld	a2,0(a0)
    802074f8:	00064683          	lbu	a3,0(a2)
    802074fc:	852e                	mv	a0,a1
    802074fe:	ca9d                	beqz	a3,80207534 <.Lpcrel_hi3>
    80207500:	1101                	addi	sp,sp,-32
    80207502:	ec06                	sd	ra,24(sp)
    80207504:	e822                	sd	s0,16(sp)
    80207506:	1000                	addi	s0,sp,32
    80207508:	0605                	addi	a2,a2,1
    8020750a:	fec43423          	sd	a2,-24(s0)

000000008020750e <.Lpcrel_hi4>:
    8020750e:	00007597          	auipc	a1,0x7
    80207512:	25258593          	addi	a1,a1,594 # 8020e760 <$d.20+0x4>

0000000080207516 <.Lpcrel_hi5>:
    80207516:	00008617          	auipc	a2,0x8
    8020751a:	27a60713          	addi	a4,a2,634 # 8020f790 <anon.cabb48797c08da54f0d330a92f7303ed.0.llvm.14430259142183367808>
    8020751e:	4611                	li	a2,4
    80207520:	fe840693          	addi	a3,s0,-24
    80207524:	00004097          	auipc	ra,0x4
    80207528:	20a080e7          	jalr	522(ra) # 8020b72e <_ZN4core3fmt9Formatter25debug_tuple_field1_finish17hfc08985d566fe371E>
    8020752c:	60e2                	ld	ra,24(sp)
    8020752e:	6442                	ld	s0,16(sp)
    80207530:	6105                	addi	sp,sp,32
    80207532:	8082                	ret

0000000080207534 <.Lpcrel_hi3>:
    80207534:	00007597          	auipc	a1,0x7
    80207538:	23458593          	addi	a1,a1,564 # 8020e768 <$d.32>
    8020753c:	4611                	li	a2,4
    8020753e:	00004317          	auipc	t1,0x4
    80207542:	10a30067          	jr	266(t1) # 8020b648 <_ZN4core3fmt9Formatter9write_str17h3eab43551042ee87E>

0000000080207546 <_ZN42_$LT$$RF$T$u20$as$u20$core..fmt..Debug$GT$3fmt17h67a4177874b710caE>:
    80207546:	1141                	addi	sp,sp,-16
    80207548:	e406                	sd	ra,8(sp)
    8020754a:	e022                	sd	s0,0(sp)
    8020754c:	0800                	addi	s0,sp,16
    8020754e:	6108                	ld	a0,0(a0)
    80207550:	00054503          	lbu	a0,0(a0)
    80207554:	050e                	slli	a0,a0,0x3

0000000080207556 <.Lpcrel_hi6>:
    80207556:	00008617          	auipc	a2,0x8
    8020755a:	68260613          	addi	a2,a2,1666 # 8020fbd8 <.Lswitch.table._ZN42_$LT$$RF$T$u20$as$u20$core..fmt..Debug$GT$3fmt17h67a4177874b710caE>
    8020755e:	962a                	add	a2,a2,a0
    80207560:	6210                	ld	a2,0(a2)

0000000080207562 <.Lpcrel_hi7>:
    80207562:	00008697          	auipc	a3,0x8
    80207566:	6fe68693          	addi	a3,a3,1790 # 8020fc60 <.Lswitch.table._ZN42_$LT$$RF$T$u20$as$u20$core..fmt..Debug$GT$3fmt17h67a4177874b710caE.32>
    8020756a:	9536                	add	a0,a0,a3
    8020756c:	6114                	ld	a3,0(a0)
    8020756e:	852e                	mv	a0,a1
    80207570:	85b6                	mv	a1,a3
    80207572:	60a2                	ld	ra,8(sp)
    80207574:	6402                	ld	s0,0(sp)
    80207576:	0141                	addi	sp,sp,16
    80207578:	00004317          	auipc	t1,0x4
    8020757c:	0d030067          	jr	208(t1) # 8020b648 <_ZN4core3fmt9Formatter9write_str17h3eab43551042ee87E>

0000000080207580 <_ZN4core3fmt5Write10write_char17h57be650fad5653e7E>:
    80207580:	1101                	addi	sp,sp,-32
    80207582:	ec06                	sd	ra,24(sp)
    80207584:	e822                	sd	s0,16(sp)
    80207586:	1000                	addi	s0,sp,32
    80207588:	0005851b          	sext.w	a0,a1
    8020758c:	08000613          	li	a2,128
    80207590:	fe042623          	sw	zero,-20(s0)
    80207594:	00c57663          	bgeu	a0,a2,802075a0 <_ZN4core3fmt5Write10write_char17h57be650fad5653e7E+0x20>
    80207598:	feb40623          	sb	a1,-20(s0)
    8020759c:	4605                	li	a2,1
    8020759e:	a071                	j	8020762a <_ZN4core3fmt5Write10write_char17h57be650fad5653e7E+0xaa>
    802075a0:	00b5d51b          	srliw	a0,a1,0xb
    802075a4:	ed19                	bnez	a0,802075c2 <_ZN4core3fmt5Write10write_char17h57be650fad5653e7E+0x42>
    802075a6:	0065d513          	srli	a0,a1,0x6
    802075aa:	0c056513          	ori	a0,a0,192
    802075ae:	fea40623          	sb	a0,-20(s0)
    802075b2:	03f5f513          	andi	a0,a1,63
    802075b6:	08050513          	addi	a0,a0,128
    802075ba:	fea406a3          	sb	a0,-19(s0)
    802075be:	4609                	li	a2,2
    802075c0:	a0ad                	j	8020762a <_ZN4core3fmt5Write10write_char17h57be650fad5653e7E+0xaa>
    802075c2:	0105d51b          	srliw	a0,a1,0x10
    802075c6:	e515                	bnez	a0,802075f2 <_ZN4core3fmt5Write10write_char17h57be650fad5653e7E+0x72>
    802075c8:	00c5d513          	srli	a0,a1,0xc
    802075cc:	0e056513          	ori	a0,a0,224
    802075d0:	fea40623          	sb	a0,-20(s0)
    802075d4:	03459513          	slli	a0,a1,0x34
    802075d8:	9169                	srli	a0,a0,0x3a
    802075da:	08050513          	addi	a0,a0,128
    802075de:	fea406a3          	sb	a0,-19(s0)
    802075e2:	03f5f513          	andi	a0,a1,63
    802075e6:	08050513          	addi	a0,a0,128
    802075ea:	fea40723          	sb	a0,-18(s0)
    802075ee:	460d                	li	a2,3
    802075f0:	a82d                	j	8020762a <_ZN4core3fmt5Write10write_char17h57be650fad5653e7E+0xaa>
    802075f2:	02b59513          	slli	a0,a1,0x2b
    802075f6:	9175                	srli	a0,a0,0x3d
    802075f8:	0f050513          	addi	a0,a0,240
    802075fc:	fea40623          	sb	a0,-20(s0)
    80207600:	02e59513          	slli	a0,a1,0x2e
    80207604:	9169                	srli	a0,a0,0x3a
    80207606:	08050513          	addi	a0,a0,128
    8020760a:	fea406a3          	sb	a0,-19(s0)
    8020760e:	03459513          	slli	a0,a1,0x34
    80207612:	9169                	srli	a0,a0,0x3a
    80207614:	08050513          	addi	a0,a0,128
    80207618:	fea40723          	sb	a0,-18(s0)
    8020761c:	03f5f513          	andi	a0,a1,63
    80207620:	08050513          	addi	a0,a0,128
    80207624:	fea407a3          	sb	a0,-17(s0)
    80207628:	4611                	li	a2,4
    8020762a:	fec40593          	addi	a1,s0,-20
    8020762e:	962e                	add	a2,a2,a1
    80207630:	0df00313          	li	t1,223
    80207634:	0f000293          	li	t0,240
    80207638:	00110837          	lui	a6,0x110
    8020763c:	4885                	li	a7,1
    8020763e:	a031                	j	8020764a <_ZN4core3fmt5Write10write_char17h57be650fad5653e7E+0xca>
    80207640:	0585                	addi	a1,a1,1
    80207642:	00000073          	ecall
    80207646:	04c58f63          	beq	a1,a2,802076a4 <_ZN4core3fmt5Write10write_char17h57be650fad5653e7E+0x124>
    8020764a:	00058703          	lb	a4,0(a1)
    8020764e:	0ff77513          	zext.b	a0,a4
    80207652:	fe0757e3          	bgez	a4,80207640 <_ZN4core3fmt5Write10write_char17h57be650fad5653e7E+0xc0>
    80207656:	0015c703          	lbu	a4,1(a1)
    8020765a:	01f57793          	andi	a5,a0,31
    8020765e:	03f77713          	andi	a4,a4,63
    80207662:	02a37763          	bgeu	t1,a0,80207690 <_ZN4core3fmt5Write10write_char17h57be650fad5653e7E+0x110>
    80207666:	0025c683          	lbu	a3,2(a1)
    8020766a:	071a                	slli	a4,a4,0x6
    8020766c:	03f6f693          	andi	a3,a3,63
    80207670:	8f55                	or	a4,a4,a3
    80207672:	02556463          	bltu	a0,t0,8020769a <_ZN4core3fmt5Write10write_char17h57be650fad5653e7E+0x11a>
    80207676:	0035c503          	lbu	a0,3(a1)
    8020767a:	17f6                	slli	a5,a5,0x3d
    8020767c:	93ad                	srli	a5,a5,0x2b
    8020767e:	071a                	slli	a4,a4,0x6
    80207680:	03f57513          	andi	a0,a0,63
    80207684:	8d59                	or	a0,a0,a4
    80207686:	8d5d                	or	a0,a0,a5
    80207688:	01050e63          	beq	a0,a6,802076a4 <_ZN4core3fmt5Write10write_char17h57be650fad5653e7E+0x124>
    8020768c:	0591                	addi	a1,a1,4
    8020768e:	bf55                	j	80207642 <_ZN4core3fmt5Write10write_char17h57be650fad5653e7E+0xc2>
    80207690:	0589                	addi	a1,a1,2
    80207692:	00679513          	slli	a0,a5,0x6
    80207696:	8d59                	or	a0,a0,a4
    80207698:	b76d                	j	80207642 <_ZN4core3fmt5Write10write_char17h57be650fad5653e7E+0xc2>
    8020769a:	058d                	addi	a1,a1,3
    8020769c:	00c79513          	slli	a0,a5,0xc
    802076a0:	8d59                	or	a0,a0,a4
    802076a2:	b745                	j	80207642 <_ZN4core3fmt5Write10write_char17h57be650fad5653e7E+0xc2>
    802076a4:	4501                	li	a0,0
    802076a6:	60e2                	ld	ra,24(sp)
    802076a8:	6442                	ld	s0,16(sp)
    802076aa:	6105                	addi	sp,sp,32
    802076ac:	8082                	ret

00000000802076ae <_ZN4core3fmt5Write9write_fmt17hfe2b021c160864f0E>:
    802076ae:	1141                	addi	sp,sp,-16
    802076b0:	e406                	sd	ra,8(sp)
    802076b2:	e022                	sd	s0,0(sp)
    802076b4:	0800                	addi	s0,sp,16

00000000802076b6 <.Lpcrel_hi8>:
    802076b6:	00008617          	auipc	a2,0x8
    802076ba:	2ea60613          	addi	a2,a2,746 # 8020f9a0 <.Lanon.cabb48797c08da54f0d330a92f7303ed.34>
    802076be:	86ae                	mv	a3,a1
    802076c0:	85b2                	mv	a1,a2
    802076c2:	8636                	mv	a2,a3
    802076c4:	60a2                	ld	ra,8(sp)
    802076c6:	6402                	ld	s0,0(sp)
    802076c8:	0141                	addi	sp,sp,16
    802076ca:	00004317          	auipc	t1,0x4
    802076ce:	92430067          	jr	-1756(t1) # 8020afee <_ZN4core3fmt5write17h7149f27b6a64b164E>

00000000802076d2 <_ZN4core3ptr27drop_in_place$LT$$RF$u8$GT$17h71c8f856221886bfE.llvm.14430259142183367808>:
    802076d2:	1141                	addi	sp,sp,-16
    802076d4:	e406                	sd	ra,8(sp)
    802076d6:	e022                	sd	s0,0(sp)
    802076d8:	0800                	addi	s0,sp,16
    802076da:	60a2                	ld	ra,8(sp)
    802076dc:	6402                	ld	s0,0(sp)
    802076de:	0141                	addi	sp,sp,16
    802076e0:	8082                	ret

00000000802076e2 <_ZN4core3ptr37drop_in_place$LT$core..fmt..Error$GT$17h955818366b2bf1d7E>:
    802076e2:	1141                	addi	sp,sp,-16
    802076e4:	e406                	sd	ra,8(sp)
    802076e6:	e022                	sd	s0,0(sp)
    802076e8:	0800                	addi	s0,sp,16
    802076ea:	60a2                	ld	ra,8(sp)
    802076ec:	6402                	ld	s0,0(sp)
    802076ee:	0141                	addi	sp,sp,16
    802076f0:	8082                	ret

00000000802076f2 <_ZN4core9panicking13assert_failed17h15aff8796b99ea85E>:
    802076f2:	1101                	addi	sp,sp,-32
    802076f4:	ec06                	sd	ra,24(sp)
    802076f6:	e822                	sd	s0,16(sp)
    802076f8:	1000                	addi	s0,sp,32
    802076fa:	883a                	mv	a6,a4
    802076fc:	87b6                	mv	a5,a3
    802076fe:	feb43023          	sd	a1,-32(s0)
    80207702:	fec43423          	sd	a2,-24(s0)

0000000080207706 <.Lpcrel_hi10>:
    80207706:	00008597          	auipc	a1,0x8
    8020770a:	0aa58613          	addi	a2,a1,170 # 8020f7b0 <.Lanon.cabb48797c08da54f0d330a92f7303ed.1>
    8020770e:	fe040593          	addi	a1,s0,-32
    80207712:	fe840693          	addi	a3,s0,-24
    80207716:	8732                	mv	a4,a2
    80207718:	00003097          	auipc	ra,0x3
    8020771c:	046080e7          	jalr	70(ra) # 8020a75e <_ZN4core9panicking19assert_failed_inner17hd9a6399f820873deE>

0000000080207720 <_ZN4core9panicking13assert_failed17h2a35b697366b8d2fE>:
    80207720:	1101                	addi	sp,sp,-32
    80207722:	ec06                	sd	ra,24(sp)
    80207724:	e822                	sd	s0,16(sp)
    80207726:	1000                	addi	s0,sp,32
    80207728:	883a                	mv	a6,a4
    8020772a:	87b6                	mv	a5,a3
    8020772c:	feb43023          	sd	a1,-32(s0)
    80207730:	fec43423          	sd	a2,-24(s0)

0000000080207734 <.Lpcrel_hi11>:
    80207734:	00008597          	auipc	a1,0x8
    80207738:	09c58613          	addi	a2,a1,156 # 8020f7d0 <.Lanon.cabb48797c08da54f0d330a92f7303ed.2>
    8020773c:	fe040593          	addi	a1,s0,-32
    80207740:	fe840693          	addi	a3,s0,-24
    80207744:	8732                	mv	a4,a2
    80207746:	00003097          	auipc	ra,0x3
    8020774a:	018080e7          	jalr	24(ra) # 8020a75e <_ZN4core9panicking19assert_failed_inner17hd9a6399f820873deE>

000000008020774e <_ZN4core9panicking13assert_failed17hebd6b278d329e237E>:
    8020774e:	1101                	addi	sp,sp,-32
    80207750:	ec06                	sd	ra,24(sp)
    80207752:	e822                	sd	s0,16(sp)
    80207754:	1000                	addi	s0,sp,32
    80207756:	883a                	mv	a6,a4
    80207758:	87b6                	mv	a5,a3
    8020775a:	feb43023          	sd	a1,-32(s0)
    8020775e:	fec43423          	sd	a2,-24(s0)

0000000080207762 <.Lpcrel_hi12>:
    80207762:	00008597          	auipc	a1,0x8
    80207766:	08e58613          	addi	a2,a1,142 # 8020f7f0 <.Lanon.cabb48797c08da54f0d330a92f7303ed.4>
    8020776a:	fe040593          	addi	a1,s0,-32
    8020776e:	fe840693          	addi	a3,s0,-24
    80207772:	8732                	mv	a4,a2
    80207774:	00003097          	auipc	ra,0x3
    80207778:	fea080e7          	jalr	-22(ra) # 8020a75e <_ZN4core9panicking19assert_failed_inner17hd9a6399f820873deE>

000000008020777c <_ZN53_$LT$core..fmt..Error$u20$as$u20$core..fmt..Debug$GT$3fmt17h9bfaa48383702e40E>:
    8020777c:	1141                	addi	sp,sp,-16
    8020777e:	e406                	sd	ra,8(sp)
    80207780:	e022                	sd	s0,0(sp)
    80207782:	0800                	addi	s0,sp,16

0000000080207784 <.Lpcrel_hi13>:
    80207784:	00008517          	auipc	a0,0x8
    80207788:	08c50693          	addi	a3,a0,140 # 8020f810 <.Lanon.cabb48797c08da54f0d330a92f7303ed.5>
    8020778c:	4615                	li	a2,5
    8020778e:	852e                	mv	a0,a1
    80207790:	85b6                	mv	a1,a3
    80207792:	60a2                	ld	ra,8(sp)
    80207794:	6402                	ld	s0,0(sp)
    80207796:	0141                	addi	sp,sp,16
    80207798:	00004317          	auipc	t1,0x4
    8020779c:	eb030067          	jr	-336(t1) # 8020b648 <_ZN4core3fmt9Formatter9write_str17h3eab43551042ee87E>

00000000802077a0 <_ZN56_$LT$os..console..Stdout$u20$as$u20$core..fmt..Write$GT$9write_str17h1b4889c54b13ad3fE>:
    802077a0:	c259                	beqz	a2,80207826 <_ZN56_$LT$os..console..Stdout$u20$as$u20$core..fmt..Write$GT$9write_str17h1b4889c54b13ad3fE+0x86>
    802077a2:	1141                	addi	sp,sp,-16
    802077a4:	e406                	sd	ra,8(sp)
    802077a6:	e022                	sd	s0,0(sp)
    802077a8:	0800                	addi	s0,sp,16
    802077aa:	962e                	add	a2,a2,a1
    802077ac:	0df00313          	li	t1,223
    802077b0:	0f000293          	li	t0,240
    802077b4:	00110837          	lui	a6,0x110
    802077b8:	4885                	li	a7,1
    802077ba:	a031                	j	802077c6 <_ZN56_$LT$os..console..Stdout$u20$as$u20$core..fmt..Write$GT$9write_str17h1b4889c54b13ad3fE+0x26>
    802077bc:	0585                	addi	a1,a1,1
    802077be:	00000073          	ecall
    802077c2:	04c58f63          	beq	a1,a2,80207820 <_ZN56_$LT$os..console..Stdout$u20$as$u20$core..fmt..Write$GT$9write_str17h1b4889c54b13ad3fE+0x80>
    802077c6:	00058703          	lb	a4,0(a1)
    802077ca:	0ff77513          	zext.b	a0,a4
    802077ce:	fe0757e3          	bgez	a4,802077bc <_ZN56_$LT$os..console..Stdout$u20$as$u20$core..fmt..Write$GT$9write_str17h1b4889c54b13ad3fE+0x1c>
    802077d2:	0015c703          	lbu	a4,1(a1)
    802077d6:	01f57793          	andi	a5,a0,31
    802077da:	03f77713          	andi	a4,a4,63
    802077de:	02a37763          	bgeu	t1,a0,8020780c <_ZN56_$LT$os..console..Stdout$u20$as$u20$core..fmt..Write$GT$9write_str17h1b4889c54b13ad3fE+0x6c>
    802077e2:	0025c683          	lbu	a3,2(a1)
    802077e6:	071a                	slli	a4,a4,0x6
    802077e8:	03f6f693          	andi	a3,a3,63
    802077ec:	8f55                	or	a4,a4,a3
    802077ee:	02556463          	bltu	a0,t0,80207816 <_ZN56_$LT$os..console..Stdout$u20$as$u20$core..fmt..Write$GT$9write_str17h1b4889c54b13ad3fE+0x76>
    802077f2:	0035c503          	lbu	a0,3(a1)
    802077f6:	17f6                	slli	a5,a5,0x3d
    802077f8:	93ad                	srli	a5,a5,0x2b
    802077fa:	071a                	slli	a4,a4,0x6
    802077fc:	03f57513          	andi	a0,a0,63
    80207800:	8d59                	or	a0,a0,a4
    80207802:	8d5d                	or	a0,a0,a5
    80207804:	01050e63          	beq	a0,a6,80207820 <_ZN56_$LT$os..console..Stdout$u20$as$u20$core..fmt..Write$GT$9write_str17h1b4889c54b13ad3fE+0x80>
    80207808:	0591                	addi	a1,a1,4
    8020780a:	bf55                	j	802077be <_ZN56_$LT$os..console..Stdout$u20$as$u20$core..fmt..Write$GT$9write_str17h1b4889c54b13ad3fE+0x1e>
    8020780c:	0589                	addi	a1,a1,2
    8020780e:	00679513          	slli	a0,a5,0x6
    80207812:	8d59                	or	a0,a0,a4
    80207814:	b76d                	j	802077be <_ZN56_$LT$os..console..Stdout$u20$as$u20$core..fmt..Write$GT$9write_str17h1b4889c54b13ad3fE+0x1e>
    80207816:	058d                	addi	a1,a1,3
    80207818:	00c79513          	slli	a0,a5,0xc
    8020781c:	8d59                	or	a0,a0,a4
    8020781e:	b745                	j	802077be <_ZN56_$LT$os..console..Stdout$u20$as$u20$core..fmt..Write$GT$9write_str17h1b4889c54b13ad3fE+0x1e>
    80207820:	60a2                	ld	ra,8(sp)
    80207822:	6402                	ld	s0,0(sp)
    80207824:	0141                	addi	sp,sp,16
    80207826:	4501                	li	a0,0
    80207828:	8082                	ret

000000008020782a <_ZN2os7console5print17hb0238f93bcb82e2aE>:
    8020782a:	1101                	addi	sp,sp,-32
    8020782c:	ec06                	sd	ra,24(sp)
    8020782e:	e822                	sd	s0,16(sp)
    80207830:	1000                	addi	s0,sp,32
    80207832:	862a                	mv	a2,a0

0000000080207834 <.Lpcrel_hi18>:
    80207834:	00008517          	auipc	a0,0x8
    80207838:	16c50593          	addi	a1,a0,364 # 8020f9a0 <.Lanon.cabb48797c08da54f0d330a92f7303ed.34>
    8020783c:	fef40513          	addi	a0,s0,-17
    80207840:	00003097          	auipc	ra,0x3
    80207844:	7ae080e7          	jalr	1966(ra) # 8020afee <_ZN4core3fmt5write17h7149f27b6a64b164E>
    80207848:	e509                	bnez	a0,80207852 <.Lpcrel_hi19>
    8020784a:	60e2                	ld	ra,24(sp)
    8020784c:	6442                	ld	s0,16(sp)
    8020784e:	6105                	addi	sp,sp,32
    80207850:	8082                	ret

0000000080207852 <.Lpcrel_hi19>:
    80207852:	00008517          	auipc	a0,0x8
    80207856:	17e50513          	addi	a0,a0,382 # 8020f9d0 <.Lanon.cabb48797c08da54f0d330a92f7303ed.35>

000000008020785a <.Lpcrel_hi20>:
    8020785a:	00008597          	auipc	a1,0x8
    8020785e:	1a658693          	addi	a3,a1,422 # 8020fa00 <.Lanon.cabb48797c08da54f0d330a92f7303ed.36>

0000000080207862 <.Lpcrel_hi21>:
    80207862:	00008597          	auipc	a1,0x8
    80207866:	1ce58713          	addi	a4,a1,462 # 8020fa30 <.Lanon.cabb48797c08da54f0d330a92f7303ed.38>
    8020786a:	02b00593          	li	a1,43
    8020786e:	fef40613          	addi	a2,s0,-17
    80207872:	00003097          	auipc	ra,0x3
    80207876:	026080e7          	jalr	38(ra) # 8020a898 <_ZN4core6result13unwrap_failed17h68f4211cf4faa05bE>

000000008020787a <_ZN2os6loader20get_app_data_by_name17h27490dcfb0927bb1E>:
    8020787a:	711d                	addi	sp,sp,-96
    8020787c:	ec86                	sd	ra,88(sp)
    8020787e:	e8a2                	sd	s0,80(sp)
    80207880:	e4a6                	sd	s1,72(sp)
    80207882:	e0ca                	sd	s2,64(sp)
    80207884:	fc4e                	sd	s3,56(sp)
    80207886:	f852                	sd	s4,48(sp)
    80207888:	f456                	sd	s5,40(sp)
    8020788a:	f05a                	sd	s6,32(sp)
    8020788c:	ec5e                	sd	s7,24(sp)
    8020788e:	e862                	sd	s8,16(sp)
    80207890:	e466                	sd	s9,8(sp)
    80207892:	1080                	addi	s0,sp,96

0000000080207894 <.Lpcrel_hi23>:
    80207894:	0000a617          	auipc	a2,0xa
    80207898:	76c60a93          	addi	s5,a2,1900 # 80212000 <_num_app>
    8020789c:	000abb83          	ld	s7,0(s5)
    802078a0:	060b8f63          	beqz	s7,8020791e <.Lpcrel_hi25+0x12>
    802078a4:	892e                	mv	s2,a1
    802078a6:	89aa                	mv	s3,a0
    802078a8:	4481                	li	s1,0
    802078aa:	4c01                	li	s8,0
    802078ac:	010a8b13          	addi	s6,s5,16

00000000802078b0 <.Lpcrel_hi24>:
    802078b0:	00330517          	auipc	a0,0x330
    802078b4:	93050a13          	addi	s4,a0,-1744 # 805371e0 <_ZN65_$LT$os..loader..APP_NAMES$u20$as$u20$core..ops..deref..Deref$GT$5deref11__stability4LAZY17h7b91fc693e21acceE.llvm.14430259142183367808>
    802078b8:	4c89                	li	s9,2
    802078ba:	a031                	j	802078c6 <.Lpcrel_hi24+0x16>
    802078bc:	0c05                	addi	s8,s8,1
    802078be:	0b21                	addi	s6,s6,8
    802078c0:	04c1                	addi	s1,s1,16
    802078c2:	058b8e63          	beq	s7,s8,8020791e <.Lpcrel_hi25+0x12>
    802078c6:	018a0503          	lb	a0,24(s4)
    802078ca:	0230000f          	fence	r,rw
    802078ce:	03951663          	bne	a0,s9,802078fa <.Lpcrel_hi24+0x4a>
    802078d2:	010a3583          	ld	a1,16(s4)
    802078d6:	02bc7b63          	bgeu	s8,a1,8020790c <.Lpcrel_hi25>
    802078da:	008a3503          	ld	a0,8(s4)
    802078de:	9526                	add	a0,a0,s1
    802078e0:	650c                	ld	a1,8(a0)
    802078e2:	fd259de3          	bne	a1,s2,802078bc <.Lpcrel_hi24+0xc>
    802078e6:	6108                	ld	a0,0(a0)
    802078e8:	85ce                	mv	a1,s3
    802078ea:	864a                	mv	a2,s2
    802078ec:	00006097          	auipc	ra,0x6
    802078f0:	816080e7          	jalr	-2026(ra) # 8020d102 <memcmp>
    802078f4:	2501                	sext.w	a0,a0
    802078f6:	f179                	bnez	a0,802078bc <.Lpcrel_hi24+0xc>
    802078f8:	a02d                	j	80207922 <.Lpcrel_hi25+0x16>
    802078fa:	8552                	mv	a0,s4
    802078fc:	ffffd097          	auipc	ra,0xffffd
    80207900:	ade080e7          	jalr	-1314(ra) # 802043da <_ZN4spin4once17Once$LT$T$C$R$GT$18try_call_once_slow17h755755071e18d5f0E.llvm.18273212518176036961>
    80207904:	010a3583          	ld	a1,16(s4)
    80207908:	fcbc69e3          	bltu	s8,a1,802078da <.Lpcrel_hi24+0x2a>

000000008020790c <.Lpcrel_hi25>:
    8020790c:	00008517          	auipc	a0,0x8
    80207910:	1b450613          	addi	a2,a0,436 # 8020fac0 <anon.cabb48797c08da54f0d330a92f7303ed.44.llvm.14430259142183367808>
    80207914:	8562                	mv	a0,s8
    80207916:	00003097          	auipc	ra,0x3
    8020791a:	de8080e7          	jalr	-536(ra) # 8020a6fe <_ZN4core9panicking18panic_bounds_check17h087f2837af3bd59aE>
    8020791e:	4501                	li	a0,0
    80207920:	a00d                	j	80207942 <.Lpcrel_hi25+0x36>
    80207922:	000ab583          	ld	a1,0(s5)
    80207926:	04bc7c63          	bgeu	s8,a1,8020797e <.Lpcrel_hi26>
    8020792a:	0585                	addi	a1,a1,1
    8020792c:	02bc7863          	bgeu	s8,a1,8020795c <.Lpcrel_hi28>
    80207930:	001c0513          	addi	a0,s8,1
    80207934:	02b57d63          	bgeu	a0,a1,8020796e <.Lpcrel_hi29>
    80207938:	ff8b3503          	ld	a0,-8(s6)
    8020793c:	000b3583          	ld	a1,0(s6)
    80207940:	8d89                	sub	a1,a1,a0
    80207942:	60e6                	ld	ra,88(sp)
    80207944:	6446                	ld	s0,80(sp)
    80207946:	64a6                	ld	s1,72(sp)
    80207948:	6906                	ld	s2,64(sp)
    8020794a:	79e2                	ld	s3,56(sp)
    8020794c:	7a42                	ld	s4,48(sp)
    8020794e:	7aa2                	ld	s5,40(sp)
    80207950:	7b02                	ld	s6,32(sp)
    80207952:	6be2                	ld	s7,24(sp)
    80207954:	6c42                	ld	s8,16(sp)
    80207956:	6ca2                	ld	s9,8(sp)
    80207958:	6125                	addi	sp,sp,96
    8020795a:	8082                	ret

000000008020795c <.Lpcrel_hi28>:
    8020795c:	00008517          	auipc	a0,0x8
    80207960:	13450613          	addi	a2,a0,308 # 8020fa90 <anon.cabb48797c08da54f0d330a92f7303ed.42.llvm.14430259142183367808>
    80207964:	8562                	mv	a0,s8
    80207966:	00003097          	auipc	ra,0x3
    8020796a:	d98080e7          	jalr	-616(ra) # 8020a6fe <_ZN4core9panicking18panic_bounds_check17h087f2837af3bd59aE>

000000008020796e <.Lpcrel_hi29>:
    8020796e:	00008617          	auipc	a2,0x8
    80207972:	13a60613          	addi	a2,a2,314 # 8020faa8 <anon.cabb48797c08da54f0d330a92f7303ed.43.llvm.14430259142183367808>
    80207976:	00003097          	auipc	ra,0x3
    8020797a:	d88080e7          	jalr	-632(ra) # 8020a6fe <_ZN4core9panicking18panic_bounds_check17h087f2837af3bd59aE>

000000008020797e <.Lpcrel_hi26>:
    8020797e:	00008517          	auipc	a0,0x8
    80207982:	0ca50513          	addi	a0,a0,202 # 8020fa48 <anon.cabb48797c08da54f0d330a92f7303ed.39.llvm.14430259142183367808>

0000000080207986 <.Lpcrel_hi27>:
    80207986:	00008597          	auipc	a1,0x8
    8020798a:	0f258613          	addi	a2,a1,242 # 8020fa78 <anon.cabb48797c08da54f0d330a92f7303ed.41.llvm.14430259142183367808>
    8020798e:	02200593          	li	a1,34
    80207992:	00003097          	auipc	ra,0x3
    80207996:	cec080e7          	jalr	-788(ra) # 8020a67e <_ZN4core9panicking5panic17h14cc1607a430f055E>

000000008020799a <_ZN2os6loader9list_apps17h8579beba8c539549E>:
    8020799a:	7171                	addi	sp,sp,-176
    8020799c:	f506                	sd	ra,168(sp)
    8020799e:	f122                	sd	s0,160(sp)
    802079a0:	ed26                	sd	s1,152(sp)
    802079a2:	e94a                	sd	s2,144(sp)
    802079a4:	e54e                	sd	s3,136(sp)
    802079a6:	e152                	sd	s4,128(sp)
    802079a8:	fcd6                	sd	s5,120(sp)
    802079aa:	f8da                	sd	s6,112(sp)
    802079ac:	f4de                	sd	s7,104(sp)
    802079ae:	f0e2                	sd	s8,96(sp)
    802079b0:	ece6                	sd	s9,88(sp)
    802079b2:	1900                	addi	s0,sp,176
    802079b4:	4481                	li	s1,0

00000000802079b6 <.Lpcrel_hi30>:
    802079b6:	00008517          	auipc	a0,0x8
    802079ba:	a8250593          	addi	a1,a0,-1406 # 8020f438 <anon.143638ba50f3ca5f2997057583b6f6e7.26.llvm.7411291366835535865+0x48>
    802079be:	43c1                	li	t2,16
    802079c0:	0df00313          	li	t1,223
    802079c4:	0f000293          	li	t0,240
    802079c8:	00110837          	lui	a6,0x110
    802079cc:	4885                	li	a7,1
    802079ce:	a809                	j	802079e0 <.Lpcrel_hi30+0x2a>
    802079d0:	00671513          	slli	a0,a4,0x6
    802079d4:	8d55                	or	a0,a0,a3
    802079d6:	00000073          	ecall
    802079da:	84be                	mv	s1,a5
    802079dc:	06778563          	beq	a5,t2,80207a46 <.Lpcrel_hi31>
    802079e0:	00958533          	add	a0,a1,s1
    802079e4:	00050683          	lb	a3,0(a0)
    802079e8:	00148793          	addi	a5,s1,1
    802079ec:	0ff6f513          	zext.b	a0,a3
    802079f0:	fe06d3e3          	bgez	a3,802079d6 <.Lpcrel_hi30+0x20>
    802079f4:	97ae                	add	a5,a5,a1
    802079f6:	0007c683          	lbu	a3,0(a5)
    802079fa:	01f57713          	andi	a4,a0,31
    802079fe:	00248793          	addi	a5,s1,2
    80207a02:	03f6f693          	andi	a3,a3,63
    80207a06:	fca375e3          	bgeu	t1,a0,802079d0 <.Lpcrel_hi30+0x1a>
    80207a0a:	97ae                	add	a5,a5,a1
    80207a0c:	0007c603          	lbu	a2,0(a5)
    80207a10:	00348793          	addi	a5,s1,3
    80207a14:	069a                	slli	a3,a3,0x6
    80207a16:	03f67613          	andi	a2,a2,63
    80207a1a:	8ed1                	or	a3,a3,a2
    80207a1c:	02556163          	bltu	a0,t0,80207a3e <.Lpcrel_hi30+0x88>
    80207a20:	97ae                	add	a5,a5,a1
    80207a22:	0007c503          	lbu	a0,0(a5)
    80207a26:	1776                	slli	a4,a4,0x3d
    80207a28:	932d                	srli	a4,a4,0x2b
    80207a2a:	069a                	slli	a3,a3,0x6
    80207a2c:	03f57513          	andi	a0,a0,63
    80207a30:	8d59                	or	a0,a0,a4
    80207a32:	8d55                	or	a0,a0,a3
    80207a34:	01050963          	beq	a0,a6,80207a46 <.Lpcrel_hi31>
    80207a38:	00448793          	addi	a5,s1,4
    80207a3c:	bf69                	j	802079d6 <.Lpcrel_hi30+0x20>
    80207a3e:	00c71513          	slli	a0,a4,0xc
    80207a42:	8d55                	or	a0,a0,a3
    80207a44:	bf49                	j	802079d6 <.Lpcrel_hi30+0x20>

0000000080207a46 <.Lpcrel_hi31>:
    80207a46:	0032f517          	auipc	a0,0x32f
    80207a4a:	79a50493          	addi	s1,a0,1946 # 805371e0 <_ZN65_$LT$os..loader..APP_NAMES$u20$as$u20$core..ops..deref..Deref$GT$5deref11__stability4LAZY17h7b91fc693e21acceE.llvm.14430259142183367808>
    80207a4e:	01848503          	lb	a0,24(s1)
    80207a52:	4589                	li	a1,2
    80207a54:	0230000f          	fence	r,rw
    80207a58:	10b51d63          	bne	a0,a1,80207b72 <.Lpcrel_hi32>
    80207a5c:	6888                	ld	a0,16(s1)
    80207a5e:	c525                	beqz	a0,80207ac6 <.Lpcrel_hi36+0x42>
    80207a60:	0084b983          	ld	s3,8(s1)
    80207a64:	00451493          	slli	s1,a0,0x4
    80207a68:	f5840a13          	addi	s4,s0,-168

0000000080207a6c <.Lpcrel_hi34>:
    80207a6c:	00000517          	auipc	a0,0x0
    80207a70:	36250a93          	addi	s5,a0,866 # 80207dce <_ZN44_$LT$$RF$T$u20$as$u20$core..fmt..Display$GT$3fmt17h2e02a33c7f7cdcb8E>

0000000080207a74 <.Lpcrel_hi35>:
    80207a74:	00008517          	auipc	a0,0x8
    80207a78:	06c50b13          	addi	s6,a0,108 # 8020fae0 <.Lanon.cabb48797c08da54f0d330a92f7303ed.48>
    80207a7c:	4b89                	li	s7,2
    80207a7e:	f9040c13          	addi	s8,s0,-112
    80207a82:	4c85                	li	s9,1

0000000080207a84 <.Lpcrel_hi36>:
    80207a84:	00008517          	auipc	a0,0x8
    80207a88:	f1c50913          	addi	s2,a0,-228 # 8020f9a0 <.Lanon.cabb48797c08da54f0d330a92f7303ed.34>
    80207a8c:	f5343c23          	sd	s3,-168(s0)
    80207a90:	f9443823          	sd	s4,-112(s0)
    80207a94:	f9543c23          	sd	s5,-104(s0)
    80207a98:	f7643023          	sd	s6,-160(s0)
    80207a9c:	f7743423          	sd	s7,-152(s0)
    80207aa0:	f8043023          	sd	zero,-128(s0)
    80207aa4:	f7843823          	sd	s8,-144(s0)
    80207aa8:	f7943c23          	sd	s9,-136(s0)
    80207aac:	fa740513          	addi	a0,s0,-89
    80207ab0:	f6040613          	addi	a2,s0,-160
    80207ab4:	85ca                	mv	a1,s2
    80207ab6:	00003097          	auipc	ra,0x3
    80207aba:	538080e7          	jalr	1336(ra) # 8020afee <_ZN4core3fmt5write17h7149f27b6a64b164E>
    80207abe:	e571                	bnez	a0,80207b8a <.Lpcrel_hi37>
    80207ac0:	14c1                	addi	s1,s1,-16
    80207ac2:	09c1                	addi	s3,s3,16
    80207ac4:	f4e1                	bnez	s1,80207a8c <.Lpcrel_hi36+0x8>
    80207ac6:	4481                	li	s1,0

0000000080207ac8 <.Lpcrel_hi33>:
    80207ac8:	00008517          	auipc	a0,0x8
    80207acc:	9e050593          	addi	a1,a0,-1568 # 8020f4a8 <$d.673+0x10>
    80207ad0:	43c1                	li	t2,16
    80207ad2:	0df00313          	li	t1,223
    80207ad6:	0f000293          	li	t0,240
    80207ada:	00110837          	lui	a6,0x110
    80207ade:	4885                	li	a7,1
    80207ae0:	a809                	j	80207af2 <.Lpcrel_hi33+0x2a>
    80207ae2:	00671513          	slli	a0,a4,0x6
    80207ae6:	8d55                	or	a0,a0,a3
    80207ae8:	00000073          	ecall
    80207aec:	84be                	mv	s1,a5
    80207aee:	06778563          	beq	a5,t2,80207b58 <.Lpcrel_hi33+0x90>
    80207af2:	00958533          	add	a0,a1,s1
    80207af6:	00050683          	lb	a3,0(a0)
    80207afa:	00148793          	addi	a5,s1,1
    80207afe:	0ff6f513          	zext.b	a0,a3
    80207b02:	fe06d3e3          	bgez	a3,80207ae8 <.Lpcrel_hi33+0x20>
    80207b06:	97ae                	add	a5,a5,a1
    80207b08:	0007c683          	lbu	a3,0(a5)
    80207b0c:	01f57713          	andi	a4,a0,31
    80207b10:	00248793          	addi	a5,s1,2
    80207b14:	03f6f693          	andi	a3,a3,63
    80207b18:	fca375e3          	bgeu	t1,a0,80207ae2 <.Lpcrel_hi33+0x1a>
    80207b1c:	97ae                	add	a5,a5,a1
    80207b1e:	0007c603          	lbu	a2,0(a5)
    80207b22:	00348793          	addi	a5,s1,3
    80207b26:	069a                	slli	a3,a3,0x6
    80207b28:	03f67613          	andi	a2,a2,63
    80207b2c:	8ed1                	or	a3,a3,a2
    80207b2e:	02556163          	bltu	a0,t0,80207b50 <.Lpcrel_hi33+0x88>
    80207b32:	97ae                	add	a5,a5,a1
    80207b34:	0007c503          	lbu	a0,0(a5)
    80207b38:	1776                	slli	a4,a4,0x3d
    80207b3a:	932d                	srli	a4,a4,0x2b
    80207b3c:	069a                	slli	a3,a3,0x6
    80207b3e:	03f57513          	andi	a0,a0,63
    80207b42:	8d59                	or	a0,a0,a4
    80207b44:	8d55                	or	a0,a0,a3
    80207b46:	01050963          	beq	a0,a6,80207b58 <.Lpcrel_hi33+0x90>
    80207b4a:	00448793          	addi	a5,s1,4
    80207b4e:	bf69                	j	80207ae8 <.Lpcrel_hi33+0x20>
    80207b50:	00c71513          	slli	a0,a4,0xc
    80207b54:	8d55                	or	a0,a0,a3
    80207b56:	bf49                	j	80207ae8 <.Lpcrel_hi33+0x20>
    80207b58:	70aa                	ld	ra,168(sp)
    80207b5a:	740a                	ld	s0,160(sp)
    80207b5c:	64ea                	ld	s1,152(sp)
    80207b5e:	694a                	ld	s2,144(sp)
    80207b60:	69aa                	ld	s3,136(sp)
    80207b62:	6a0a                	ld	s4,128(sp)
    80207b64:	7ae6                	ld	s5,120(sp)
    80207b66:	7b46                	ld	s6,112(sp)
    80207b68:	7ba6                	ld	s7,104(sp)
    80207b6a:	7c06                	ld	s8,96(sp)
    80207b6c:	6ce6                	ld	s9,88(sp)
    80207b6e:	614d                	addi	sp,sp,176
    80207b70:	8082                	ret

0000000080207b72 <.Lpcrel_hi32>:
    80207b72:	0032f517          	auipc	a0,0x32f
    80207b76:	66e50513          	addi	a0,a0,1646 # 805371e0 <_ZN65_$LT$os..loader..APP_NAMES$u20$as$u20$core..ops..deref..Deref$GT$5deref11__stability4LAZY17h7b91fc693e21acceE.llvm.14430259142183367808>
    80207b7a:	ffffd097          	auipc	ra,0xffffd
    80207b7e:	860080e7          	jalr	-1952(ra) # 802043da <_ZN4spin4once17Once$LT$T$C$R$GT$18try_call_once_slow17h755755071e18d5f0E.llvm.18273212518176036961>
    80207b82:	6888                	ld	a0,16(s1)
    80207b84:	ec051ee3          	bnez	a0,80207a60 <.Lpcrel_hi31+0x1a>
    80207b88:	bf3d                	j	80207ac6 <.Lpcrel_hi36+0x42>

0000000080207b8a <.Lpcrel_hi37>:
    80207b8a:	00008517          	auipc	a0,0x8
    80207b8e:	e4650513          	addi	a0,a0,-442 # 8020f9d0 <.Lanon.cabb48797c08da54f0d330a92f7303ed.35>

0000000080207b92 <.Lpcrel_hi38>:
    80207b92:	00008597          	auipc	a1,0x8
    80207b96:	e6e58693          	addi	a3,a1,-402 # 8020fa00 <.Lanon.cabb48797c08da54f0d330a92f7303ed.36>

0000000080207b9a <.Lpcrel_hi39>:
    80207b9a:	00008597          	auipc	a1,0x8
    80207b9e:	e9658713          	addi	a4,a1,-362 # 8020fa30 <.Lanon.cabb48797c08da54f0d330a92f7303ed.38>
    80207ba2:	02b00593          	li	a1,43
    80207ba6:	fa740613          	addi	a2,s0,-89
    80207baa:	00003097          	auipc	ra,0x3
    80207bae:	cee080e7          	jalr	-786(ra) # 8020a898 <_ZN4core6result13unwrap_failed17h68f4211cf4faa05bE>

0000000080207bb2 <rust_main>:
    80207bb2:	715d                	addi	sp,sp,-80
    80207bb4:	e486                	sd	ra,72(sp)
    80207bb6:	e0a2                	sd	s0,64(sp)
    80207bb8:	fc26                	sd	s1,56(sp)
    80207bba:	f84a                	sd	s2,48(sp)
    80207bbc:	0880                	addi	s0,sp,80

0000000080207bbe <.Lpcrel_hi40>:
    80207bbe:	0012f517          	auipc	a0,0x12f
    80207bc2:	44250513          	addi	a0,a0,1090 # 80337000 <_ZN84_$LT$os..mm..frame_allocator..FRAME_ALLOCATOR$u20$as$u20$core..ops..deref..Deref$GT$5deref11__stability4LAZY17h16ef9517e8cb8289E.llvm.9449326286350064217>

0000000080207bc6 <.Lpcrel_hi41>:
    80207bc6:	00330597          	auipc	a1,0x330
    80207bca:	43a58613          	addi	a2,a1,1082 # 80538000 <ebss>
    80207bce:	8e09                	sub	a2,a2,a0
    80207bd0:	c611                	beqz	a2,80207bdc <.Lpcrel_hi42>
    80207bd2:	4581                	li	a1,0
    80207bd4:	00005097          	auipc	ra,0x5
    80207bd8:	518080e7          	jalr	1304(ra) # 8020d0ec <memset>

0000000080207bdc <.Lpcrel_hi42>:
    80207bdc:	00008517          	auipc	a0,0x8
    80207be0:	f3c50513          	addi	a0,a0,-196 # 8020fb18 <.Lanon.cabb48797c08da54f0d330a92f7303ed.50>
    80207be4:	faa43823          	sd	a0,-80(s0)
    80207be8:	4905                	li	s2,1
    80207bea:	fb243c23          	sd	s2,-72(s0)
    80207bee:	fc043823          	sd	zero,-48(s0)
    80207bf2:	44a1                	li	s1,8
    80207bf4:	fc943023          	sd	s1,-64(s0)
    80207bf8:	fc043423          	sd	zero,-56(s0)
    80207bfc:	fb040513          	addi	a0,s0,-80
    80207c00:	00000097          	auipc	ra,0x0
    80207c04:	c2a080e7          	jalr	-982(ra) # 8020782a <_ZN2os7console5print17hb0238f93bcb82e2aE>
    80207c08:	ffffe097          	auipc	ra,0xffffe
    80207c0c:	7c0080e7          	jalr	1984(ra) # 802063c8 <_ZN2os2mm4init17h027a7fd49d87ea5dE>
    80207c10:	ffffe097          	auipc	ra,0xffffe
    80207c14:	49e080e7          	jalr	1182(ra) # 802060ae <_ZN2os2mm10memory_set10remap_test17h5b1346cd2c5ef4bfE>
    80207c18:	fffff097          	auipc	ra,0xfffff
    80207c1c:	6b2080e7          	jalr	1714(ra) # 802072ca <_ZN2os4task12add_initproc17hc3491e9cdc958ce2E>

0000000080207c20 <.Lpcrel_hi43>:
    80207c20:	00008517          	auipc	a0,0x8
    80207c24:	f0850513          	addi	a0,a0,-248 # 8020fb28 <.Lanon.cabb48797c08da54f0d330a92f7303ed.52>
    80207c28:	faa43823          	sd	a0,-80(s0)
    80207c2c:	fb243c23          	sd	s2,-72(s0)
    80207c30:	fc043823          	sd	zero,-48(s0)
    80207c34:	fc943023          	sd	s1,-64(s0)
    80207c38:	fc043423          	sd	zero,-56(s0)
    80207c3c:	fb040513          	addi	a0,s0,-80
    80207c40:	00000097          	auipc	ra,0x0
    80207c44:	bea080e7          	jalr	-1046(ra) # 8020782a <_ZN2os7console5print17hb0238f93bcb82e2aE>

0000000080207c48 <.Lpcrel_hi44>:
    80207c48:	ffffc517          	auipc	a0,0xffffc
    80207c4c:	3fc50513          	addi	a0,a0,1020 # 80204044 <trap_from_kernel>
    80207c50:	10551073          	csrw	stvec,a0
    80207c54:	02000513          	li	a0,32
    80207c58:	10452073          	csrs	sie,a0
    80207c5c:	c0102573          	rdtime	a0
    80207c60:	65fd                	lui	a1,0x1f
    80207c62:	8485859b          	addiw	a1,a1,-1976 # 1e848 <$d.60+0x4b7>
    80207c66:	952e                	add	a0,a0,a1
    80207c68:	544955b7          	lui	a1,0x54495
    80207c6c:	d455889b          	addiw	a7,a1,-699 # 54494d45 <$d.6+0x543cdeea>
    80207c70:	4801                	li	a6,0
    80207c72:	00000073          	ecall
    80207c76:	00000097          	auipc	ra,0x0
    80207c7a:	d24080e7          	jalr	-732(ra) # 8020799a <_ZN2os6loader9list_apps17h8579beba8c539549E>
    80207c7e:	00001097          	auipc	ra,0x1
    80207c82:	d48080e7          	jalr	-696(ra) # 802089c6 <_ZN2os4task9processor9run_tasks17h32febda943e264a0E>

0000000080207c86 <_ZN42_$LT$$RF$T$u20$as$u20$core..fmt..Debug$GT$3fmt17h8eeed7da11db97ffE>:
    80207c86:	1141                	addi	sp,sp,-16
    80207c88:	e406                	sd	ra,8(sp)
    80207c8a:	e022                	sd	s0,0(sp)
    80207c8c:	0800                	addi	s0,sp,16
    80207c8e:	0345e603          	lwu	a2,52(a1)
    80207c92:	6108                	ld	a0,0(a0)
    80207c94:	01067693          	andi	a3,a2,16
    80207c98:	ea99                	bnez	a3,80207cae <_ZN42_$LT$$RF$T$u20$as$u20$core..fmt..Debug$GT$3fmt17h8eeed7da11db97ffE+0x28>
    80207c9a:	02067613          	andi	a2,a2,32
    80207c9e:	ee19                	bnez	a2,80207cbc <_ZN42_$LT$$RF$T$u20$as$u20$core..fmt..Debug$GT$3fmt17h8eeed7da11db97ffE+0x36>
    80207ca0:	60a2                	ld	ra,8(sp)
    80207ca2:	6402                	ld	s0,0(sp)
    80207ca4:	0141                	addi	sp,sp,16
    80207ca6:	00005317          	auipc	t1,0x5
    80207caa:	f5a30067          	jr	-166(t1) # 8020cc00 <_ZN4core3fmt3num3imp51_$LT$impl$u20$core..fmt..Display$u20$for$u20$u8$GT$3fmt17h1ef3f7ef9813e01eE>
    80207cae:	60a2                	ld	ra,8(sp)
    80207cb0:	6402                	ld	s0,0(sp)
    80207cb2:	0141                	addi	sp,sp,16
    80207cb4:	00005317          	auipc	t1,0x5
    80207cb8:	a1e30067          	jr	-1506(t1) # 8020c6d2 <_ZN4core3fmt3num52_$LT$impl$u20$core..fmt..LowerHex$u20$for$u20$i8$GT$3fmt17h8536913baf387f54E>
    80207cbc:	60a2                	ld	ra,8(sp)
    80207cbe:	6402                	ld	s0,0(sp)
    80207cc0:	0141                	addi	sp,sp,16
    80207cc2:	00005317          	auipc	t1,0x5
    80207cc6:	a8a30067          	jr	-1398(t1) # 8020c74c <_ZN4core3fmt3num52_$LT$impl$u20$core..fmt..UpperHex$u20$for$u20$i8$GT$3fmt17h896851339c341097E>

0000000080207cca <_ZN42_$LT$$RF$T$u20$as$u20$core..fmt..Debug$GT$3fmt17hac21384b257188f1E>:
    80207cca:	1141                	addi	sp,sp,-16
    80207ccc:	e406                	sd	ra,8(sp)
    80207cce:	e022                	sd	s0,0(sp)
    80207cd0:	0800                	addi	s0,sp,16
    80207cd2:	6110                	ld	a2,0(a0)
    80207cd4:	6514                	ld	a3,8(a0)
    80207cd6:	872e                	mv	a4,a1
    80207cd8:	8532                	mv	a0,a2
    80207cda:	85b6                	mv	a1,a3
    80207cdc:	863a                	mv	a2,a4
    80207cde:	60a2                	ld	ra,8(sp)
    80207ce0:	6402                	ld	s0,0(sp)
    80207ce2:	0141                	addi	sp,sp,16
    80207ce4:	00004317          	auipc	t1,0x4
    80207ce8:	b3230067          	jr	-1230(t1) # 8020b816 <_ZN40_$LT$str$u20$as$u20$core..fmt..Debug$GT$3fmt17h62ed9feb6960dcdeE>

0000000080207cec <_ZN42_$LT$$RF$T$u20$as$u20$core..fmt..Debug$GT$3fmt17hd942299f468aaa1bE>:
    80207cec:	1141                	addi	sp,sp,-16
    80207cee:	e406                	sd	ra,8(sp)
    80207cf0:	e022                	sd	s0,0(sp)
    80207cf2:	0800                	addi	s0,sp,16
    80207cf4:	0345e603          	lwu	a2,52(a1)
    80207cf8:	6108                	ld	a0,0(a0)
    80207cfa:	01067693          	andi	a3,a2,16
    80207cfe:	ea99                	bnez	a3,80207d14 <_ZN42_$LT$$RF$T$u20$as$u20$core..fmt..Debug$GT$3fmt17hd942299f468aaa1bE+0x28>
    80207d00:	02067613          	andi	a2,a2,32
    80207d04:	ee19                	bnez	a2,80207d22 <_ZN42_$LT$$RF$T$u20$as$u20$core..fmt..Debug$GT$3fmt17hd942299f468aaa1bE+0x36>
    80207d06:	60a2                	ld	ra,8(sp)
    80207d08:	6402                	ld	s0,0(sp)
    80207d0a:	0141                	addi	sp,sp,16
    80207d0c:	00005317          	auipc	t1,0x5
    80207d10:	f6030067          	jr	-160(t1) # 8020cc6c <_ZN4core3fmt3num3imp52_$LT$impl$u20$core..fmt..Display$u20$for$u20$u64$GT$3fmt17hdc568abe5d51f18fE>
    80207d14:	60a2                	ld	ra,8(sp)
    80207d16:	6402                	ld	s0,0(sp)
    80207d18:	0141                	addi	sp,sp,16
    80207d1a:	00005317          	auipc	t1,0x5
    80207d1e:	aac30067          	jr	-1364(t1) # 8020c7c6 <_ZN4core3fmt3num53_$LT$impl$u20$core..fmt..LowerHex$u20$for$u20$i64$GT$3fmt17h2c0862d8e5218d41E>
    80207d22:	60a2                	ld	ra,8(sp)
    80207d24:	6402                	ld	s0,0(sp)
    80207d26:	0141                	addi	sp,sp,16
    80207d28:	00005317          	auipc	t1,0x5
    80207d2c:	b1430067          	jr	-1260(t1) # 8020c83c <_ZN4core3fmt3num53_$LT$impl$u20$core..fmt..UpperHex$u20$for$u20$i64$GT$3fmt17hdf92147260748110E>

0000000080207d30 <_ZN42_$LT$$RF$T$u20$as$u20$core..fmt..Debug$GT$3fmt17hf899304df9685217E>:
    80207d30:	7139                	addi	sp,sp,-64
    80207d32:	fc06                	sd	ra,56(sp)
    80207d34:	f822                	sd	s0,48(sp)
    80207d36:	f426                	sd	s1,40(sp)
    80207d38:	f04a                	sd	s2,32(sp)
    80207d3a:	0080                	addi	s0,sp,64
    80207d3c:	00053903          	ld	s2,0(a0)
    80207d40:	fc840513          	addi	a0,s0,-56
    80207d44:	00004097          	auipc	ra,0x4
    80207d48:	a94080e7          	jalr	-1388(ra) # 8020b7d8 <_ZN4core3fmt9Formatter10debug_list17h90f986cc3a5d56faE>
    80207d4c:	fd243c23          	sd	s2,-40(s0)

0000000080207d50 <.Lpcrel_hi0>:
    80207d50:	00008517          	auipc	a0,0x8
    80207d54:	a4050493          	addi	s1,a0,-1472 # 8020f790 <anon.cabb48797c08da54f0d330a92f7303ed.0.llvm.14430259142183367808>
    80207d58:	fc840513          	addi	a0,s0,-56
    80207d5c:	fd840593          	addi	a1,s0,-40
    80207d60:	8626                	mv	a2,s1
    80207d62:	00003097          	auipc	ra,0x3
    80207d66:	0d2080e7          	jalr	210(ra) # 8020ae34 <_ZN4core3fmt8builders8DebugSet5entry17h3f386b00a7cd59dbE>
    80207d6a:	00190513          	addi	a0,s2,1
    80207d6e:	fca43c23          	sd	a0,-40(s0)
    80207d72:	fc840513          	addi	a0,s0,-56
    80207d76:	fd840593          	addi	a1,s0,-40
    80207d7a:	8626                	mv	a2,s1
    80207d7c:	00003097          	auipc	ra,0x3
    80207d80:	0b8080e7          	jalr	184(ra) # 8020ae34 <_ZN4core3fmt8builders8DebugSet5entry17h3f386b00a7cd59dbE>
    80207d84:	00290513          	addi	a0,s2,2
    80207d88:	fca43c23          	sd	a0,-40(s0)
    80207d8c:	fc840513          	addi	a0,s0,-56
    80207d90:	fd840593          	addi	a1,s0,-40
    80207d94:	8626                	mv	a2,s1
    80207d96:	00003097          	auipc	ra,0x3
    80207d9a:	09e080e7          	jalr	158(ra) # 8020ae34 <_ZN4core3fmt8builders8DebugSet5entry17h3f386b00a7cd59dbE>
    80207d9e:	090d                	addi	s2,s2,3
    80207da0:	fd243c23          	sd	s2,-40(s0)
    80207da4:	fc840513          	addi	a0,s0,-56
    80207da8:	fd840593          	addi	a1,s0,-40
    80207dac:	8626                	mv	a2,s1
    80207dae:	00003097          	auipc	ra,0x3
    80207db2:	086080e7          	jalr	134(ra) # 8020ae34 <_ZN4core3fmt8builders8DebugSet5entry17h3f386b00a7cd59dbE>
    80207db6:	fc840513          	addi	a0,s0,-56
    80207dba:	00003097          	auipc	ra,0x3
    80207dbe:	1be080e7          	jalr	446(ra) # 8020af78 <_ZN4core3fmt8builders9DebugList6finish17hb0a2d6eceb73b577E>
    80207dc2:	70e2                	ld	ra,56(sp)
    80207dc4:	7442                	ld	s0,48(sp)
    80207dc6:	74a2                	ld	s1,40(sp)
    80207dc8:	7902                	ld	s2,32(sp)
    80207dca:	6121                	addi	sp,sp,64
    80207dcc:	8082                	ret

0000000080207dce <_ZN44_$LT$$RF$T$u20$as$u20$core..fmt..Display$GT$3fmt17h2e02a33c7f7cdcb8E>:
    80207dce:	1141                	addi	sp,sp,-16
    80207dd0:	e406                	sd	ra,8(sp)
    80207dd2:	e022                	sd	s0,0(sp)
    80207dd4:	0800                	addi	s0,sp,16
    80207dd6:	6110                	ld	a2,0(a0)
    80207dd8:	6208                	ld	a0,0(a2)
    80207dda:	6610                	ld	a2,8(a2)
    80207ddc:	86ae                	mv	a3,a1
    80207dde:	85b2                	mv	a1,a2
    80207de0:	8636                	mv	a2,a3
    80207de2:	60a2                	ld	ra,8(sp)
    80207de4:	6402                	ld	s0,0(sp)
    80207de6:	0141                	addi	sp,sp,16
    80207de8:	00004317          	auipc	t1,0x4
    80207dec:	d3830067          	jr	-712(t1) # 8020bb20 <_ZN42_$LT$str$u20$as$u20$core..fmt..Display$GT$3fmt17h2a14b39c69050861E>

0000000080207df0 <_ZN44_$LT$$RF$T$u20$as$u20$core..fmt..Display$GT$3fmt17h94ae1e7ddf36d575E>:
    80207df0:	1141                	addi	sp,sp,-16
    80207df2:	e406                	sd	ra,8(sp)
    80207df4:	e022                	sd	s0,0(sp)
    80207df6:	0800                	addi	s0,sp,16
    80207df8:	6110                	ld	a2,0(a0)
    80207dfa:	6514                	ld	a3,8(a0)
    80207dfc:	872e                	mv	a4,a1
    80207dfe:	8532                	mv	a0,a2
    80207e00:	85b6                	mv	a1,a3
    80207e02:	863a                	mv	a2,a4
    80207e04:	60a2                	ld	ra,8(sp)
    80207e06:	6402                	ld	s0,0(sp)
    80207e08:	0141                	addi	sp,sp,16
    80207e0a:	00004317          	auipc	t1,0x4
    80207e0e:	d1630067          	jr	-746(t1) # 8020bb20 <_ZN42_$LT$str$u20$as$u20$core..fmt..Display$GT$3fmt17h2a14b39c69050861E>

0000000080207e12 <_ZN44_$LT$$RF$T$u20$as$u20$core..fmt..Display$GT$3fmt17ha5cf166c7bdb4b65E>:
    80207e12:	1141                	addi	sp,sp,-16
    80207e14:	e406                	sd	ra,8(sp)
    80207e16:	e022                	sd	s0,0(sp)
    80207e18:	0800                	addi	s0,sp,16
    80207e1a:	6108                	ld	a0,0(a0)
    80207e1c:	60a2                	ld	ra,8(sp)
    80207e1e:	6402                	ld	s0,0(sp)
    80207e20:	0141                	addi	sp,sp,16
    80207e22:	00003317          	auipc	t1,0x3
    80207e26:	1ac30067          	jr	428(t1) # 8020afce <_ZN59_$LT$core..fmt..Arguments$u20$as$u20$core..fmt..Display$GT$3fmt17hab871323e3c3d510E>

0000000080207e2a <_ZN4core3fmt3num52_$LT$impl$u20$core..fmt..Debug$u20$for$u20$usize$GT$3fmt17h1c8a6d16de8eed31E>:
    80207e2a:	1141                	addi	sp,sp,-16
    80207e2c:	e406                	sd	ra,8(sp)
    80207e2e:	e022                	sd	s0,0(sp)
    80207e30:	0800                	addi	s0,sp,16
    80207e32:	0345e603          	lwu	a2,52(a1)
    80207e36:	01067693          	andi	a3,a2,16
    80207e3a:	ea99                	bnez	a3,80207e50 <_ZN4core3fmt3num52_$LT$impl$u20$core..fmt..Debug$u20$for$u20$usize$GT$3fmt17h1c8a6d16de8eed31E+0x26>
    80207e3c:	02067613          	andi	a2,a2,32
    80207e40:	ee19                	bnez	a2,80207e5e <_ZN4core3fmt3num52_$LT$impl$u20$core..fmt..Debug$u20$for$u20$usize$GT$3fmt17h1c8a6d16de8eed31E+0x34>
    80207e42:	60a2                	ld	ra,8(sp)
    80207e44:	6402                	ld	s0,0(sp)
    80207e46:	0141                	addi	sp,sp,16
    80207e48:	00005317          	auipc	t1,0x5
    80207e4c:	e2430067          	jr	-476(t1) # 8020cc6c <_ZN4core3fmt3num3imp52_$LT$impl$u20$core..fmt..Display$u20$for$u20$u64$GT$3fmt17hdc568abe5d51f18fE>
    80207e50:	60a2                	ld	ra,8(sp)
    80207e52:	6402                	ld	s0,0(sp)
    80207e54:	0141                	addi	sp,sp,16
    80207e56:	00005317          	auipc	t1,0x5
    80207e5a:	97030067          	jr	-1680(t1) # 8020c7c6 <_ZN4core3fmt3num53_$LT$impl$u20$core..fmt..LowerHex$u20$for$u20$i64$GT$3fmt17h2c0862d8e5218d41E>
    80207e5e:	60a2                	ld	ra,8(sp)
    80207e60:	6402                	ld	s0,0(sp)
    80207e62:	0141                	addi	sp,sp,16
    80207e64:	00005317          	auipc	t1,0x5
    80207e68:	9d830067          	jr	-1576(t1) # 8020c83c <_ZN4core3fmt3num53_$LT$impl$u20$core..fmt..UpperHex$u20$for$u20$i64$GT$3fmt17hdf92147260748110E>

0000000080207e6c <_ZN4core3ptr48drop_in_place$LT$core..str..error..Utf8Error$GT$17hab9b1e26201a925bE.llvm.17946426208055529105>:
    80207e6c:	1141                	addi	sp,sp,-16
    80207e6e:	e406                	sd	ra,8(sp)
    80207e70:	e022                	sd	s0,0(sp)
    80207e72:	0800                	addi	s0,sp,16
    80207e74:	60a2                	ld	ra,8(sp)
    80207e76:	6402                	ld	s0,0(sp)
    80207e78:	0141                	addi	sp,sp,16
    80207e7a:	8082                	ret

0000000080207e7c <_ZN64_$LT$core..str..error..Utf8Error$u20$as$u20$core..fmt..Debug$GT$3fmt17h5d232dabea914102E.llvm.17946426208055529105>:
    80207e7c:	7179                	addi	sp,sp,-48
    80207e7e:	f406                	sd	ra,40(sp)
    80207e80:	f022                	sd	s0,32(sp)
    80207e82:	1800                	addi	s0,sp,48
    80207e84:	82ae                	mv	t0,a1
    80207e86:	87aa                	mv	a5,a0
    80207e88:	0521                	addi	a0,a0,8
    80207e8a:	fea43423          	sd	a0,-24(s0)

0000000080207e8e <.Lpcrel_hi1>:
    80207e8e:	00008517          	auipc	a0,0x8
    80207e92:	ea250513          	addi	a0,a0,-350 # 8020fd30 <.Lanon.f74f78ffd666ce5c7fdd8ef97087ab59.4>
    80207e96:	e82a                	sd	a0,16(sp)
    80207e98:	fe840513          	addi	a0,s0,-24
    80207e9c:	e42a                	sd	a0,8(sp)
    80207e9e:	4525                	li	a0,9

0000000080207ea0 <.Lpcrel_hi2>:
    80207ea0:	00008597          	auipc	a1,0x8
    80207ea4:	e4858593          	addi	a1,a1,-440 # 8020fce8 <.Lanon.f74f78ffd666ce5c7fdd8ef97087ab59.0>

0000000080207ea8 <.Lpcrel_hi3>:
    80207ea8:	00008617          	auipc	a2,0x8
    80207eac:	e4960693          	addi	a3,a2,-439 # 8020fcf1 <.Lanon.f74f78ffd666ce5c7fdd8ef97087ab59.1>

0000000080207eb0 <.Lpcrel_hi4>:
    80207eb0:	00008617          	auipc	a2,0x8
    80207eb4:	e5060813          	addi	a6,a2,-432 # 8020fd00 <.Lanon.f74f78ffd666ce5c7fdd8ef97087ab59.2>

0000000080207eb8 <.Lpcrel_hi5>:
    80207eb8:	00008617          	auipc	a2,0x8
    80207ebc:	e6860893          	addi	a7,a2,-408 # 8020fd20 <.Lanon.f74f78ffd666ce5c7fdd8ef97087ab59.3>
    80207ec0:	4625                	li	a2,9
    80207ec2:	472d                	li	a4,11
    80207ec4:	e02a                	sd	a0,0(sp)
    80207ec6:	8516                	mv	a0,t0
    80207ec8:	00003097          	auipc	ra,0x3
    80207ecc:	796080e7          	jalr	1942(ra) # 8020b65e <_ZN4core3fmt9Formatter26debug_struct_field2_finish17hbec8a996f47ae8f1E>
    80207ed0:	70a2                	ld	ra,40(sp)
    80207ed2:	7402                	ld	s0,32(sp)
    80207ed4:	6145                	addi	sp,sp,48
    80207ed6:	8082                	ret

0000000080207ed8 <_ZN2os7syscall2fs9sys_write17h4276035010912fe8E>:
    80207ed8:	7155                	addi	sp,sp,-208
    80207eda:	e586                	sd	ra,200(sp)
    80207edc:	e1a2                	sd	s0,192(sp)
    80207ede:	fd26                	sd	s1,184(sp)
    80207ee0:	f94a                	sd	s2,176(sp)
    80207ee2:	f54e                	sd	s3,168(sp)
    80207ee4:	f152                	sd	s4,160(sp)
    80207ee6:	ed56                	sd	s5,152(sp)
    80207ee8:	e95a                	sd	s6,144(sp)
    80207eea:	e55e                	sd	s7,136(sp)
    80207eec:	e162                	sd	s8,128(sp)
    80207eee:	fce6                	sd	s9,120(sp)
    80207ef0:	f8ea                	sd	s10,112(sp)
    80207ef2:	f4ee                	sd	s11,104(sp)
    80207ef4:	0980                	addi	s0,sp,208
    80207ef6:	4685                	li	a3,1
    80207ef8:	10d51f63          	bne	a0,a3,80208016 <.Lpcrel_hi8>
    80207efc:	8932                	mv	s2,a2
    80207efe:	84ae                	mv	s1,a1
    80207f00:	00001097          	auipc	ra,0x1
    80207f04:	d58080e7          	jalr	-680(ra) # 80208c58 <_ZN2os4task9processor18current_user_token17h8e740027dcd15aa1E>
    80207f08:	85aa                	mv	a1,a0
    80207f0a:	f3040513          	addi	a0,s0,-208
    80207f0e:	8626                	mv	a2,s1
    80207f10:	86ca                	mv	a3,s2
    80207f12:	ffffc097          	auipc	ra,0xffffc
    80207f16:	b74080e7          	jalr	-1164(ra) # 80203a86 <_ZN2os2mm10page_table22translated_byte_buffer17h7b652dca786bce3eE>
    80207f1a:	f3043983          	ld	s3,-208(s0)
    80207f1e:	f4043503          	ld	a0,-192(s0)
    80207f22:	f3843a83          	ld	s5,-200(s0)
    80207f26:	cd35                	beqz	a0,80207fa2 <.Lpcrel_hi7+0x64>
    80207f28:	0512                	slli	a0,a0,0x4
    80207f2a:	00aa8bb3          	add	s7,s5,a0
    80207f2e:	f6040a13          	addi	s4,s0,-160
    80207f32:	f8840b13          	addi	s6,s0,-120

0000000080207f36 <.Lpcrel_hi6>:
    80207f36:	00000517          	auipc	a0,0x0
    80207f3a:	eba50c13          	addi	s8,a0,-326 # 80207df0 <_ZN44_$LT$$RF$T$u20$as$u20$core..fmt..Display$GT$3fmt17h94ae1e7ddf36d575E>

0000000080207f3e <.Lpcrel_hi7>:
    80207f3e:	00007517          	auipc	a0,0x7
    80207f42:	53a50c93          	addi	s9,a0,1338 # 8020f478 <anon.f74f78ffd666ce5c7fdd8ef97087ab59.5.llvm.17946426208055529105>
    80207f46:	4d85                	li	s11,1
    80207f48:	f4840d13          	addi	s10,s0,-184
    80207f4c:	84d6                	mv	s1,s5
    80207f4e:	608c                	ld	a1,0(s1)
    80207f50:	6490                	ld	a2,8(s1)
    80207f52:	f5840513          	addi	a0,s0,-168
    80207f56:	00004097          	auipc	ra,0x4
    80207f5a:	e70080e7          	jalr	-400(ra) # 8020bdc6 <_ZN4core3str8converts9from_utf817ha74d029ccfc0885eE>
    80207f5e:	f5843503          	ld	a0,-168(s0)
    80207f62:	ed35                	bnez	a0,80207fde <.Lpcrel_hi10+0x34>
    80207f64:	f6043503          	ld	a0,-160(s0)
    80207f68:	f6843583          	ld	a1,-152(s0)
    80207f6c:	f8a43423          	sd	a0,-120(s0)
    80207f70:	f8b43823          	sd	a1,-112(s0)
    80207f74:	f5643423          	sd	s6,-184(s0)
    80207f78:	f5843823          	sd	s8,-176(s0)
    80207f7c:	f5943c23          	sd	s9,-168(s0)
    80207f80:	f7b43023          	sd	s11,-160(s0)
    80207f84:	f6043c23          	sd	zero,-136(s0)
    80207f88:	f7a43423          	sd	s10,-152(s0)
    80207f8c:	f7b43823          	sd	s11,-144(s0)
    80207f90:	f5840513          	addi	a0,s0,-168
    80207f94:	00000097          	auipc	ra,0x0
    80207f98:	896080e7          	jalr	-1898(ra) # 8020782a <_ZN2os7console5print17hb0238f93bcb82e2aE>
    80207f9c:	04c1                	addi	s1,s1,16
    80207f9e:	fb7498e3          	bne	s1,s7,80207f4e <.Lpcrel_hi7+0x10>
    80207fa2:	00098e63          	beqz	s3,80207fbe <.Lpcrel_hi10+0x14>
    80207fa6:	00499693          	slli	a3,s3,0x4

0000000080207faa <.Lpcrel_hi10>:
    80207faa:	0032f517          	auipc	a0,0x32f
    80207fae:	0fe50513          	addi	a0,a0,254 # 805370a8 <_ZN2os2mm14heap_allocator14HEAP_ALLOCATOR17hdb009eb0a1c201beE.llvm.13289308715828321855>
    80207fb2:	4621                	li	a2,8
    80207fb4:	85d6                	mv	a1,s5
    80207fb6:	00002097          	auipc	ra,0x2
    80207fba:	f58080e7          	jalr	-168(ra) # 80209f0e <_ZN87_$LT$buddy_system_allocator..LockedHeap$u20$as$u20$core..alloc..global..GlobalAlloc$GT$7dealloc17h5e5f6d74b20ea42eE>
    80207fbe:	854a                	mv	a0,s2
    80207fc0:	60ae                	ld	ra,200(sp)
    80207fc2:	640e                	ld	s0,192(sp)
    80207fc4:	74ea                	ld	s1,184(sp)
    80207fc6:	794a                	ld	s2,176(sp)
    80207fc8:	79aa                	ld	s3,168(sp)
    80207fca:	7a0a                	ld	s4,160(sp)
    80207fcc:	6aea                	ld	s5,152(sp)
    80207fce:	6b4a                	ld	s6,144(sp)
    80207fd0:	6baa                	ld	s7,136(sp)
    80207fd2:	6c0a                	ld	s8,128(sp)
    80207fd4:	7ce6                	ld	s9,120(sp)
    80207fd6:	7d46                	ld	s10,112(sp)
    80207fd8:	7da6                	ld	s11,104(sp)
    80207fda:	6169                	addi	sp,sp,208
    80207fdc:	8082                	ret
    80207fde:	008a3503          	ld	a0,8(s4)
    80207fe2:	000a3583          	ld	a1,0(s4)
    80207fe6:	f8a43823          	sd	a0,-112(s0)
    80207fea:	f8b43423          	sd	a1,-120(s0)

0000000080207fee <.Lpcrel_hi11>:
    80207fee:	00008517          	auipc	a0,0x8
    80207ff2:	d6250513          	addi	a0,a0,-670 # 8020fd50 <anon.f74f78ffd666ce5c7fdd8ef97087ab59.6.llvm.17946426208055529105>

0000000080207ff6 <.Lpcrel_hi12>:
    80207ff6:	00008597          	auipc	a1,0x8
    80207ffa:	d8a58693          	addi	a3,a1,-630 # 8020fd80 <anon.f74f78ffd666ce5c7fdd8ef97087ab59.7.llvm.17946426208055529105>

0000000080207ffe <.Lpcrel_hi13>:
    80207ffe:	00008597          	auipc	a1,0x8
    80208002:	dba58713          	addi	a4,a1,-582 # 8020fdb8 <anon.f74f78ffd666ce5c7fdd8ef97087ab59.9.llvm.17946426208055529105>
    80208006:	02b00593          	li	a1,43
    8020800a:	f8840613          	addi	a2,s0,-120
    8020800e:	00003097          	auipc	ra,0x3
    80208012:	88a080e7          	jalr	-1910(ra) # 8020a898 <_ZN4core6result13unwrap_failed17h68f4211cf4faa05bE>

0000000080208016 <.Lpcrel_hi8>:
    80208016:	00008517          	auipc	a0,0x8
    8020801a:	dda50513          	addi	a0,a0,-550 # 8020fdf0 <anon.f74f78ffd666ce5c7fdd8ef97087ab59.11.llvm.17946426208055529105>
    8020801e:	f4a43c23          	sd	a0,-168(s0)
    80208022:	f6d43023          	sd	a3,-160(s0)
    80208026:	f6043c23          	sd	zero,-136(s0)
    8020802a:	4521                	li	a0,8
    8020802c:	f6a43423          	sd	a0,-152(s0)
    80208030:	f6043823          	sd	zero,-144(s0)

0000000080208034 <.Lpcrel_hi9>:
    80208034:	00008517          	auipc	a0,0x8
    80208038:	dcc50593          	addi	a1,a0,-564 # 8020fe00 <anon.f74f78ffd666ce5c7fdd8ef97087ab59.12.llvm.17946426208055529105>
    8020803c:	f5840513          	addi	a0,s0,-168
    80208040:	00002097          	auipc	ra,0x2
    80208044:	60c080e7          	jalr	1548(ra) # 8020a64c <_ZN4core9panicking9panic_fmt17hc25dbb51a4d67a42E>

0000000080208048 <_ZN2os7syscall2fs8sys_read17hcb3b5270bf8f37b2E>:
    80208048:	711d                	addi	sp,sp,-96
    8020804a:	ec86                	sd	ra,88(sp)
    8020804c:	e8a2                	sd	s0,80(sp)
    8020804e:	e4a6                	sd	s1,72(sp)
    80208050:	e0ca                	sd	s2,64(sp)
    80208052:	1080                	addi	s0,sp,96
    80208054:	fac43423          	sd	a2,-88(s0)
    80208058:	e549                	bnez	a0,802080e2 <.Lpcrel_hi14>
    8020805a:	4505                	li	a0,1
    8020805c:	0aa61d63          	bne	a2,a0,80208116 <.Lpcrel_hi16>
    80208060:	892e                	mv	s2,a1
    80208062:	4889                	li	a7,2
    80208064:	00000073          	ecall
    80208068:	e909                	bnez	a0,8020807a <_ZN2os7syscall2fs8sys_read17hcb3b5270bf8f37b2E+0x32>
    8020806a:	fffff097          	auipc	ra,0xfffff
    8020806e:	d54080e7          	jalr	-684(ra) # 80206dbe <_ZN2os4task28suspend_current_and_run_next17haf6a7b431a6fa8bbE>
    80208072:	4889                	li	a7,2
    80208074:	00000073          	ecall
    80208078:	d96d                	beqz	a0,8020806a <_ZN2os7syscall2fs8sys_read17hcb3b5270bf8f37b2E+0x22>
    8020807a:	84aa                	mv	s1,a0
    8020807c:	00001097          	auipc	ra,0x1
    80208080:	bdc080e7          	jalr	-1060(ra) # 80208c58 <_ZN2os4task9processor18current_user_token17h8e740027dcd15aa1E>
    80208084:	85aa                	mv	a1,a0
    80208086:	fb040513          	addi	a0,s0,-80
    8020808a:	4685                	li	a3,1
    8020808c:	864a                	mv	a2,s2
    8020808e:	ffffc097          	auipc	ra,0xffffc
    80208092:	9f8080e7          	jalr	-1544(ra) # 80203a86 <_ZN2os2mm10page_table22translated_byte_buffer17h7b652dca786bce3eE>
    80208096:	fc043503          	ld	a0,-64(s0)
    8020809a:	c915                	beqz	a0,802080ce <.Lpcrel_hi19>
    8020809c:	fb843583          	ld	a1,-72(s0)
    802080a0:	6188                	ld	a0,0(a1)
    802080a2:	00950023          	sb	s1,0(a0)
    802080a6:	fb043683          	ld	a3,-80(s0)
    802080aa:	ca99                	beqz	a3,802080c0 <.Lpcrel_hi20+0x12>
    802080ac:	0692                	slli	a3,a3,0x4

00000000802080ae <.Lpcrel_hi20>:
    802080ae:	0032f517          	auipc	a0,0x32f
    802080b2:	ffa50513          	addi	a0,a0,-6 # 805370a8 <_ZN2os2mm14heap_allocator14HEAP_ALLOCATOR17hdb009eb0a1c201beE.llvm.13289308715828321855>
    802080b6:	4621                	li	a2,8
    802080b8:	00002097          	auipc	ra,0x2
    802080bc:	e56080e7          	jalr	-426(ra) # 80209f0e <_ZN87_$LT$buddy_system_allocator..LockedHeap$u20$as$u20$core..alloc..global..GlobalAlloc$GT$7dealloc17h5e5f6d74b20ea42eE>
    802080c0:	4505                	li	a0,1
    802080c2:	60e6                	ld	ra,88(sp)
    802080c4:	6446                	ld	s0,80(sp)
    802080c6:	64a6                	ld	s1,72(sp)
    802080c8:	6906                	ld	s2,64(sp)
    802080ca:	6125                	addi	sp,sp,96
    802080cc:	8082                	ret

00000000802080ce <.Lpcrel_hi19>:
    802080ce:	00008517          	auipc	a0,0x8
    802080d2:	d4a50613          	addi	a2,a0,-694 # 8020fe18 <anon.f74f78ffd666ce5c7fdd8ef97087ab59.14.llvm.17946426208055529105>
    802080d6:	4501                	li	a0,0
    802080d8:	4581                	li	a1,0
    802080da:	00002097          	auipc	ra,0x2
    802080de:	624080e7          	jalr	1572(ra) # 8020a6fe <_ZN4core9panicking18panic_bounds_check17h087f2837af3bd59aE>

00000000802080e2 <.Lpcrel_hi14>:
    802080e2:	00008517          	auipc	a0,0x8
    802080e6:	dbe50513          	addi	a0,a0,-578 # 8020fea0 <anon.f74f78ffd666ce5c7fdd8ef97087ab59.19.llvm.17946426208055529105>
    802080ea:	faa43823          	sd	a0,-80(s0)
    802080ee:	4505                	li	a0,1
    802080f0:	faa43c23          	sd	a0,-72(s0)
    802080f4:	fc043823          	sd	zero,-48(s0)
    802080f8:	4521                	li	a0,8
    802080fa:	fca43023          	sd	a0,-64(s0)
    802080fe:	fc043423          	sd	zero,-56(s0)

0000000080208102 <.Lpcrel_hi15>:
    80208102:	00008517          	auipc	a0,0x8
    80208106:	dae50593          	addi	a1,a0,-594 # 8020feb0 <anon.f74f78ffd666ce5c7fdd8ef97087ab59.20.llvm.17946426208055529105>
    8020810a:	fb040513          	addi	a0,s0,-80
    8020810e:	00002097          	auipc	ra,0x2
    80208112:	53e080e7          	jalr	1342(ra) # 8020a64c <_ZN4core9panicking9panic_fmt17hc25dbb51a4d67a42E>

0000000080208116 <.Lpcrel_hi16>:
    80208116:	00008597          	auipc	a1,0x8
    8020811a:	d4258593          	addi	a1,a1,-702 # 8020fe58 <anon.f74f78ffd666ce5c7fdd8ef97087ab59.16.llvm.17946426208055529105>
    8020811e:	fab43823          	sd	a1,-80(s0)
    80208122:	faa43c23          	sd	a0,-72(s0)
    80208126:	4521                	li	a0,8
    80208128:	fca43023          	sd	a0,-64(s0)
    8020812c:	fc043423          	sd	zero,-56(s0)
    80208130:	fc043823          	sd	zero,-48(s0)

0000000080208134 <.Lpcrel_hi17>:
    80208134:	00007517          	auipc	a0,0x7
    80208138:	ae450613          	addi	a2,a0,-1308 # 8020ec18 <anon.f74f78ffd666ce5c7fdd8ef97087ab59.13.llvm.17946426208055529105>

000000008020813c <.Lpcrel_hi18>:
    8020813c:	00008517          	auipc	a0,0x8
    80208140:	d2c50713          	addi	a4,a0,-724 # 8020fe68 <anon.f74f78ffd666ce5c7fdd8ef97087ab59.17.llvm.17946426208055529105>
    80208144:	fa840593          	addi	a1,s0,-88
    80208148:	fb040693          	addi	a3,s0,-80
    8020814c:	4501                	li	a0,0
    8020814e:	fffff097          	auipc	ra,0xfffff
    80208152:	5a4080e7          	jalr	1444(ra) # 802076f2 <_ZN4core9panicking13assert_failed17h15aff8796b99ea85E>

0000000080208156 <_ZN2os7syscall7process8sys_exit17h29f7d4519d8f7cd9E>:
    80208156:	7139                	addi	sp,sp,-64
    80208158:	fc06                	sd	ra,56(sp)
    8020815a:	f822                	sd	s0,48(sp)
    8020815c:	0080                	addi	s0,sp,64
    8020815e:	fffff097          	auipc	ra,0xfffff
    80208162:	dc8080e7          	jalr	-568(ra) # 80206f26 <_ZN2os4task25exit_current_and_run_next17h852c15de548e53f0E>

0000000080208166 <.Lpcrel_hi21>:
    80208166:	00008517          	auipc	a0,0x8
    8020816a:	d7a50513          	addi	a0,a0,-646 # 8020fee0 <anon.f74f78ffd666ce5c7fdd8ef97087ab59.22.llvm.17946426208055529105>
    8020816e:	fca43023          	sd	a0,-64(s0)
    80208172:	4505                	li	a0,1
    80208174:	fca43423          	sd	a0,-56(s0)
    80208178:	fe043023          	sd	zero,-32(s0)
    8020817c:	4521                	li	a0,8
    8020817e:	fca43823          	sd	a0,-48(s0)
    80208182:	fc043c23          	sd	zero,-40(s0)

0000000080208186 <.Lpcrel_hi22>:
    80208186:	00008517          	auipc	a0,0x8
    8020818a:	d8250593          	addi	a1,a0,-638 # 8020ff08 <anon.f74f78ffd666ce5c7fdd8ef97087ab59.24.llvm.17946426208055529105>
    8020818e:	fc040513          	addi	a0,s0,-64
    80208192:	00002097          	auipc	ra,0x2
    80208196:	4ba080e7          	jalr	1210(ra) # 8020a64c <_ZN4core9panicking9panic_fmt17hc25dbb51a4d67a42E>

000000008020819a <_ZN2os7syscall7process8sys_fork17hd5820a2932953d0bE>:
    8020819a:	7139                	addi	sp,sp,-64
    8020819c:	fc06                	sd	ra,56(sp)
    8020819e:	f822                	sd	s0,48(sp)
    802081a0:	f426                	sd	s1,40(sp)
    802081a2:	f04a                	sd	s2,32(sp)
    802081a4:	ec4e                	sd	s3,24(sp)
    802081a6:	e852                	sd	s4,16(sp)
    802081a8:	0080                	addi	s0,sp,64

00000000802081aa <.Lpcrel_hi27>:
    802081aa:	0032f517          	auipc	a0,0x32f
    802081ae:	05650493          	addi	s1,a0,86 # 80537200 <_ZN74_$LT$os..task..processor..PROCESSOR$u20$as$u20$core..ops..deref..Deref$GT$5deref11__stability4LAZY17hb7c09ecbcf5ec318E.llvm.4771765091264844042>
    802081b2:	08048503          	lb	a0,128(s1)
    802081b6:	4589                	li	a1,2
    802081b8:	0230000f          	fence	r,rw
    802081bc:	0eb51163          	bne	a0,a1,8020829e <.Lpcrel_hi28>
    802081c0:	6088                	ld	a0,0(s1)
    802081c2:	e965                	bnez	a0,802082b2 <.Lpcrel_hi29>
    802081c4:	7ca8                	ld	a0,120(s1)
    802081c6:	55fd                	li	a1,-1
    802081c8:	e08c                	sd	a1,0(s1)
    802081ca:	10050e63          	beqz	a0,802082e6 <.Lpcrel_hi35+0x10>
    802081ce:	4585                	li	a1,1
    802081d0:	00b535af          	amoadd.d	a1,a1,(a0)
    802081d4:	1205c363          	bltz	a1,802082fa <.Lpcrel_hi30+0x10>
    802081d8:	608c                	ld	a1,0(s1)
    802081da:	0585                	addi	a1,a1,1
    802081dc:	e08c                	sd	a1,0(s1)
    802081de:	fca43423          	sd	a0,-56(s0)
    802081e2:	fc840513          	addi	a0,s0,-56
    802081e6:	00001097          	auipc	ra,0x1
    802081ea:	18e080e7          	jalr	398(ra) # 80209374 <_ZN2os4task4task16TaskControlBlock4fork17hc667c5a6072893b0E>
    802081ee:	89aa                	mv	s3,a0
    802081f0:	7108                	ld	a0,32(a0)
    802081f2:	10051563          	bnez	a0,802082fc <.Lpcrel_hi31>
    802081f6:	0789b503          	ld	a0,120(s3)
    802081fa:	0109b903          	ld	s2,16(s3)
    802081fe:	55fd                	li	a1,-1
    80208200:	0532                	slli	a0,a0,0xc
    80208202:	02b9b023          	sd	a1,32(s3)
    80208206:	10050363          	beqz	a0,8020830c <.Lpcrel_hi32>
    8020820a:	0209b023          	sd	zero,32(s3)
    8020820e:	04053823          	sd	zero,80(a0)

0000000080208212 <.Lpcrel_hi33>:
    80208212:	0012f517          	auipc	a0,0x12f
    80208216:	e3650493          	addi	s1,a0,-458 # 80337048 <_ZN75_$LT$os..task..manager..TASK_MANAGER$u20$as$u20$core..ops..deref..Deref$GT$5deref11__stability4LAZY17h0f96fcc08b9753d5E.llvm.7411291366835535865>
    8020821a:	02848503          	lb	a0,40(s1)
    8020821e:	4589                	li	a1,2
    80208220:	0230000f          	fence	r,rw
    80208224:	08b51f63          	bne	a0,a1,802082c2 <.Lpcrel_hi34>
    80208228:	6088                	ld	a0,0(s1)
    8020822a:	e555                	bnez	a0,802082d6 <.Lpcrel_hi35>
    8020822c:	708c                	ld	a1,32(s1)
    8020822e:	6488                	ld	a0,8(s1)
    80208230:	5a7d                	li	s4,-1
    80208232:	0144b023          	sd	s4,0(s1)
    80208236:	00a59a63          	bne	a1,a0,8020824a <.Lpcrel_hi33+0x38>
    8020823a:	00848513          	addi	a0,s1,8
    8020823e:	ffffe097          	auipc	ra,0xffffe
    80208242:	08c080e7          	jalr	140(ra) # 802062ca <_ZN5alloc11collections9vec_deque21VecDeque$LT$T$C$A$GT$4grow17hb847be41881224acE.llvm.7411291366835535865>
    80208246:	708c                	ld	a1,32(s1)
    80208248:	6488                	ld	a0,8(s1)
    8020824a:	6c90                	ld	a2,24(s1)
    8020824c:	95b2                	add	a1,a1,a2
    8020824e:	00a5b633          	sltu	a2,a1,a0
    80208252:	167d                	addi	a2,a2,-1
    80208254:	6894                	ld	a3,16(s1)
    80208256:	8d71                	and	a0,a0,a2
    80208258:	8d89                	sub	a1,a1,a0
    8020825a:	058e                	slli	a1,a1,0x3
    8020825c:	95b6                	add	a1,a1,a3
    8020825e:	0135b023          	sd	s3,0(a1)
    80208262:	7088                	ld	a0,32(s1)
    80208264:	608c                	ld	a1,0(s1)
    80208266:	0505                	addi	a0,a0,1
    80208268:	fc843603          	ld	a2,-56(s0)
    8020826c:	f088                	sd	a0,32(s1)
    8020826e:	0585                	addi	a1,a1,1
    80208270:	e08c                	sd	a1,0(s1)
    80208272:	0346352f          	amoadd.d.rl	a0,s4,(a2)
    80208276:	4585                	li	a1,1
    80208278:	00b51a63          	bne	a0,a1,8020828c <.Lpcrel_hi33+0x7a>
    8020827c:	0230000f          	fence	r,rw
    80208280:	fc840513          	addi	a0,s0,-56
    80208284:	fffff097          	auipc	ra,0xfffff
    80208288:	828080e7          	jalr	-2008(ra) # 80206aac <_ZN5alloc4sync16Arc$LT$T$C$A$GT$9drop_slow17ha4dcf4d52c6b29e9E>
    8020828c:	854a                	mv	a0,s2
    8020828e:	70e2                	ld	ra,56(sp)
    80208290:	7442                	ld	s0,48(sp)
    80208292:	74a2                	ld	s1,40(sp)
    80208294:	7902                	ld	s2,32(sp)
    80208296:	69e2                	ld	s3,24(sp)
    80208298:	6a42                	ld	s4,16(sp)
    8020829a:	6121                	addi	sp,sp,64
    8020829c:	8082                	ret

000000008020829e <.Lpcrel_hi28>:
    8020829e:	0032f517          	auipc	a0,0x32f
    802082a2:	f6250513          	addi	a0,a0,-158 # 80537200 <_ZN74_$LT$os..task..processor..PROCESSOR$u20$as$u20$core..ops..deref..Deref$GT$5deref11__stability4LAZY17hb7c09ecbcf5ec318E.llvm.4771765091264844042>
    802082a6:	ffffc097          	auipc	ra,0xffffc
    802082aa:	2f8080e7          	jalr	760(ra) # 8020459e <_ZN4spin4once17Once$LT$T$C$R$GT$18try_call_once_slow17ha07339b329b608a7E.llvm.18273212518176036961>
    802082ae:	6088                	ld	a0,0(s1)
    802082b0:	d911                	beqz	a0,802081c4 <.Lpcrel_hi27+0x1a>

00000000802082b2 <.Lpcrel_hi29>:
    802082b2:	00007517          	auipc	a0,0x7
    802082b6:	04650513          	addi	a0,a0,70 # 8020f2f8 <anon.143638ba50f3ca5f2997057583b6f6e7.15.llvm.7411291366835535865>
    802082ba:	00002097          	auipc	ra,0x2
    802082be:	ff6080e7          	jalr	-10(ra) # 8020a2b0 <_ZN4core4cell22panic_already_borrowed17h63023a1bd405c717E>

00000000802082c2 <.Lpcrel_hi34>:
    802082c2:	0012f517          	auipc	a0,0x12f
    802082c6:	d8650513          	addi	a0,a0,-634 # 80337048 <_ZN75_$LT$os..task..manager..TASK_MANAGER$u20$as$u20$core..ops..deref..Deref$GT$5deref11__stability4LAZY17h0f96fcc08b9753d5E.llvm.7411291366835535865>
    802082ca:	ffffc097          	auipc	ra,0xffffc
    802082ce:	e36080e7          	jalr	-458(ra) # 80204100 <_ZN4spin4once17Once$LT$T$C$R$GT$18try_call_once_slow17h03859503446bdfc1E.llvm.18273212518176036961>
    802082d2:	6088                	ld	a0,0(s1)
    802082d4:	dd21                	beqz	a0,8020822c <.Lpcrel_hi33+0x1a>

00000000802082d6 <.Lpcrel_hi35>:
    802082d6:	00007517          	auipc	a0,0x7
    802082da:	02250513          	addi	a0,a0,34 # 8020f2f8 <anon.143638ba50f3ca5f2997057583b6f6e7.15.llvm.7411291366835535865>
    802082de:	00002097          	auipc	ra,0x2
    802082e2:	fd2080e7          	jalr	-46(ra) # 8020a2b0 <_ZN4core4cell22panic_already_borrowed17h63023a1bd405c717E>
    802082e6:	0004b023          	sd	zero,0(s1)

00000000802082ea <.Lpcrel_hi30>:
    802082ea:	00008517          	auipc	a0,0x8
    802082ee:	c4e50513          	addi	a0,a0,-946 # 8020ff38 <anon.f74f78ffd666ce5c7fdd8ef97087ab59.26.llvm.17946426208055529105>
    802082f2:	00002097          	auipc	ra,0x2
    802082f6:	31e080e7          	jalr	798(ra) # 8020a610 <_ZN4core6option13unwrap_failed17h3c70806c841faa93E>
	...

00000000802082fc <.Lpcrel_hi31>:
    802082fc:	00007517          	auipc	a0,0x7
    80208300:	ffc50513          	addi	a0,a0,-4 # 8020f2f8 <anon.143638ba50f3ca5f2997057583b6f6e7.15.llvm.7411291366835535865>
    80208304:	00002097          	auipc	ra,0x2
    80208308:	fac080e7          	jalr	-84(ra) # 8020a2b0 <_ZN4core4cell22panic_already_borrowed17h63023a1bd405c717E>

000000008020830c <.Lpcrel_hi32>:
    8020830c:	00007517          	auipc	a0,0x7
    80208310:	f6c50513          	addi	a0,a0,-148 # 8020f278 <anon.143638ba50f3ca5f2997057583b6f6e7.8.llvm.7411291366835535865>
    80208314:	00002097          	auipc	ra,0x2
    80208318:	2fc080e7          	jalr	764(ra) # 8020a610 <_ZN4core6option13unwrap_failed17h3c70806c841faa93E>

000000008020831c <_ZN2os7syscall7process8sys_exec17hc4dbe954adbf7e2aE>:
    8020831c:	711d                	addi	sp,sp,-96
    8020831e:	ec86                	sd	ra,88(sp)
    80208320:	e8a2                	sd	s0,80(sp)
    80208322:	e4a6                	sd	s1,72(sp)
    80208324:	e0ca                	sd	s2,64(sp)
    80208326:	fc4e                	sd	s3,56(sp)
    80208328:	f852                	sd	s4,48(sp)
    8020832a:	f456                	sd	s5,40(sp)
    8020832c:	1080                	addi	s0,sp,96
    8020832e:	84aa                	mv	s1,a0
    80208330:	00001097          	auipc	ra,0x1
    80208334:	928080e7          	jalr	-1752(ra) # 80208c58 <_ZN2os4task9processor18current_user_token17h8e740027dcd15aa1E>
    80208338:	85aa                	mv	a1,a0
    8020833a:	fa840513          	addi	a0,s0,-88
    8020833e:	8626                	mv	a2,s1
    80208340:	ffffc097          	auipc	ra,0xffffc
    80208344:	8ce080e7          	jalr	-1842(ra) # 80203c0e <_ZN2os2mm10page_table14translated_str17h7536bf945a6e2470E>
    80208348:	fb043503          	ld	a0,-80(s0)
    8020834c:	fb843583          	ld	a1,-72(s0)
    80208350:	fffff097          	auipc	ra,0xfffff
    80208354:	52a080e7          	jalr	1322(ra) # 8020787a <_ZN2os6loader20get_app_data_by_name17h27490dcfb0927bb1E>
    80208358:	c14d                	beqz	a0,802083fa <.Lpcrel_hi40+0x26>
    8020835a:	89aa                	mv	s3,a0
    8020835c:	892e                	mv	s2,a1

000000008020835e <.Lpcrel_hi36>:
    8020835e:	0032f517          	auipc	a0,0x32f
    80208362:	ea250a13          	addi	s4,a0,-350 # 80537200 <_ZN74_$LT$os..task..processor..PROCESSOR$u20$as$u20$core..ops..deref..Deref$GT$5deref11__stability4LAZY17hb7c09ecbcf5ec318E.llvm.4771765091264844042>
    80208366:	080a0503          	lb	a0,128(s4)
    8020836a:	4589                	li	a1,2
    8020836c:	0230000f          	fence	r,rw
    80208370:	08b51a63          	bne	a0,a1,80208404 <.Lpcrel_hi37>
    80208374:	000a3503          	ld	a0,0(s4)
    80208378:	e14d                	bnez	a0,8020841a <.Lpcrel_hi38>
    8020837a:	078a3483          	ld	s1,120(s4)
    8020837e:	557d                	li	a0,-1
    80208380:	00aa3023          	sd	a0,0(s4)
    80208384:	c0dd                	beqz	s1,8020842a <.Lpcrel_hi38+0x10>
    80208386:	4a85                	li	s5,1
    80208388:	0154b52f          	amoadd.d	a0,s5,(s1)
    8020838c:	0a054963          	bltz	a0,8020843e <.Lpcrel_hi39+0x10>
    80208390:	000a3503          	ld	a0,0(s4)
    80208394:	0505                	addi	a0,a0,1
    80208396:	00aa3023          	sd	a0,0(s4)
    8020839a:	fc943023          	sd	s1,-64(s0)
    8020839e:	01048513          	addi	a0,s1,16
    802083a2:	85ce                	mv	a1,s3
    802083a4:	864a                	mv	a2,s2
    802083a6:	00001097          	auipc	ra,0x1
    802083aa:	d52080e7          	jalr	-686(ra) # 802090f8 <_ZN2os4task4task16TaskControlBlock4exec17h2f0746ea50d7c61bE>
    802083ae:	557d                	li	a0,-1
    802083b0:	02a4b52f          	amoadd.d.rl	a0,a0,(s1)
    802083b4:	01551a63          	bne	a0,s5,802083c8 <.Lpcrel_hi36+0x6a>
    802083b8:	0230000f          	fence	r,rw
    802083bc:	fc040513          	addi	a0,s0,-64
    802083c0:	ffffe097          	auipc	ra,0xffffe
    802083c4:	6ec080e7          	jalr	1772(ra) # 80206aac <_ZN5alloc4sync16Arc$LT$T$C$A$GT$9drop_slow17ha4dcf4d52c6b29e9E>
    802083c8:	4481                	li	s1,0
    802083ca:	fa843683          	ld	a3,-88(s0)
    802083ce:	ce81                	beqz	a3,802083e6 <.Lpcrel_hi40+0x12>
    802083d0:	fb043583          	ld	a1,-80(s0)

00000000802083d4 <.Lpcrel_hi40>:
    802083d4:	0032f517          	auipc	a0,0x32f
    802083d8:	cd450513          	addi	a0,a0,-812 # 805370a8 <_ZN2os2mm14heap_allocator14HEAP_ALLOCATOR17hdb009eb0a1c201beE.llvm.13289308715828321855>
    802083dc:	4605                	li	a2,1
    802083de:	00002097          	auipc	ra,0x2
    802083e2:	b30080e7          	jalr	-1232(ra) # 80209f0e <_ZN87_$LT$buddy_system_allocator..LockedHeap$u20$as$u20$core..alloc..global..GlobalAlloc$GT$7dealloc17h5e5f6d74b20ea42eE>
    802083e6:	8526                	mv	a0,s1
    802083e8:	60e6                	ld	ra,88(sp)
    802083ea:	6446                	ld	s0,80(sp)
    802083ec:	64a6                	ld	s1,72(sp)
    802083ee:	6906                	ld	s2,64(sp)
    802083f0:	79e2                	ld	s3,56(sp)
    802083f2:	7a42                	ld	s4,48(sp)
    802083f4:	7aa2                	ld	s5,40(sp)
    802083f6:	6125                	addi	sp,sp,96
    802083f8:	8082                	ret
    802083fa:	54fd                	li	s1,-1
    802083fc:	fa843683          	ld	a3,-88(s0)
    80208400:	fae1                	bnez	a3,802083d0 <.Lpcrel_hi36+0x72>
    80208402:	b7d5                	j	802083e6 <.Lpcrel_hi40+0x12>

0000000080208404 <.Lpcrel_hi37>:
    80208404:	0032f517          	auipc	a0,0x32f
    80208408:	dfc50513          	addi	a0,a0,-516 # 80537200 <_ZN74_$LT$os..task..processor..PROCESSOR$u20$as$u20$core..ops..deref..Deref$GT$5deref11__stability4LAZY17hb7c09ecbcf5ec318E.llvm.4771765091264844042>
    8020840c:	ffffc097          	auipc	ra,0xffffc
    80208410:	192080e7          	jalr	402(ra) # 8020459e <_ZN4spin4once17Once$LT$T$C$R$GT$18try_call_once_slow17ha07339b329b608a7E.llvm.18273212518176036961>
    80208414:	000a3503          	ld	a0,0(s4)
    80208418:	d12d                	beqz	a0,8020837a <.Lpcrel_hi36+0x1c>

000000008020841a <.Lpcrel_hi38>:
    8020841a:	00007517          	auipc	a0,0x7
    8020841e:	ede50513          	addi	a0,a0,-290 # 8020f2f8 <anon.143638ba50f3ca5f2997057583b6f6e7.15.llvm.7411291366835535865>
    80208422:	00002097          	auipc	ra,0x2
    80208426:	e8e080e7          	jalr	-370(ra) # 8020a2b0 <_ZN4core4cell22panic_already_borrowed17h63023a1bd405c717E>
    8020842a:	000a3023          	sd	zero,0(s4)

000000008020842e <.Lpcrel_hi39>:
    8020842e:	00008517          	auipc	a0,0x8
    80208432:	b2250513          	addi	a0,a0,-1246 # 8020ff50 <anon.f74f78ffd666ce5c7fdd8ef97087ab59.27.llvm.17946426208055529105>
    80208436:	00002097          	auipc	ra,0x2
    8020843a:	1da080e7          	jalr	474(ra) # 8020a610 <_ZN4core6option13unwrap_failed17h3c70806c841faa93E>
	...

0000000080208440 <_ZN2os7syscall7process11sys_waitpid17h2d5cee31ec3b16c2E>:
    80208440:	7119                	addi	sp,sp,-128
    80208442:	fc86                	sd	ra,120(sp)
    80208444:	f8a2                	sd	s0,112(sp)
    80208446:	f4a6                	sd	s1,104(sp)
    80208448:	f0ca                	sd	s2,96(sp)
    8020844a:	ecce                	sd	s3,88(sp)
    8020844c:	e8d2                	sd	s4,80(sp)
    8020844e:	0100                	addi	s0,sp,128

0000000080208450 <.Lpcrel_hi41>:
    80208450:	0032f617          	auipc	a2,0x32f
    80208454:	db060493          	addi	s1,a2,-592 # 80537200 <_ZN74_$LT$os..task..processor..PROCESSOR$u20$as$u20$core..ops..deref..Deref$GT$5deref11__stability4LAZY17hb7c09ecbcf5ec318E.llvm.4771765091264844042>
    80208458:	08048603          	lb	a2,128(s1)
    8020845c:	4689                	li	a3,2
    8020845e:	0230000f          	fence	r,rw
    80208462:	1cd61b63          	bne	a2,a3,80208638 <.Lpcrel_hi42>
    80208466:	6090                	ld	a2,0(s1)
    80208468:	1e061863          	bnez	a2,80208658 <.Lpcrel_hi43>
    8020846c:	0784ba03          	ld	s4,120(s1)
    80208470:	567d                	li	a2,-1
    80208472:	e090                	sd	a2,0(s1)
    80208474:	200a0a63          	beqz	s4,80208688 <.Lpcrel_hi46+0x10>
    80208478:	4605                	li	a2,1
    8020847a:	00ca362f          	amoadd.d	a2,a2,(s4)
    8020847e:	20064f63          	bltz	a2,8020869c <.Lpcrel_hi44+0x10>
    80208482:	6090                	ld	a2,0(s1)
    80208484:	020a3683          	ld	a3,32(s4)
    80208488:	0605                	addi	a2,a2,1
    8020848a:	e090                	sd	a2,0(s1)
    8020848c:	f9443423          	sd	s4,-120(s0)
    80208490:	20069763          	bnez	a3,8020869e <.Lpcrel_hi45>
    80208494:	068a3603          	ld	a2,104(s4)
    80208498:	070a3703          	ld	a4,112(s4)
    8020849c:	56fd                	li	a3,-1
    8020849e:	02da3023          	sd	a3,32(s4)
    802084a2:	12d50363          	beq	a0,a3,802085c8 <.Lpcrel_hi41+0x178>
    802084a6:	00371693          	slli	a3,a4,0x3
    802084aa:	87b2                	mv	a5,a2
    802084ac:	16068d63          	beqz	a3,80208626 <.Lpcrel_hi41+0x1d6>
    802084b0:	6384                	ld	s1,0(a5)
    802084b2:	6884                	ld	s1,16(s1)
    802084b4:	07a1                	addi	a5,a5,8
    802084b6:	16e1                	addi	a3,a3,-8
    802084b8:	fea49ae3          	bne	s1,a0,802084ac <.Lpcrel_hi41+0x5c>
    802084bc:	5979                	li	s2,-2
    802084be:	12070763          	beqz	a4,802085ec <.Lpcrel_hi41+0x19c>
    802084c2:	4681                	li	a3,0
    802084c4:	070e                	slli	a4,a4,0x3
    802084c6:	4809                	li	a6,2
    802084c8:	a031                	j	802084d4 <.Lpcrel_hi41+0x84>
    802084ca:	0621                	addi	a2,a2,8
    802084cc:	1761                	addi	a4,a4,-8
    802084ce:	0685                	addi	a3,a3,1
    802084d0:	10070e63          	beqz	a4,802085ec <.Lpcrel_hi41+0x19c>
    802084d4:	6204                	ld	s1,0(a2)
    802084d6:	709c                	ld	a5,32(s1)
    802084d8:	18079863          	bnez	a5,80208668 <.Lpcrel_hi47>
    802084dc:	1044c783          	lbu	a5,260(s1)
    802084e0:	0204b023          	sd	zero,32(s1)
    802084e4:	ff0793e3          	bne	a5,a6,802084ca <.Lpcrel_hi41+0x7a>
    802084e8:	689c                	ld	a5,16(s1)
    802084ea:	fea790e3          	bne	a5,a0,802084ca <.Lpcrel_hi41+0x7a>
    802084ee:	070a3903          	ld	s2,112(s4)
    802084f2:	1d26f663          	bgeu	a3,s2,802086be <.Lpcrel_hi48>
    802084f6:	84ae                	mv	s1,a1
    802084f8:	068a3503          	ld	a0,104(s4)
    802084fc:	00369593          	slli	a1,a3,0x3
    80208500:	952e                	add	a0,a0,a1
    80208502:	00053983          	ld	s3,0(a0)
    80208506:	00850593          	addi	a1,a0,8
    8020850a:	fff6c613          	not	a2,a3
    8020850e:	964a                	add	a2,a2,s2
    80208510:	060e                	slli	a2,a2,0x3
    80208512:	00005097          	auipc	ra,0x5
    80208516:	bc4080e7          	jalr	-1084(ra) # 8020d0d6 <memmove>
    8020851a:	197d                	addi	s2,s2,-1
    8020851c:	072a3823          	sd	s2,112(s4)
    80208520:	f9343823          	sd	s3,-112(s0)
    80208524:	0009b503          	ld	a0,0(s3)
    80208528:	4585                	li	a1,1
    8020852a:	f8a43c23          	sd	a0,-104(s0)
    8020852e:	1ab51263          	bne	a0,a1,802086d2 <.Lpcrel_hi48+0x14>
    80208532:	0209b583          	ld	a1,32(s3)
    80208536:	1c059163          	bnez	a1,802086f8 <.Lpcrel_hi49>
    8020853a:	8526                	mv	a0,s1
    8020853c:	0209b023          	sd	zero,32(s3)
    80208540:	040a3583          	ld	a1,64(s4)
    80208544:	05d2                	slli	a1,a1,0x14
    80208546:	81a1                	srli	a1,a1,0x8
    80208548:	01b4d613          	srli	a2,s1,0x1b
    8020854c:	6685                	lui	a3,0x1
    8020854e:	36e1                	addiw	a3,a3,-8 # ff8 <$d.12+0xa7>
    80208550:	8e75                	and	a2,a2,a3
    80208552:	8dd1                	or	a1,a1,a2
    80208554:	6198                	ld	a4,0(a1)
    80208556:	0109b903          	ld	s2,16(s3)
    8020855a:	1009a583          	lw	a1,256(s3)
    8020855e:	00177613          	andi	a2,a4,1
    80208562:	14060663          	beqz	a2,802086ae <.Lpcrel_hi50>
    80208566:	fff00637          	lui	a2,0xfff00
    8020856a:	8221                	srli	a2,a2,0x8
    8020856c:	070a                	slli	a4,a4,0x2
    8020856e:	8f71                	and	a4,a4,a2
    80208570:	01255793          	srli	a5,a0,0x12
    80208574:	8efd                	and	a3,a3,a5
    80208576:	8ed9                	or	a3,a3,a4
    80208578:	6294                	ld	a3,0(a3)
    8020857a:	0016f713          	andi	a4,a3,1
    8020857e:	12070863          	beqz	a4,802086ae <.Lpcrel_hi50>
    80208582:	068a                	slli	a3,a3,0x2
    80208584:	8ef1                	and	a3,a3,a2
    80208586:	12068463          	beqz	a3,802086ae <.Lpcrel_hi50>
    8020858a:	02b51713          	slli	a4,a0,0x2b
    8020858e:	935d                	srli	a4,a4,0x37
    80208590:	070e                	slli	a4,a4,0x3
    80208592:	96ba                	add	a3,a3,a4
    80208594:	6294                	ld	a3,0(a3)
    80208596:	068a                	slli	a3,a3,0x2
    80208598:	8e75                	and	a2,a2,a3
    8020859a:	1552                	slli	a0,a0,0x34
    8020859c:	9151                	srli	a0,a0,0x34
    8020859e:	8d51                	or	a0,a0,a2
    802085a0:	16050463          	beqz	a0,80208708 <.Lpcrel_hi51>
    802085a4:	c10c                	sw	a1,0(a0)
    802085a6:	557d                	li	a0,-1
    802085a8:	02a9b52f          	amoadd.d.rl	a0,a0,(s3)
    802085ac:	4585                	li	a1,1
    802085ae:	00b51a63          	bne	a0,a1,802085c2 <.Lpcrel_hi41+0x172>
    802085b2:	0230000f          	fence	r,rw
    802085b6:	f9040513          	addi	a0,s0,-112
    802085ba:	ffffe097          	auipc	ra,0xffffe
    802085be:	4f2080e7          	jalr	1266(ra) # 80206aac <_ZN5alloc4sync16Arc$LT$T$C$A$GT$9drop_slow17ha4dcf4d52c6b29e9E>
    802085c2:	f8843503          	ld	a0,-120(s0)
    802085c6:	a025                	j	802085ee <.Lpcrel_hi41+0x19e>
    802085c8:	cf39                	beqz	a4,80208626 <.Lpcrel_hi41+0x1d6>
    802085ca:	4681                	li	a3,0
    802085cc:	070e                	slli	a4,a4,0x3
    802085ce:	4509                	li	a0,2
    802085d0:	621c                	ld	a5,0(a2)
    802085d2:	7384                	ld	s1,32(a5)
    802085d4:	e0d5                	bnez	s1,80208678 <.Lpcrel_hi46>
    802085d6:	1047c483          	lbu	s1,260(a5)
    802085da:	0207b023          	sd	zero,32(a5)
    802085de:	f0a488e3          	beq	s1,a0,802084ee <.Lpcrel_hi41+0x9e>
    802085e2:	0621                	addi	a2,a2,8 # fffffffffff00008 <ebss+0xffffffff7f9c8008>
    802085e4:	1761                	addi	a4,a4,-8
    802085e6:	0685                	addi	a3,a3,1
    802085e8:	f765                	bnez	a4,802085d0 <.Lpcrel_hi41+0x180>
    802085ea:	5979                	li	s2,-2
    802085ec:	8552                	mv	a0,s4
    802085ee:	020a3583          	ld	a1,32(s4)
    802085f2:	0585                	addi	a1,a1,1
    802085f4:	02ba3023          	sd	a1,32(s4)
    802085f8:	55fd                	li	a1,-1
    802085fa:	02b5352f          	amoadd.d.rl	a0,a1,(a0)
    802085fe:	4585                	li	a1,1
    80208600:	00b51a63          	bne	a0,a1,80208614 <.Lpcrel_hi41+0x1c4>
    80208604:	0230000f          	fence	r,rw
    80208608:	f8840513          	addi	a0,s0,-120
    8020860c:	ffffe097          	auipc	ra,0xffffe
    80208610:	4a0080e7          	jalr	1184(ra) # 80206aac <_ZN5alloc4sync16Arc$LT$T$C$A$GT$9drop_slow17ha4dcf4d52c6b29e9E>
    80208614:	854a                	mv	a0,s2
    80208616:	70e6                	ld	ra,120(sp)
    80208618:	7446                	ld	s0,112(sp)
    8020861a:	74a6                	ld	s1,104(sp)
    8020861c:	7906                	ld	s2,96(sp)
    8020861e:	69e6                	ld	s3,88(sp)
    80208620:	6a46                	ld	s4,80(sp)
    80208622:	6109                	addi	sp,sp,128
    80208624:	8082                	ret
    80208626:	020a3023          	sd	zero,32(s4)
    8020862a:	597d                	li	s2,-1
    8020862c:	032a352f          	amoadd.d.rl	a0,s2,(s4)
    80208630:	4585                	li	a1,1
    80208632:	feb511e3          	bne	a0,a1,80208614 <.Lpcrel_hi41+0x1c4>
    80208636:	b7f9                	j	80208604 <.Lpcrel_hi41+0x1b4>

0000000080208638 <.Lpcrel_hi42>:
    80208638:	0032f617          	auipc	a2,0x32f
    8020863c:	bc860613          	addi	a2,a2,-1080 # 80537200 <_ZN74_$LT$os..task..processor..PROCESSOR$u20$as$u20$core..ops..deref..Deref$GT$5deref11__stability4LAZY17hb7c09ecbcf5ec318E.llvm.4771765091264844042>
    80208640:	892a                	mv	s2,a0
    80208642:	8532                	mv	a0,a2
    80208644:	89ae                	mv	s3,a1
    80208646:	ffffc097          	auipc	ra,0xffffc
    8020864a:	f58080e7          	jalr	-168(ra) # 8020459e <_ZN4spin4once17Once$LT$T$C$R$GT$18try_call_once_slow17ha07339b329b608a7E.llvm.18273212518176036961>
    8020864e:	854a                	mv	a0,s2
    80208650:	85ce                	mv	a1,s3
    80208652:	6090                	ld	a2,0(s1)
    80208654:	e0060ce3          	beqz	a2,8020846c <.Lpcrel_hi41+0x1c>

0000000080208658 <.Lpcrel_hi43>:
    80208658:	00007517          	auipc	a0,0x7
    8020865c:	ca050513          	addi	a0,a0,-864 # 8020f2f8 <anon.143638ba50f3ca5f2997057583b6f6e7.15.llvm.7411291366835535865>
    80208660:	00002097          	auipc	ra,0x2
    80208664:	c50080e7          	jalr	-944(ra) # 8020a2b0 <_ZN4core4cell22panic_already_borrowed17h63023a1bd405c717E>

0000000080208668 <.Lpcrel_hi47>:
    80208668:	00007517          	auipc	a0,0x7
    8020866c:	c9050513          	addi	a0,a0,-880 # 8020f2f8 <anon.143638ba50f3ca5f2997057583b6f6e7.15.llvm.7411291366835535865>
    80208670:	00002097          	auipc	ra,0x2
    80208674:	c40080e7          	jalr	-960(ra) # 8020a2b0 <_ZN4core4cell22panic_already_borrowed17h63023a1bd405c717E>

0000000080208678 <.Lpcrel_hi46>:
    80208678:	00007517          	auipc	a0,0x7
    8020867c:	c8050513          	addi	a0,a0,-896 # 8020f2f8 <anon.143638ba50f3ca5f2997057583b6f6e7.15.llvm.7411291366835535865>
    80208680:	00002097          	auipc	ra,0x2
    80208684:	c30080e7          	jalr	-976(ra) # 8020a2b0 <_ZN4core4cell22panic_already_borrowed17h63023a1bd405c717E>
    80208688:	0004b023          	sd	zero,0(s1)

000000008020868c <.Lpcrel_hi44>:
    8020868c:	00008517          	auipc	a0,0x8
    80208690:	8dc50513          	addi	a0,a0,-1828 # 8020ff68 <.Lanon.f74f78ffd666ce5c7fdd8ef97087ab59.28>
    80208694:	00002097          	auipc	ra,0x2
    80208698:	f7c080e7          	jalr	-132(ra) # 8020a610 <_ZN4core6option13unwrap_failed17h3c70806c841faa93E>
	...

000000008020869e <.Lpcrel_hi45>:
    8020869e:	00007517          	auipc	a0,0x7
    802086a2:	c5a50513          	addi	a0,a0,-934 # 8020f2f8 <anon.143638ba50f3ca5f2997057583b6f6e7.15.llvm.7411291366835535865>
    802086a6:	00002097          	auipc	ra,0x2
    802086aa:	c0a080e7          	jalr	-1014(ra) # 8020a2b0 <_ZN4core4cell22panic_already_borrowed17h63023a1bd405c717E>

00000000802086ae <.Lpcrel_hi50>:
    802086ae:	00006517          	auipc	a0,0x6
    802086b2:	1da50513          	addi	a0,a0,474 # 8020e888 <anon.6a46c64e42596067554903e2843242d1.29.llvm.9449326286350064217>
    802086b6:	00002097          	auipc	ra,0x2
    802086ba:	f5a080e7          	jalr	-166(ra) # 8020a610 <_ZN4core6option13unwrap_failed17h3c70806c841faa93E>

00000000802086be <.Lpcrel_hi48>:
    802086be:	00008517          	auipc	a0,0x8
    802086c2:	8c250613          	addi	a2,a0,-1854 # 8020ff80 <.Lanon.f74f78ffd666ce5c7fdd8ef97087ab59.29>
    802086c6:	8536                	mv	a0,a3
    802086c8:	85ca                	mv	a1,s2
    802086ca:	00002097          	auipc	ra,0x2
    802086ce:	a38080e7          	jalr	-1480(ra) # 8020a102 <_ZN5alloc3vec16Vec$LT$T$C$A$GT$6remove13assert_failed17hdfc6f3f084a66feaE>
    802086d2:	fa043023          	sd	zero,-96(s0)

00000000802086d6 <.Lpcrel_hi52>:
    802086d6:	00006517          	auipc	a0,0x6
    802086da:	54250613          	addi	a2,a0,1346 # 8020ec18 <anon.f74f78ffd666ce5c7fdd8ef97087ab59.13.llvm.17946426208055529105>

00000000802086de <.Lpcrel_hi53>:
    802086de:	00008517          	auipc	a0,0x8
    802086e2:	8ba50713          	addi	a4,a0,-1862 # 8020ff98 <.Lanon.f74f78ffd666ce5c7fdd8ef97087ab59.30>
    802086e6:	f9840593          	addi	a1,s0,-104
    802086ea:	fa040693          	addi	a3,s0,-96
    802086ee:	4501                	li	a0,0
    802086f0:	fffff097          	auipc	ra,0xfffff
    802086f4:	002080e7          	jalr	2(ra) # 802076f2 <_ZN4core9panicking13assert_failed17h15aff8796b99ea85E>

00000000802086f8 <.Lpcrel_hi49>:
    802086f8:	00007517          	auipc	a0,0x7
    802086fc:	c0050513          	addi	a0,a0,-1024 # 8020f2f8 <anon.143638ba50f3ca5f2997057583b6f6e7.15.llvm.7411291366835535865>
    80208700:	00002097          	auipc	ra,0x2
    80208704:	bb0080e7          	jalr	-1104(ra) # 8020a2b0 <_ZN4core4cell22panic_already_borrowed17h63023a1bd405c717E>

0000000080208708 <.Lpcrel_hi51>:
    80208708:	00007517          	auipc	a0,0x7
    8020870c:	b7050513          	addi	a0,a0,-1168 # 8020f278 <anon.143638ba50f3ca5f2997057583b6f6e7.8.llvm.7411291366835535865>
    80208710:	00002097          	auipc	ra,0x2
    80208714:	f00080e7          	jalr	-256(ra) # 8020a610 <_ZN4core6option13unwrap_failed17h3c70806c841faa93E>

0000000080208718 <_ZN5alloc11collections5btree3map25BTreeMap$LT$K$C$V$C$A$GT$6insert17h24f17ef1ccdbc855E>:
    80208718:	7119                	addi	sp,sp,-128
    8020871a:	fc86                	sd	ra,120(sp)
    8020871c:	f8a2                	sd	s0,112(sp)
    8020871e:	f4a6                	sd	s1,104(sp)
    80208720:	f0ca                	sd	s2,96(sp)
    80208722:	ecce                	sd	s3,88(sp)
    80208724:	0100                	addi	s0,sp,128
    80208726:	00053283          	ld	t0,0(a0)
    8020872a:	8932                	mv	s2,a2
    8020872c:	84ae                	mv	s1,a1
    8020872e:	04028e63          	beqz	t0,8020878a <_ZN5alloc11collections5btree3map25BTreeMap$LT$K$C$V$C$A$GT$6insert17h24f17ef1ccdbc855E+0x72>
    80208732:	00853803          	ld	a6,8(a0)
    80208736:	4305                	li	t1,1
    80208738:	0ba2d883          	lhu	a7,186(t0)
    8020873c:	05828793          	addi	a5,t0,88
    80208740:	00389593          	slli	a1,a7,0x3
    80208744:	577d                	li	a4,-1
    80208746:	c585                	beqz	a1,8020876e <_ZN5alloc11collections5btree3map25BTreeMap$LT$K$C$V$C$A$GT$6insert17h24f17ef1ccdbc855E+0x56>
    80208748:	fb07b683          	ld	a3,-80(a5)
    8020874c:	00d4b633          	sltu	a2,s1,a3
    80208750:	8ea5                	xor	a3,a3,s1
    80208752:	00d036b3          	snez	a3,a3
    80208756:	40c00633          	neg	a2,a2
    8020875a:	8ed1                	or	a3,a3,a2
    8020875c:	07a1                	addi	a5,a5,8
    8020875e:	15e1                	addi	a1,a1,-8
    80208760:	0705                	addi	a4,a4,1
    80208762:	fe6682e3          	beq	a3,t1,80208746 <_ZN5alloc11collections5btree3map25BTreeMap$LT$K$C$V$C$A$GT$6insert17h24f17ef1ccdbc855E+0x2e>
    80208766:	0ff6f593          	zext.b	a1,a3
    8020876a:	e199                	bnez	a1,80208770 <_ZN5alloc11collections5btree3map25BTreeMap$LT$K$C$V$C$A$GT$6insert17h24f17ef1ccdbc855E+0x58>
    8020876c:	a811                	j	80208780 <_ZN5alloc11collections5btree3map25BTreeMap$LT$K$C$V$C$A$GT$6insert17h24f17ef1ccdbc855E+0x68>
    8020876e:	8746                	mv	a4,a7
    80208770:	06080663          	beqz	a6,802087dc <.Lpcrel_hi1+0x44>
    80208774:	070e                	slli	a4,a4,0x3
    80208776:	9716                	add	a4,a4,t0
    80208778:	0c073283          	ld	t0,192(a4)
    8020877c:	187d                	addi	a6,a6,-1 # 10ffff <$d.6+0x491a4>
    8020877e:	bf6d                	j	80208738 <_ZN5alloc11collections5btree3map25BTreeMap$LT$K$C$V$C$A$GT$6insert17h24f17ef1ccdbc855E+0x20>
    80208780:	638c                	ld	a1,0(a5)
    80208782:	0127b023          	sd	s2,0(a5)
    80208786:	4505                	li	a0,1
    80208788:	a099                	j	802087ce <.Lpcrel_hi1+0x36>
    8020878a:	89aa                	mv	s3,a0

000000008020878c <.Lpcrel_hi0>:
    8020878c:	0032f517          	auipc	a0,0x32f
    80208790:	afd50513          	addi	a0,a0,-1283 # 80537289 <__rust_no_alloc_shim_is_unstable>
    80208794:	00054003          	lbu	zero,0(a0)

0000000080208798 <.Lpcrel_hi1>:
    80208798:	0032f517          	auipc	a0,0x32f
    8020879c:	91050513          	addi	a0,a0,-1776 # 805370a8 <_ZN2os2mm14heap_allocator14HEAP_ALLOCATOR17hdb009eb0a1c201beE.llvm.13289308715828321855>
    802087a0:	45a1                	li	a1,8
    802087a2:	0c000613          	li	a2,192
    802087a6:	00001097          	auipc	ra,0x1
    802087aa:	71a080e7          	jalr	1818(ra) # 80209ec0 <_ZN87_$LT$buddy_system_allocator..LockedHeap$u20$as$u20$core..alloc..global..GlobalAlloc$GT$5alloc17h3b694276a2754c9bE>
    802087ae:	c92d                	beqz	a0,80208820 <.Lpcrel_hi1+0x88>
    802087b0:	00053023          	sd	zero,0(a0)
    802087b4:	4585                	li	a1,1
    802087b6:	0ab51d23          	sh	a1,186(a0)
    802087ba:	e504                	sd	s1,8(a0)
    802087bc:	07253023          	sd	s2,96(a0)
    802087c0:	00a9b023          	sd	a0,0(s3)
    802087c4:	0009b423          	sd	zero,8(s3)
    802087c8:	00b9b823          	sd	a1,16(s3)
    802087cc:	4501                	li	a0,0
    802087ce:	70e6                	ld	ra,120(sp)
    802087d0:	7446                	ld	s0,112(sp)
    802087d2:	74a6                	ld	s1,104(sp)
    802087d4:	7906                	ld	s2,96(sp)
    802087d6:	69e6                	ld	s3,88(sp)
    802087d8:	6109                	addi	sp,sp,128
    802087da:	8082                	ret
    802087dc:	f8a43023          	sd	a0,-128(s0)
    802087e0:	f8943423          	sd	s1,-120(s0)
    802087e4:	f8543823          	sd	t0,-112(s0)
    802087e8:	f8043c23          	sd	zero,-104(s0)
    802087ec:	fae43023          	sd	a4,-96(s0)
    802087f0:	fae43c23          	sd	a4,-72(s0)
    802087f4:	fa043823          	sd	zero,-80(s0)
    802087f8:	fa543423          	sd	t0,-88(s0)
    802087fc:	fc040513          	addi	a0,s0,-64
    80208800:	fa840593          	addi	a1,s0,-88
    80208804:	f8040713          	addi	a4,s0,-128
    80208808:	8626                	mv	a2,s1
    8020880a:	86ca                	mv	a3,s2
    8020880c:	ffff9097          	auipc	ra,0xffff9
    80208810:	7f4080e7          	jalr	2036(ra) # 80202000 <_ZN5alloc11collections5btree4node210Handle$LT$alloc..collections..btree..node..NodeRef$LT$alloc..collections..btree..node..marker..Mut$C$K$C$V$C$alloc..collections..btree..node..marker..Leaf$GT$$C$alloc..collections..btree..node..marker..Edge$GT$16insert_recursing17h27c3e761bc85f0baE>
    80208814:	f8043503          	ld	a0,-128(s0)
    80208818:	690c                	ld	a1,16(a0)
    8020881a:	0585                	addi	a1,a1,1
    8020881c:	e90c                	sd	a1,16(a0)
    8020881e:	b77d                	j	802087cc <.Lpcrel_hi1+0x34>
    80208820:	4521                	li	a0,8
    80208822:	0c000593          	li	a1,192
    80208826:	00002097          	auipc	ra,0x2
    8020882a:	8c6080e7          	jalr	-1850(ra) # 8020a0ec <_ZN5alloc5alloc18handle_alloc_error17h712b744ef0f4e031E>

000000008020882e <_ZN99_$LT$alloc..collections..btree..map..BTreeMap$LT$K$C$V$C$A$GT$$u20$as$u20$core..ops..drop..Drop$GT$4drop17h1b8eadadec77b2e0E>:
    8020882e:	7175                	addi	sp,sp,-144
    80208830:	e506                	sd	ra,136(sp)
    80208832:	e122                	sd	s0,128(sp)
    80208834:	fca6                	sd	s1,120(sp)
    80208836:	f8ca                	sd	s2,112(sp)
    80208838:	f4ce                	sd	s3,104(sp)
    8020883a:	0900                	addi	s0,sp,144
    8020883c:	610c                	ld	a1,0(a0)
    8020883e:	c9cd                	beqz	a1,802088f0 <_ZN99_$LT$alloc..collections..btree..map..BTreeMap$LT$K$C$V$C$A$GT$$u20$as$u20$core..ops..drop..Drop$GT$4drop17h1b8eadadec77b2e0E+0xc2>
    80208840:	6510                	ld	a2,8(a0)
    80208842:	6908                	ld	a0,16(a0)
    80208844:	f8043023          	sd	zero,-128(s0)
    80208848:	f8b43423          	sd	a1,-120(s0)
    8020884c:	f8c43823          	sd	a2,-112(s0)
    80208850:	fa043023          	sd	zero,-96(s0)
    80208854:	fab43423          	sd	a1,-88(s0)
    80208858:	fac43823          	sd	a2,-80(s0)
    8020885c:	4905                	li	s2,1
    8020885e:	f7243c23          	sd	s2,-136(s0)
    80208862:	f9243c23          	sd	s2,-104(s0)
    80208866:	faa43c23          	sd	a0,-72(s0)
    8020886a:	c951                	beqz	a0,802088fe <_ZN99_$LT$alloc..collections..btree..map..BTreeMap$LT$K$C$V$C$A$GT$$u20$as$u20$core..ops..drop..Drop$GT$4drop17h1b8eadadec77b2e0E+0xd0>
    8020886c:	f8040493          	addi	s1,s0,-128
    80208870:	f8840993          	addi	s3,s0,-120
    80208874:	f7843583          	ld	a1,-136(s0)
    80208878:	157d                	addi	a0,a0,-1
    8020887a:	faa43c23          	sd	a0,-72(s0)
    8020887e:	c5f5                	beqz	a1,8020896a <.Lpcrel_hi4>
    80208880:	f8043503          	ld	a0,-128(s0)
    80208884:	e10d                	bnez	a0,802088a6 <_ZN99_$LT$alloc..collections..btree..map..BTreeMap$LT$K$C$V$C$A$GT$$u20$as$u20$core..ops..drop..Drop$GT$4drop17h1b8eadadec77b2e0E+0x78>
    80208886:	f9043583          	ld	a1,-112(s0)
    8020888a:	f8843503          	ld	a0,-120(s0)
    8020888e:	c581                	beqz	a1,80208896 <_ZN99_$LT$alloc..collections..btree..map..BTreeMap$LT$K$C$V$C$A$GT$$u20$as$u20$core..ops..drop..Drop$GT$4drop17h1b8eadadec77b2e0E+0x68>
    80208890:	6168                	ld	a0,192(a0)
    80208892:	15fd                	addi	a1,a1,-1
    80208894:	fdf5                	bnez	a1,80208890 <_ZN99_$LT$alloc..collections..btree..map..BTreeMap$LT$K$C$V$C$A$GT$$u20$as$u20$core..ops..drop..Drop$GT$4drop17h1b8eadadec77b2e0E+0x62>
    80208896:	f7243c23          	sd	s2,-136(s0)
    8020889a:	f8a43023          	sd	a0,-128(s0)
    8020889e:	0009b023          	sd	zero,0(s3)
    802088a2:	0009b423          	sd	zero,8(s3)
    802088a6:	fc040513          	addi	a0,s0,-64
    802088aa:	85a6                	mv	a1,s1
    802088ac:	ffffb097          	auipc	ra,0xffffb
    802088b0:	b92080e7          	jalr	-1134(ra) # 8020343e <_ZN5alloc11collections5btree8navigate263_$LT$impl$u20$alloc..collections..btree..node..Handle$LT$alloc..collections..btree..node..NodeRef$LT$alloc..collections..btree..node..marker..Dying$C$K$C$V$C$alloc..collections..btree..node..marker..Leaf$GT$$C$alloc..collections..btree..node..marker..Edge$GT$$GT$27deallocating_next_unchecked17h94c0f1e064aede9dE>
    802088b4:	fc043503          	ld	a0,-64(s0)
    802088b8:	cd05                	beqz	a0,802088f0 <_ZN99_$LT$alloc..collections..btree..map..BTreeMap$LT$K$C$V$C$A$GT$$u20$as$u20$core..ops..drop..Drop$GT$4drop17h1b8eadadec77b2e0E+0xc2>
    802088ba:	fd043583          	ld	a1,-48(s0)
    802088be:	058e                	slli	a1,a1,0x3
    802088c0:	952e                	add	a0,a0,a1
    802088c2:	06050513          	addi	a0,a0,96
    802088c6:	ffffb097          	auipc	ra,0xffffb
    802088ca:	d00080e7          	jalr	-768(ra) # 802035c6 <_ZN79_$LT$os..mm..frame_allocator..FrameTracker$u20$as$u20$core..ops..drop..Drop$GT$4drop17h22547e58a5031c24E>
    802088ce:	fb843503          	ld	a0,-72(s0)
    802088d2:	f14d                	bnez	a0,80208874 <_ZN99_$LT$alloc..collections..btree..map..BTreeMap$LT$K$C$V$C$A$GT$$u20$as$u20$core..ops..drop..Drop$GT$4drop17h1b8eadadec77b2e0E+0x46>
    802088d4:	f7843503          	ld	a0,-136(s0)
    802088d8:	f8043583          	ld	a1,-128(s0)
    802088dc:	f8843483          	ld	s1,-120(s0)
    802088e0:	f9043603          	ld	a2,-112(s0)
    802088e4:	f6043c23          	sd	zero,-136(s0)
    802088e8:	c501                	beqz	a0,802088f0 <_ZN99_$LT$alloc..collections..btree..map..BTreeMap$LT$K$C$V$C$A$GT$$u20$as$u20$core..ops..drop..Drop$GT$4drop17h1b8eadadec77b2e0E+0xc2>
    802088ea:	e18d                	bnez	a1,8020890c <_ZN99_$LT$alloc..collections..btree..map..BTreeMap$LT$K$C$V$C$A$GT$$u20$as$u20$core..ops..drop..Drop$GT$4drop17h1b8eadadec77b2e0E+0xde>
    802088ec:	85a6                	mv	a1,s1
    802088ee:	a811                	j	80208902 <_ZN99_$LT$alloc..collections..btree..map..BTreeMap$LT$K$C$V$C$A$GT$$u20$as$u20$core..ops..drop..Drop$GT$4drop17h1b8eadadec77b2e0E+0xd4>
    802088f0:	60aa                	ld	ra,136(sp)
    802088f2:	640a                	ld	s0,128(sp)
    802088f4:	74e6                	ld	s1,120(sp)
    802088f6:	7946                	ld	s2,112(sp)
    802088f8:	79a6                	ld	s3,104(sp)
    802088fa:	6149                	addi	sp,sp,144
    802088fc:	8082                	ret
    802088fe:	f6043c23          	sd	zero,-136(s0)
    80208902:	c601                	beqz	a2,8020890a <_ZN99_$LT$alloc..collections..btree..map..BTreeMap$LT$K$C$V$C$A$GT$$u20$as$u20$core..ops..drop..Drop$GT$4drop17h1b8eadadec77b2e0E+0xdc>
    80208904:	61ec                	ld	a1,192(a1)
    80208906:	167d                	addi	a2,a2,-1
    80208908:	fe75                	bnez	a2,80208904 <_ZN99_$LT$alloc..collections..btree..map..BTreeMap$LT$K$C$V$C$A$GT$$u20$as$u20$core..ops..drop..Drop$GT$4drop17h1b8eadadec77b2e0E+0xd6>
    8020890a:	4481                	li	s1,0
    8020890c:	6188                	ld	a0,0(a1)
    8020890e:	c905                	beqz	a0,8020893e <.Lpcrel_hi2+0x2e>

0000000080208910 <.Lpcrel_hi2>:
    80208910:	0032e617          	auipc	a2,0x32e
    80208914:	79860913          	addi	s2,a2,1944 # 805370a8 <_ZN2os2mm14heap_allocator14HEAP_ALLOCATOR17hdb009eb0a1c201beE.llvm.13289308715828321855>
    80208918:	a821                	j	80208930 <.Lpcrel_hi2+0x20>
    8020891a:	0485                	addi	s1,s1,1
    8020891c:	4621                	li	a2,8
    8020891e:	854a                	mv	a0,s2
    80208920:	00001097          	auipc	ra,0x1
    80208924:	5ee080e7          	jalr	1518(ra) # 80209f0e <_ZN87_$LT$buddy_system_allocator..LockedHeap$u20$as$u20$core..alloc..global..GlobalAlloc$GT$7dealloc17h5e5f6d74b20ea42eE>
    80208928:	0009b503          	ld	a0,0(s3)
    8020892c:	85ce                	mv	a1,s3
    8020892e:	c909                	beqz	a0,80208940 <.Lpcrel_hi2+0x30>
    80208930:	89aa                	mv	s3,a0
    80208932:	0c000693          	li	a3,192
    80208936:	d0f5                	beqz	s1,8020891a <.Lpcrel_hi2+0xa>
    80208938:	12000693          	li	a3,288
    8020893c:	bff9                	j	8020891a <.Lpcrel_hi2+0xa>
    8020893e:	89ae                	mv	s3,a1
    80208940:	0c000693          	li	a3,192
    80208944:	c099                	beqz	s1,8020894a <.Lpcrel_hi3>
    80208946:	12000693          	li	a3,288

000000008020894a <.Lpcrel_hi3>:
    8020894a:	0032e517          	auipc	a0,0x32e
    8020894e:	75e50513          	addi	a0,a0,1886 # 805370a8 <_ZN2os2mm14heap_allocator14HEAP_ALLOCATOR17hdb009eb0a1c201beE.llvm.13289308715828321855>
    80208952:	4621                	li	a2,8
    80208954:	85ce                	mv	a1,s3
    80208956:	60aa                	ld	ra,136(sp)
    80208958:	640a                	ld	s0,128(sp)
    8020895a:	74e6                	ld	s1,120(sp)
    8020895c:	7946                	ld	s2,112(sp)
    8020895e:	79a6                	ld	s3,104(sp)
    80208960:	6149                	addi	sp,sp,144
    80208962:	00001317          	auipc	t1,0x1
    80208966:	5ac30067          	jr	1452(t1) # 80209f0e <_ZN87_$LT$buddy_system_allocator..LockedHeap$u20$as$u20$core..alloc..global..GlobalAlloc$GT$7dealloc17h5e5f6d74b20ea42eE>

000000008020896a <.Lpcrel_hi4>:
    8020896a:	00007517          	auipc	a0,0x7
    8020896e:	6a650513          	addi	a0,a0,1702 # 80210010 <anon.915d3413da9ce189105a1b955b4cc825.1.llvm.4771765091264844042>
    80208972:	00002097          	auipc	ra,0x2
    80208976:	c9e080e7          	jalr	-866(ra) # 8020a610 <_ZN4core6option13unwrap_failed17h3c70806c841faa93E>

000000008020897a <_ZN2os3sbi8shutdown17hd2d2866f4c34dd21E>:
    8020897a:	c919                	beqz	a0,80208990 <_ZN2os3sbi8shutdown17hd2d2866f4c34dd21E+0x16>
    8020897c:	53525537          	lui	a0,0x53525
    80208980:	3545089b          	addiw	a7,a0,852 # 53525354 <$d.6+0x5345e4f9>
    80208984:	4585                	li	a1,1
    80208986:	4801                	li	a6,0
    80208988:	4501                	li	a0,0
    8020898a:	00000073          	ecall
    8020898e:	a811                	j	802089a2 <_ZN2os3sbi8shutdown17hd2d2866f4c34dd21E+0x28>
    80208990:	53525537          	lui	a0,0x53525
    80208994:	3545089b          	addiw	a7,a0,852 # 53525354 <$d.6+0x5345e4f9>
    80208998:	4801                	li	a6,0
    8020899a:	4501                	li	a0,0
    8020899c:	4581                	li	a1,0
    8020899e:	00000073          	ecall
    802089a2:	1141                	addi	sp,sp,-16
    802089a4:	e406                	sd	ra,8(sp)
    802089a6:	e022                	sd	s0,0(sp)
    802089a8:	0800                	addi	s0,sp,16

00000000802089aa <.Lpcrel_hi5>:
    802089aa:	00007517          	auipc	a0,0x7
    802089ae:	67e50513          	addi	a0,a0,1662 # 80210028 <anon.915d3413da9ce189105a1b955b4cc825.2.llvm.4771765091264844042>

00000000802089b2 <.Lpcrel_hi6>:
    802089b2:	00007597          	auipc	a1,0x7
    802089b6:	6ae58613          	addi	a2,a1,1710 # 80210060 <anon.915d3413da9ce189105a1b955b4cc825.4.llvm.4771765091264844042>
    802089ba:	02800593          	li	a1,40
    802089be:	00002097          	auipc	ra,0x2
    802089c2:	cc0080e7          	jalr	-832(ra) # 8020a67e <_ZN4core9panicking5panic17h14cc1607a430f055E>

00000000802089c6 <_ZN2os4task9processor9run_tasks17h32febda943e264a0E>:
    802089c6:	7159                	addi	sp,sp,-112
    802089c8:	f486                	sd	ra,104(sp)
    802089ca:	f0a2                	sd	s0,96(sp)
    802089cc:	eca6                	sd	s1,88(sp)
    802089ce:	e8ca                	sd	s2,80(sp)
    802089d0:	e4ce                	sd	s3,72(sp)
    802089d2:	e0d2                	sd	s4,64(sp)
    802089d4:	fc56                	sd	s5,56(sp)
    802089d6:	f85a                	sd	s6,48(sp)
    802089d8:	f45e                	sd	s7,40(sp)
    802089da:	f062                	sd	s8,32(sp)
    802089dc:	ec66                	sd	s9,24(sp)
    802089de:	e86a                	sd	s10,16(sp)
    802089e0:	e46e                	sd	s11,8(sp)
    802089e2:	1880                	addi	s0,sp,112

00000000802089e4 <.Lpcrel_hi7>:
    802089e4:	0032f517          	auipc	a0,0x32f
    802089e8:	81c50b13          	addi	s6,a0,-2020 # 80537200 <_ZN74_$LT$os..task..processor..PROCESSOR$u20$as$u20$core..ops..deref..Deref$GT$5deref11__stability4LAZY17hb7c09ecbcf5ec318E.llvm.4771765091264844042>
    802089ec:	4a09                	li	s4,2
    802089ee:	5afd                	li	s5,-1

00000000802089f0 <.Lpcrel_hi8>:
    802089f0:	0012e517          	auipc	a0,0x12e
    802089f4:	65850493          	addi	s1,a0,1624 # 80337048 <_ZN75_$LT$os..task..manager..TASK_MANAGER$u20$as$u20$core..ops..deref..Deref$GT$5deref11__stability4LAZY17h0f96fcc08b9753d5E.llvm.7411291366835535865>
    802089f8:	4b85                	li	s7,1
    802089fa:	008b0913          	addi	s2,s6,8
    802089fe:	078b0993          	addi	s3,s6,120
    80208a02:	02848513          	addi	a0,s1,40
    80208a06:	ffc57c13          	andi	s8,a0,-4
    80208a0a:	0ff00c93          	li	s9,255
    80208a0e:	080b0513          	addi	a0,s6,128
    80208a12:	ffc57d93          	andi	s11,a0,-4
    80208a16:	080b0503          	lb	a0,128(s6)
    80208a1a:	0230000f          	fence	r,rw
    80208a1e:	09450b63          	beq	a0,s4,80208ab4 <.Lpcrel_hi8+0xc4>
    80208a22:	a02d                	j	80208a4c <.Lpcrel_hi8+0x5c>
    80208a24:	000b3503          	ld	a0,0(s6)
    80208a28:	07ab3c23          	sd	s10,120(s6)
    80208a2c:	088d0593          	addi	a1,s10,136
    80208a30:	0505                	addi	a0,a0,1
    80208a32:	00ab3023          	sd	a0,0(s6)
    80208a36:	854a                	mv	a0,s2
    80208a38:	fffff097          	auipc	ra,0xfffff
    80208a3c:	a02080e7          	jalr	-1534(ra) # 8020743a <__switch>
    80208a40:	080b0503          	lb	a0,128(s6)
    80208a44:	0230000f          	fence	r,rw
    80208a48:	07450663          	beq	a0,s4,80208ab4 <.Lpcrel_hi8+0xc4>
    80208a4c:	140da52f          	lr.w.aq	a0,(s11)
    80208a50:	019575b3          	and	a1,a0,s9
    80208a54:	e989                	bnez	a1,80208a66 <.Lpcrel_hi8+0x76>
    80208a56:	017545b3          	xor	a1,a0,s7
    80208a5a:	0195f5b3          	and	a1,a1,s9
    80208a5e:	8da9                	xor	a1,a1,a0
    80208a60:	18bda5af          	sc.w	a1,a1,(s11)
    80208a64:	f5e5                	bnez	a1,80208a4c <.Lpcrel_hi8+0x5c>
    80208a66:	0ff57593          	zext.b	a1,a0
    80208a6a:	c595                	beqz	a1,80208a96 <.Lpcrel_hi8+0xa6>
    80208a6c:	0ff57513          	zext.b	a0,a0
    80208a70:	fca05ee3          	blez	a0,80208a4c <.Lpcrel_hi8+0x5c>
    80208a74:	01750563          	beq	a0,s7,80208a7e <.Lpcrel_hi8+0x8e>
    80208a78:	a825                	j	80208ab0 <.Lpcrel_hi8+0xc0>
    80208a7a:	0100000f          	fence	w,unknown
    80208a7e:	080b0503          	lb	a0,128(s6)
    80208a82:	0230000f          	fence	r,rw
    80208a86:	ff750ae3          	beq	a0,s7,80208a7a <.Lpcrel_hi8+0x8a>
    80208a8a:	0ff57513          	zext.b	a0,a0
    80208a8e:	dd5d                	beqz	a0,80208a4c <.Lpcrel_hi8+0x5c>
    80208a90:	03450263          	beq	a0,s4,80208ab4 <.Lpcrel_hi8+0xc4>
    80208a94:	a289                	j	80208bd6 <.Lpcrel_hi9>
    80208a96:	08000613          	li	a2,128
    80208a9a:	855a                	mv	a0,s6
    80208a9c:	4581                	li	a1,0
    80208a9e:	00004097          	auipc	ra,0x4
    80208aa2:	64e080e7          	jalr	1614(ra) # 8020d0ec <memset>
    80208aa6:	0310000f          	fence	rw,w
    80208aaa:	094b0023          	sb	s4,128(s6)
    80208aae:	a019                	j	80208ab4 <.Lpcrel_hi8+0xc4>
    80208ab0:	19451763          	bne	a0,s4,80208c3e <.Lpcrel_hi11>
    80208ab4:	000b3503          	ld	a0,0(s6)
    80208ab8:	14051b63          	bnez	a0,80208c0e <.Lpcrel_hi13>
    80208abc:	015b3023          	sd	s5,0(s6)
    80208ac0:	02848503          	lb	a0,40(s1)
    80208ac4:	0230000f          	fence	r,rw
    80208ac8:	07450a63          	beq	a0,s4,80208b3c <.Lpcrel_hi8+0x14c>
    80208acc:	140c252f          	lr.w.aq	a0,(s8)
    80208ad0:	019575b3          	and	a1,a0,s9
    80208ad4:	e989                	bnez	a1,80208ae6 <.Lpcrel_hi8+0xf6>
    80208ad6:	017545b3          	xor	a1,a0,s7
    80208ada:	0195f5b3          	and	a1,a1,s9
    80208ade:	8da9                	xor	a1,a1,a0
    80208ae0:	18bc25af          	sc.w	a1,a1,(s8)
    80208ae4:	f5e5                	bnez	a1,80208acc <.Lpcrel_hi8+0xdc>
    80208ae6:	0ff57593          	zext.b	a1,a0
    80208aea:	c99d                	beqz	a1,80208b20 <.Lpcrel_hi8+0x130>
    80208aec:	0ff57513          	zext.b	a0,a0
    80208af0:	fca05ee3          	blez	a0,80208acc <.Lpcrel_hi8+0xdc>
    80208af4:	0d751263          	bne	a0,s7,80208bb8 <.Lpcrel_hi8+0x1c8>
    80208af8:	02848503          	lb	a0,40(s1)
    80208afc:	0230000f          	fence	r,rw
    80208b00:	01751a63          	bne	a0,s7,80208b14 <.Lpcrel_hi8+0x124>
    80208b04:	0100000f          	fence	w,unknown
    80208b08:	02848503          	lb	a0,40(s1)
    80208b0c:	0230000f          	fence	r,rw
    80208b10:	ff750ae3          	beq	a0,s7,80208b04 <.Lpcrel_hi8+0x114>
    80208b14:	0ff57513          	zext.b	a0,a0
    80208b18:	d955                	beqz	a0,80208acc <.Lpcrel_hi8+0xdc>
    80208b1a:	03450163          	beq	a0,s4,80208b3c <.Lpcrel_hi8+0x14c>
    80208b1e:	a8d1                	j	80208bf2 <.Lpcrel_hi14>
    80208b20:	0004b423          	sd	zero,8(s1)
    80208b24:	0004b023          	sd	zero,0(s1)
    80208b28:	4521                	li	a0,8
    80208b2a:	e888                	sd	a0,16(s1)
    80208b2c:	0004bc23          	sd	zero,24(s1)
    80208b30:	0204b023          	sd	zero,32(s1)
    80208b34:	0310000f          	fence	rw,w
    80208b38:	03448423          	sb	s4,40(s1)
    80208b3c:	6088                	ld	a0,0(s1)
    80208b3e:	e165                	bnez	a0,80208c1e <.Lpcrel_hi18>
    80208b40:	7088                	ld	a0,32(s1)
    80208b42:	0154b023          	sd	s5,0(s1)
    80208b46:	c939                	beqz	a0,80208b9c <.Lpcrel_hi8+0x1ac>
    80208b48:	6c8c                	ld	a1,24(s1)
    80208b4a:	6890                	ld	a2,16(s1)
    80208b4c:	6494                	ld	a3,8(s1)
    80208b4e:	00158713          	addi	a4,a1,1
    80208b52:	058e                	slli	a1,a1,0x3
    80208b54:	95b2                	add	a1,a1,a2
    80208b56:	00d73633          	sltu	a2,a4,a3
    80208b5a:	0005bd03          	ld	s10,0(a1)
    80208b5e:	167d                	addi	a2,a2,-1
    80208b60:	157d                	addi	a0,a0,-1
    80208b62:	f088                	sd	a0,32(s1)
    80208b64:	020d3503          	ld	a0,32(s10)
    80208b68:	8e75                	and	a2,a2,a3
    80208b6a:	8f11                	sub	a4,a4,a2
    80208b6c:	ec98                	sd	a4,24(s1)
    80208b6e:	0004b023          	sd	zero,0(s1)
    80208b72:	ed55                	bnez	a0,80208c2e <.Lpcrel_hi19>
    80208b74:	020d3023          	sd	zero,32(s10)
    80208b78:	078b3503          	ld	a0,120(s6)
    80208b7c:	117d0223          	sb	s7,260(s10)
    80208b80:	ea0502e3          	beqz	a0,80208a24 <.Lpcrel_hi8+0x34>
    80208b84:	0355352f          	amoadd.d.rl	a0,s5,(a0)
    80208b88:	e9751ee3          	bne	a0,s7,80208a24 <.Lpcrel_hi8+0x34>
    80208b8c:	0230000f          	fence	r,rw
    80208b90:	854e                	mv	a0,s3
    80208b92:	ffffe097          	auipc	ra,0xffffe
    80208b96:	f1a080e7          	jalr	-230(ra) # 80206aac <_ZN5alloc4sync16Arc$LT$T$C$A$GT$9drop_slow17ha4dcf4d52c6b29e9E>
    80208b9a:	b569                	j	80208a24 <.Lpcrel_hi8+0x34>
    80208b9c:	000b3503          	ld	a0,0(s6)
    80208ba0:	0004b023          	sd	zero,0(s1)
    80208ba4:	0505                	addi	a0,a0,1
    80208ba6:	00ab3023          	sd	a0,0(s6)
    80208baa:	080b0503          	lb	a0,128(s6)
    80208bae:	0230000f          	fence	r,rw
    80208bb2:	e9451de3          	bne	a0,s4,80208a4c <.Lpcrel_hi8+0x5c>
    80208bb6:	bdfd                	j	80208ab4 <.Lpcrel_hi8+0xc4>
    80208bb8:	f94502e3          	beq	a0,s4,80208b3c <.Lpcrel_hi8+0x14c>

0000000080208bbc <.Lpcrel_hi16>:
    80208bbc:	00006517          	auipc	a0,0x6
    80208bc0:	eaf50513          	addi	a0,a0,-337 # 8020ea6b <anon.fa3a93afb1962c64d2dee2034174ad88.0.llvm.18273212518176036961>

0000000080208bc4 <.Lpcrel_hi17>:
    80208bc4:	00006597          	auipc	a1,0x6
    80208bc8:	f1458613          	addi	a2,a1,-236 # 8020ead8 <anon.fa3a93afb1962c64d2dee2034174ad88.2.llvm.18273212518176036961>
    80208bcc:	45b5                	li	a1,13
    80208bce:	00002097          	auipc	ra,0x2
    80208bd2:	ab0080e7          	jalr	-1360(ra) # 8020a67e <_ZN4core9panicking5panic17h14cc1607a430f055E>

0000000080208bd6 <.Lpcrel_hi9>:
    80208bd6:	00006517          	auipc	a0,0x6
    80208bda:	f1a50513          	addi	a0,a0,-230 # 8020eaf0 <anon.fa3a93afb1962c64d2dee2034174ad88.3.llvm.18273212518176036961>

0000000080208bde <.Lpcrel_hi10>:
    80208bde:	00006597          	auipc	a1,0x6
    80208be2:	f3a58613          	addi	a2,a1,-198 # 8020eb18 <anon.fa3a93afb1962c64d2dee2034174ad88.4.llvm.18273212518176036961>
    80208be6:	02600593          	li	a1,38
    80208bea:	00002097          	auipc	ra,0x2
    80208bee:	a94080e7          	jalr	-1388(ra) # 8020a67e <_ZN4core9panicking5panic17h14cc1607a430f055E>

0000000080208bf2 <.Lpcrel_hi14>:
    80208bf2:	00006517          	auipc	a0,0x6
    80208bf6:	efe50513          	addi	a0,a0,-258 # 8020eaf0 <anon.fa3a93afb1962c64d2dee2034174ad88.3.llvm.18273212518176036961>

0000000080208bfa <.Lpcrel_hi15>:
    80208bfa:	00006597          	auipc	a1,0x6
    80208bfe:	f1e58613          	addi	a2,a1,-226 # 8020eb18 <anon.fa3a93afb1962c64d2dee2034174ad88.4.llvm.18273212518176036961>
    80208c02:	02600593          	li	a1,38
    80208c06:	00002097          	auipc	ra,0x2
    80208c0a:	a78080e7          	jalr	-1416(ra) # 8020a67e <_ZN4core9panicking5panic17h14cc1607a430f055E>

0000000080208c0e <.Lpcrel_hi13>:
    80208c0e:	00006517          	auipc	a0,0x6
    80208c12:	6ea50513          	addi	a0,a0,1770 # 8020f2f8 <anon.143638ba50f3ca5f2997057583b6f6e7.15.llvm.7411291366835535865>
    80208c16:	00001097          	auipc	ra,0x1
    80208c1a:	69a080e7          	jalr	1690(ra) # 8020a2b0 <_ZN4core4cell22panic_already_borrowed17h63023a1bd405c717E>

0000000080208c1e <.Lpcrel_hi18>:
    80208c1e:	00006517          	auipc	a0,0x6
    80208c22:	6da50513          	addi	a0,a0,1754 # 8020f2f8 <anon.143638ba50f3ca5f2997057583b6f6e7.15.llvm.7411291366835535865>
    80208c26:	00001097          	auipc	ra,0x1
    80208c2a:	68a080e7          	jalr	1674(ra) # 8020a2b0 <_ZN4core4cell22panic_already_borrowed17h63023a1bd405c717E>

0000000080208c2e <.Lpcrel_hi19>:
    80208c2e:	00006517          	auipc	a0,0x6
    80208c32:	6ca50513          	addi	a0,a0,1738 # 8020f2f8 <anon.143638ba50f3ca5f2997057583b6f6e7.15.llvm.7411291366835535865>
    80208c36:	00001097          	auipc	ra,0x1
    80208c3a:	67a080e7          	jalr	1658(ra) # 8020a2b0 <_ZN4core4cell22panic_already_borrowed17h63023a1bd405c717E>

0000000080208c3e <.Lpcrel_hi11>:
    80208c3e:	00006517          	auipc	a0,0x6
    80208c42:	e2d50513          	addi	a0,a0,-467 # 8020ea6b <anon.fa3a93afb1962c64d2dee2034174ad88.0.llvm.18273212518176036961>

0000000080208c46 <.Lpcrel_hi12>:
    80208c46:	00006597          	auipc	a1,0x6
    80208c4a:	e9258613          	addi	a2,a1,-366 # 8020ead8 <anon.fa3a93afb1962c64d2dee2034174ad88.2.llvm.18273212518176036961>
    80208c4e:	45b5                	li	a1,13
    80208c50:	00002097          	auipc	ra,0x2
    80208c54:	a2e080e7          	jalr	-1490(ra) # 8020a67e <_ZN4core9panicking5panic17h14cc1607a430f055E>

0000000080208c58 <_ZN2os4task9processor18current_user_token17h8e740027dcd15aa1E>:
    80208c58:	7179                	addi	sp,sp,-48
    80208c5a:	f406                	sd	ra,40(sp)
    80208c5c:	f022                	sd	s0,32(sp)
    80208c5e:	ec26                	sd	s1,24(sp)
    80208c60:	e84a                	sd	s2,16(sp)
    80208c62:	1800                	addi	s0,sp,48

0000000080208c64 <.Lpcrel_hi26>:
    80208c64:	0032e517          	auipc	a0,0x32e
    80208c68:	59c50493          	addi	s1,a0,1436 # 80537200 <_ZN74_$LT$os..task..processor..PROCESSOR$u20$as$u20$core..ops..deref..Deref$GT$5deref11__stability4LAZY17hb7c09ecbcf5ec318E.llvm.4771765091264844042>
    80208c6c:	08048503          	lb	a0,128(s1)
    80208c70:	4589                	li	a1,2
    80208c72:	0230000f          	fence	r,rw
    80208c76:	04b51e63          	bne	a0,a1,80208cd2 <.Lpcrel_hi27>
    80208c7a:	6088                	ld	a0,0(s1)
    80208c7c:	e52d                	bnez	a0,80208ce6 <.Lpcrel_hi28>
    80208c7e:	7ca8                	ld	a0,120(s1)
    80208c80:	55fd                	li	a1,-1
    80208c82:	e08c                	sd	a1,0(s1)
    80208c84:	c92d                	beqz	a0,80208cf6 <.Lpcrel_hi28+0x10>
    80208c86:	4585                	li	a1,1
    80208c88:	00b535af          	amoadd.d	a1,a1,(a0)
    80208c8c:	0605cf63          	bltz	a1,80208d0a <.Lpcrel_hi29+0x10>
    80208c90:	608c                	ld	a1,0(s1)
    80208c92:	7110                	ld	a2,32(a0)
    80208c94:	0585                	addi	a1,a1,1
    80208c96:	e08c                	sd	a1,0(s1)
    80208c98:	fca43c23          	sd	a0,-40(s0)
    80208c9c:	ea25                	bnez	a2,80208d0c <.Lpcrel_hi30>
    80208c9e:	6124                	ld	s1,64(a0)
    80208ca0:	02053023          	sd	zero,32(a0)
    80208ca4:	597d                	li	s2,-1
    80208ca6:	0325352f          	amoadd.d.rl	a0,s2,(a0)
    80208caa:	4585                	li	a1,1
    80208cac:	00b51a63          	bne	a0,a1,80208cc0 <.Lpcrel_hi26+0x5c>
    80208cb0:	0230000f          	fence	r,rw
    80208cb4:	fd840513          	addi	a0,s0,-40
    80208cb8:	ffffe097          	auipc	ra,0xffffe
    80208cbc:	df4080e7          	jalr	-524(ra) # 80206aac <_ZN5alloc4sync16Arc$LT$T$C$A$GT$9drop_slow17ha4dcf4d52c6b29e9E>
    80208cc0:	03f91513          	slli	a0,s2,0x3f
    80208cc4:	8d45                	or	a0,a0,s1
    80208cc6:	70a2                	ld	ra,40(sp)
    80208cc8:	7402                	ld	s0,32(sp)
    80208cca:	64e2                	ld	s1,24(sp)
    80208ccc:	6942                	ld	s2,16(sp)
    80208cce:	6145                	addi	sp,sp,48
    80208cd0:	8082                	ret

0000000080208cd2 <.Lpcrel_hi27>:
    80208cd2:	0032e517          	auipc	a0,0x32e
    80208cd6:	52e50513          	addi	a0,a0,1326 # 80537200 <_ZN74_$LT$os..task..processor..PROCESSOR$u20$as$u20$core..ops..deref..Deref$GT$5deref11__stability4LAZY17hb7c09ecbcf5ec318E.llvm.4771765091264844042>
    80208cda:	ffffc097          	auipc	ra,0xffffc
    80208cde:	8c4080e7          	jalr	-1852(ra) # 8020459e <_ZN4spin4once17Once$LT$T$C$R$GT$18try_call_once_slow17ha07339b329b608a7E.llvm.18273212518176036961>
    80208ce2:	6088                	ld	a0,0(s1)
    80208ce4:	dd49                	beqz	a0,80208c7e <.Lpcrel_hi26+0x1a>

0000000080208ce6 <.Lpcrel_hi28>:
    80208ce6:	00006517          	auipc	a0,0x6
    80208cea:	61250513          	addi	a0,a0,1554 # 8020f2f8 <anon.143638ba50f3ca5f2997057583b6f6e7.15.llvm.7411291366835535865>
    80208cee:	00001097          	auipc	ra,0x1
    80208cf2:	5c2080e7          	jalr	1474(ra) # 8020a2b0 <_ZN4core4cell22panic_already_borrowed17h63023a1bd405c717E>
    80208cf6:	0004b023          	sd	zero,0(s1)

0000000080208cfa <.Lpcrel_hi29>:
    80208cfa:	00007517          	auipc	a0,0x7
    80208cfe:	39650513          	addi	a0,a0,918 # 80210090 <anon.915d3413da9ce189105a1b955b4cc825.6.llvm.4771765091264844042>
    80208d02:	00002097          	auipc	ra,0x2
    80208d06:	90e080e7          	jalr	-1778(ra) # 8020a610 <_ZN4core6option13unwrap_failed17h3c70806c841faa93E>
	...

0000000080208d0c <.Lpcrel_hi30>:
    80208d0c:	00006517          	auipc	a0,0x6
    80208d10:	5ec50513          	addi	a0,a0,1516 # 8020f2f8 <anon.143638ba50f3ca5f2997057583b6f6e7.15.llvm.7411291366835535865>
    80208d14:	00001097          	auipc	ra,0x1
    80208d18:	59c080e7          	jalr	1436(ra) # 8020a2b0 <_ZN4core4cell22panic_already_borrowed17h63023a1bd405c717E>

0000000080208d1c <_ZN2os4task9processor15current_trap_cx17hf62b44980fe8801cE>:
    80208d1c:	1101                	addi	sp,sp,-32
    80208d1e:	ec06                	sd	ra,24(sp)
    80208d20:	e822                	sd	s0,16(sp)
    80208d22:	e426                	sd	s1,8(sp)
    80208d24:	1000                	addi	s0,sp,32

0000000080208d26 <.Lpcrel_hi31>:
    80208d26:	0032e517          	auipc	a0,0x32e
    80208d2a:	4da50493          	addi	s1,a0,1242 # 80537200 <_ZN74_$LT$os..task..processor..PROCESSOR$u20$as$u20$core..ops..deref..Deref$GT$5deref11__stability4LAZY17hb7c09ecbcf5ec318E.llvm.4771765091264844042>
    80208d2e:	08048503          	lb	a0,128(s1)
    80208d32:	4589                	li	a1,2
    80208d34:	0230000f          	fence	r,rw
    80208d38:	04b51e63          	bne	a0,a1,80208d94 <.Lpcrel_hi32>
    80208d3c:	6088                	ld	a0,0(s1)
    80208d3e:	e52d                	bnez	a0,80208da8 <.Lpcrel_hi33>
    80208d40:	7ca8                	ld	a0,120(s1)
    80208d42:	55fd                	li	a1,-1
    80208d44:	e08c                	sd	a1,0(s1)
    80208d46:	c92d                	beqz	a0,80208db8 <.Lpcrel_hi33+0x10>
    80208d48:	4585                	li	a1,1
    80208d4a:	00b535af          	amoadd.d	a1,a1,(a0)
    80208d4e:	0605cf63          	bltz	a1,80208dcc <.Lpcrel_hi34+0x10>
    80208d52:	608c                	ld	a1,0(s1)
    80208d54:	7110                	ld	a2,32(a0)
    80208d56:	0585                	addi	a1,a1,1
    80208d58:	e08c                	sd	a1,0(s1)
    80208d5a:	fea43023          	sd	a0,-32(s0)
    80208d5e:	ea25                	bnez	a2,80208dce <.Lpcrel_hi35>
    80208d60:	7d24                	ld	s1,120(a0)
    80208d62:	55fd                	li	a1,-1
    80208d64:	04b2                	slli	s1,s1,0xc
    80208d66:	f10c                	sd	a1,32(a0)
    80208d68:	c8bd                	beqz	s1,80208dde <.Lpcrel_hi36>
    80208d6a:	02053023          	sd	zero,32(a0)
    80208d6e:	02b5352f          	amoadd.d.rl	a0,a1,(a0)
    80208d72:	4585                	li	a1,1
    80208d74:	00b51a63          	bne	a0,a1,80208d88 <.Lpcrel_hi31+0x62>
    80208d78:	0230000f          	fence	r,rw
    80208d7c:	fe040513          	addi	a0,s0,-32
    80208d80:	ffffe097          	auipc	ra,0xffffe
    80208d84:	d2c080e7          	jalr	-724(ra) # 80206aac <_ZN5alloc4sync16Arc$LT$T$C$A$GT$9drop_slow17ha4dcf4d52c6b29e9E>
    80208d88:	8526                	mv	a0,s1
    80208d8a:	60e2                	ld	ra,24(sp)
    80208d8c:	6442                	ld	s0,16(sp)
    80208d8e:	64a2                	ld	s1,8(sp)
    80208d90:	6105                	addi	sp,sp,32
    80208d92:	8082                	ret

0000000080208d94 <.Lpcrel_hi32>:
    80208d94:	0032e517          	auipc	a0,0x32e
    80208d98:	46c50513          	addi	a0,a0,1132 # 80537200 <_ZN74_$LT$os..task..processor..PROCESSOR$u20$as$u20$core..ops..deref..Deref$GT$5deref11__stability4LAZY17hb7c09ecbcf5ec318E.llvm.4771765091264844042>
    80208d9c:	ffffc097          	auipc	ra,0xffffc
    80208da0:	802080e7          	jalr	-2046(ra) # 8020459e <_ZN4spin4once17Once$LT$T$C$R$GT$18try_call_once_slow17ha07339b329b608a7E.llvm.18273212518176036961>
    80208da4:	6088                	ld	a0,0(s1)
    80208da6:	dd49                	beqz	a0,80208d40 <.Lpcrel_hi31+0x1a>

0000000080208da8 <.Lpcrel_hi33>:
    80208da8:	00006517          	auipc	a0,0x6
    80208dac:	55050513          	addi	a0,a0,1360 # 8020f2f8 <anon.143638ba50f3ca5f2997057583b6f6e7.15.llvm.7411291366835535865>
    80208db0:	00001097          	auipc	ra,0x1
    80208db4:	500080e7          	jalr	1280(ra) # 8020a2b0 <_ZN4core4cell22panic_already_borrowed17h63023a1bd405c717E>
    80208db8:	0004b023          	sd	zero,0(s1)

0000000080208dbc <.Lpcrel_hi34>:
    80208dbc:	00007517          	auipc	a0,0x7
    80208dc0:	2ec50513          	addi	a0,a0,748 # 802100a8 <anon.915d3413da9ce189105a1b955b4cc825.7.llvm.4771765091264844042>
    80208dc4:	00002097          	auipc	ra,0x2
    80208dc8:	84c080e7          	jalr	-1972(ra) # 8020a610 <_ZN4core6option13unwrap_failed17h3c70806c841faa93E>
	...

0000000080208dce <.Lpcrel_hi35>:
    80208dce:	00006517          	auipc	a0,0x6
    80208dd2:	52a50513          	addi	a0,a0,1322 # 8020f2f8 <anon.143638ba50f3ca5f2997057583b6f6e7.15.llvm.7411291366835535865>
    80208dd6:	00001097          	auipc	ra,0x1
    80208dda:	4da080e7          	jalr	1242(ra) # 8020a2b0 <_ZN4core4cell22panic_already_borrowed17h63023a1bd405c717E>

0000000080208dde <.Lpcrel_hi36>:
    80208dde:	00006517          	auipc	a0,0x6
    80208de2:	49a50513          	addi	a0,a0,1178 # 8020f278 <anon.143638ba50f3ca5f2997057583b6f6e7.8.llvm.7411291366835535865>
    80208de6:	00002097          	auipc	ra,0x2
    80208dea:	82a080e7          	jalr	-2006(ra) # 8020a610 <_ZN4core6option13unwrap_failed17h3c70806c841faa93E>

0000000080208dee <_ZN2os4task4task16TaskControlBlock3new17h65189b3f6f757f4eE>:
    80208dee:	7129                	addi	sp,sp,-320
    80208df0:	fe06                	sd	ra,312(sp)
    80208df2:	fa22                	sd	s0,304(sp)
    80208df4:	f626                	sd	s1,296(sp)
    80208df6:	f24a                	sd	s2,288(sp)
    80208df8:	ee4e                	sd	s3,280(sp)
    80208dfa:	ea52                	sd	s4,272(sp)
    80208dfc:	e656                	sd	s5,264(sp)
    80208dfe:	e25a                	sd	s6,256(sp)
    80208e00:	fdde                	sd	s7,248(sp)
    80208e02:	f9e2                	sd	s8,240(sp)
    80208e04:	f5e6                	sd	s9,232(sp)
    80208e06:	f1ea                	sd	s10,224(sp)
    80208e08:	edee                	sd	s11,216(sp)
    80208e0a:	0280                	addi	s0,sp,320
    80208e0c:	8caa                	mv	s9,a0
    80208e0e:	f0840513          	addi	a0,s0,-248
    80208e12:	ffffd097          	auipc	ra,0xffffd
    80208e16:	b68080e7          	jalr	-1176(ra) # 8020597a <_ZN2os2mm10memory_set9MemorySet8from_elf17h51230dd3d48231cbE>
    80208e1a:	f0843503          	ld	a0,-248(s0)
    80208e1e:	f1043583          	ld	a1,-240(s0)
    80208e22:	f1843603          	ld	a2,-232(s0)
    80208e26:	eea43023          	sd	a0,-288(s0)
    80208e2a:	eeb43423          	sd	a1,-280(s0)
    80208e2e:	f2043983          	ld	s3,-224(s0)
    80208e32:	eec43823          	sd	a2,-272(s0)
    80208e36:	f2843603          	ld	a2,-216(s0)
    80208e3a:	f3043683          	ld	a3,-208(s0)
    80208e3e:	00c99593          	slli	a1,s3,0xc
    80208e42:	6505                	lui	a0,0x1
    80208e44:	3561                	addiw	a0,a0,-8 # ff8 <$d.12+0xa7>
    80208e46:	8dc9                	or	a1,a1,a0
    80208e48:	618c                	ld	a1,0(a1)
    80208e4a:	f3843703          	ld	a4,-200(s0)
    80208e4e:	ecc43423          	sd	a2,-312(s0)
    80208e52:	ecd43823          	sd	a3,-304(s0)
    80208e56:	0015f613          	andi	a2,a1,1
    80208e5a:	ece43c23          	sd	a4,-296(s0)
    80208e5e:	26060d63          	beqz	a2,802090d8 <.Lpcrel_hi42>
    80208e62:	fff00637          	lui	a2,0xfff00
    80208e66:	8221                	srli	a2,a2,0x8
    80208e68:	058a                	slli	a1,a1,0x2
    80208e6a:	8df1                	and	a1,a1,a2
    80208e6c:	8d4d                	or	a0,a0,a1
    80208e6e:	6108                	ld	a0,0(a0)
    80208e70:	00157593          	andi	a1,a0,1
    80208e74:	26058263          	beqz	a1,802090d8 <.Lpcrel_hi42>
    80208e78:	050a                	slli	a0,a0,0x2
    80208e7a:	8d71                	and	a0,a0,a2
    80208e7c:	24050e63          	beqz	a0,802090d8 <.Lpcrel_hi42>
    80208e80:	f4043a03          	ld	s4,-192(s0)
    80208e84:	f4843b03          	ld	s6,-184(s0)
    80208e88:	7ff50513          	addi	a0,a0,2047
    80208e8c:	7f153903          	ld	s2,2033(a0)

0000000080208e90 <.Lpcrel_hi43>:
    80208e90:	0012e517          	auipc	a0,0x12e
    80208e94:	1e850493          	addi	s1,a0,488 # 80337078 <_ZN72_$LT$os..task..pid..PID_ALLOCATOR$u20$as$u20$core..ops..deref..Deref$GT$5deref11__stability4LAZY17h34a9ea5ae9c6611dE.llvm.7411291366835535865>
    80208e98:	02848503          	lb	a0,40(s1)
    80208e9c:	4589                	li	a1,2
    80208e9e:	0230000f          	fence	r,rw
    80208ea2:	1eb51263          	bne	a0,a1,80209086 <.Lpcrel_hi44>
    80208ea6:	6088                	ld	a0,0(s1)
    80208ea8:	1e051a63          	bnez	a0,8020909c <.Lpcrel_hi45>
    80208eac:	6c88                	ld	a0,24(s1)
    80208eae:	55fd                	li	a1,-1
    80208eb0:	e08c                	sd	a1,0(s1)
    80208eb2:	092a                	slli	s2,s2,0xa
    80208eb4:	01495a93          	srli	s5,s2,0x14
    80208eb8:	c909                	beqz	a0,80208eca <.Lpcrel_hi43+0x3a>
    80208eba:	688c                	ld	a1,16(s1)
    80208ebc:	157d                	addi	a0,a0,-1
    80208ebe:	ec88                	sd	a0,24(s1)
    80208ec0:	050e                	slli	a0,a0,0x3
    80208ec2:	952e                	add	a0,a0,a1
    80208ec4:	00053b83          	ld	s7,0(a0)
    80208ec8:	a031                	j	80208ed4 <.Lpcrel_hi43+0x44>
    80208eca:	0204bb83          	ld	s7,32(s1)
    80208ece:	001b8513          	addi	a0,s7,1
    80208ed2:	f088                	sd	a0,32(s1)
    80208ed4:	0004b023          	sd	zero,0(s1)
    80208ed8:	ef743c23          	sd	s7,-264(s0)
    80208edc:	ef840513          	addi	a0,s0,-264
    80208ee0:	ffffe097          	auipc	ra,0xffffe
    80208ee4:	95a080e7          	jalr	-1702(ra) # 8020683a <_ZN2os4task3pid11KernelStack3new17ha7ab7a91b870a19fE>
    80208ee8:	892a                	mv	s2,a0
    80208eea:	f0840513          	addi	a0,s0,-248
    80208eee:	06000613          	li	a2,96
    80208ef2:	4581                	li	a1,0
    80208ef4:	00004097          	auipc	ra,0x4
    80208ef8:	1f8080e7          	jalr	504(ra) # 8020d0ec <memset>
    80208efc:	ee043503          	ld	a0,-288(s0)
    80208f00:	ee843583          	ld	a1,-280(s0)
    80208f04:	f8a43023          	sd	a0,-128(s0)
    80208f08:	f8b43423          	sd	a1,-120(s0)
    80208f0c:	ef043503          	ld	a0,-272(s0)
    80208f10:	ec843583          	ld	a1,-312(s0)
    80208f14:	ed043603          	ld	a2,-304(s0)
    80208f18:	ed843683          	ld	a3,-296(s0)
    80208f1c:	f8a43823          	sd	a0,-112(s0)
    80208f20:	f6b43423          	sd	a1,-152(s0)
    80208f24:	f6c43823          	sd	a2,-144(s0)
    80208f28:	f6d43c23          	sd	a3,-136(s0)
    80208f2c:	1a0a8e63          	beqz	s5,802090e8 <.Lpcrel_hi46>
    80208f30:	ed343023          	sd	s3,-320(s0)

0000000080208f34 <.Lpcrel_hi47>:
    80208f34:	0012e517          	auipc	a0,0x12e
    80208f38:	10450493          	addi	s1,a0,260 # 80337038 <_ZN76_$LT$os..mm..memory_set..KERNEL_SPACE$u20$as$u20$core..ops..deref..Deref$GT$5deref11__stability4LAZY17hc3a1022202feb424E.llvm.3597140058814777251>
    80208f3c:	00848503          	lb	a0,8(s1)
    80208f40:	4589                	li	a1,2
    80208f42:	0230000f          	fence	r,rw
    80208f46:	16b51363          	bne	a0,a1,802090ac <.Lpcrel_hi48>
    80208f4a:	0004bd03          	ld	s10,0(s1)
    80208f4e:	010d3503          	ld	a0,16(s10)
    80208f52:	16051b63          	bnez	a0,802090c8 <.Lpcrel_hi49>
    80208f56:	89da                	mv	s3,s6
    80208f58:	00ca9493          	slli	s1,s5,0xc
    80208f5c:	7575                	lui	a0,0xffffd
    80208f5e:	02a90533          	mul	a0,s2,a0
    80208f62:	80050513          	addi	a0,a0,-2048 # ffffffffffffc800 <ebss+0xffffffff7fac4800>
    80208f66:	55fd                	li	a1,-1
    80208f68:	00bd3823          	sd	a1,16(s10)
    80208f6c:	030d3603          	ld	a2,48(s10)
    80208f70:	100026f3          	csrr	a3,sstatus
    80208f74:	80050c13          	addi	s8,a0,-2048
    80208f78:	15fe                	slli	a1,a1,0x3f
    80208f7a:	00b66db3          	or	s11,a2,a1
    80208f7e:	eff6fb13          	andi	s6,a3,-257
    80208f82:	0004b023          	sd	zero,0(s1)
    80208f86:	0004b423          	sd	zero,8(s1)
    80208f8a:	0144b823          	sd	s4,16(s1)
    80208f8e:	01848513          	addi	a0,s1,24
    80208f92:	0e800613          	li	a2,232
    80208f96:	4581                	li	a1,0
    80208f98:	00004097          	auipc	ra,0x4
    80208f9c:	154080e7          	jalr	340(ra) # 8020d0ec <memset>
    80208fa0:	1164b023          	sd	s6,256(s1)
    80208fa4:	1134b423          	sd	s3,264(s1)
    80208fa8:	11b4b823          	sd	s11,272(s1)
    80208fac:	1184bc23          	sd	s8,280(s1)

0000000080208fb0 <.Lpcrel_hi50>:
    80208fb0:	ffffb517          	auipc	a0,0xffffb
    80208fb4:	dc650513          	addi	a0,a0,-570 # 80203d76 <trap_handler>
    80208fb8:	12a4b023          	sd	a0,288(s1)
    80208fbc:	010d3503          	ld	a0,16(s10)
    80208fc0:	0505                	addi	a0,a0,1
    80208fc2:	00ad3823          	sd	a0,16(s10)
    80208fc6:	017cb023          	sd	s7,0(s9)
    80208fca:	012cb423          	sd	s2,8(s9)
    80208fce:	f8043503          	ld	a0,-128(s0)
    80208fd2:	f8843583          	ld	a1,-120(s0)
    80208fd6:	f9043603          	ld	a2,-112(s0)
    80208fda:	000cb823          	sd	zero,16(s9)
    80208fde:	00acbc23          	sd	a0,24(s9)
    80208fe2:	02bcb023          	sd	a1,32(s9)
    80208fe6:	02ccb423          	sd	a2,40(s9)
    80208fea:	f6843503          	ld	a0,-152(s0)
    80208fee:	f7043583          	ld	a1,-144(s0)
    80208ff2:	f7843603          	ld	a2,-136(s0)
    80208ff6:	ec043683          	ld	a3,-320(s0)
    80208ffa:	02dcb823          	sd	a3,48(s9)
    80208ffe:	02acbc23          	sd	a0,56(s9)
    80209002:	04bcb023          	sd	a1,64(s9)
    80209006:	04ccb423          	sd	a2,72(s9)
    8020900a:	040cb823          	sd	zero,80(s9)
    8020900e:	4521                	li	a0,8
    80209010:	04acbc23          	sd	a0,88(s9)
    80209014:	060cb023          	sd	zero,96(s9)
    80209018:	075cb423          	sd	s5,104(s9)
    8020901c:	074cb823          	sd	s4,112(s9)

0000000080209020 <.Lpcrel_hi51>:
    80209020:	ffffb517          	auipc	a0,0xffffb
    80209024:	fec50513          	addi	a0,a0,-20 # 8020400c <trap_return>
    80209028:	06acbc23          	sd	a0,120(s9)
    8020902c:	098cb023          	sd	s8,128(s9)
    80209030:	088c8513          	addi	a0,s9,136
    80209034:	f0840593          	addi	a1,s0,-248
    80209038:	06000613          	li	a2,96
    8020903c:	00004097          	auipc	ra,0x4
    80209040:	0dc080e7          	jalr	220(ra) # 8020d118 <memcpy>
    80209044:	f0544503          	lbu	a0,-251(s0)
    80209048:	f0644583          	lbu	a1,-250(s0)
    8020904c:	0eac8aa3          	sb	a0,245(s9)
    80209050:	0ebc8b23          	sb	a1,246(s9)
    80209054:	f0744503          	lbu	a0,-249(s0)
    80209058:	0e0cb423          	sd	zero,232(s9)
    8020905c:	0e0ca823          	sw	zero,240(s9)
    80209060:	0e0c8a23          	sb	zero,244(s9)
    80209064:	0eac8ba3          	sb	a0,247(s9)
    80209068:	70f2                	ld	ra,312(sp)
    8020906a:	7452                	ld	s0,304(sp)
    8020906c:	74b2                	ld	s1,296(sp)
    8020906e:	7912                	ld	s2,288(sp)
    80209070:	69f2                	ld	s3,280(sp)
    80209072:	6a52                	ld	s4,272(sp)
    80209074:	6ab2                	ld	s5,264(sp)
    80209076:	6b12                	ld	s6,256(sp)
    80209078:	7bee                	ld	s7,248(sp)
    8020907a:	7c4e                	ld	s8,240(sp)
    8020907c:	7cae                	ld	s9,232(sp)
    8020907e:	7d0e                	ld	s10,224(sp)
    80209080:	6dee                	ld	s11,216(sp)
    80209082:	6131                	addi	sp,sp,320
    80209084:	8082                	ret

0000000080209086 <.Lpcrel_hi44>:
    80209086:	0012e517          	auipc	a0,0x12e
    8020908a:	ff250513          	addi	a0,a0,-14 # 80337078 <_ZN72_$LT$os..task..pid..PID_ALLOCATOR$u20$as$u20$core..ops..deref..Deref$GT$5deref11__stability4LAZY17h34a9ea5ae9c6611dE.llvm.7411291366835535865>
    8020908e:	ffffb097          	auipc	ra,0xffffb
    80209092:	072080e7          	jalr	114(ra) # 80204100 <_ZN4spin4once17Once$LT$T$C$R$GT$18try_call_once_slow17h03859503446bdfc1E.llvm.18273212518176036961>
    80209096:	6088                	ld	a0,0(s1)
    80209098:	e0050ae3          	beqz	a0,80208eac <.Lpcrel_hi43+0x1c>

000000008020909c <.Lpcrel_hi45>:
    8020909c:	00006517          	auipc	a0,0x6
    802090a0:	25c50513          	addi	a0,a0,604 # 8020f2f8 <anon.143638ba50f3ca5f2997057583b6f6e7.15.llvm.7411291366835535865>
    802090a4:	00001097          	auipc	ra,0x1
    802090a8:	20c080e7          	jalr	524(ra) # 8020a2b0 <_ZN4core4cell22panic_already_borrowed17h63023a1bd405c717E>

00000000802090ac <.Lpcrel_hi48>:
    802090ac:	0012e517          	auipc	a0,0x12e
    802090b0:	f8c50513          	addi	a0,a0,-116 # 80337038 <_ZN76_$LT$os..mm..memory_set..KERNEL_SPACE$u20$as$u20$core..ops..deref..Deref$GT$5deref11__stability4LAZY17hc3a1022202feb424E.llvm.3597140058814777251>
    802090b4:	ffffb097          	auipc	ra,0xffffb
    802090b8:	5ac080e7          	jalr	1452(ra) # 80204660 <_ZN4spin4once17Once$LT$T$C$R$GT$18try_call_once_slow17hd4618571af06a6feE.llvm.18273212518176036961>
    802090bc:	0004bd03          	ld	s10,0(s1)
    802090c0:	010d3503          	ld	a0,16(s10)
    802090c4:	e80509e3          	beqz	a0,80208f56 <.Lpcrel_hi47+0x22>

00000000802090c8 <.Lpcrel_hi49>:
    802090c8:	00006517          	auipc	a0,0x6
    802090cc:	23050513          	addi	a0,a0,560 # 8020f2f8 <anon.143638ba50f3ca5f2997057583b6f6e7.15.llvm.7411291366835535865>
    802090d0:	00001097          	auipc	ra,0x1
    802090d4:	1e0080e7          	jalr	480(ra) # 8020a2b0 <_ZN4core4cell22panic_already_borrowed17h63023a1bd405c717E>

00000000802090d8 <.Lpcrel_hi42>:
    802090d8:	00007517          	auipc	a0,0x7
    802090dc:	fe850513          	addi	a0,a0,-24 # 802100c0 <.Lanon.915d3413da9ce189105a1b955b4cc825.9>
    802090e0:	00001097          	auipc	ra,0x1
    802090e4:	530080e7          	jalr	1328(ra) # 8020a610 <_ZN4core6option13unwrap_failed17h3c70806c841faa93E>

00000000802090e8 <.Lpcrel_hi46>:
    802090e8:	00006517          	auipc	a0,0x6
    802090ec:	19050513          	addi	a0,a0,400 # 8020f278 <anon.143638ba50f3ca5f2997057583b6f6e7.8.llvm.7411291366835535865>
    802090f0:	00001097          	auipc	ra,0x1
    802090f4:	520080e7          	jalr	1312(ra) # 8020a610 <_ZN4core6option13unwrap_failed17h3c70806c841faa93E>

00000000802090f8 <_ZN2os4task4task16TaskControlBlock4exec17h2f0746ea50d7c61bE>:
    802090f8:	7155                	addi	sp,sp,-208
    802090fa:	e586                	sd	ra,200(sp)
    802090fc:	e1a2                	sd	s0,192(sp)
    802090fe:	fd26                	sd	s1,184(sp)
    80209100:	f94a                	sd	s2,176(sp)
    80209102:	f54e                	sd	s3,168(sp)
    80209104:	f152                	sd	s4,160(sp)
    80209106:	ed56                	sd	s5,152(sp)
    80209108:	e95a                	sd	s6,144(sp)
    8020910a:	e55e                	sd	s7,136(sp)
    8020910c:	e162                	sd	s8,128(sp)
    8020910e:	fce6                	sd	s9,120(sp)
    80209110:	0980                	addi	s0,sp,208
    80209112:	892a                	mv	s2,a0
    80209114:	f6040513          	addi	a0,s0,-160
    80209118:	ffffd097          	auipc	ra,0xffffd
    8020911c:	862080e7          	jalr	-1950(ra) # 8020597a <_ZN2os2mm10memory_set9MemorySet8from_elf17h51230dd3d48231cbE>
    80209120:	f7043503          	ld	a0,-144(s0)
    80209124:	f6843583          	ld	a1,-152(s0)
    80209128:	f6043603          	ld	a2,-160(s0)
    8020912c:	f4a43c23          	sd	a0,-168(s0)
    80209130:	f4b43823          	sd	a1,-176(s0)
    80209134:	f7843a83          	ld	s5,-136(s0)
    80209138:	f4c43423          	sd	a2,-184(s0)
    8020913c:	f8043603          	ld	a2,-128(s0)
    80209140:	f8843683          	ld	a3,-120(s0)
    80209144:	00ca9593          	slli	a1,s5,0xc
    80209148:	6505                	lui	a0,0x1
    8020914a:	3561                	addiw	a0,a0,-8 # ff8 <$d.12+0xa7>
    8020914c:	8dc9                	or	a1,a1,a0
    8020914e:	618c                	ld	a1,0(a1)
    80209150:	f9043703          	ld	a4,-112(s0)
    80209154:	f2c43823          	sd	a2,-208(s0)
    80209158:	f2d43c23          	sd	a3,-200(s0)
    8020915c:	0015f613          	andi	a2,a1,1
    80209160:	f4e43023          	sd	a4,-192(s0)
    80209164:	1e060063          	beqz	a2,80209344 <.Lpcrel_hi52>
    80209168:	fff00637          	lui	a2,0xfff00
    8020916c:	8221                	srli	a2,a2,0x8
    8020916e:	058a                	slli	a1,a1,0x2
    80209170:	8df1                	and	a1,a1,a2
    80209172:	8d4d                	or	a0,a0,a1
    80209174:	6108                	ld	a0,0(a0)
    80209176:	00157593          	andi	a1,a0,1
    8020917a:	1c058563          	beqz	a1,80209344 <.Lpcrel_hi52>
    8020917e:	050a                	slli	a0,a0,0x2
    80209180:	8d71                	and	a0,a0,a2
    80209182:	1c050163          	beqz	a0,80209344 <.Lpcrel_hi52>
    80209186:	01093583          	ld	a1,16(s2)
    8020918a:	1c059563          	bnez	a1,80209354 <.Lpcrel_hi53>
    8020918e:	f9843a03          	ld	s4,-104(s0)
    80209192:	fa043983          	ld	s3,-96(s0)
    80209196:	7ff50513          	addi	a0,a0,2047
    8020919a:	02893c03          	ld	s8,40(s2)
    8020919e:	7f153b83          	ld	s7,2033(a0)
    802091a2:	557d                	li	a0,-1
    802091a4:	00a93823          	sd	a0,16(s2)
    802091a8:	01890b13          	addi	s6,s2,24
    802091ac:	000c0d63          	beqz	s8,802091c6 <_ZN2os4task4task16TaskControlBlock4exec17h2f0746ea50d7c61bE+0xce>
    802091b0:	02093483          	ld	s1,32(s2)
    802091b4:	8526                	mv	a0,s1
    802091b6:	ffffa097          	auipc	ra,0xffffa
    802091ba:	410080e7          	jalr	1040(ra) # 802035c6 <_ZN79_$LT$os..mm..frame_allocator..FrameTracker$u20$as$u20$core..ops..drop..Drop$GT$4drop17h22547e58a5031c24E>
    802091be:	1c7d                	addi	s8,s8,-1
    802091c0:	04a1                	addi	s1,s1,8
    802091c2:	fe0c19e3          	bnez	s8,802091b4 <_ZN2os4task4task16TaskControlBlock4exec17h2f0746ea50d7c61bE+0xbc>
    802091c6:	000b3683          	ld	a3,0(s6)
    802091ca:	ce89                	beqz	a3,802091e4 <.Lpcrel_hi54+0x12>
    802091cc:	02093583          	ld	a1,32(s2)
    802091d0:	068e                	slli	a3,a3,0x3

00000000802091d2 <.Lpcrel_hi54>:
    802091d2:	0032e517          	auipc	a0,0x32e
    802091d6:	ed650513          	addi	a0,a0,-298 # 805370a8 <_ZN2os2mm14heap_allocator14HEAP_ALLOCATOR17hdb009eb0a1c201beE.llvm.13289308715828321855>
    802091da:	4621                	li	a2,8
    802091dc:	00001097          	auipc	ra,0x1
    802091e0:	d32080e7          	jalr	-718(ra) # 80209f0e <_ZN87_$LT$buddy_system_allocator..LockedHeap$u20$as$u20$core..alloc..global..GlobalAlloc$GT$7dealloc17h5e5f6d74b20ea42eE>
    802091e4:	04893c83          	ld	s9,72(s2)
    802091e8:	00ab9c13          	slli	s8,s7,0xa
    802091ec:	03890b93          	addi	s7,s2,56
    802091f0:	000c8f63          	beqz	s9,8020920e <.Lpcrel_hi54+0x3c>
    802091f4:	04093483          	ld	s1,64(s2)
    802091f8:	04c1                	addi	s1,s1,16
    802091fa:	8526                	mv	a0,s1
    802091fc:	fffff097          	auipc	ra,0xfffff
    80209200:	632080e7          	jalr	1586(ra) # 8020882e <_ZN99_$LT$alloc..collections..btree..map..BTreeMap$LT$K$C$V$C$A$GT$$u20$as$u20$core..ops..drop..Drop$GT$4drop17h1b8eadadec77b2e0E>
    80209204:	1cfd                	addi	s9,s9,-1
    80209206:	03048493          	addi	s1,s1,48
    8020920a:	fe0c98e3          	bnez	s9,802091fa <.Lpcrel_hi54+0x28>
    8020920e:	000bb503          	ld	a0,0(s7)
    80209212:	014c5c13          	srli	s8,s8,0x14
    80209216:	c105                	beqz	a0,80209236 <.Lpcrel_hi55+0x12>
    80209218:	04093583          	ld	a1,64(s2)
    8020921c:	03000613          	li	a2,48
    80209220:	02c506b3          	mul	a3,a0,a2

0000000080209224 <.Lpcrel_hi55>:
    80209224:	0032e517          	auipc	a0,0x32e
    80209228:	e8450513          	addi	a0,a0,-380 # 805370a8 <_ZN2os2mm14heap_allocator14HEAP_ALLOCATOR17hdb009eb0a1c201beE.llvm.13289308715828321855>
    8020922c:	4621                	li	a2,8
    8020922e:	00001097          	auipc	ra,0x1
    80209232:	ce0080e7          	jalr	-800(ra) # 80209f0e <_ZN87_$LT$buddy_system_allocator..LockedHeap$u20$as$u20$core..alloc..global..GlobalAlloc$GT$7dealloc17h5e5f6d74b20ea42eE>
    80209236:	f5843503          	ld	a0,-168(s0)
    8020923a:	f5043583          	ld	a1,-176(s0)
    8020923e:	f4843603          	ld	a2,-184(s0)
    80209242:	00ab3823          	sd	a0,16(s6)
    80209246:	00bb3423          	sd	a1,8(s6)
    8020924a:	00cb3023          	sd	a2,0(s6)
    8020924e:	f3043503          	ld	a0,-208(s0)
    80209252:	f3843583          	ld	a1,-200(s0)
    80209256:	f4043603          	ld	a2,-192(s0)
    8020925a:	03593823          	sd	s5,48(s2)
    8020925e:	00abb023          	sd	a0,0(s7)
    80209262:	00bbb423          	sd	a1,8(s7)
    80209266:	00cbb823          	sd	a2,16(s7)
    8020926a:	07893423          	sd	s8,104(s2)
    8020926e:	07493823          	sd	s4,112(s2)
    80209272:	0e0c0963          	beqz	s8,80209364 <.Lpcrel_hi56>

0000000080209276 <.Lpcrel_hi57>:
    80209276:	0012e517          	auipc	a0,0x12e
    8020927a:	dc250493          	addi	s1,a0,-574 # 80337038 <_ZN76_$LT$os..mm..memory_set..KERNEL_SPACE$u20$as$u20$core..ops..deref..Deref$GT$5deref11__stability4LAZY17hc3a1022202feb424E.llvm.3597140058814777251>
    8020927e:	00848503          	lb	a0,8(s1)
    80209282:	4589                	li	a1,2
    80209284:	0230000f          	fence	r,rw
    80209288:	08b51b63          	bne	a0,a1,8020931e <.Lpcrel_hi58>
    8020928c:	6084                	ld	s1,0(s1)
    8020928e:	6888                	ld	a0,16(s1)
    80209290:	e155                	bnez	a0,80209334 <.Lpcrel_hi59>
    80209292:	557d                	li	a0,-1
    80209294:	788c                	ld	a1,48(s1)
    80209296:	e888                	sd	a0,16(s1)
    80209298:	00893603          	ld	a2,8(s2)
    8020929c:	157e                	slli	a0,a0,0x3f
    8020929e:	00a5eab3          	or	s5,a1,a0
    802092a2:	7575                	lui	a0,0xffffd
    802092a4:	02a60533          	mul	a0,a2,a0
    802092a8:	100025f3          	csrr	a1,sstatus
    802092ac:	0c32                	slli	s8,s8,0xc
    802092ae:	80050513          	addi	a0,a0,-2048 # ffffffffffffc800 <ebss+0xffffffff7fac4800>
    802092b2:	80050b13          	addi	s6,a0,-2048
    802092b6:	eff5fb93          	andi	s7,a1,-257
    802092ba:	000c3023          	sd	zero,0(s8)
    802092be:	000c3423          	sd	zero,8(s8)
    802092c2:	014c3823          	sd	s4,16(s8)
    802092c6:	018c0513          	addi	a0,s8,24
    802092ca:	0e800613          	li	a2,232
    802092ce:	4581                	li	a1,0
    802092d0:	00004097          	auipc	ra,0x4
    802092d4:	e1c080e7          	jalr	-484(ra) # 8020d0ec <memset>
    802092d8:	117c3023          	sd	s7,256(s8)
    802092dc:	113c3423          	sd	s3,264(s8)
    802092e0:	115c3823          	sd	s5,272(s8)
    802092e4:	116c3c23          	sd	s6,280(s8)

00000000802092e8 <.Lpcrel_hi60>:
    802092e8:	ffffb517          	auipc	a0,0xffffb
    802092ec:	a8e50513          	addi	a0,a0,-1394 # 80203d76 <trap_handler>
    802092f0:	12ac3023          	sd	a0,288(s8)
    802092f4:	6888                	ld	a0,16(s1)
    802092f6:	0505                	addi	a0,a0,1
    802092f8:	e888                	sd	a0,16(s1)
    802092fa:	01093503          	ld	a0,16(s2)
    802092fe:	0505                	addi	a0,a0,1
    80209300:	00a93823          	sd	a0,16(s2)
    80209304:	60ae                	ld	ra,200(sp)
    80209306:	640e                	ld	s0,192(sp)
    80209308:	74ea                	ld	s1,184(sp)
    8020930a:	794a                	ld	s2,176(sp)
    8020930c:	79aa                	ld	s3,168(sp)
    8020930e:	7a0a                	ld	s4,160(sp)
    80209310:	6aea                	ld	s5,152(sp)
    80209312:	6b4a                	ld	s6,144(sp)
    80209314:	6baa                	ld	s7,136(sp)
    80209316:	6c0a                	ld	s8,128(sp)
    80209318:	7ce6                	ld	s9,120(sp)
    8020931a:	6169                	addi	sp,sp,208
    8020931c:	8082                	ret

000000008020931e <.Lpcrel_hi58>:
    8020931e:	0012e517          	auipc	a0,0x12e
    80209322:	d1a50513          	addi	a0,a0,-742 # 80337038 <_ZN76_$LT$os..mm..memory_set..KERNEL_SPACE$u20$as$u20$core..ops..deref..Deref$GT$5deref11__stability4LAZY17hc3a1022202feb424E.llvm.3597140058814777251>
    80209326:	ffffb097          	auipc	ra,0xffffb
    8020932a:	33a080e7          	jalr	826(ra) # 80204660 <_ZN4spin4once17Once$LT$T$C$R$GT$18try_call_once_slow17hd4618571af06a6feE.llvm.18273212518176036961>
    8020932e:	6084                	ld	s1,0(s1)
    80209330:	6888                	ld	a0,16(s1)
    80209332:	d125                	beqz	a0,80209292 <.Lpcrel_hi57+0x1c>

0000000080209334 <.Lpcrel_hi59>:
    80209334:	00006517          	auipc	a0,0x6
    80209338:	fc450513          	addi	a0,a0,-60 # 8020f2f8 <anon.143638ba50f3ca5f2997057583b6f6e7.15.llvm.7411291366835535865>
    8020933c:	00001097          	auipc	ra,0x1
    80209340:	f74080e7          	jalr	-140(ra) # 8020a2b0 <_ZN4core4cell22panic_already_borrowed17h63023a1bd405c717E>

0000000080209344 <.Lpcrel_hi52>:
    80209344:	00007517          	auipc	a0,0x7
    80209348:	d9450513          	addi	a0,a0,-620 # 802100d8 <anon.915d3413da9ce189105a1b955b4cc825.10.llvm.4771765091264844042>
    8020934c:	00001097          	auipc	ra,0x1
    80209350:	2c4080e7          	jalr	708(ra) # 8020a610 <_ZN4core6option13unwrap_failed17h3c70806c841faa93E>

0000000080209354 <.Lpcrel_hi53>:
    80209354:	00006517          	auipc	a0,0x6
    80209358:	fa450513          	addi	a0,a0,-92 # 8020f2f8 <anon.143638ba50f3ca5f2997057583b6f6e7.15.llvm.7411291366835535865>
    8020935c:	00001097          	auipc	ra,0x1
    80209360:	f54080e7          	jalr	-172(ra) # 8020a2b0 <_ZN4core4cell22panic_already_borrowed17h63023a1bd405c717E>

0000000080209364 <.Lpcrel_hi56>:
    80209364:	00006517          	auipc	a0,0x6
    80209368:	f1450513          	addi	a0,a0,-236 # 8020f278 <anon.143638ba50f3ca5f2997057583b6f6e7.8.llvm.7411291366835535865>
    8020936c:	00001097          	auipc	ra,0x1
    80209370:	2a4080e7          	jalr	676(ra) # 8020a610 <_ZN4core6option13unwrap_failed17h3c70806c841faa93E>

0000000080209374 <_ZN2os4task4task16TaskControlBlock4fork17hc667c5a6072893b0E>:
    80209374:	7155                	addi	sp,sp,-208
    80209376:	e586                	sd	ra,200(sp)
    80209378:	e1a2                	sd	s0,192(sp)
    8020937a:	fd26                	sd	s1,184(sp)
    8020937c:	f94a                	sd	s2,176(sp)
    8020937e:	f54e                	sd	s3,168(sp)
    80209380:	f152                	sd	s4,160(sp)
    80209382:	ed56                	sd	s5,152(sp)
    80209384:	e95a                	sd	s6,144(sp)
    80209386:	e55e                	sd	s7,136(sp)
    80209388:	e162                	sd	s8,128(sp)
    8020938a:	0980                	addi	s0,sp,208
    8020938c:	00053983          	ld	s3,0(a0)
    80209390:	0209b503          	ld	a0,32(s3)
    80209394:	26051b63          	bnez	a0,8020960a <.Lpcrel_hi61>
    80209398:	557d                	li	a0,-1
    8020939a:	02a9b023          	sd	a0,32(s3)
    8020939e:	02898593          	addi	a1,s3,40
    802093a2:	f3840513          	addi	a0,s0,-200
    802093a6:	ffffd097          	auipc	ra,0xffffd
    802093aa:	aac080e7          	jalr	-1364(ra) # 80205e52 <_ZN2os2mm10memory_set9MemorySet17from_existed_user17ha37a3ba89cdff7efE>
    802093ae:	f5043503          	ld	a0,-176(s0)
    802093b2:	00c51593          	slli	a1,a0,0xc
    802093b6:	6505                	lui	a0,0x1
    802093b8:	3561                	addiw	a0,a0,-8 # ff8 <$d.12+0xa7>
    802093ba:	8dc9                	or	a1,a1,a0
    802093bc:	6190                	ld	a2,0(a1)
    802093be:	00167593          	andi	a1,a2,1
    802093c2:	22058c63          	beqz	a1,802095fa <.Lpcrel_hi62>
    802093c6:	fff005b7          	lui	a1,0xfff00
    802093ca:	81a1                	srli	a1,a1,0x8
    802093cc:	060a                	slli	a2,a2,0x2
    802093ce:	8e6d                	and	a2,a2,a1
    802093d0:	8d51                	or	a0,a0,a2
    802093d2:	6108                	ld	a0,0(a0)
    802093d4:	00157613          	andi	a2,a0,1
    802093d8:	22060163          	beqz	a2,802095fa <.Lpcrel_hi62>
    802093dc:	050a                	slli	a0,a0,0x2
    802093de:	8d6d                	and	a0,a0,a1
    802093e0:	20050d63          	beqz	a0,802095fa <.Lpcrel_hi62>
    802093e4:	7ff50513          	addi	a0,a0,2047
    802093e8:	7f153a83          	ld	s5,2033(a0)

00000000802093ec <.Lpcrel_hi63>:
    802093ec:	0012e517          	auipc	a0,0x12e
    802093f0:	c8c50493          	addi	s1,a0,-884 # 80337078 <_ZN72_$LT$os..task..pid..PID_ALLOCATOR$u20$as$u20$core..ops..deref..Deref$GT$5deref11__stability4LAZY17h34a9ea5ae9c6611dE.llvm.7411291366835535865>
    802093f4:	02848503          	lb	a0,40(s1)
    802093f8:	4589                	li	a1,2
    802093fa:	0230000f          	fence	r,rw
    802093fe:	1cb51763          	bne	a0,a1,802095cc <.Lpcrel_hi64>
    80209402:	6088                	ld	a0,0(s1)
    80209404:	1c051f63          	bnez	a0,802095e2 <.Lpcrel_hi65>
    80209408:	6c88                	ld	a0,24(s1)
    8020940a:	55fd                	li	a1,-1
    8020940c:	e08c                	sd	a1,0(s1)
    8020940e:	c911                	beqz	a0,80209422 <.Lpcrel_hi63+0x36>
    80209410:	688c                	ld	a1,16(s1)
    80209412:	157d                	addi	a0,a0,-1
    80209414:	00351613          	slli	a2,a0,0x3
    80209418:	95b2                	add	a1,a1,a2
    8020941a:	0005bb03          	ld	s6,0(a1) # fffffffffff00000 <ebss+0xffffffff7f9c8000>
    8020941e:	ec88                	sd	a0,24(s1)
    80209420:	a031                	j	8020942c <.Lpcrel_hi63+0x40>
    80209422:	0204bb03          	ld	s6,32(s1)
    80209426:	001b0513          	addi	a0,s6,1
    8020942a:	f088                	sd	a0,32(s1)
    8020942c:	0004b023          	sd	zero,0(s1)
    80209430:	f7643823          	sd	s6,-144(s0)
    80209434:	f7040513          	addi	a0,s0,-144
    80209438:	ffffd097          	auipc	ra,0xffffd
    8020943c:	402080e7          	jalr	1026(ra) # 8020683a <_ZN2os4task3pid11KernelStack3new17ha7ab7a91b870a19fE>
    80209440:	892a                	mv	s2,a0
    80209442:	7575                	lui	a0,0xffffd
    80209444:	02a90533          	mul	a0,s2,a0
    80209448:	80050513          	addi	a0,a0,-2048 # ffffffffffffc800 <ebss+0xffffffff7fac4800>
    8020944c:	f6843583          	ld	a1,-152(s0)
    80209450:	80050a13          	addi	s4,a0,-2048
    80209454:	f6043503          	ld	a0,-160(s0)
    80209458:	f5843603          	ld	a2,-168(s0)
    8020945c:	fab43423          	sd	a1,-88(s0)
    80209460:	f5043583          	ld	a1,-176(s0)
    80209464:	faa43023          	sd	a0,-96(s0)
    80209468:	f8c43c23          	sd	a2,-104(s0)
    8020946c:	f4843503          	ld	a0,-184(s0)
    80209470:	f8b43823          	sd	a1,-112(s0)
    80209474:	f4043583          	ld	a1,-192(s0)
    80209478:	f3843603          	ld	a2,-200(s0)
    8020947c:	f8a43423          	sd	a0,-120(s0)
    80209480:	0809bb83          	ld	s7,128(s3)
    80209484:	f8b43023          	sd	a1,-128(s0)
    80209488:	f6c43c23          	sd	a2,-136(s0)
    8020948c:	557d                	li	a0,-1
    8020948e:	00898593          	addi	a1,s3,8
    80209492:	a019                	j	80209498 <.Lpcrel_hi63+0xac>
    80209494:	0100000f          	fence	w,unknown
    80209498:	0089b683          	ld	a3,8(s3)
    8020949c:	fea68ce3          	beq	a3,a0,80209494 <.Lpcrel_hi63+0xa8>
    802094a0:	8636                	mv	a2,a3
    802094a2:	1406c863          	bltz	a3,802095f2 <.Lpcrel_hi65+0x10>
    802094a6:	00160713          	addi	a4,a2,1 # fffffffffff00001 <ebss+0xffffffff7f9c8001>
    802094aa:	1405b6af          	lr.d.aq	a3,(a1)
    802094ae:	fec697e3          	bne	a3,a2,8020949c <.Lpcrel_hi63+0xb0>
    802094b2:	18e5b7af          	sc.d	a5,a4,(a1)
    802094b6:	fbf5                	bnez	a5,802094aa <.Lpcrel_hi63+0xbe>

00000000802094b8 <.Lpcrel_hi66>:
    802094b8:	0032e517          	auipc	a0,0x32e
    802094bc:	dd150513          	addi	a0,a0,-559 # 80537289 <__rust_no_alloc_shim_is_unstable>
    802094c0:	00054003          	lbu	zero,0(a0)

00000000802094c4 <.Lpcrel_hi67>:
    802094c4:	0032e517          	auipc	a0,0x32e
    802094c8:	be450513          	addi	a0,a0,-1052 # 805370a8 <_ZN2os2mm14heap_allocator14HEAP_ALLOCATOR17hdb009eb0a1c201beE.llvm.13289308715828321855>
    802094cc:	45a1                	li	a1,8
    802094ce:	10800613          	li	a2,264
    802094d2:	4c21                	li	s8,8
    802094d4:	00001097          	auipc	ra,0x1
    802094d8:	9ec080e7          	jalr	-1556(ra) # 80209ec0 <_ZN87_$LT$buddy_system_allocator..LockedHeap$u20$as$u20$core..alloc..global..GlobalAlloc$GT$5alloc17h3b694276a2754c9bE>
    802094dc:	12050f63          	beqz	a0,8020961a <.Lpcrel_hi61+0x10>
    802094e0:	84aa                	mv	s1,a0
    802094e2:	0aaa                	slli	s5,s5,0xa
    802094e4:	014ada93          	srli	s5,s5,0x14
    802094e8:	f7843503          	ld	a0,-136(s0)
    802094ec:	0164b823          	sd	s6,16(s1)
    802094f0:	f8043583          	ld	a1,-128(s0)
    802094f4:	0124bc23          	sd	s2,24(s1)
    802094f8:	f488                	sd	a0,40(s1)
    802094fa:	f8843503          	ld	a0,-120(s0)
    802094fe:	f88c                	sd	a1,48(s1)
    80209500:	f9043583          	ld	a1,-112(s0)
    80209504:	f9843603          	ld	a2,-104(s0)
    80209508:	fc88                	sd	a0,56(s1)
    8020950a:	4905                	li	s2,1
    8020950c:	e0ac                	sd	a1,64(s1)
    8020950e:	e4b0                	sd	a2,72(s1)
    80209510:	fa043503          	ld	a0,-96(s0)
    80209514:	fa843583          	ld	a1,-88(s0)
    80209518:	0124b023          	sd	s2,0(s1)
    8020951c:	0124b423          	sd	s2,8(s1)
    80209520:	e8a8                	sd	a0,80(s1)
    80209522:	ecac                	sd	a1,88(s1)
    80209524:	0604b023          	sd	zero,96(s1)
    80209528:	0784b423          	sd	s8,104(s1)
    8020952c:	0604b823          	sd	zero,112(s1)
    80209530:	0754bc23          	sd	s5,120(s1)
    80209534:	0974b023          	sd	s7,128(s1)

0000000080209538 <.Lpcrel_hi68>:
    80209538:	ffffb517          	auipc	a0,0xffffb
    8020953c:	ad450513          	addi	a0,a0,-1324 # 8020400c <trap_return>
    80209540:	e4c8                	sd	a0,136(s1)
    80209542:	0944b823          	sd	s4,144(s1)
    80209546:	09848513          	addi	a0,s1,152
    8020954a:	06000613          	li	a2,96
    8020954e:	4581                	li	a1,0
    80209550:	00004097          	auipc	ra,0x4
    80209554:	b9c080e7          	jalr	-1124(ra) # 8020d0ec <memset>
    80209558:	0f34bc23          	sd	s3,248(s1)
    8020955c:	1004a023          	sw	zero,256(s1)
    80209560:	10048223          	sb	zero,260(s1)
    80209564:	0124b52f          	amoadd.d	a0,s2,(s1)
    80209568:	0c054063          	bltz	a0,80209628 <.Lpcrel_hi61+0x1e>
    8020956c:	0709b903          	ld	s2,112(s3)
    80209570:	0609b503          	ld	a0,96(s3)
    80209574:	00a91863          	bne	s2,a0,80209584 <.Lpcrel_hi68+0x4c>
    80209578:	06098513          	addi	a0,s3,96
    8020957c:	ffffb097          	auipc	ra,0xffffb
    80209580:	406080e7          	jalr	1030(ra) # 80204982 <_ZN5alloc7raw_vec19RawVec$LT$T$C$A$GT$8grow_one17h2bc8d088edac8da0E>
    80209584:	0689b503          	ld	a0,104(s3)
    80209588:	00391593          	slli	a1,s2,0x3
    8020958c:	952e                	add	a0,a0,a1
    8020958e:	e104                	sd	s1,0(a0)
    80209590:	0905                	addi	s2,s2,1
    80209592:	0729b823          	sd	s2,112(s3)
    80209596:	557d                	li	a0,-1
    80209598:	f088                	sd	a0,32(s1)
    8020959a:	080a8863          	beqz	s5,8020962a <.Lpcrel_hi69>
    8020959e:	0ab2                	slli	s5,s5,0xc
    802095a0:	0204b023          	sd	zero,32(s1)
    802095a4:	114abc23          	sd	s4,280(s5)
    802095a8:	0209b503          	ld	a0,32(s3)
    802095ac:	0505                	addi	a0,a0,1
    802095ae:	02a9b023          	sd	a0,32(s3)
    802095b2:	8526                	mv	a0,s1
    802095b4:	60ae                	ld	ra,200(sp)
    802095b6:	640e                	ld	s0,192(sp)
    802095b8:	74ea                	ld	s1,184(sp)
    802095ba:	794a                	ld	s2,176(sp)
    802095bc:	79aa                	ld	s3,168(sp)
    802095be:	7a0a                	ld	s4,160(sp)
    802095c0:	6aea                	ld	s5,152(sp)
    802095c2:	6b4a                	ld	s6,144(sp)
    802095c4:	6baa                	ld	s7,136(sp)
    802095c6:	6c0a                	ld	s8,128(sp)
    802095c8:	6169                	addi	sp,sp,208
    802095ca:	8082                	ret

00000000802095cc <.Lpcrel_hi64>:
    802095cc:	0012e517          	auipc	a0,0x12e
    802095d0:	aac50513          	addi	a0,a0,-1364 # 80337078 <_ZN72_$LT$os..task..pid..PID_ALLOCATOR$u20$as$u20$core..ops..deref..Deref$GT$5deref11__stability4LAZY17h34a9ea5ae9c6611dE.llvm.7411291366835535865>
    802095d4:	ffffb097          	auipc	ra,0xffffb
    802095d8:	b2c080e7          	jalr	-1236(ra) # 80204100 <_ZN4spin4once17Once$LT$T$C$R$GT$18try_call_once_slow17h03859503446bdfc1E.llvm.18273212518176036961>
    802095dc:	6088                	ld	a0,0(s1)
    802095de:	e20505e3          	beqz	a0,80209408 <.Lpcrel_hi63+0x1c>

00000000802095e2 <.Lpcrel_hi65>:
    802095e2:	00006517          	auipc	a0,0x6
    802095e6:	d1650513          	addi	a0,a0,-746 # 8020f2f8 <anon.143638ba50f3ca5f2997057583b6f6e7.15.llvm.7411291366835535865>
    802095ea:	00001097          	auipc	ra,0x1
    802095ee:	cc6080e7          	jalr	-826(ra) # 8020a2b0 <_ZN4core4cell22panic_already_borrowed17h63023a1bd405c717E>
    802095f2:	ffffd097          	auipc	ra,0xffffd
    802095f6:	4aa080e7          	jalr	1194(ra) # 80206a9c <_ZN5alloc4sync16Arc$LT$T$C$A$GT$9downgrade18panic_cold_display17h2f1e0dddf020d748E.llvm.13289308715828321855>

00000000802095fa <.Lpcrel_hi62>:
    802095fa:	00007517          	auipc	a0,0x7
    802095fe:	af650513          	addi	a0,a0,-1290 # 802100f0 <.Lanon.915d3413da9ce189105a1b955b4cc825.11>
    80209602:	00001097          	auipc	ra,0x1
    80209606:	00e080e7          	jalr	14(ra) # 8020a610 <_ZN4core6option13unwrap_failed17h3c70806c841faa93E>

000000008020960a <.Lpcrel_hi61>:
    8020960a:	00006517          	auipc	a0,0x6
    8020960e:	cee50513          	addi	a0,a0,-786 # 8020f2f8 <anon.143638ba50f3ca5f2997057583b6f6e7.15.llvm.7411291366835535865>
    80209612:	00001097          	auipc	ra,0x1
    80209616:	c9e080e7          	jalr	-866(ra) # 8020a2b0 <_ZN4core4cell22panic_already_borrowed17h63023a1bd405c717E>
    8020961a:	4521                	li	a0,8
    8020961c:	10800593          	li	a1,264
    80209620:	00001097          	auipc	ra,0x1
    80209624:	acc080e7          	jalr	-1332(ra) # 8020a0ec <_ZN5alloc5alloc18handle_alloc_error17h712b744ef0f4e031E>
	...

000000008020962a <.Lpcrel_hi69>:
    8020962a:	00006517          	auipc	a0,0x6
    8020962e:	c4e50513          	addi	a0,a0,-946 # 8020f278 <anon.143638ba50f3ca5f2997057583b6f6e7.8.llvm.7411291366835535865>
    80209632:	00001097          	auipc	ra,0x1
    80209636:	fde080e7          	jalr	-34(ra) # 8020a610 <_ZN4core6option13unwrap_failed17h3c70806c841faa93E>

000000008020963a <__rust_alloc_error_handler>:
    8020963a:	ffffe317          	auipc	t1,0xffffe
    8020963e:	dea30067          	jr	-534(t1) # 80207424 <__rg_oom>

0000000080209642 <_ZN8xmas_elf7ElfFile3new17h1f205622b316dc1eE>:
    80209642:	1141                	addi	sp,sp,-16
    80209644:	e406                	sd	ra,8(sp)
    80209646:	e022                	sd	s0,0(sp)
    80209648:	0800                	addi	s0,sp,16
    8020964a:	46c1                	li	a3,16
    8020964c:	00d67963          	bgeu	a2,a3,8020965e <.Lpcrel_hi188+0xe>

0000000080209650 <.Lpcrel_hi188>:
    80209650:	00007597          	auipc	a1,0x7
    80209654:	c7658593          	addi	a1,a1,-906 # 802102c6 <anon.2daaa08d543ddbbf24f27de4b2c71e57.5.llvm.14139459409173654798>
    80209658:	02e00613          	li	a2,46
    8020965c:	a05d                	j	80209702 <.Lpcrel_hi190+0xa>
    8020965e:	0015c803          	lbu	a6,1(a1)
    80209662:	0005c703          	lbu	a4,0(a1)
    80209666:	0025c783          	lbu	a5,2(a1)
    8020966a:	00358683          	lb	a3,3(a1)
    8020966e:	0822                	slli	a6,a6,0x8
    80209670:	00e86733          	or	a4,a6,a4
    80209674:	07c2                	slli	a5,a5,0x10
    80209676:	06e2                	slli	a3,a3,0x18
    80209678:	8edd                	or	a3,a3,a5
    8020967a:	8ed9                	or	a3,a3,a4
    8020967c:	464c4737          	lui	a4,0x464c4
    80209680:	57f7071b          	addiw	a4,a4,1407 # 464c457f <$d.6+0x463fd724>
    80209684:	04e69163          	bne	a3,a4,802096c6 <.Lpcrel_hi189>
    80209688:	0045c683          	lbu	a3,4(a1)
    8020968c:	4709                	li	a4,2
    8020968e:	04e68263          	beq	a3,a4,802096d2 <.Lpcrel_hi189+0xc>
    80209692:	4705                	li	a4,1
    80209694:	06e69263          	bne	a3,a4,802096f8 <.Lpcrel_hi190>
    80209698:	03300693          	li	a3,51
    8020969c:	06c6fb63          	bgeu	a3,a2,80209712 <.Lpcrel_hi191>
    802096a0:	01058693          	addi	a3,a1,16
    802096a4:	0036f713          	andi	a4,a3,3
    802096a8:	cf1d                	beqz	a4,802096e6 <.Lpcrel_hi189+0x20>

00000000802096aa <.Lpcrel_hi192>:
    802096aa:	00007517          	auipc	a0,0x7
    802096ae:	b0650513          	addi	a0,a0,-1274 # 802101b0 <anon.ddd331bc7aeb7fcdd5f39f346974349c.10.llvm.2638887304132672435>

00000000802096b2 <.Lpcrel_hi193>:
    802096b2:	00007597          	auipc	a1,0x7
    802096b6:	b3e58613          	addi	a2,a1,-1218 # 802101f0 <anon.ddd331bc7aeb7fcdd5f39f346974349c.11.llvm.2638887304132672435>
    802096ba:	03a00593          	li	a1,58
    802096be:	00001097          	auipc	ra,0x1
    802096c2:	fc0080e7          	jalr	-64(ra) # 8020a67e <_ZN4core9panicking5panic17h14cc1607a430f055E>

00000000802096c6 <.Lpcrel_hi189>:
    802096c6:	00007597          	auipc	a1,0x7
    802096ca:	be358593          	addi	a1,a1,-1053 # 802102a9 <anon.2daaa08d543ddbbf24f27de4b2c71e57.4.llvm.14139459409173654798>
    802096ce:	4675                	li	a2,29
    802096d0:	a80d                	j	80209702 <.Lpcrel_hi190+0xa>
    802096d2:	03f00693          	li	a3,63
    802096d6:	04c6fa63          	bgeu	a3,a2,8020972a <.Lpcrel_hi194>
    802096da:	01058693          	addi	a3,a1,16
    802096de:	0076f793          	andi	a5,a3,7
    802096e2:	4705                	li	a4,1
    802096e4:	efb9                	bnez	a5,80209742 <.Lpcrel_hi195>
    802096e6:	e118                	sd	a4,0(a0)
    802096e8:	e514                	sd	a3,8(a0)
    802096ea:	e90c                	sd	a1,16(a0)
    802096ec:	ed0c                	sd	a1,24(a0)
    802096ee:	f110                	sd	a2,32(a0)
    802096f0:	60a2                	ld	ra,8(sp)
    802096f2:	6402                	ld	s0,0(sp)
    802096f4:	0141                	addi	sp,sp,16
    802096f6:	8082                	ret

00000000802096f8 <.Lpcrel_hi190>:
    802096f8:	00007597          	auipc	a1,0x7
    802096fc:	ba058593          	addi	a1,a1,-1120 # 80210298 <anon.2daaa08d543ddbbf24f27de4b2c71e57.3.llvm.14139459409173654798>
    80209700:	4645                	li	a2,17
    80209702:	e50c                	sd	a1,8(a0)
    80209704:	e910                	sd	a2,16(a0)
    80209706:	4589                	li	a1,2
    80209708:	e10c                	sd	a1,0(a0)
    8020970a:	60a2                	ld	ra,8(sp)
    8020970c:	6402                	ld	s0,0(sp)
    8020970e:	0141                	addi	sp,sp,16
    80209710:	8082                	ret

0000000080209712 <.Lpcrel_hi191>:
    80209712:	00007517          	auipc	a0,0x7
    80209716:	b5650693          	addi	a3,a0,-1194 # 80210268 <anon.2daaa08d543ddbbf24f27de4b2c71e57.1.llvm.14139459409173654798>
    8020971a:	03400513          	li	a0,52
    8020971e:	85b2                	mv	a1,a2
    80209720:	8636                	mv	a2,a3
    80209722:	00002097          	auipc	ra,0x2
    80209726:	5c4080e7          	jalr	1476(ra) # 8020bce6 <_ZN4core5slice5index24slice_end_index_len_fail17h4f74974912d1b932E>

000000008020972a <.Lpcrel_hi194>:
    8020972a:	00007517          	auipc	a0,0x7
    8020972e:	b5650693          	addi	a3,a0,-1194 # 80210280 <anon.2daaa08d543ddbbf24f27de4b2c71e57.2.llvm.14139459409173654798>
    80209732:	04000513          	li	a0,64
    80209736:	85b2                	mv	a1,a2
    80209738:	8636                	mv	a2,a3
    8020973a:	00002097          	auipc	ra,0x2
    8020973e:	5ac080e7          	jalr	1452(ra) # 8020bce6 <_ZN4core5slice5index24slice_end_index_len_fail17h4f74974912d1b932E>

0000000080209742 <.Lpcrel_hi195>:
    80209742:	00007517          	auipc	a0,0x7
    80209746:	a6e50513          	addi	a0,a0,-1426 # 802101b0 <anon.ddd331bc7aeb7fcdd5f39f346974349c.10.llvm.2638887304132672435>

000000008020974a <.Lpcrel_hi196>:
    8020974a:	00007597          	auipc	a1,0x7
    8020974e:	aa658613          	addi	a2,a1,-1370 # 802101f0 <anon.ddd331bc7aeb7fcdd5f39f346974349c.11.llvm.2638887304132672435>
    80209752:	03a00593          	li	a1,58
    80209756:	00001097          	auipc	ra,0x1
    8020975a:	f28080e7          	jalr	-216(ra) # 8020a67e <_ZN4core9panicking5panic17h14cc1607a430f055E>

000000008020975e <_ZN8xmas_elf7ElfFile14program_header17h49dc9f191633e312E>:
    8020975e:	1141                	addi	sp,sp,-16
    80209760:	e406                	sd	ra,8(sp)
    80209762:	e022                	sd	s0,0(sp)
    80209764:	0800                	addi	s0,sp,16
    80209766:	86ae                	mv	a3,a1
    80209768:	6d8c                	ld	a1,24(a1)
    8020976a:	7298                	ld	a4,32(a3)
    8020976c:	87b2                	mv	a5,a2
    8020976e:	863a                	mv	a2,a4
    80209770:	873e                	mv	a4,a5
    80209772:	00000097          	auipc	ra,0x0
    80209776:	010080e7          	jalr	16(ra) # 80209782 <_ZN8xmas_elf7program20parse_program_header17hed6c751ebc0f69edE>
    8020977a:	60a2                	ld	ra,8(sp)
    8020977c:	6402                	ld	s0,0(sp)
    8020977e:	0141                	addi	sp,sp,16
    80209780:	8082                	ret

0000000080209782 <_ZN8xmas_elf7program20parse_program_header17hed6c751ebc0f69edE>:
    80209782:	1141                	addi	sp,sp,-16
    80209784:	e406                	sd	ra,8(sp)
    80209786:	e022                	sd	s0,0(sp)
    80209788:	0800                	addi	s0,sp,16
    8020978a:	629c                	ld	a5,0(a3)
    8020978c:	0086b883          	ld	a7,8(a3)
    80209790:	1742                	slli	a4,a4,0x30
    80209792:	03075293          	srli	t0,a4,0x30
    80209796:	4771                	li	a4,28
    80209798:	c399                	beqz	a5,8020979e <_ZN8xmas_elf7program20parse_program_header17hed6c751ebc0f69edE+0x1c>
    8020979a:	02800713          	li	a4,40
    8020979e:	9746                	add	a4,a4,a7
    802097a0:	00075703          	lhu	a4,0(a4)
    802097a4:	02e2f763          	bgeu	t0,a4,802097d2 <.Lpcrel_hi18>
    802097a8:	c789                	beqz	a5,802097b2 <_ZN8xmas_elf7program20parse_program_header17hed6c751ebc0f69edE+0x30>
    802097aa:	0108b703          	ld	a4,16(a7)
    802097ae:	e709                	bnez	a4,802097b8 <_ZN8xmas_elf7program20parse_program_header17hed6c751ebc0f69edE+0x36>
    802097b0:	a00d                	j	802097d2 <.Lpcrel_hi18>
    802097b2:	00c8e703          	lwu	a4,12(a7)
    802097b6:	cf11                	beqz	a4,802097d2 <.Lpcrel_hi18>
    802097b8:	4769                	li	a4,26
    802097ba:	c399                	beqz	a5,802097c0 <_ZN8xmas_elf7program20parse_program_header17hed6c751ebc0f69edE+0x3e>
    802097bc:	02600713          	li	a4,38
    802097c0:	9746                	add	a4,a4,a7
    802097c2:	00075803          	lhu	a6,0(a4)
    802097c6:	00080663          	beqz	a6,802097d2 <.Lpcrel_hi18>
    802097ca:	c395                	beqz	a5,802097ee <.Lpcrel_hi18+0x1c>
    802097cc:	0108b883          	ld	a7,16(a7)
    802097d0:	a00d                	j	802097f2 <.Lpcrel_hi18+0x20>

00000000802097d2 <.Lpcrel_hi18>:
    802097d2:	00007597          	auipc	a1,0x7
    802097d6:	ba658593          	addi	a1,a1,-1114 # 80210378 <anon.8dab5bbfd15ae0019a78e6723869bcae.4.llvm.7727116897525391707>
    802097da:	e50c                	sd	a1,8(a0)
    802097dc:	02900593          	li	a1,41
    802097e0:	e90c                	sd	a1,16(a0)
    802097e2:	4585                	li	a1,1
    802097e4:	e10c                	sd	a1,0(a0)
    802097e6:	60a2                	ld	ra,8(sp)
    802097e8:	6402                	ld	s0,0(sp)
    802097ea:	0141                	addi	sp,sp,16
    802097ec:	8082                	ret
    802097ee:	00c8e883          	lwu	a7,12(a7)
    802097f2:	6a94                	ld	a3,16(a3)
    802097f4:	0046c783          	lbu	a5,4(a3)
    802097f8:	025806b3          	mul	a3,a6,t0
    802097fc:	96c6                	add	a3,a3,a7
    802097fe:	4889                	li	a7,2
    80209800:	010682b3          	add	t0,a3,a6
    80209804:	03178463          	beq	a5,a7,8020982c <.Lpcrel_hi18+0x5a>
    80209808:	4705                	li	a4,1
    8020980a:	04e79163          	bne	a5,a4,8020984c <.Lpcrel_hi31>
    8020980e:	04d2ed63          	bltu	t0,a3,80209868 <.Lpcrel_hi19>
    80209812:	06566f63          	bltu	a2,t0,80209890 <.Lpcrel_hi20>
    80209816:	467d                	li	a2,31
    80209818:	0b067263          	bgeu	a2,a6,802098bc <.Lpcrel_hi21>
    8020981c:	96ae                	add	a3,a3,a1
    8020981e:	0036f593          	andi	a1,a3,3
    80209822:	e9e9                	bnez	a1,802098f4 <.Lpcrel_hi23>
    80209824:	e914                	sd	a3,16(a0)
    80209826:	00053423          	sd	zero,8(a0)
    8020982a:	bf6d                	j	802097e4 <.Lpcrel_hi18+0x12>
    8020982c:	04d2e863          	bltu	t0,a3,8020987c <.Lpcrel_hi25>
    80209830:	06566b63          	bltu	a2,t0,802098a6 <.Lpcrel_hi26>
    80209834:	03700613          	li	a2,55
    80209838:	0b067063          	bgeu	a2,a6,802098d8 <.Lpcrel_hi27>
    8020983c:	96ae                	add	a3,a3,a1
    8020983e:	0076f593          	andi	a1,a3,7
    80209842:	e5f9                	bnez	a1,80209910 <.Lpcrel_hi29>
    80209844:	4605                	li	a2,1
    80209846:	e510                	sd	a2,8(a0)
    80209848:	e914                	sd	a3,16(a0)
    8020984a:	bf69                	j	802097e4 <.Lpcrel_hi18+0x12>

000000008020984c <.Lpcrel_hi31>:
    8020984c:	00007517          	auipc	a0,0x7
    80209850:	bec50513          	addi	a0,a0,-1044 # 80210438 <anon.8dab5bbfd15ae0019a78e6723869bcae.8.llvm.7727116897525391707>

0000000080209854 <.Lpcrel_hi32>:
    80209854:	00007597          	auipc	a1,0x7
    80209858:	c0c58613          	addi	a2,a1,-1012 # 80210460 <anon.8dab5bbfd15ae0019a78e6723869bcae.9.llvm.7727116897525391707>
    8020985c:	02800593          	li	a1,40
    80209860:	00001097          	auipc	ra,0x1
    80209864:	e1e080e7          	jalr	-482(ra) # 8020a67e <_ZN4core9panicking5panic17h14cc1607a430f055E>

0000000080209868 <.Lpcrel_hi19>:
    80209868:	00007517          	auipc	a0,0x7
    8020986c:	ba050613          	addi	a2,a0,-1120 # 80210408 <anon.8dab5bbfd15ae0019a78e6723869bcae.6.llvm.7727116897525391707>
    80209870:	8536                	mv	a0,a3
    80209872:	8596                	mv	a1,t0
    80209874:	00002097          	auipc	ra,0x2
    80209878:	4e2080e7          	jalr	1250(ra) # 8020bd56 <_ZN4core5slice5index22slice_index_order_fail17h883be29a657f36f8E>

000000008020987c <.Lpcrel_hi25>:
    8020987c:	00007517          	auipc	a0,0x7
    80209880:	ba450613          	addi	a2,a0,-1116 # 80210420 <anon.8dab5bbfd15ae0019a78e6723869bcae.7.llvm.7727116897525391707>
    80209884:	8536                	mv	a0,a3
    80209886:	8596                	mv	a1,t0
    80209888:	00002097          	auipc	ra,0x2
    8020988c:	4ce080e7          	jalr	1230(ra) # 8020bd56 <_ZN4core5slice5index22slice_index_order_fail17h883be29a657f36f8E>

0000000080209890 <.Lpcrel_hi20>:
    80209890:	00007517          	auipc	a0,0x7
    80209894:	b7850693          	addi	a3,a0,-1160 # 80210408 <anon.8dab5bbfd15ae0019a78e6723869bcae.6.llvm.7727116897525391707>
    80209898:	8516                	mv	a0,t0
    8020989a:	85b2                	mv	a1,a2
    8020989c:	8636                	mv	a2,a3
    8020989e:	00002097          	auipc	ra,0x2
    802098a2:	448080e7          	jalr	1096(ra) # 8020bce6 <_ZN4core5slice5index24slice_end_index_len_fail17h4f74974912d1b932E>

00000000802098a6 <.Lpcrel_hi26>:
    802098a6:	00007517          	auipc	a0,0x7
    802098aa:	b7a50693          	addi	a3,a0,-1158 # 80210420 <anon.8dab5bbfd15ae0019a78e6723869bcae.7.llvm.7727116897525391707>
    802098ae:	8516                	mv	a0,t0
    802098b0:	85b2                	mv	a1,a2
    802098b2:	8636                	mv	a2,a3
    802098b4:	00002097          	auipc	ra,0x2
    802098b8:	432080e7          	jalr	1074(ra) # 8020bce6 <_ZN4core5slice5index24slice_end_index_len_fail17h4f74974912d1b932E>

00000000802098bc <.Lpcrel_hi21>:
    802098bc:	00007517          	auipc	a0,0x7
    802098c0:	8a550513          	addi	a0,a0,-1883 # 80210161 <anon.ddd331bc7aeb7fcdd5f39f346974349c.8.llvm.2638887304132672435>

00000000802098c4 <.Lpcrel_hi22>:
    802098c4:	00007597          	auipc	a1,0x7
    802098c8:	8d458613          	addi	a2,a1,-1836 # 80210198 <anon.ddd331bc7aeb7fcdd5f39f346974349c.9.llvm.2638887304132672435>
    802098cc:	03400593          	li	a1,52
    802098d0:	00001097          	auipc	ra,0x1
    802098d4:	dae080e7          	jalr	-594(ra) # 8020a67e <_ZN4core9panicking5panic17h14cc1607a430f055E>

00000000802098d8 <.Lpcrel_hi27>:
    802098d8:	00007517          	auipc	a0,0x7
    802098dc:	88950513          	addi	a0,a0,-1911 # 80210161 <anon.ddd331bc7aeb7fcdd5f39f346974349c.8.llvm.2638887304132672435>

00000000802098e0 <.Lpcrel_hi28>:
    802098e0:	00007597          	auipc	a1,0x7
    802098e4:	8b858613          	addi	a2,a1,-1864 # 80210198 <anon.ddd331bc7aeb7fcdd5f39f346974349c.9.llvm.2638887304132672435>
    802098e8:	03400593          	li	a1,52
    802098ec:	00001097          	auipc	ra,0x1
    802098f0:	d92080e7          	jalr	-622(ra) # 8020a67e <_ZN4core9panicking5panic17h14cc1607a430f055E>

00000000802098f4 <.Lpcrel_hi23>:
    802098f4:	00007517          	auipc	a0,0x7
    802098f8:	8bc50513          	addi	a0,a0,-1860 # 802101b0 <anon.ddd331bc7aeb7fcdd5f39f346974349c.10.llvm.2638887304132672435>

00000000802098fc <.Lpcrel_hi24>:
    802098fc:	00007597          	auipc	a1,0x7
    80209900:	8f458613          	addi	a2,a1,-1804 # 802101f0 <anon.ddd331bc7aeb7fcdd5f39f346974349c.11.llvm.2638887304132672435>
    80209904:	03a00593          	li	a1,58
    80209908:	00001097          	auipc	ra,0x1
    8020990c:	d76080e7          	jalr	-650(ra) # 8020a67e <_ZN4core9panicking5panic17h14cc1607a430f055E>

0000000080209910 <.Lpcrel_hi29>:
    80209910:	00007517          	auipc	a0,0x7
    80209914:	8a050513          	addi	a0,a0,-1888 # 802101b0 <anon.ddd331bc7aeb7fcdd5f39f346974349c.10.llvm.2638887304132672435>

0000000080209918 <.Lpcrel_hi30>:
    80209918:	00007597          	auipc	a1,0x7
    8020991c:	8d858613          	addi	a2,a1,-1832 # 802101f0 <anon.ddd331bc7aeb7fcdd5f39f346974349c.11.llvm.2638887304132672435>
    80209920:	03a00593          	li	a1,58
    80209924:	00001097          	auipc	ra,0x1
    80209928:	d5a080e7          	jalr	-678(ra) # 8020a67e <_ZN4core9panicking5panic17h14cc1607a430f055E>

000000008020992c <_ZN8xmas_elf7program13ProgramHeader8get_type17h631d57fe87e2a30cE>:
    8020992c:	1141                	addi	sp,sp,-16
    8020992e:	e406                	sd	ra,8(sp)
    80209930:	e022                	sd	s0,0(sp)
    80209932:	0800                	addi	s0,sp,16
    80209934:	6190                	ld	a2,0(a1)
    80209936:	658c                	ld	a1,8(a1)
    80209938:	ce09                	beqz	a2,80209952 <.Lpcrel_hi35+0xe>
    8020993a:	418c                	lw	a1,0(a1)
    8020993c:	461d                	li	a2,7
    8020993e:	02b66963          	bltu	a2,a1,80209970 <.LBB6_5+0x6>
    80209942:	058e                	slli	a1,a1,0x3

0000000080209944 <.Lpcrel_hi35>:
    80209944:	00007617          	auipc	a2,0x7
    80209948:	9b460613          	addi	a2,a2,-1612 # 802102f8 <$d.8>
    8020994c:	95b2                	add	a1,a1,a2
    8020994e:	618c                	ld	a1,0(a1)
    80209950:	8582                	jr	a1
    80209952:	418c                	lw	a1,0(a1)
    80209954:	461d                	li	a2,7
    80209956:	06b66763          	bltu	a2,a1,802099c4 <.LBB6_16+0x6>
    8020995a:	058e                	slli	a1,a1,0x3

000000008020995c <.Lpcrel_hi33>:
    8020995c:	00007617          	auipc	a2,0x7
    80209960:	9dc60613          	addi	a2,a2,-1572 # 80210338 <.LJTI6_1>
    80209964:	95b2                	add	a1,a1,a2
    80209966:	618c                	ld	a1,0(a1)
    80209968:	8582                	jr	a1

000000008020996a <.LBB6_5>:
    8020996a:	00052423          	sw	zero,8(a0)
    8020996e:	a059                	j	802099f4 <.LBB6_16+0x36>
    80209970:	6474e637          	lui	a2,0x6474e
    80209974:	5526061b          	addiw	a2,a2,1362 # 6474e552 <$d.6+0x646876f7>
    80209978:	04c58c63          	beq	a1,a2,802099d0 <.LBB6_16+0x12>
    8020997c:	01c5d61b          	srliw	a2,a1,0x1c
    80209980:	4699                	li	a3,6
    80209982:	04d60f63          	beq	a2,a3,802099e0 <.LBB6_16+0x22>
    80209986:	70000637          	lui	a2,0x70000
    8020998a:	367d                	addiw	a2,a2,-1 # 6fffffff <$d.6+0x6ff391a4>
    8020998c:	06b64163          	blt	a2,a1,802099ee <.LBB6_16+0x30>

0000000080209990 <.Lpcrel_hi36>:
    80209990:	00007597          	auipc	a1,0x7
    80209994:	ae858593          	addi	a1,a1,-1304 # 80210478 <.Lanon.8dab5bbfd15ae0019a78e6723869bcae.12>
    80209998:	a885                	j	80209a08 <.Lpcrel_hi34+0x8>

000000008020999a <.LBB6_10>:
    8020999a:	4591                	li	a1,4
    8020999c:	c50c                	sw	a1,8(a0)
    8020999e:	a899                	j	802099f4 <.LBB6_16+0x36>

00000000802099a0 <.LBB6_11>:
    802099a0:	4589                	li	a1,2
    802099a2:	c50c                	sw	a1,8(a0)
    802099a4:	a881                	j	802099f4 <.LBB6_16+0x36>

00000000802099a6 <.LBB6_12>:
    802099a6:	458d                	li	a1,3
    802099a8:	c50c                	sw	a1,8(a0)
    802099aa:	a0a9                	j	802099f4 <.LBB6_16+0x36>

00000000802099ac <.LBB6_13>:
    802099ac:	459d                	li	a1,7
    802099ae:	c50c                	sw	a1,8(a0)
    802099b0:	a091                	j	802099f4 <.LBB6_16+0x36>

00000000802099b2 <.LBB6_14>:
    802099b2:	4585                	li	a1,1
    802099b4:	c50c                	sw	a1,8(a0)
    802099b6:	a83d                	j	802099f4 <.LBB6_16+0x36>

00000000802099b8 <.LBB6_15>:
    802099b8:	4595                	li	a1,5
    802099ba:	c50c                	sw	a1,8(a0)
    802099bc:	a825                	j	802099f4 <.LBB6_16+0x36>

00000000802099be <.LBB6_16>:
    802099be:	4599                	li	a1,6
    802099c0:	c50c                	sw	a1,8(a0)
    802099c2:	a80d                	j	802099f4 <.LBB6_16+0x36>
    802099c4:	6474e637          	lui	a2,0x6474e
    802099c8:	5526061b          	addiw	a2,a2,1362 # 6474e552 <$d.6+0x646876f7>
    802099cc:	00c59563          	bne	a1,a2,802099d6 <.LBB6_16+0x18>
    802099d0:	45a1                	li	a1,8
    802099d2:	c50c                	sw	a1,8(a0)
    802099d4:	a005                	j	802099f4 <.LBB6_16+0x36>
    802099d6:	01c5d61b          	srliw	a2,a1,0x1c
    802099da:	4699                	li	a3,6
    802099dc:	00d61463          	bne	a2,a3,802099e4 <.LBB6_16+0x26>
    802099e0:	4625                	li	a2,9
    802099e2:	a039                	j	802099f0 <.LBB6_16+0x32>
    802099e4:	70000637          	lui	a2,0x70000
    802099e8:	367d                	addiw	a2,a2,-1 # 6fffffff <$d.6+0x6ff391a4>
    802099ea:	00b65b63          	bge	a2,a1,80209a00 <.Lpcrel_hi34>
    802099ee:	4629                	li	a2,10
    802099f0:	c510                	sw	a2,8(a0)
    802099f2:	c54c                	sw	a1,12(a0)
    802099f4:	00053023          	sd	zero,0(a0)
    802099f8:	60a2                	ld	ra,8(sp)
    802099fa:	6402                	ld	s0,0(sp)
    802099fc:	0141                	addi	sp,sp,16
    802099fe:	8082                	ret

0000000080209a00 <.Lpcrel_hi34>:
    80209a00:	00007597          	auipc	a1,0x7
    80209a04:	a7858593          	addi	a1,a1,-1416 # 80210478 <.Lanon.8dab5bbfd15ae0019a78e6723869bcae.12>
    80209a08:	e10c                	sd	a1,0(a0)
    80209a0a:	45b1                	li	a1,12
    80209a0c:	e50c                	sd	a1,8(a0)
    80209a0e:	60a2                	ld	ra,8(sp)
    80209a10:	6402                	ld	s0,0(sp)
    80209a12:	0141                	addi	sp,sp,16
    80209a14:	8082                	ret

0000000080209a16 <_ZN22buddy_system_allocator4Heap4init17h9809b7aa78ce5d5dE>:
    80209a16:	1141                	addi	sp,sp,-16
    80209a18:	e406                	sd	ra,8(sp)
    80209a1a:	e022                	sd	s0,0(sp)
    80209a1c:	0800                	addi	s0,sp,16
    80209a1e:	962e                	add	a2,a2,a1
    80209a20:	059d                	addi	a1,a1,7
    80209a22:	ff85f793          	andi	a5,a1,-8
    80209a26:	ff867f93          	andi	t6,a2,-8
    80209a2a:	12ffe463          	bltu	t6,a5,80209b52 <.Lpcrel_hi40>
    80209a2e:	4701                	li	a4,0
    80209a30:	00878593          	addi	a1,a5,8
    80209a34:	0ebfeb63          	bltu	t6,a1,80209b2a <.Lpcrel_hi39+0xae>
    80209a38:	4805                	li	a6,1
    80209a3a:	48fd                	li	a7,31

0000000080209a3c <.Lpcrel_hi38>:
    80209a3c:	0011d597          	auipc	a1,0x11d
    80209a40:	d1c5b283          	ld	t0,-740(a1) # 80326758 <.LCPI14_0>
    80209a44:	555555b7          	lui	a1,0x55555
    80209a48:	5555831b          	addiw	t1,a1,1365 # 55555555 <$d.6+0x5548e6fa>
    80209a4c:	02031593          	slli	a1,t1,0x20
    80209a50:	932e                	add	t1,t1,a1
    80209a52:	333335b7          	lui	a1,0x33333
    80209a56:	33358f1b          	addiw	t5,a1,819 # 33333333 <$d.6+0x3326c4d8>
    80209a5a:	020f1593          	slli	a1,t5,0x20
    80209a5e:	9f2e                	add	t5,t5,a1
    80209a60:	0f0f15b7          	lui	a1,0xf0f1
    80209a64:	f0f5839b          	addiw	t2,a1,-241 # f0f0f0f <$d.6+0xf02a0b4>
    80209a68:	02039593          	slli	a1,t2,0x20
    80209a6c:	93ae                	add	t2,t2,a1
    80209a6e:	010105b7          	lui	a1,0x1010
    80209a72:	10158e1b          	addiw	t3,a1,257 # 1010101 <$d.6+0xf492a6>
    80209a76:	020e1593          	slli	a1,t3,0x20
    80209a7a:	9e2e                	add	t3,t3,a1

0000000080209a7c <.Lpcrel_hi39>:
    80209a7c:	00007597          	auipc	a1,0x7
    80209a80:	b4858e93          	addi	t4,a1,-1208 # 802105c4 <.LCPI14_1>
    80209a84:	40ff85b3          	sub	a1,t6,a5
    80209a88:	c9a9                	beqz	a1,80209ada <.Lpcrel_hi39+0x5e>
    80209a8a:	0015d693          	srli	a3,a1,0x1
    80209a8e:	8dd5                	or	a1,a1,a3
    80209a90:	0025d693          	srli	a3,a1,0x2
    80209a94:	8dd5                	or	a1,a1,a3
    80209a96:	0045d693          	srli	a3,a1,0x4
    80209a9a:	8dd5                	or	a1,a1,a3
    80209a9c:	0085d693          	srli	a3,a1,0x8
    80209aa0:	8dd5                	or	a1,a1,a3
    80209aa2:	0105d693          	srli	a3,a1,0x10
    80209aa6:	8dd5                	or	a1,a1,a3
    80209aa8:	0205d693          	srli	a3,a1,0x20
    80209aac:	8dd5                	or	a1,a1,a3
    80209aae:	fff5c593          	not	a1,a1
    80209ab2:	0015d693          	srli	a3,a1,0x1
    80209ab6:	0066f6b3          	and	a3,a3,t1
    80209aba:	8d95                	sub	a1,a1,a3
    80209abc:	01e5f6b3          	and	a3,a1,t5
    80209ac0:	8189                	srli	a1,a1,0x2
    80209ac2:	01e5f5b3          	and	a1,a1,t5
    80209ac6:	95b6                	add	a1,a1,a3
    80209ac8:	0045d693          	srli	a3,a1,0x4
    80209acc:	95b6                	add	a1,a1,a3
    80209ace:	0075f5b3          	and	a1,a1,t2
    80209ad2:	03c586b3          	mul	a3,a1,t3
    80209ad6:	92e1                	srli	a3,a3,0x38
    80209ad8:	a019                	j	80209ade <.Lpcrel_hi39+0x62>
    80209ada:	04000693          	li	a3,64
    80209ade:	40f005b3          	neg	a1,a5
    80209ae2:	8dfd                	and	a1,a1,a5
    80209ae4:	fff6c693          	not	a3,a3
    80209ae8:	00d816b3          	sll	a3,a6,a3
    80209aec:	00d5e363          	bltu	a1,a3,80209af2 <.Lpcrel_hi39+0x76>
    80209af0:	85b6                	mv	a1,a3
    80209af2:	cd89                	beqz	a1,80209b0c <.Lpcrel_hi39+0x90>
    80209af4:	40b006b3          	neg	a3,a1
    80209af8:	8eed                	and	a3,a3,a1
    80209afa:	025686b3          	mul	a3,a3,t0
    80209afe:	92e9                	srli	a3,a3,0x3a
    80209b00:	96f6                	add	a3,a3,t4
    80209b02:	0006c683          	lbu	a3,0(a3)
    80209b06:	00d8f763          	bgeu	a7,a3,80209b14 <.Lpcrel_hi39+0x98>
    80209b0a:	a80d                	j	80209b3c <.Lpcrel_hi42>
    80209b0c:	04000693          	li	a3,64
    80209b10:	02d8e663          	bltu	a7,a3,80209b3c <.Lpcrel_hi42>
    80209b14:	068e                	slli	a3,a3,0x3
    80209b16:	96aa                	add	a3,a3,a0
    80209b18:	6290                	ld	a2,0(a3)
    80209b1a:	e390                	sd	a2,0(a5)
    80209b1c:	e29c                	sd	a5,0(a3)
    80209b1e:	97ae                	add	a5,a5,a1
    80209b20:	00878613          	addi	a2,a5,8
    80209b24:	972e                	add	a4,a4,a1
    80209b26:	f4cfffe3          	bgeu	t6,a2,80209a84 <.Lpcrel_hi39+0x8>
    80209b2a:	11053583          	ld	a1,272(a0)
    80209b2e:	95ba                	add	a1,a1,a4
    80209b30:	10b53823          	sd	a1,272(a0)
    80209b34:	60a2                	ld	ra,8(sp)
    80209b36:	6402                	ld	s0,0(sp)
    80209b38:	0141                	addi	sp,sp,16
    80209b3a:	8082                	ret

0000000080209b3c <.Lpcrel_hi42>:
    80209b3c:	00007517          	auipc	a0,0x7
    80209b40:	bec50613          	addi	a2,a0,-1044 # 80210728 <.Lanon.87cbbf492c6581cd2ae797dc4d80c4c2.16>
    80209b44:	02000593          	li	a1,32
    80209b48:	8536                	mv	a0,a3
    80209b4a:	00001097          	auipc	ra,0x1
    80209b4e:	bb4080e7          	jalr	-1100(ra) # 8020a6fe <_ZN4core9panicking18panic_bounds_check17h087f2837af3bd59aE>

0000000080209b52 <.Lpcrel_hi40>:
    80209b52:	00007517          	auipc	a0,0x7
    80209b56:	b3250513          	addi	a0,a0,-1230 # 80210684 <.Lanon.87cbbf492c6581cd2ae797dc4d80c4c2.6>

0000000080209b5a <.Lpcrel_hi41>:
    80209b5a:	00007597          	auipc	a1,0x7
    80209b5e:	bb658613          	addi	a2,a1,-1098 # 80210710 <.Lanon.87cbbf492c6581cd2ae797dc4d80c4c2.15>
    80209b62:	45f9                	li	a1,30
    80209b64:	00001097          	auipc	ra,0x1
    80209b68:	b1a080e7          	jalr	-1254(ra) # 8020a67e <_ZN4core9panicking5panic17h14cc1607a430f055E>

0000000080209b6c <_ZN22buddy_system_allocator4Heap5alloc17h257fdeef84e2bdd8E>:
    80209b6c:	1141                	addi	sp,sp,-16
    80209b6e:	e406                	sd	ra,8(sp)
    80209b70:	e022                	sd	s0,0(sp)
    80209b72:	0800                	addi	s0,sp,16
    80209b74:	4685                	li	a3,1
    80209b76:	0cc6e663          	bltu	a3,a2,80209c42 <.Lpcrel_hi44+0xa8>
    80209b7a:	14b6fd63          	bgeu	a3,a1,80209cd4 <.Lpcrel_hi44+0x13a>
    80209b7e:	46a1                	li	a3,8
    80209b80:	00b6e363          	bltu	a3,a1,80209b86 <.Lpcrel_hi43>
    80209b84:	45a1                	li	a1,8

0000000080209b86 <.Lpcrel_hi43>:
    80209b86:	0011d697          	auipc	a3,0x11d
    80209b8a:	bda6b683          	ld	a3,-1062(a3) # 80326760 <.LCPI15_0>
    80209b8e:	40b00733          	neg	a4,a1
    80209b92:	8f6d                	and	a4,a4,a1
    80209b94:	02d706b3          	mul	a3,a4,a3
    80209b98:	92e9                	srli	a3,a3,0x3a

0000000080209b9a <.Lpcrel_hi44>:
    80209b9a:	00007717          	auipc	a4,0x7
    80209b9e:	a6a70713          	addi	a4,a4,-1430 # 80210604 <.LCPI15_1>
    80209ba2:	96ba                	add	a3,a3,a4
    80209ba4:	0006c883          	lbu	a7,0(a3)
    80209ba8:	02000693          	li	a3,32
    80209bac:	82c6                	mv	t0,a7
    80209bae:	0116e463          	bltu	a3,a7,80209bb6 <.Lpcrel_hi44+0x1c>
    80209bb2:	02000293          	li	t0,32
    80209bb6:	00389813          	slli	a6,a7,0x3
    80209bba:	982a                	add	a6,a6,a0
    80209bbc:	ff080793          	addi	a5,a6,-16
    80209bc0:	8746                	mv	a4,a7
    80209bc2:	06e28a63          	beq	t0,a4,80209c36 <.Lpcrel_hi44+0x9c>
    80209bc6:	0107bf03          	ld	t5,16(a5)
    80209bca:	0705                	addi	a4,a4,1
    80209bcc:	07a1                	addi	a5,a5,8
    80209bce:	fe0f0ae3          	beqz	t5,80209bc2 <.Lpcrel_hi44+0x28>
    80209bd2:	fff70693          	addi	a3,a4,-1
    80209bd6:	02d8fc63          	bgeu	a7,a3,80209c0e <.Lpcrel_hi44+0x74>
    80209bda:	000f3e03          	ld	t3,0(t5)
    80209bde:	00188293          	addi	t0,a7,1
    80209be2:	437d                	li	t1,31
    80209be4:	4385                	li	t2,1
    80209be6:	ffe70e93          	addi	t4,a4,-2
    80209bea:	01c7b423          	sd	t3,8(a5)
    80209bee:	0fd36863          	bltu	t1,t4,80209cde <.Lpcrel_hi48>
    80209bf2:	6394                	ld	a3,0(a5)
    80209bf4:	177d                	addi	a4,a4,-1
    80209bf6:	01d39e33          	sll	t3,t2,t4
    80209bfa:	9e7a                	add	t3,t3,t5
    80209bfc:	00de3023          	sd	a3,0(t3)
    80209c00:	01cf3023          	sd	t3,0(t5)
    80209c04:	01e7b023          	sd	t5,0(a5)
    80209c08:	17e1                	addi	a5,a5,-8
    80209c0a:	fce2eee3          	bltu	t0,a4,80209be6 <.Lpcrel_hi44+0x4c>
    80209c0e:	46fd                	li	a3,31
    80209c10:	0f16e263          	bltu	a3,a7,80209cf4 <.Lpcrel_hi45>
    80209c14:	00083683          	ld	a3,0(a6)
    80209c18:	caed                	beqz	a3,80209d0a <.Lpcrel_hi46>
    80209c1a:	6298                	ld	a4,0(a3)
    80209c1c:	00e83023          	sd	a4,0(a6)
    80209c20:	10053703          	ld	a4,256(a0)
    80209c24:	10853783          	ld	a5,264(a0)
    80209c28:	963a                	add	a2,a2,a4
    80209c2a:	10c53023          	sd	a2,256(a0)
    80209c2e:	95be                	add	a1,a1,a5
    80209c30:	10b53423          	sd	a1,264(a0)
    80209c34:	a011                	j	80209c38 <.Lpcrel_hi44+0x9e>
    80209c36:	4681                	li	a3,0
    80209c38:	8536                	mv	a0,a3
    80209c3a:	60a2                	ld	ra,8(sp)
    80209c3c:	6402                	ld	s0,0(sp)
    80209c3e:	0141                	addi	sp,sp,16
    80209c40:	8082                	ret
    80209c42:	fff60693          	addi	a3,a2,-1
    80209c46:	0016d713          	srli	a4,a3,0x1
    80209c4a:	8ed9                	or	a3,a3,a4
    80209c4c:	0026d713          	srli	a4,a3,0x2
    80209c50:	8ed9                	or	a3,a3,a4
    80209c52:	0046d713          	srli	a4,a3,0x4
    80209c56:	8ed9                	or	a3,a3,a4
    80209c58:	0086d713          	srli	a4,a3,0x8
    80209c5c:	8ed9                	or	a3,a3,a4
    80209c5e:	0106d713          	srli	a4,a3,0x10
    80209c62:	8ed9                	or	a3,a3,a4
    80209c64:	0206d713          	srli	a4,a3,0x20
    80209c68:	8ed9                	or	a3,a3,a4
    80209c6a:	fff6c693          	not	a3,a3
    80209c6e:	0016d813          	srli	a6,a3,0x1
    80209c72:	555557b7          	lui	a5,0x55555
    80209c76:	5557871b          	addiw	a4,a5,1365 # 55555555 <$d.6+0x5548e6fa>
    80209c7a:	02071793          	slli	a5,a4,0x20
    80209c7e:	973e                	add	a4,a4,a5
    80209c80:	00e87733          	and	a4,a6,a4
    80209c84:	8e99                	sub	a3,a3,a4
    80209c86:	33333737          	lui	a4,0x33333
    80209c8a:	3337071b          	addiw	a4,a4,819 # 33333333 <$d.6+0x3326c4d8>
    80209c8e:	02071793          	slli	a5,a4,0x20
    80209c92:	973e                	add	a4,a4,a5
    80209c94:	00e6f7b3          	and	a5,a3,a4
    80209c98:	8289                	srli	a3,a3,0x2
    80209c9a:	8ef9                	and	a3,a3,a4
    80209c9c:	96be                	add	a3,a3,a5
    80209c9e:	0046d713          	srli	a4,a3,0x4
    80209ca2:	96ba                	add	a3,a3,a4
    80209ca4:	0f0f1737          	lui	a4,0xf0f1
    80209ca8:	f0f7071b          	addiw	a4,a4,-241 # f0f0f0f <$d.6+0xf02a0b4>
    80209cac:	02071793          	slli	a5,a4,0x20
    80209cb0:	973e                	add	a4,a4,a5
    80209cb2:	8ef9                	and	a3,a3,a4
    80209cb4:	01010737          	lui	a4,0x1010
    80209cb8:	1017071b          	addiw	a4,a4,257 # 1010101 <$d.6+0xf492a6>
    80209cbc:	02071793          	slli	a5,a4,0x20
    80209cc0:	973e                	add	a4,a4,a5
    80209cc2:	02e686b3          	mul	a3,a3,a4
    80209cc6:	92e1                	srli	a3,a3,0x38
    80209cc8:	577d                	li	a4,-1
    80209cca:	00d756b3          	srl	a3,a4,a3
    80209cce:	0685                	addi	a3,a3,1
    80209cd0:	eab6e7e3          	bltu	a3,a1,80209b7e <_ZN22buddy_system_allocator4Heap5alloc17h257fdeef84e2bdd8E+0x12>
    80209cd4:	85b6                	mv	a1,a3
    80209cd6:	46a1                	li	a3,8
    80209cd8:	eab6f6e3          	bgeu	a3,a1,80209b84 <_ZN22buddy_system_allocator4Heap5alloc17h257fdeef84e2bdd8E+0x18>
    80209cdc:	b56d                	j	80209b86 <.Lpcrel_hi43>

0000000080209cde <.Lpcrel_hi48>:
    80209cde:	00007517          	auipc	a0,0x7
    80209ce2:	aba50613          	addi	a2,a0,-1350 # 80210798 <.Lanon.87cbbf492c6581cd2ae797dc4d80c4c2.20>
    80209ce6:	557d                	li	a0,-1
    80209ce8:	02000593          	li	a1,32
    80209cec:	00001097          	auipc	ra,0x1
    80209cf0:	a12080e7          	jalr	-1518(ra) # 8020a6fe <_ZN4core9panicking18panic_bounds_check17h087f2837af3bd59aE>

0000000080209cf4 <.Lpcrel_hi45>:
    80209cf4:	00007517          	auipc	a0,0x7
    80209cf8:	a7450613          	addi	a2,a0,-1420 # 80210768 <.Lanon.87cbbf492c6581cd2ae797dc4d80c4c2.18>
    80209cfc:	02000593          	li	a1,32
    80209d00:	8546                	mv	a0,a7
    80209d02:	00001097          	auipc	ra,0x1
    80209d06:	9fc080e7          	jalr	-1540(ra) # 8020a6fe <_ZN4core9panicking18panic_bounds_check17h087f2837af3bd59aE>

0000000080209d0a <.Lpcrel_hi46>:
    80209d0a:	00007517          	auipc	a0,0x7
    80209d0e:	a3650513          	addi	a0,a0,-1482 # 80210740 <.Lanon.87cbbf492c6581cd2ae797dc4d80c4c2.17>

0000000080209d12 <.Lpcrel_hi47>:
    80209d12:	00007597          	auipc	a1,0x7
    80209d16:	a6e58613          	addi	a2,a1,-1426 # 80210780 <.Lanon.87cbbf492c6581cd2ae797dc4d80c4c2.19>
    80209d1a:	02800593          	li	a1,40
    80209d1e:	00001097          	auipc	ra,0x1
    80209d22:	910080e7          	jalr	-1776(ra) # 8020a62e <_ZN4core6option13expect_failed17h9c04eca4fce6b8afE>

0000000080209d26 <_ZN22buddy_system_allocator4Heap7dealloc17h8040d8d64c75268cE>:
    80209d26:	1141                	addi	sp,sp,-16
    80209d28:	e406                	sd	ra,8(sp)
    80209d2a:	e022                	sd	s0,0(sp)
    80209d2c:	0800                	addi	s0,sp,16
    80209d2e:	4705                	li	a4,1
    80209d30:	0ad76f63          	bltu	a4,a3,80209dee <.Lpcrel_hi50+0x9a>
    80209d34:	14c77a63          	bgeu	a4,a2,80209e88 <.Lpcrel_hi50+0x134>
    80209d38:	4721                	li	a4,8
    80209d3a:	00c76363          	bltu	a4,a2,80209d40 <.Lpcrel_hi49>
    80209d3e:	4621                	li	a2,8

0000000080209d40 <.Lpcrel_hi49>:
    80209d40:	0011d717          	auipc	a4,0x11d
    80209d44:	a2873703          	ld	a4,-1496(a4) # 80326768 <.LCPI16_0>
    80209d48:	40c007b3          	neg	a5,a2
    80209d4c:	8ff1                	and	a5,a5,a2
    80209d4e:	02e78733          	mul	a4,a5,a4
    80209d52:	9369                	srli	a4,a4,0x3a

0000000080209d54 <.Lpcrel_hi50>:
    80209d54:	00007797          	auipc	a5,0x7
    80209d58:	8f078793          	addi	a5,a5,-1808 # 80210644 <.LCPI16_1>
    80209d5c:	973e                	add	a4,a4,a5
    80209d5e:	00074383          	lbu	t2,0(a4)
    80209d62:	48fd                	li	a7,31
    80209d64:	1478e363          	bltu	a7,t2,80209eaa <.Lpcrel_hi51>
    80209d68:	00339713          	slli	a4,t2,0x3
    80209d6c:	972a                	add	a4,a4,a0
    80209d6e:	631c                	ld	a5,0(a4)
    80209d70:	e19c                	sd	a5,0(a1)
    80209d72:	e30c                	sd	a1,0(a4)
    80209d74:	4705                	li	a4,1
    80209d76:	00771333          	sll	t1,a4,t2
    80209d7a:	00b34eb3          	xor	t4,t1,a1
    80209d7e:	4809                	li	a6,2
    80209d80:	82ae                	mv	t0,a1
    80209d82:	00339e13          	slli	t3,t2,0x3
    80209d86:	9e2a                	add	t3,t3,a0
    80209d88:	8772                	mv	a4,t3
    80209d8a:	00be8863          	beq	t4,a1,80209d9a <.Lpcrel_hi50+0x46>
    80209d8e:	c3b1                	beqz	a5,80209dd2 <.Lpcrel_hi50+0x7e>
    80209d90:	872e                	mv	a4,a1
    80209d92:	85be                	mv	a1,a5
    80209d94:	639c                	ld	a5,0(a5)
    80209d96:	febe9ce3          	bne	t4,a1,80209d8e <.Lpcrel_hi50+0x3a>
    80209d9a:	e31c                	sd	a5,0(a4)
    80209d9c:	000e3583          	ld	a1,0(t3)
    80209da0:	c581                	beqz	a1,80209da8 <.Lpcrel_hi50+0x54>
    80209da2:	618c                	ld	a1,0(a1)
    80209da4:	00be3023          	sd	a1,0(t3)
    80209da8:	0f138563          	beq	t2,a7,80209e92 <.Lpcrel_hi52>
    80209dac:	00138e13          	addi	t3,t2,1
    80209db0:	003e1593          	slli	a1,t3,0x3
    80209db4:	00b50733          	add	a4,a0,a1
    80209db8:	631c                	ld	a5,0(a4)
    80209dba:	fff34593          	not	a1,t1
    80209dbe:	00781333          	sll	t1,a6,t2
    80209dc2:	00b2f5b3          	and	a1,t0,a1
    80209dc6:	e19c                	sd	a5,0(a1)
    80209dc8:	e30c                	sd	a1,0(a4)
    80209dca:	0065ceb3          	xor	t4,a1,t1
    80209dce:	83f2                	mv	t2,t3
    80209dd0:	bf45                	j	80209d80 <.Lpcrel_hi50+0x2c>
    80209dd2:	10053583          	ld	a1,256(a0)
    80209dd6:	10853703          	ld	a4,264(a0)
    80209dda:	8d95                	sub	a1,a1,a3
    80209ddc:	10b53023          	sd	a1,256(a0)
    80209de0:	8f11                	sub	a4,a4,a2
    80209de2:	10e53423          	sd	a4,264(a0)
    80209de6:	60a2                	ld	ra,8(sp)
    80209de8:	6402                	ld	s0,0(sp)
    80209dea:	0141                	addi	sp,sp,16
    80209dec:	8082                	ret
    80209dee:	fff68713          	addi	a4,a3,-1
    80209df2:	00175793          	srli	a5,a4,0x1
    80209df6:	8f5d                	or	a4,a4,a5
    80209df8:	00275793          	srli	a5,a4,0x2
    80209dfc:	8f5d                	or	a4,a4,a5
    80209dfe:	00475793          	srli	a5,a4,0x4
    80209e02:	8f5d                	or	a4,a4,a5
    80209e04:	00875793          	srli	a5,a4,0x8
    80209e08:	8f5d                	or	a4,a4,a5
    80209e0a:	01075793          	srli	a5,a4,0x10
    80209e0e:	8f5d                	or	a4,a4,a5
    80209e10:	02075793          	srli	a5,a4,0x20
    80209e14:	8f5d                	or	a4,a4,a5
    80209e16:	fff74893          	not	a7,a4
    80209e1a:	0018d813          	srli	a6,a7,0x1
    80209e1e:	555557b7          	lui	a5,0x55555
    80209e22:	5557871b          	addiw	a4,a5,1365 # 55555555 <$d.6+0x5548e6fa>
    80209e26:	02071793          	slli	a5,a4,0x20
    80209e2a:	973e                	add	a4,a4,a5
    80209e2c:	00e87733          	and	a4,a6,a4
    80209e30:	40e88833          	sub	a6,a7,a4
    80209e34:	333337b7          	lui	a5,0x33333
    80209e38:	3337871b          	addiw	a4,a5,819 # 33333333 <$d.6+0x3326c4d8>
    80209e3c:	02071793          	slli	a5,a4,0x20
    80209e40:	973e                	add	a4,a4,a5
    80209e42:	00e878b3          	and	a7,a6,a4
    80209e46:	00285793          	srli	a5,a6,0x2
    80209e4a:	8f7d                	and	a4,a4,a5
    80209e4c:	9746                	add	a4,a4,a7
    80209e4e:	00475793          	srli	a5,a4,0x4
    80209e52:	00f70833          	add	a6,a4,a5
    80209e56:	0f0f17b7          	lui	a5,0xf0f1
    80209e5a:	f0f7871b          	addiw	a4,a5,-241 # f0f0f0f <$d.6+0xf02a0b4>
    80209e5e:	02071793          	slli	a5,a4,0x20
    80209e62:	973e                	add	a4,a4,a5
    80209e64:	00e87833          	and	a6,a6,a4
    80209e68:	010107b7          	lui	a5,0x1010
    80209e6c:	1017871b          	addiw	a4,a5,257 # 1010101 <$d.6+0xf492a6>
    80209e70:	02071793          	slli	a5,a4,0x20
    80209e74:	973e                	add	a4,a4,a5
    80209e76:	02e80733          	mul	a4,a6,a4
    80209e7a:	9361                	srli	a4,a4,0x38
    80209e7c:	57fd                	li	a5,-1
    80209e7e:	00e7d733          	srl	a4,a5,a4
    80209e82:	0705                	addi	a4,a4,1
    80209e84:	eac76ae3          	bltu	a4,a2,80209d38 <_ZN22buddy_system_allocator4Heap7dealloc17h8040d8d64c75268cE+0x12>
    80209e88:	863a                	mv	a2,a4
    80209e8a:	4721                	li	a4,8
    80209e8c:	eac779e3          	bgeu	a4,a2,80209d3e <_ZN22buddy_system_allocator4Heap7dealloc17h8040d8d64c75268cE+0x18>
    80209e90:	bd45                	j	80209d40 <.Lpcrel_hi49>

0000000080209e92 <.Lpcrel_hi52>:
    80209e92:	00007517          	auipc	a0,0x7
    80209e96:	93650613          	addi	a2,a0,-1738 # 802107c8 <.Lanon.87cbbf492c6581cd2ae797dc4d80c4c2.22>
    80209e9a:	02000513          	li	a0,32
    80209e9e:	02000593          	li	a1,32
    80209ea2:	00001097          	auipc	ra,0x1
    80209ea6:	85c080e7          	jalr	-1956(ra) # 8020a6fe <_ZN4core9panicking18panic_bounds_check17h087f2837af3bd59aE>

0000000080209eaa <.Lpcrel_hi51>:
    80209eaa:	00007517          	auipc	a0,0x7
    80209eae:	90650613          	addi	a2,a0,-1786 # 802107b0 <.Lanon.87cbbf492c6581cd2ae797dc4d80c4c2.21>
    80209eb2:	02000593          	li	a1,32
    80209eb6:	851e                	mv	a0,t2
    80209eb8:	00001097          	auipc	ra,0x1
    80209ebc:	846080e7          	jalr	-1978(ra) # 8020a6fe <_ZN4core9panicking18panic_bounds_check17h087f2837af3bd59aE>

0000000080209ec0 <_ZN87_$LT$buddy_system_allocator..LockedHeap$u20$as$u20$core..alloc..global..GlobalAlloc$GT$5alloc17h3b694276a2754c9bE>:
    80209ec0:	1101                	addi	sp,sp,-32
    80209ec2:	ec06                	sd	ra,24(sp)
    80209ec4:	e822                	sd	s0,16(sp)
    80209ec6:	e426                	sd	s1,8(sp)
    80209ec8:	e04a                	sd	s2,0(sp)
    80209eca:	1000                	addi	s0,sp,32
    80209ecc:	84aa                	mv	s1,a0
    80209ece:	4505                	li	a0,1
    80209ed0:	00a4b92f          	amoadd.d	s2,a0,(s1)
    80209ed4:	6488                	ld	a0,8(s1)
    80209ed6:	0230000f          	fence	r,rw
    80209eda:	01250963          	beq	a0,s2,80209eec <_ZN87_$LT$buddy_system_allocator..LockedHeap$u20$as$u20$core..alloc..global..GlobalAlloc$GT$5alloc17h3b694276a2754c9bE+0x2c>
    80209ede:	0100000f          	fence	w,unknown
    80209ee2:	6488                	ld	a0,8(s1)
    80209ee4:	0230000f          	fence	r,rw
    80209ee8:	ff251be3          	bne	a0,s2,80209ede <_ZN87_$LT$buddy_system_allocator..LockedHeap$u20$as$u20$core..alloc..global..GlobalAlloc$GT$5alloc17h3b694276a2754c9bE+0x1e>
    80209eec:	01048513          	addi	a0,s1,16
    80209ef0:	00000097          	auipc	ra,0x0
    80209ef4:	c7c080e7          	jalr	-900(ra) # 80209b6c <_ZN22buddy_system_allocator4Heap5alloc17h257fdeef84e2bdd8E>
    80209ef8:	0905                	addi	s2,s2,1
    80209efa:	0310000f          	fence	rw,w
    80209efe:	0124b423          	sd	s2,8(s1)
    80209f02:	60e2                	ld	ra,24(sp)
    80209f04:	6442                	ld	s0,16(sp)
    80209f06:	64a2                	ld	s1,8(sp)
    80209f08:	6902                	ld	s2,0(sp)
    80209f0a:	6105                	addi	sp,sp,32
    80209f0c:	8082                	ret

0000000080209f0e <_ZN87_$LT$buddy_system_allocator..LockedHeap$u20$as$u20$core..alloc..global..GlobalAlloc$GT$7dealloc17h5e5f6d74b20ea42eE>:
    80209f0e:	1101                	addi	sp,sp,-32
    80209f10:	ec06                	sd	ra,24(sp)
    80209f12:	e822                	sd	s0,16(sp)
    80209f14:	e426                	sd	s1,8(sp)
    80209f16:	e04a                	sd	s2,0(sp)
    80209f18:	1000                	addi	s0,sp,32
    80209f1a:	84aa                	mv	s1,a0
    80209f1c:	4505                	li	a0,1
    80209f1e:	00a4b92f          	amoadd.d	s2,a0,(s1)
    80209f22:	6488                	ld	a0,8(s1)
    80209f24:	0230000f          	fence	r,rw
    80209f28:	01250963          	beq	a0,s2,80209f3a <_ZN87_$LT$buddy_system_allocator..LockedHeap$u20$as$u20$core..alloc..global..GlobalAlloc$GT$7dealloc17h5e5f6d74b20ea42eE+0x2c>
    80209f2c:	0100000f          	fence	w,unknown
    80209f30:	6488                	ld	a0,8(s1)
    80209f32:	0230000f          	fence	r,rw
    80209f36:	ff251be3          	bne	a0,s2,80209f2c <_ZN87_$LT$buddy_system_allocator..LockedHeap$u20$as$u20$core..alloc..global..GlobalAlloc$GT$7dealloc17h5e5f6d74b20ea42eE+0x1e>
    80209f3a:	01048513          	addi	a0,s1,16
    80209f3e:	00000097          	auipc	ra,0x0
    80209f42:	de8080e7          	jalr	-536(ra) # 80209d26 <_ZN22buddy_system_allocator4Heap7dealloc17h8040d8d64c75268cE>
    80209f46:	0905                	addi	s2,s2,1
    80209f48:	0310000f          	fence	rw,w
    80209f4c:	0124b423          	sd	s2,8(s1)
    80209f50:	60e2                	ld	ra,24(sp)
    80209f52:	6442                	ld	s0,16(sp)
    80209f54:	64a2                	ld	s1,8(sp)
    80209f56:	6902                	ld	s2,0(sp)
    80209f58:	6105                	addi	sp,sp,32
    80209f5a:	8082                	ret

0000000080209f5c <_ZN4core3ptr35drop_in_place$LT$log..NopLogger$GT$17h6d4bfdfaf242b88dE>:
    80209f5c:	1141                	addi	sp,sp,-16
    80209f5e:	e406                	sd	ra,8(sp)
    80209f60:	e022                	sd	s0,0(sp)
    80209f62:	0800                	addi	s0,sp,16
    80209f64:	60a2                	ld	ra,8(sp)
    80209f66:	6402                	ld	s0,0(sp)
    80209f68:	0141                	addi	sp,sp,16
    80209f6a:	8082                	ret

0000000080209f6c <_ZN43_$LT$log..NopLogger$u20$as$u20$log..Log$GT$7enabled17hf2b5808336484930E>:
    80209f6c:	1141                	addi	sp,sp,-16
    80209f6e:	e406                	sd	ra,8(sp)
    80209f70:	e022                	sd	s0,0(sp)
    80209f72:	0800                	addi	s0,sp,16
    80209f74:	4501                	li	a0,0
    80209f76:	60a2                	ld	ra,8(sp)
    80209f78:	6402                	ld	s0,0(sp)
    80209f7a:	0141                	addi	sp,sp,16
    80209f7c:	8082                	ret

0000000080209f7e <_ZN43_$LT$log..NopLogger$u20$as$u20$log..Log$GT$3log17hbf49c43e415b7fdcE>:
    80209f7e:	1141                	addi	sp,sp,-16
    80209f80:	e406                	sd	ra,8(sp)
    80209f82:	e022                	sd	s0,0(sp)
    80209f84:	0800                	addi	s0,sp,16
    80209f86:	60a2                	ld	ra,8(sp)
    80209f88:	6402                	ld	s0,0(sp)
    80209f8a:	0141                	addi	sp,sp,16
    80209f8c:	8082                	ret

0000000080209f8e <_ZN43_$LT$log..NopLogger$u20$as$u20$log..Log$GT$5flush17h3efa17f107578c25E>:
    80209f8e:	1141                	addi	sp,sp,-16
    80209f90:	e406                	sd	ra,8(sp)
    80209f92:	e022                	sd	s0,0(sp)
    80209f94:	0800                	addi	s0,sp,16
    80209f96:	60a2                	ld	ra,8(sp)
    80209f98:	6402                	ld	s0,0(sp)
    80209f9a:	0141                	addi	sp,sp,16
    80209f9c:	8082                	ret

0000000080209f9e <_ZN3log13__private_api8log_impl17hdbe05055724c6cbbE>:
    80209f9e:	7135                	addi	sp,sp,-160
    80209fa0:	ed06                	sd	ra,152(sp)
    80209fa2:	e922                	sd	s0,144(sp)
    80209fa4:	e526                	sd	s1,136(sp)
    80209fa6:	1100                	addi	s0,sp,160
    80209fa8:	ef4d                	bnez	a4,8020a062 <.Lpcrel_hi19>
    80209faa:	02863283          	ld	t0,40(a2)
    80209fae:	02063303          	ld	t1,32(a2)
    80209fb2:	01863803          	ld	a6,24(a2)
    80209fb6:	01063883          	ld	a7,16(a2)
    80209fba:	00863383          	ld	t2,8(a2)
    80209fbe:	6210                	ld	a2,0(a2)
    80209fc0:	00053f83          	ld	t6,0(a0)
    80209fc4:	651c                	ld	a5,8(a0)
    80209fc6:	6918                	ld	a4,16(a0)
    80209fc8:	01853e03          	ld	t3,24(a0)
    80209fcc:	02053e83          	ld	t4,32(a0)
    80209fd0:	02853f03          	ld	t5,40(a0)

0000000080209fd4 <.Lpcrel_hi21>:
    80209fd4:	0032d517          	auipc	a0,0x32d
    80209fd8:	2bc50513          	addi	a0,a0,700 # 80537290 <_ZN3log5STATE17h557b5fae63ef98ddE>
    80209fdc:	6108                	ld	a0,0(a0)
    80209fde:	4489                	li	s1,2
    80209fe0:	0230000f          	fence	r,rw
    80209fe4:	00950b63          	beq	a0,s1,80209ffa <.Lpcrel_hi22>

0000000080209fe8 <.Lpcrel_hi24>:
    80209fe8:	00007517          	auipc	a0,0x7
    80209fec:	82850513          	addi	a0,a0,-2008 # 80210810 <.Lanon.e963ac382d26188c993e0c67b52e9570.13>

0000000080209ff0 <.Lpcrel_hi25>:
    80209ff0:	00006497          	auipc	s1,0x6
    80209ff4:	7f048493          	addi	s1,s1,2032 # 802107e0 <.Lanon.e963ac382d26188c993e0c67b52e9570.0>
    80209ff8:	a809                	j	8020a00a <.Lpcrel_hi23+0x8>

0000000080209ffa <.Lpcrel_hi22>:
    80209ffa:	0011c517          	auipc	a0,0x11c
    80209ffe:	77653503          	ld	a0,1910(a0) # 80326770 <_ZN3log6LOGGER17hcbcda6ca2057eaacE.0>

000000008020a002 <.Lpcrel_hi23>:
    8020a002:	0011c497          	auipc	s1,0x11c
    8020a006:	7764b483          	ld	s1,1910(s1) # 80326778 <_ZN3log6LOGGER17hcbcda6ca2057eaacE.1>
    8020a00a:	f8b43c23          	sd	a1,-104(s0)
    8020a00e:	fac43023          	sd	a2,-96(s0)
    8020a012:	fa743423          	sd	t2,-88(s0)
    8020a016:	fbf43c23          	sd	t6,-72(s0)
    8020a01a:	fcf43023          	sd	a5,-64(s0)
    8020a01e:	fce43423          	sd	a4,-56(s0)
    8020a022:	fdc43823          	sd	t3,-48(s0)
    8020a026:	fdd43c23          	sd	t4,-40(s0)
    8020a02a:	ffe43023          	sd	t5,-32(s0)
    8020a02e:	f6043423          	sd	zero,-152(s0)
    8020a032:	f8643423          	sd	t1,-120(s0)
    8020a036:	f8543823          	sd	t0,-112(s0)
    8020a03a:	4585                	li	a1,1
    8020a03c:	fab42823          	sw	a1,-80(s0)
    8020a040:	fad42a23          	sw	a3,-76(s0)
    8020a044:	7090                	ld	a2,32(s1)
    8020a046:	f7143823          	sd	a7,-144(s0)
    8020a04a:	f7043c23          	sd	a6,-136(s0)
    8020a04e:	f8043023          	sd	zero,-128(s0)
    8020a052:	f6840593          	addi	a1,s0,-152
    8020a056:	9602                	jalr	a2
    8020a058:	60ea                	ld	ra,152(sp)
    8020a05a:	644a                	ld	s0,144(sp)
    8020a05c:	64aa                	ld	s1,136(sp)
    8020a05e:	610d                	addi	sp,sp,160
    8020a060:	8082                	ret

000000008020a062 <.Lpcrel_hi19>:
    8020a062:	00006517          	auipc	a0,0x6
    8020a066:	7fe50513          	addi	a0,a0,2046 # 80210860 <.Lanon.e963ac382d26188c993e0c67b52e9570.14>
    8020a06a:	f6a43423          	sd	a0,-152(s0)
    8020a06e:	4505                	li	a0,1
    8020a070:	f6a43823          	sd	a0,-144(s0)
    8020a074:	f8043423          	sd	zero,-120(s0)
    8020a078:	4521                	li	a0,8
    8020a07a:	f6a43c23          	sd	a0,-136(s0)
    8020a07e:	f8043023          	sd	zero,-128(s0)

000000008020a082 <.Lpcrel_hi20>:
    8020a082:	00007517          	auipc	a0,0x7
    8020a086:	85650593          	addi	a1,a0,-1962 # 802108d8 <.Lanon.e963ac382d26188c993e0c67b52e9570.16>
    8020a08a:	f6840513          	addi	a0,s0,-152
    8020a08e:	00000097          	auipc	ra,0x0
    8020a092:	5be080e7          	jalr	1470(ra) # 8020a64c <_ZN4core9panicking9panic_fmt17hc25dbb51a4d67a42E>

000000008020a096 <_ZN5alloc7raw_vec17capacity_overflow17h8cfc1c0f79dc429aE>:
    8020a096:	7139                	addi	sp,sp,-64
    8020a098:	fc06                	sd	ra,56(sp)
    8020a09a:	f822                	sd	s0,48(sp)
    8020a09c:	0080                	addi	s0,sp,64

000000008020a09e <.Lpcrel_hi5>:
    8020a09e:	00007517          	auipc	a0,0x7
    8020a0a2:	86a50513          	addi	a0,a0,-1942 # 80210908 <.Lanon.5ca38222d58c809cc121a23220138090.4>
    8020a0a6:	fca43023          	sd	a0,-64(s0)
    8020a0aa:	4505                	li	a0,1
    8020a0ac:	fca43423          	sd	a0,-56(s0)
    8020a0b0:	fe043023          	sd	zero,-32(s0)
    8020a0b4:	4521                	li	a0,8
    8020a0b6:	fca43823          	sd	a0,-48(s0)
    8020a0ba:	fc043c23          	sd	zero,-40(s0)

000000008020a0be <.Lpcrel_hi6>:
    8020a0be:	00007517          	auipc	a0,0x7
    8020a0c2:	87a50593          	addi	a1,a0,-1926 # 80210938 <.Lanon.5ca38222d58c809cc121a23220138090.6>
    8020a0c6:	fc040513          	addi	a0,s0,-64
    8020a0ca:	00000097          	auipc	ra,0x0
    8020a0ce:	582080e7          	jalr	1410(ra) # 8020a64c <_ZN4core9panicking9panic_fmt17hc25dbb51a4d67a42E>

000000008020a0d2 <_ZN5alloc7raw_vec12handle_error17h45a6360b6b8d4731E>:
    8020a0d2:	1141                	addi	sp,sp,-16
    8020a0d4:	e406                	sd	ra,8(sp)
    8020a0d6:	e022                	sd	s0,0(sp)
    8020a0d8:	0800                	addi	s0,sp,16
    8020a0da:	e509                	bnez	a0,8020a0e4 <_ZN5alloc7raw_vec12handle_error17h45a6360b6b8d4731E+0x12>
    8020a0dc:	00000097          	auipc	ra,0x0
    8020a0e0:	fba080e7          	jalr	-70(ra) # 8020a096 <_ZN5alloc7raw_vec17capacity_overflow17h8cfc1c0f79dc429aE>
    8020a0e4:	00000097          	auipc	ra,0x0
    8020a0e8:	008080e7          	jalr	8(ra) # 8020a0ec <_ZN5alloc5alloc18handle_alloc_error17h712b744ef0f4e031E>

000000008020a0ec <_ZN5alloc5alloc18handle_alloc_error17h712b744ef0f4e031E>:
    8020a0ec:	1141                	addi	sp,sp,-16
    8020a0ee:	e406                	sd	ra,8(sp)
    8020a0f0:	e022                	sd	s0,0(sp)
    8020a0f2:	0800                	addi	s0,sp,16
    8020a0f4:	862a                	mv	a2,a0
    8020a0f6:	852e                	mv	a0,a1
    8020a0f8:	85b2                	mv	a1,a2
    8020a0fa:	fffff097          	auipc	ra,0xfffff
    8020a0fe:	540080e7          	jalr	1344(ra) # 8020963a <__rust_alloc_error_handler>

000000008020a102 <_ZN5alloc3vec16Vec$LT$T$C$A$GT$6remove13assert_failed17hdfc6f3f084a66feaE>:
    8020a102:	7159                	addi	sp,sp,-112
    8020a104:	f486                	sd	ra,104(sp)
    8020a106:	f0a2                	sd	s0,96(sp)
    8020a108:	1880                	addi	s0,sp,112
    8020a10a:	f8a43823          	sd	a0,-112(s0)
    8020a10e:	f8b43c23          	sd	a1,-104(s0)
    8020a112:	f9040513          	addi	a0,s0,-112
    8020a116:	fca43823          	sd	a0,-48(s0)

000000008020a11a <.Lpcrel_hi80>:
    8020a11a:	00003517          	auipc	a0,0x3
    8020a11e:	b5250513          	addi	a0,a0,-1198 # 8020cc6c <_ZN4core3fmt3num3imp52_$LT$impl$u20$core..fmt..Display$u20$for$u20$u64$GT$3fmt17hdc568abe5d51f18fE>
    8020a122:	fca43c23          	sd	a0,-40(s0)
    8020a126:	f9840593          	addi	a1,s0,-104
    8020a12a:	feb43023          	sd	a1,-32(s0)
    8020a12e:	fea43423          	sd	a0,-24(s0)

000000008020a132 <.Lpcrel_hi81>:
    8020a132:	00007517          	auipc	a0,0x7
    8020a136:	84e50513          	addi	a0,a0,-1970 # 80210980 <.Lanon.5ca38222d58c809cc121a23220138090.57>
    8020a13a:	faa43023          	sd	a0,-96(s0)
    8020a13e:	450d                	li	a0,3
    8020a140:	faa43423          	sd	a0,-88(s0)
    8020a144:	fc043023          	sd	zero,-64(s0)
    8020a148:	fd040513          	addi	a0,s0,-48
    8020a14c:	faa43823          	sd	a0,-80(s0)
    8020a150:	4509                	li	a0,2
    8020a152:	faa43c23          	sd	a0,-72(s0)
    8020a156:	fa040513          	addi	a0,s0,-96
    8020a15a:	85b2                	mv	a1,a2
    8020a15c:	00000097          	auipc	ra,0x0
    8020a160:	4f0080e7          	jalr	1264(ra) # 8020a64c <_ZN4core9panicking9panic_fmt17hc25dbb51a4d67a42E>

000000008020a164 <_ZN4core3ptr26drop_in_place$LT$usize$GT$17h93003574b2f5977fE>:
    8020a164:	1141                	addi	sp,sp,-16
    8020a166:	e406                	sd	ra,8(sp)
    8020a168:	e022                	sd	s0,0(sp)
    8020a16a:	0800                	addi	s0,sp,16
    8020a16c:	60a2                	ld	ra,8(sp)
    8020a16e:	6402                	ld	s0,0(sp)
    8020a170:	0141                	addi	sp,sp,16
    8020a172:	8082                	ret

000000008020a174 <_ZN4core3ptr37drop_in_place$LT$core..fmt..Error$GT$17hf8e8ad4d236be20fE>:
    8020a174:	1141                	addi	sp,sp,-16
    8020a176:	e406                	sd	ra,8(sp)
    8020a178:	e022                	sd	s0,0(sp)
    8020a17a:	0800                	addi	s0,sp,16
    8020a17c:	60a2                	ld	ra,8(sp)
    8020a17e:	6402                	ld	s0,0(sp)
    8020a180:	0141                	addi	sp,sp,16
    8020a182:	8082                	ret

000000008020a184 <_ZN68_$LT$core..ptr..alignment..Alignment$u20$as$u20$core..fmt..Debug$GT$3fmt17h933950c19d2abe15E>:
    8020a184:	7159                	addi	sp,sp,-112
    8020a186:	f486                	sd	ra,104(sp)
    8020a188:	f0a2                	sd	s0,96(sp)
    8020a18a:	1880                	addi	s0,sp,112
    8020a18c:	6108                	ld	a0,0(a0)

000000008020a18e <.Lpcrel_hi212>:
    8020a18e:	0011c617          	auipc	a2,0x11c
    8020a192:	61263603          	ld	a2,1554(a2) # 803267a0 <.LCPI52_0>
    8020a196:	40a006b3          	neg	a3,a0
    8020a19a:	8ee9                	and	a3,a3,a0
    8020a19c:	02c68633          	mul	a2,a3,a2
    8020a1a0:	9269                	srli	a2,a2,0x3a

000000008020a1a2 <.Lpcrel_hi213>:
    8020a1a2:	00007697          	auipc	a3,0x7
    8020a1a6:	80e68693          	addi	a3,a3,-2034 # 802109b0 <$d.55>
    8020a1aa:	9636                	add	a2,a2,a3
    8020a1ac:	00064603          	lbu	a2,0(a2)
    8020a1b0:	fea43023          	sd	a0,-32(s0)
    8020a1b4:	fec42623          	sw	a2,-20(s0)
    8020a1b8:	fe040513          	addi	a0,s0,-32
    8020a1bc:	fca43023          	sd	a0,-64(s0)

000000008020a1c0 <.Lpcrel_hi214>:
    8020a1c0:	00002517          	auipc	a0,0x2
    8020a1c4:	4f050513          	addi	a0,a0,1264 # 8020c6b0 <_ZN73_$LT$core..num..nonzero..NonZero$LT$T$GT$$u20$as$u20$core..fmt..Debug$GT$3fmt17ha6fe44be016799efE>
    8020a1c8:	fca43423          	sd	a0,-56(s0)
    8020a1cc:	fec40513          	addi	a0,s0,-20
    8020a1d0:	fca43823          	sd	a0,-48(s0)

000000008020a1d4 <.Lpcrel_hi215>:
    8020a1d4:	00002517          	auipc	a0,0x2
    8020a1d8:	6de50513          	addi	a0,a0,1758 # 8020c8b2 <_ZN4core3fmt3num50_$LT$impl$u20$core..fmt..Debug$u20$for$u20$u32$GT$3fmt17h700187fd72a9aa52E>
    8020a1dc:	fca43c23          	sd	a0,-40(s0)

000000008020a1e0 <.Lpcrel_hi216>:
    8020a1e0:	00007517          	auipc	a0,0x7
    8020a1e4:	97850513          	addi	a0,a0,-1672 # 80210b58 <.Lanon.ecd42e7c4e68db44e18ec9922ac55289.169>
    8020a1e8:	f8a43823          	sd	a0,-112(s0)
    8020a1ec:	450d                	li	a0,3
    8020a1ee:	f8a43c23          	sd	a0,-104(s0)
    8020a1f2:	fa043823          	sd	zero,-80(s0)
    8020a1f6:	fc040613          	addi	a2,s0,-64
    8020a1fa:	7188                	ld	a0,32(a1)
    8020a1fc:	758c                	ld	a1,40(a1)
    8020a1fe:	fac43023          	sd	a2,-96(s0)
    8020a202:	4609                	li	a2,2
    8020a204:	fac43423          	sd	a2,-88(s0)
    8020a208:	f9040613          	addi	a2,s0,-112
    8020a20c:	00001097          	auipc	ra,0x1
    8020a210:	de2080e7          	jalr	-542(ra) # 8020afee <_ZN4core3fmt5write17h7149f27b6a64b164E>
    8020a214:	70a6                	ld	ra,104(sp)
    8020a216:	7406                	ld	s0,96(sp)
    8020a218:	6165                	addi	sp,sp,112
    8020a21a:	8082                	ret

000000008020a21c <_ZN71_$LT$core..ops..range..Range$LT$Idx$GT$$u20$as$u20$core..fmt..Debug$GT$3fmt17h3099c86f576b7a52E>:
    8020a21c:	1101                	addi	sp,sp,-32
    8020a21e:	ec06                	sd	ra,24(sp)
    8020a220:	e822                	sd	s0,16(sp)
    8020a222:	e426                	sd	s1,8(sp)
    8020a224:	e04a                	sd	s2,0(sp)
    8020a226:	1000                	addi	s0,sp,32
    8020a228:	84ae                	mv	s1,a1
    8020a22a:	892a                	mv	s2,a0
    8020a22c:	00002097          	auipc	ra,0x2
    8020a230:	77e080e7          	jalr	1918(ra) # 8020c9aa <_ZN4core3fmt3num52_$LT$impl$u20$core..fmt..Debug$u20$for$u20$usize$GT$3fmt17h1c8a6d16de8eed31E>
    8020a234:	e919                	bnez	a0,8020a24a <.Lpcrel_hi220+0xe>
    8020a236:	748c                	ld	a1,40(s1)
    8020a238:	7088                	ld	a0,32(s1)
    8020a23a:	6d94                	ld	a3,24(a1)

000000008020a23c <.Lpcrel_hi220>:
    8020a23c:	00007597          	auipc	a1,0x7
    8020a240:	94c58593          	addi	a1,a1,-1716 # 80210b88 <.Lanon.ecd42e7c4e68db44e18ec9922ac55289.171>
    8020a244:	4609                	li	a2,2
    8020a246:	9682                	jalr	a3
    8020a248:	c901                	beqz	a0,8020a258 <.Lpcrel_hi220+0x1c>
    8020a24a:	4505                	li	a0,1
    8020a24c:	60e2                	ld	ra,24(sp)
    8020a24e:	6442                	ld	s0,16(sp)
    8020a250:	64a2                	ld	s1,8(sp)
    8020a252:	6902                	ld	s2,0(sp)
    8020a254:	6105                	addi	sp,sp,32
    8020a256:	8082                	ret
    8020a258:	00890513          	addi	a0,s2,8
    8020a25c:	85a6                	mv	a1,s1
    8020a25e:	60e2                	ld	ra,24(sp)
    8020a260:	6442                	ld	s0,16(sp)
    8020a262:	64a2                	ld	s1,8(sp)
    8020a264:	6902                	ld	s2,0(sp)
    8020a266:	6105                	addi	sp,sp,32
    8020a268:	00002317          	auipc	t1,0x2
    8020a26c:	74230067          	jr	1858(t1) # 8020c9aa <_ZN4core3fmt3num52_$LT$impl$u20$core..fmt..Debug$u20$for$u20$usize$GT$3fmt17h1c8a6d16de8eed31E>

000000008020a270 <_ZN36_$LT$T$u20$as$u20$core..any..Any$GT$7type_id17h44f678799532317bE>:
    8020a270:	1141                	addi	sp,sp,-16
    8020a272:	e406                	sd	ra,8(sp)
    8020a274:	e022                	sd	s0,0(sp)
    8020a276:	0800                	addi	s0,sp,16

000000008020a278 <.Lpcrel_hi221>:
    8020a278:	0011c517          	auipc	a0,0x11c
    8020a27c:	53053503          	ld	a0,1328(a0) # 803267a8 <.LCPI57_0>

000000008020a280 <.Lpcrel_hi222>:
    8020a280:	0011c597          	auipc	a1,0x11c
    8020a284:	5305b583          	ld	a1,1328(a1) # 803267b0 <.LCPI57_1>
    8020a288:	60a2                	ld	ra,8(sp)
    8020a28a:	6402                	ld	s0,0(sp)
    8020a28c:	0141                	addi	sp,sp,16
    8020a28e:	8082                	ret

000000008020a290 <_ZN63_$LT$core..cell..BorrowMutError$u20$as$u20$core..fmt..Debug$GT$3fmt17h339775c2cbb54d14E>:
    8020a290:	1141                	addi	sp,sp,-16
    8020a292:	e406                	sd	ra,8(sp)
    8020a294:	e022                	sd	s0,0(sp)
    8020a296:	0800                	addi	s0,sp,16
    8020a298:	7590                	ld	a2,40(a1)
    8020a29a:	7188                	ld	a0,32(a1)
    8020a29c:	6e1c                	ld	a5,24(a2)

000000008020a29e <.Lpcrel_hi235>:
    8020a29e:	00007597          	auipc	a1,0x7
    8020a2a2:	8ec58593          	addi	a1,a1,-1812 # 80210b8a <.Lanon.ecd42e7c4e68db44e18ec9922ac55289.177>
    8020a2a6:	4639                	li	a2,14
    8020a2a8:	60a2                	ld	ra,8(sp)
    8020a2aa:	6402                	ld	s0,0(sp)
    8020a2ac:	0141                	addi	sp,sp,16
    8020a2ae:	8782                	jr	a5

000000008020a2b0 <_ZN4core4cell22panic_already_borrowed17h63023a1bd405c717E>:
    8020a2b0:	711d                	addi	sp,sp,-96
    8020a2b2:	ec86                	sd	ra,88(sp)
    8020a2b4:	e8a2                	sd	s0,80(sp)
    8020a2b6:	1080                	addi	s0,sp,96
    8020a2b8:	85aa                	mv	a1,a0
    8020a2ba:	fef40513          	addi	a0,s0,-17
    8020a2be:	fca43c23          	sd	a0,-40(s0)

000000008020a2c2 <.Lpcrel_hi237>:
    8020a2c2:	00000517          	auipc	a0,0x0
    8020a2c6:	fce50513          	addi	a0,a0,-50 # 8020a290 <_ZN63_$LT$core..cell..BorrowMutError$u20$as$u20$core..fmt..Debug$GT$3fmt17h339775c2cbb54d14E>
    8020a2ca:	fea43023          	sd	a0,-32(s0)

000000008020a2ce <.Lpcrel_hi238>:
    8020a2ce:	00007517          	auipc	a0,0x7
    8020a2d2:	8e250513          	addi	a0,a0,-1822 # 80210bb0 <.Lanon.ecd42e7c4e68db44e18ec9922ac55289.180>
    8020a2d6:	faa43423          	sd	a0,-88(s0)
    8020a2da:	4505                	li	a0,1
    8020a2dc:	faa43823          	sd	a0,-80(s0)
    8020a2e0:	fc043423          	sd	zero,-56(s0)
    8020a2e4:	fd840613          	addi	a2,s0,-40
    8020a2e8:	fac43c23          	sd	a2,-72(s0)
    8020a2ec:	fca43023          	sd	a0,-64(s0)
    8020a2f0:	fa840513          	addi	a0,s0,-88
    8020a2f4:	00000097          	auipc	ra,0x0
    8020a2f8:	358080e7          	jalr	856(ra) # 8020a64c <_ZN4core9panicking9panic_fmt17hc25dbb51a4d67a42E>

000000008020a2fc <_ZN4core4char7methods22_$LT$impl$u20$char$GT$16escape_debug_ext17h8efcc8a3d0c32644E>:
    8020a2fc:	7139                	addi	sp,sp,-64
    8020a2fe:	fc06                	sd	ra,56(sp)
    8020a300:	f822                	sd	s0,48(sp)
    8020a302:	f426                	sd	s1,40(sp)
    8020a304:	f04a                	sd	s2,32(sp)
    8020a306:	ec4e                	sd	s3,24(sp)
    8020a308:	0080                	addi	s0,sp,64
    8020a30a:	0005869b          	sext.w	a3,a1
    8020a30e:	02700713          	li	a4,39
    8020a312:	84aa                	mv	s1,a0
    8020a314:	00d76f63          	bltu	a4,a3,8020a332 <.LBB74_2+0x8>
    8020a318:	00369513          	slli	a0,a3,0x3

000000008020a31c <.Lpcrel_hi248>:
    8020a31c:	00006717          	auipc	a4,0x6
    8020a320:	6d470713          	addi	a4,a4,1748 # 802109f0 <$d.81>
    8020a324:	953a                	add	a0,a0,a4
    8020a326:	6108                	ld	a0,0(a0)
    8020a328:	8502                	jr	a0

000000008020a32a <.LBB74_2>:
    8020a32a:	650d                	lui	a0,0x3
    8020a32c:	05c50513          	addi	a0,a0,92 # 305c <$d.106+0x31c>
    8020a330:	a465                	j	8020a5d8 <.Lpcrel_hi251+0x12a>
    8020a332:	05c00513          	li	a0,92
    8020a336:	00a69663          	bne	a3,a0,8020a342 <.LBB74_5>
    8020a33a:	6519                	lui	a0,0x6
    8020a33c:	c5c50513          	addi	a0,a0,-932 # 5c5c <$d.37+0x1ba>
    8020a340:	ac61                	j	8020a5d8 <.Lpcrel_hi251+0x12a>

000000008020a342 <.LBB74_5>:
    8020a342:	30000513          	li	a0,768
    8020a346:	14a6e363          	bltu	a3,a0,8020a48c <.LBB74_15+0x6>
    8020a34a:	8a05                	andi	a2,a2,1
    8020a34c:	14060063          	beqz	a2,8020a48c <.LBB74_15+0x6>
    8020a350:	852e                	mv	a0,a1
    8020a352:	892e                	mv	s2,a1
    8020a354:	00003097          	auipc	ra,0x3
    8020a358:	968080e7          	jalr	-1688(ra) # 8020ccbc <_ZN4core7unicode12unicode_data15grapheme_extend11lookup_slow17h618e76a03dcc7518E>
    8020a35c:	85ca                	mv	a1,s2
    8020a35e:	12050763          	beqz	a0,8020a48c <.LBB74_15+0x6>
    8020a362:	02859513          	slli	a0,a1,0x28
    8020a366:	9171                	srli	a0,a0,0x3c

000000008020a368 <.Lpcrel_hi249>:
    8020a368:	00005617          	auipc	a2,0x5
    8020a36c:	13060613          	addi	a2,a2,304 # 8020f498 <$d.673>
    8020a370:	9532                	add	a0,a0,a2
    8020a372:	00054503          	lbu	a0,0(a0)
    8020a376:	07d00693          	li	a3,125
    8020a37a:	fcd40ba3          	sb	a3,-41(s0)
    8020a37e:	fca408a3          	sb	a0,-47(s0)
    8020a382:	02c59513          	slli	a0,a1,0x2c
    8020a386:	9171                	srli	a0,a0,0x3c
    8020a388:	9532                	add	a0,a0,a2
    8020a38a:	00054503          	lbu	a0,0(a0)
    8020a38e:	03059693          	slli	a3,a1,0x30
    8020a392:	92f1                	srli	a3,a3,0x3c
    8020a394:	96b2                	add	a3,a3,a2
    8020a396:	0006c683          	lbu	a3,0(a3)
    8020a39a:	03459713          	slli	a4,a1,0x34
    8020a39e:	9371                	srli	a4,a4,0x3c
    8020a3a0:	9732                	add	a4,a4,a2
    8020a3a2:	00074703          	lbu	a4,0(a4)
    8020a3a6:	03859793          	slli	a5,a1,0x38
    8020a3aa:	93f1                	srli	a5,a5,0x3c
    8020a3ac:	97b2                	add	a5,a5,a2
    8020a3ae:	0007c783          	lbu	a5,0(a5)
    8020a3b2:	fca40923          	sb	a0,-46(s0)
    8020a3b6:	fcd409a3          	sb	a3,-45(s0)
    8020a3ba:	fce40a23          	sb	a4,-44(s0)
    8020a3be:	fcf40aa3          	sb	a5,-43(s0)
    8020a3c2:	00f5f513          	andi	a0,a1,15
    8020a3c6:	9532                	add	a0,a0,a2
    8020a3c8:	0025d61b          	srliw	a2,a1,0x2
    8020a3cc:	0606                	slli	a2,a2,0x1
    8020a3ce:	8dd1                	or	a1,a1,a2
    8020a3d0:	0035d61b          	srliw	a2,a1,0x3
    8020a3d4:	0606                	slli	a2,a2,0x1
    8020a3d6:	8dd1                	or	a1,a1,a2
    8020a3d8:	0055d61b          	srliw	a2,a1,0x5
    8020a3dc:	0606                	slli	a2,a2,0x1
    8020a3de:	8dd1                	or	a1,a1,a2
    8020a3e0:	0095d61b          	srliw	a2,a1,0x9
    8020a3e4:	0606                	slli	a2,a2,0x1
    8020a3e6:	8dd1                	or	a1,a1,a2
    8020a3e8:	0115d61b          	srliw	a2,a1,0x11
    8020a3ec:	0606                	slli	a2,a2,0x1
    8020a3ee:	8dd1                	or	a1,a1,a2
    8020a3f0:	fff5c593          	not	a1,a1
    8020a3f4:	0015d613          	srli	a2,a1,0x1
    8020a3f8:	555556b7          	lui	a3,0x55555
    8020a3fc:	5556869b          	addiw	a3,a3,1365 # 55555555 <$d.6+0x5548e6fa>
    8020a400:	8e75                	and	a2,a2,a3
    8020a402:	99f9                	andi	a1,a1,-2
    8020a404:	8d91                	sub	a1,a1,a2
    8020a406:	33333637          	lui	a2,0x33333
    8020a40a:	3336061b          	addiw	a2,a2,819 # 33333333 <$d.6+0x3326c4d8>
    8020a40e:	00c5f6b3          	and	a3,a1,a2
    8020a412:	8189                	srli	a1,a1,0x2
    8020a414:	8df1                	and	a1,a1,a2
    8020a416:	fc040823          	sb	zero,-48(s0)
    8020a41a:	fc041723          	sh	zero,-50(s0)
    8020a41e:	00054503          	lbu	a0,0(a0)
    8020a422:	95b6                	add	a1,a1,a3
    8020a424:	0045d613          	srli	a2,a1,0x4
    8020a428:	95b2                	add	a1,a1,a2
    8020a42a:	0f0f1637          	lui	a2,0xf0f1
    8020a42e:	f0f60613          	addi	a2,a2,-241 # f0f0f0f <$d.6+0xf02a0b4>
    8020a432:	8df1                	and	a1,a1,a2
    8020a434:	01010637          	lui	a2,0x1010
    8020a438:	10160613          	addi	a2,a2,257 # 1010101 <$d.6+0xf492a6>
    8020a43c:	02c585b3          	mul	a1,a1,a2
    8020a440:	01a5d91b          	srliw	s2,a1,0x1a
    8020a444:	1979                	addi	s2,s2,-2
    8020a446:	45ad                	li	a1,11
    8020a448:	fca40b23          	sb	a0,-42(s0)
    8020a44c:	14b96663          	bltu	s2,a1,8020a598 <.Lpcrel_hi251+0xea>

000000008020a450 <.Lpcrel_hi250>:
    8020a450:	00007517          	auipc	a0,0x7
    8020a454:	3b850613          	addi	a2,a0,952 # 80211808 <.Lanon.ecd42e7c4e68db44e18ec9922ac55289.436>
    8020a458:	45a9                	li	a1,10
    8020a45a:	854a                	mv	a0,s2
    8020a45c:	00002097          	auipc	ra,0x2
    8020a460:	81a080e7          	jalr	-2022(ra) # 8020bc76 <_ZN4core5slice5index26slice_start_index_len_fail17h4fe0fe1482ca1679E>

000000008020a464 <.LBB74_10>:
    8020a464:	651d                	lui	a0,0x7
    8020a466:	e5c50513          	addi	a0,a0,-420 # 6e5c <$d.5+0x897>
    8020a46a:	a2bd                	j	8020a5d8 <.Lpcrel_hi251+0x12a>

000000008020a46c <.LBB74_11>:
    8020a46c:	10067513          	andi	a0,a2,256
    8020a470:	cd11                	beqz	a0,8020a48c <.LBB74_15+0x6>
    8020a472:	6509                	lui	a0,0x2
    8020a474:	75c50513          	addi	a0,a0,1884 # 275c <$d.81+0x117>
    8020a478:	a285                	j	8020a5d8 <.Lpcrel_hi251+0x12a>

000000008020a47a <.LBB74_13>:
    8020a47a:	651d                	lui	a0,0x7
    8020a47c:	aaa1                	j	8020a5d4 <.Lpcrel_hi251+0x126>

000000008020a47e <.LBB74_14>:
    8020a47e:	651d                	lui	a0,0x7
    8020a480:	45c50513          	addi	a0,a0,1116 # 745c <$d.5+0xe97>
    8020a484:	aa91                	j	8020a5d8 <.Lpcrel_hi251+0x12a>

000000008020a486 <.LBB74_15>:
    8020a486:	163e                	slli	a2,a2,0x2f
    8020a488:	14064563          	bltz	a2,8020a5d2 <.Lpcrel_hi251+0x124>
    8020a48c:	892e                	mv	s2,a1
    8020a48e:	852e                	mv	a0,a1
    8020a490:	00002097          	auipc	ra,0x2
    8020a494:	0d0080e7          	jalr	208(ra) # 8020c560 <_ZN4core7unicode9printable12is_printable17h1278e5ec684ded39E>
    8020a498:	c901                	beqz	a0,8020a4a8 <.LBB74_15+0x22>
    8020a49a:	08000513          	li	a0,128
    8020a49e:	00a48023          	sb	a0,0(s1)
    8020a4a2:	0124a223          	sw	s2,4(s1)
    8020a4a6:	a2a1                	j	8020a5ee <.Lpcrel_hi251+0x140>
    8020a4a8:	02891513          	slli	a0,s2,0x28
    8020a4ac:	9171                	srli	a0,a0,0x3c

000000008020a4ae <.Lpcrel_hi251>:
    8020a4ae:	00005597          	auipc	a1,0x5
    8020a4b2:	fea58593          	addi	a1,a1,-22 # 8020f498 <$d.673>
    8020a4b6:	952e                	add	a0,a0,a1
    8020a4b8:	00054503          	lbu	a0,0(a0)
    8020a4bc:	07d00613          	li	a2,125
    8020a4c0:	fcc40ba3          	sb	a2,-41(s0)
    8020a4c4:	fca408a3          	sb	a0,-47(s0)
    8020a4c8:	02c91513          	slli	a0,s2,0x2c
    8020a4cc:	9171                	srli	a0,a0,0x3c
    8020a4ce:	952e                	add	a0,a0,a1
    8020a4d0:	00054503          	lbu	a0,0(a0)
    8020a4d4:	03091613          	slli	a2,s2,0x30
    8020a4d8:	9271                	srli	a2,a2,0x3c
    8020a4da:	962e                	add	a2,a2,a1
    8020a4dc:	00064603          	lbu	a2,0(a2)
    8020a4e0:	03491693          	slli	a3,s2,0x34
    8020a4e4:	92f1                	srli	a3,a3,0x3c
    8020a4e6:	96ae                	add	a3,a3,a1
    8020a4e8:	0006c683          	lbu	a3,0(a3)
    8020a4ec:	03891713          	slli	a4,s2,0x38
    8020a4f0:	9371                	srli	a4,a4,0x3c
    8020a4f2:	972e                	add	a4,a4,a1
    8020a4f4:	00074703          	lbu	a4,0(a4)
    8020a4f8:	fca40923          	sb	a0,-46(s0)
    8020a4fc:	fcc409a3          	sb	a2,-45(s0)
    8020a500:	fcd40a23          	sb	a3,-44(s0)
    8020a504:	fce40aa3          	sb	a4,-43(s0)
    8020a508:	00f97513          	andi	a0,s2,15
    8020a50c:	952e                	add	a0,a0,a1
    8020a50e:	0029559b          	srliw	a1,s2,0x2
    8020a512:	0586                	slli	a1,a1,0x1
    8020a514:	00b965b3          	or	a1,s2,a1
    8020a518:	0035d61b          	srliw	a2,a1,0x3
    8020a51c:	0606                	slli	a2,a2,0x1
    8020a51e:	8dd1                	or	a1,a1,a2
    8020a520:	0055d61b          	srliw	a2,a1,0x5
    8020a524:	0606                	slli	a2,a2,0x1
    8020a526:	8dd1                	or	a1,a1,a2
    8020a528:	0095d61b          	srliw	a2,a1,0x9
    8020a52c:	0606                	slli	a2,a2,0x1
    8020a52e:	8dd1                	or	a1,a1,a2
    8020a530:	0115d61b          	srliw	a2,a1,0x11
    8020a534:	0606                	slli	a2,a2,0x1
    8020a536:	8dd1                	or	a1,a1,a2
    8020a538:	fff5c593          	not	a1,a1
    8020a53c:	0015d613          	srli	a2,a1,0x1
    8020a540:	555556b7          	lui	a3,0x55555
    8020a544:	5556869b          	addiw	a3,a3,1365 # 55555555 <$d.6+0x5548e6fa>
    8020a548:	8e75                	and	a2,a2,a3
    8020a54a:	99f9                	andi	a1,a1,-2
    8020a54c:	8d91                	sub	a1,a1,a2
    8020a54e:	33333637          	lui	a2,0x33333
    8020a552:	3336061b          	addiw	a2,a2,819 # 33333333 <$d.6+0x3326c4d8>
    8020a556:	00c5f6b3          	and	a3,a1,a2
    8020a55a:	8189                	srli	a1,a1,0x2
    8020a55c:	8df1                	and	a1,a1,a2
    8020a55e:	fc040823          	sb	zero,-48(s0)
    8020a562:	fc041723          	sh	zero,-50(s0)
    8020a566:	00054503          	lbu	a0,0(a0)
    8020a56a:	95b6                	add	a1,a1,a3
    8020a56c:	0045d613          	srli	a2,a1,0x4
    8020a570:	95b2                	add	a1,a1,a2
    8020a572:	0f0f1637          	lui	a2,0xf0f1
    8020a576:	f0f60613          	addi	a2,a2,-241 # f0f0f0f <$d.6+0xf02a0b4>
    8020a57a:	8df1                	and	a1,a1,a2
    8020a57c:	01010637          	lui	a2,0x1010
    8020a580:	10160613          	addi	a2,a2,257 # 1010101 <$d.6+0xf492a6>
    8020a584:	02c585b3          	mul	a1,a1,a2
    8020a588:	01a5d91b          	srliw	s2,a1,0x1a
    8020a58c:	1979                	addi	s2,s2,-2
    8020a58e:	45ad                	li	a1,11
    8020a590:	fca40b23          	sb	a0,-42(s0)
    8020a594:	06b97463          	bgeu	s2,a1,8020a5fc <.Lpcrel_hi252>
    8020a598:	fce40513          	addi	a0,s0,-50
    8020a59c:	954a                	add	a0,a0,s2
    8020a59e:	07b00593          	li	a1,123
    8020a5a2:	00b50123          	sb	a1,2(a0)
    8020a5a6:	07500593          	li	a1,117
    8020a5aa:	00b500a3          	sb	a1,1(a0)
    8020a5ae:	05c00593          	li	a1,92
    8020a5b2:	00b50023          	sb	a1,0(a0)
    8020a5b6:	fce40593          	addi	a1,s0,-50
    8020a5ba:	4629                	li	a2,10
    8020a5bc:	49a9                	li	s3,10
    8020a5be:	8526                	mv	a0,s1
    8020a5c0:	00003097          	auipc	ra,0x3
    8020a5c4:	b58080e7          	jalr	-1192(ra) # 8020d118 <memcpy>
    8020a5c8:	01248523          	sb	s2,10(s1)
    8020a5cc:	013485a3          	sb	s3,11(s1)
    8020a5d0:	a839                	j	8020a5ee <.Lpcrel_hi251+0x140>
    8020a5d2:	6509                	lui	a0,0x2
    8020a5d4:	25c50513          	addi	a0,a0,604 # 225c <$d.182+0x2b4>
    8020a5d8:	c088                	sw	a0,0(s1)
    8020a5da:	00049423          	sh	zero,8(s1)
    8020a5de:	00049323          	sh	zero,6(s1)
    8020a5e2:	00049223          	sh	zero,4(s1)
    8020a5e6:	20000513          	li	a0,512
    8020a5ea:	00a49523          	sh	a0,10(s1)
    8020a5ee:	70e2                	ld	ra,56(sp)
    8020a5f0:	7442                	ld	s0,48(sp)
    8020a5f2:	74a2                	ld	s1,40(sp)
    8020a5f4:	7902                	ld	s2,32(sp)
    8020a5f6:	69e2                	ld	s3,24(sp)
    8020a5f8:	6121                	addi	sp,sp,64
    8020a5fa:	8082                	ret

000000008020a5fc <.Lpcrel_hi252>:
    8020a5fc:	00007517          	auipc	a0,0x7
    8020a600:	20c50613          	addi	a2,a0,524 # 80211808 <.Lanon.ecd42e7c4e68db44e18ec9922ac55289.436>
    8020a604:	45a9                	li	a1,10
    8020a606:	854a                	mv	a0,s2
    8020a608:	00001097          	auipc	ra,0x1
    8020a60c:	66e080e7          	jalr	1646(ra) # 8020bc76 <_ZN4core5slice5index26slice_start_index_len_fail17h4fe0fe1482ca1679E>

000000008020a610 <_ZN4core6option13unwrap_failed17h3c70806c841faa93E>:
    8020a610:	1141                	addi	sp,sp,-16
    8020a612:	e406                	sd	ra,8(sp)
    8020a614:	e022                	sd	s0,0(sp)
    8020a616:	0800                	addi	s0,sp,16
    8020a618:	862a                	mv	a2,a0

000000008020a61a <.Lpcrel_hi352>:
    8020a61a:	00006517          	auipc	a0,0x6
    8020a61e:	5a750513          	addi	a0,a0,1447 # 80210bc1 <.Lanon.ecd42e7c4e68db44e18ec9922ac55289.251>
    8020a622:	02b00593          	li	a1,43
    8020a626:	00000097          	auipc	ra,0x0
    8020a62a:	058080e7          	jalr	88(ra) # 8020a67e <_ZN4core9panicking5panic17h14cc1607a430f055E>

000000008020a62e <_ZN4core6option13expect_failed17h9c04eca4fce6b8afE>:
    8020a62e:	1101                	addi	sp,sp,-32
    8020a630:	ec06                	sd	ra,24(sp)
    8020a632:	e822                	sd	s0,16(sp)
    8020a634:	1000                	addi	s0,sp,32
    8020a636:	fea43023          	sd	a0,-32(s0)
    8020a63a:	feb43423          	sd	a1,-24(s0)
    8020a63e:	fe040513          	addi	a0,s0,-32
    8020a642:	85b2                	mv	a1,a2
    8020a644:	00000097          	auipc	ra,0x0
    8020a648:	074080e7          	jalr	116(ra) # 8020a6b8 <_ZN4core9panicking13panic_display17h864e1e0db7b2176dE>

000000008020a64c <_ZN4core9panicking9panic_fmt17hc25dbb51a4d67a42E>:
    8020a64c:	7139                	addi	sp,sp,-64
    8020a64e:	fc06                	sd	ra,56(sp)
    8020a650:	f822                	sd	s0,48(sp)
    8020a652:	0080                	addi	s0,sp,64
    8020a654:	4605                	li	a2,1
    8020a656:	fcc43423          	sd	a2,-56(s0)

000000008020a65a <.Lpcrel_hi365>:
    8020a65a:	00006697          	auipc	a3,0x6
    8020a65e:	59668693          	addi	a3,a3,1430 # 80210bf0 <.Lanon.ecd42e7c4e68db44e18ec9922ac55289.255>
    8020a662:	fcd43823          	sd	a3,-48(s0)
    8020a666:	fca43c23          	sd	a0,-40(s0)
    8020a66a:	feb43023          	sd	a1,-32(s0)
    8020a66e:	fec41423          	sh	a2,-24(s0)
    8020a672:	fc840513          	addi	a0,s0,-56
    8020a676:	ffffc097          	auipc	ra,0xffffc
    8020a67a:	686080e7          	jalr	1670(ra) # 80206cfc <rust_begin_unwind>

000000008020a67e <_ZN4core9panicking5panic17h14cc1607a430f055E>:
    8020a67e:	715d                	addi	sp,sp,-80
    8020a680:	e486                	sd	ra,72(sp)
    8020a682:	e0a2                	sd	s0,64(sp)
    8020a684:	0880                	addi	s0,sp,80
    8020a686:	fea43023          	sd	a0,-32(s0)
    8020a68a:	feb43423          	sd	a1,-24(s0)
    8020a68e:	fe040513          	addi	a0,s0,-32
    8020a692:	faa43823          	sd	a0,-80(s0)
    8020a696:	4505                	li	a0,1
    8020a698:	faa43c23          	sd	a0,-72(s0)
    8020a69c:	fc043823          	sd	zero,-48(s0)
    8020a6a0:	4521                	li	a0,8
    8020a6a2:	fca43023          	sd	a0,-64(s0)
    8020a6a6:	fc043423          	sd	zero,-56(s0)
    8020a6aa:	fb040513          	addi	a0,s0,-80
    8020a6ae:	85b2                	mv	a1,a2
    8020a6b0:	00000097          	auipc	ra,0x0
    8020a6b4:	f9c080e7          	jalr	-100(ra) # 8020a64c <_ZN4core9panicking9panic_fmt17hc25dbb51a4d67a42E>

000000008020a6b8 <_ZN4core9panicking13panic_display17h864e1e0db7b2176dE>:
    8020a6b8:	715d                	addi	sp,sp,-80
    8020a6ba:	e486                	sd	ra,72(sp)
    8020a6bc:	e0a2                	sd	s0,64(sp)
    8020a6be:	0880                	addi	s0,sp,80
    8020a6c0:	fea43023          	sd	a0,-32(s0)

000000008020a6c4 <.Lpcrel_hi370>:
    8020a6c4:	00002517          	auipc	a0,0x2
    8020a6c8:	5da50513          	addi	a0,a0,1498 # 8020cc9e <_ZN44_$LT$$RF$T$u20$as$u20$core..fmt..Display$GT$3fmt17h488e98c8705420f3E>
    8020a6cc:	fea43423          	sd	a0,-24(s0)

000000008020a6d0 <.Lpcrel_hi371>:
    8020a6d0:	00005517          	auipc	a0,0x5
    8020a6d4:	da850513          	addi	a0,a0,-600 # 8020f478 <anon.f74f78ffd666ce5c7fdd8ef97087ab59.5.llvm.17946426208055529105>
    8020a6d8:	faa43823          	sd	a0,-80(s0)
    8020a6dc:	4505                	li	a0,1
    8020a6de:	faa43c23          	sd	a0,-72(s0)
    8020a6e2:	fc043823          	sd	zero,-48(s0)
    8020a6e6:	fe040613          	addi	a2,s0,-32
    8020a6ea:	fcc43023          	sd	a2,-64(s0)
    8020a6ee:	fca43423          	sd	a0,-56(s0)
    8020a6f2:	fb040513          	addi	a0,s0,-80
    8020a6f6:	00000097          	auipc	ra,0x0
    8020a6fa:	f56080e7          	jalr	-170(ra) # 8020a64c <_ZN4core9panicking9panic_fmt17hc25dbb51a4d67a42E>

000000008020a6fe <_ZN4core9panicking18panic_bounds_check17h087f2837af3bd59aE>:
    8020a6fe:	7159                	addi	sp,sp,-112
    8020a700:	f486                	sd	ra,104(sp)
    8020a702:	f0a2                	sd	s0,96(sp)
    8020a704:	1880                	addi	s0,sp,112
    8020a706:	f8a43823          	sd	a0,-112(s0)
    8020a70a:	f8b43c23          	sd	a1,-104(s0)
    8020a70e:	f9840513          	addi	a0,s0,-104
    8020a712:	fca43823          	sd	a0,-48(s0)

000000008020a716 <.Lpcrel_hi372>:
    8020a716:	00002517          	auipc	a0,0x2
    8020a71a:	55650513          	addi	a0,a0,1366 # 8020cc6c <_ZN4core3fmt3num3imp52_$LT$impl$u20$core..fmt..Display$u20$for$u20$u64$GT$3fmt17hdc568abe5d51f18fE>
    8020a71e:	fca43c23          	sd	a0,-40(s0)
    8020a722:	f9040593          	addi	a1,s0,-112
    8020a726:	feb43023          	sd	a1,-32(s0)
    8020a72a:	fea43423          	sd	a0,-24(s0)

000000008020a72e <.Lpcrel_hi373>:
    8020a72e:	00006517          	auipc	a0,0x6
    8020a732:	4fa50513          	addi	a0,a0,1274 # 80210c28 <.Lanon.ecd42e7c4e68db44e18ec9922ac55289.263>
    8020a736:	faa43023          	sd	a0,-96(s0)
    8020a73a:	4509                	li	a0,2
    8020a73c:	faa43423          	sd	a0,-88(s0)
    8020a740:	fc043023          	sd	zero,-64(s0)
    8020a744:	fd040593          	addi	a1,s0,-48
    8020a748:	fab43823          	sd	a1,-80(s0)
    8020a74c:	faa43c23          	sd	a0,-72(s0)
    8020a750:	fa040513          	addi	a0,s0,-96
    8020a754:	85b2                	mv	a1,a2
    8020a756:	00000097          	auipc	ra,0x0
    8020a75a:	ef6080e7          	jalr	-266(ra) # 8020a64c <_ZN4core9panicking9panic_fmt17hc25dbb51a4d67a42E>

000000008020a75e <_ZN4core9panicking19assert_failed_inner17hd9a6399f820873deE>:
    8020a75e:	7115                	addi	sp,sp,-224
    8020a760:	ed86                	sd	ra,216(sp)
    8020a762:	e9a2                	sd	s0,208(sp)
    8020a764:	1180                	addi	s0,sp,224
    8020a766:	f2b43023          	sd	a1,-224(s0)
    8020a76a:	f2c43423          	sd	a2,-216(s0)
    8020a76e:	f2d43823          	sd	a3,-208(s0)
    8020a772:	0ff57513          	zext.b	a0,a0
    8020a776:	f2e43c23          	sd	a4,-200(s0)
    8020a77a:	c909                	beqz	a0,8020a78c <.Lpcrel_hi383>
    8020a77c:	4585                	li	a1,1
    8020a77e:	06b51463          	bne	a0,a1,8020a7e6 <.Lpcrel_hi385>

000000008020a782 <.Lpcrel_hi384>:
    8020a782:	00006517          	auipc	a0,0x6
    8020a786:	4c850513          	addi	a0,a0,1224 # 80210c4a <.Lanon.ecd42e7c4e68db44e18ec9922ac55289.273>
    8020a78a:	a029                	j	8020a794 <.Lpcrel_hi383+0x8>

000000008020a78c <.Lpcrel_hi383>:
    8020a78c:	00006517          	auipc	a0,0x6
    8020a790:	4bc50513          	addi	a0,a0,1212 # 80210c48 <.Lanon.ecd42e7c4e68db44e18ec9922ac55289.272>
    8020a794:	f4a43023          	sd	a0,-192(s0)
    8020a798:	4509                	li	a0,2
    8020a79a:	638c                	ld	a1,0(a5)
    8020a79c:	f4a43423          	sd	a0,-184(s0)
    8020a7a0:	edb1                	bnez	a1,8020a7fc <.Lpcrel_hi385+0x16>
    8020a7a2:	f4040513          	addi	a0,s0,-192
    8020a7a6:	f8a43023          	sd	a0,-128(s0)

000000008020a7aa <.Lpcrel_hi386>:
    8020a7aa:	00002517          	auipc	a0,0x2
    8020a7ae:	4f450513          	addi	a0,a0,1268 # 8020cc9e <_ZN44_$LT$$RF$T$u20$as$u20$core..fmt..Display$GT$3fmt17h488e98c8705420f3E>
    8020a7b2:	f8a43423          	sd	a0,-120(s0)
    8020a7b6:	f2040513          	addi	a0,s0,-224
    8020a7ba:	f8a43823          	sd	a0,-112(s0)

000000008020a7be <.Lpcrel_hi387>:
    8020a7be:	00002517          	auipc	a0,0x2
    8020a7c2:	4ca50513          	addi	a0,a0,1226 # 8020cc88 <_ZN42_$LT$$RF$T$u20$as$u20$core..fmt..Debug$GT$3fmt17h7b87dc6a6ab297eeE>
    8020a7c6:	f8a43c23          	sd	a0,-104(s0)
    8020a7ca:	f3040593          	addi	a1,s0,-208
    8020a7ce:	fab43023          	sd	a1,-96(s0)
    8020a7d2:	faa43423          	sd	a0,-88(s0)

000000008020a7d6 <.Lpcrel_hi388>:
    8020a7d6:	00006517          	auipc	a0,0x6
    8020a7da:	4a250513          	addi	a0,a0,1186 # 80210c78 <.Lanon.ecd42e7c4e68db44e18ec9922ac55289.278>
    8020a7de:	fca43023          	sd	a0,-64(s0)
    8020a7e2:	450d                	li	a0,3
    8020a7e4:	a849                	j	8020a876 <.Lpcrel_hi392+0xe>

000000008020a7e6 <.Lpcrel_hi385>:
    8020a7e6:	00006517          	auipc	a0,0x6
    8020a7ea:	46650513          	addi	a0,a0,1126 # 80210c4c <.Lanon.ecd42e7c4e68db44e18ec9922ac55289.274>
    8020a7ee:	f4a43023          	sd	a0,-192(s0)
    8020a7f2:	451d                	li	a0,7
    8020a7f4:	638c                	ld	a1,0(a5)
    8020a7f6:	f4a43423          	sd	a0,-184(s0)
    8020a7fa:	d5c5                	beqz	a1,8020a7a2 <.Lpcrel_hi383+0x16>
    8020a7fc:	7788                	ld	a0,40(a5)
    8020a7fe:	738c                	ld	a1,32(a5)
    8020a800:	f6a43c23          	sd	a0,-136(s0)
    8020a804:	f6b43823          	sd	a1,-144(s0)
    8020a808:	6f88                	ld	a0,24(a5)
    8020a80a:	6b8c                	ld	a1,16(a5)
    8020a80c:	6790                	ld	a2,8(a5)
    8020a80e:	6394                	ld	a3,0(a5)
    8020a810:	f6a43423          	sd	a0,-152(s0)
    8020a814:	f6b43023          	sd	a1,-160(s0)
    8020a818:	f4c43c23          	sd	a2,-168(s0)
    8020a81c:	f4d43823          	sd	a3,-176(s0)
    8020a820:	f4040513          	addi	a0,s0,-192
    8020a824:	f8a43023          	sd	a0,-128(s0)

000000008020a828 <.Lpcrel_hi389>:
    8020a828:	00002517          	auipc	a0,0x2
    8020a82c:	47650513          	addi	a0,a0,1142 # 8020cc9e <_ZN44_$LT$$RF$T$u20$as$u20$core..fmt..Display$GT$3fmt17h488e98c8705420f3E>
    8020a830:	f8a43423          	sd	a0,-120(s0)
    8020a834:	f5040513          	addi	a0,s0,-176
    8020a838:	f8a43823          	sd	a0,-112(s0)

000000008020a83c <.Lpcrel_hi390>:
    8020a83c:	00000517          	auipc	a0,0x0
    8020a840:	79250513          	addi	a0,a0,1938 # 8020afce <_ZN59_$LT$core..fmt..Arguments$u20$as$u20$core..fmt..Display$GT$3fmt17hab871323e3c3d510E>
    8020a844:	f8a43c23          	sd	a0,-104(s0)
    8020a848:	f2040513          	addi	a0,s0,-224
    8020a84c:	faa43023          	sd	a0,-96(s0)

000000008020a850 <.Lpcrel_hi391>:
    8020a850:	00002517          	auipc	a0,0x2
    8020a854:	43850513          	addi	a0,a0,1080 # 8020cc88 <_ZN42_$LT$$RF$T$u20$as$u20$core..fmt..Debug$GT$3fmt17h7b87dc6a6ab297eeE>
    8020a858:	faa43423          	sd	a0,-88(s0)
    8020a85c:	f3040593          	addi	a1,s0,-208
    8020a860:	fab43823          	sd	a1,-80(s0)
    8020a864:	faa43c23          	sd	a0,-72(s0)

000000008020a868 <.Lpcrel_hi392>:
    8020a868:	00006517          	auipc	a0,0x6
    8020a86c:	45050513          	addi	a0,a0,1104 # 80210cb8 <.Lanon.ecd42e7c4e68db44e18ec9922ac55289.281>
    8020a870:	fca43023          	sd	a0,-64(s0)
    8020a874:	4511                	li	a0,4
    8020a876:	fca43423          	sd	a0,-56(s0)
    8020a87a:	fe043023          	sd	zero,-32(s0)
    8020a87e:	f8040593          	addi	a1,s0,-128
    8020a882:	fcb43823          	sd	a1,-48(s0)
    8020a886:	fca43c23          	sd	a0,-40(s0)
    8020a88a:	fc040513          	addi	a0,s0,-64
    8020a88e:	85c2                	mv	a1,a6
    8020a890:	00000097          	auipc	ra,0x0
    8020a894:	dbc080e7          	jalr	-580(ra) # 8020a64c <_ZN4core9panicking9panic_fmt17hc25dbb51a4d67a42E>

000000008020a898 <_ZN4core6result13unwrap_failed17h68f4211cf4faa05bE>:
    8020a898:	7119                	addi	sp,sp,-128
    8020a89a:	fc86                	sd	ra,120(sp)
    8020a89c:	f8a2                	sd	s0,112(sp)
    8020a89e:	0100                	addi	s0,sp,128
    8020a8a0:	f8a43023          	sd	a0,-128(s0)
    8020a8a4:	f8b43423          	sd	a1,-120(s0)
    8020a8a8:	f8c43823          	sd	a2,-112(s0)
    8020a8ac:	f8d43c23          	sd	a3,-104(s0)
    8020a8b0:	f8040513          	addi	a0,s0,-128
    8020a8b4:	fca43823          	sd	a0,-48(s0)

000000008020a8b8 <.Lpcrel_hi393>:
    8020a8b8:	00002517          	auipc	a0,0x2
    8020a8bc:	3e650513          	addi	a0,a0,998 # 8020cc9e <_ZN44_$LT$$RF$T$u20$as$u20$core..fmt..Display$GT$3fmt17h488e98c8705420f3E>
    8020a8c0:	fca43c23          	sd	a0,-40(s0)
    8020a8c4:	f9040513          	addi	a0,s0,-112
    8020a8c8:	fea43023          	sd	a0,-32(s0)

000000008020a8cc <.Lpcrel_hi394>:
    8020a8cc:	00002517          	auipc	a0,0x2
    8020a8d0:	3bc50513          	addi	a0,a0,956 # 8020cc88 <_ZN42_$LT$$RF$T$u20$as$u20$core..fmt..Debug$GT$3fmt17h7b87dc6a6ab297eeE>
    8020a8d4:	fea43423          	sd	a0,-24(s0)

000000008020a8d8 <.Lpcrel_hi395>:
    8020a8d8:	00006517          	auipc	a0,0x6
    8020a8dc:	42850513          	addi	a0,a0,1064 # 80210d00 <.Lanon.ecd42e7c4e68db44e18ec9922ac55289.283>
    8020a8e0:	faa43023          	sd	a0,-96(s0)
    8020a8e4:	4509                	li	a0,2
    8020a8e6:	faa43423          	sd	a0,-88(s0)
    8020a8ea:	fc043023          	sd	zero,-64(s0)
    8020a8ee:	fd040593          	addi	a1,s0,-48
    8020a8f2:	fab43823          	sd	a1,-80(s0)
    8020a8f6:	faa43c23          	sd	a0,-72(s0)
    8020a8fa:	fa040513          	addi	a0,s0,-96
    8020a8fe:	85ba                	mv	a1,a4
    8020a900:	00000097          	auipc	ra,0x0
    8020a904:	d4c080e7          	jalr	-692(ra) # 8020a64c <_ZN4core9panicking9panic_fmt17hc25dbb51a4d67a42E>

000000008020a908 <_ZN68_$LT$core..fmt..builders..PadAdapter$u20$as$u20$core..fmt..Write$GT$9write_str17hc811fc8a989fcfefE>:
    8020a908:	7175                	addi	sp,sp,-144
    8020a90a:	e506                	sd	ra,136(sp)
    8020a90c:	e122                	sd	s0,128(sp)
    8020a90e:	fca6                	sd	s1,120(sp)
    8020a910:	f8ca                	sd	s2,112(sp)
    8020a912:	f4ce                	sd	s3,104(sp)
    8020a914:	f0d2                	sd	s4,96(sp)
    8020a916:	ecd6                	sd	s5,88(sp)
    8020a918:	e8da                	sd	s6,80(sp)
    8020a91a:	e4de                	sd	s7,72(sp)
    8020a91c:	e0e2                	sd	s8,64(sp)
    8020a91e:	fc66                	sd	s9,56(sp)
    8020a920:	f86a                	sd	s10,48(sp)
    8020a922:	f46e                	sd	s11,40(sp)
    8020a924:	0900                	addi	s0,sp,144
    8020a926:	89b2                	mv	s3,a2
    8020a928:	4b01                	li	s6,0
    8020a92a:	4c81                	li	s9,0
    8020a92c:	feff0637          	lui	a2,0xfeff0
    8020a930:	eff60b9b          	addiw	s7,a2,-257 # fffffffffefefeff <ebss+0xffffffff7eab7eff>
    8020a934:	020b9613          	slli	a2,s7,0x20
    8020a938:	9bb2                	add	s7,s7,a2
    8020a93a:	0a0a1637          	lui	a2,0xa0a1
    8020a93e:	a0a6049b          	addiw	s1,a2,-1526 # a0a0a0a <$d.6+0x9fd9baf>
    8020a942:	02049913          	slli	s2,s1,0x20
    8020a946:	9926                	add	s2,s2,s1
    8020a948:	84ae                	mv	s1,a1
    8020a94a:	01053c03          	ld	s8,16(a0)
    8020a94e:	610c                	ld	a1,0(a0)
    8020a950:	f8b43823          	sd	a1,-112(s0)
    8020a954:	6508                	ld	a0,8(a0)
    8020a956:	f8a43423          	sd	a0,-120(s0)
    8020a95a:	fff48513          	addi	a0,s1,-1
    8020a95e:	f6a43c23          	sd	a0,-136(s0)

000000008020a962 <.Lpcrel_hi399>:
    8020a962:	00004517          	auipc	a0,0x4
    8020a966:	e0e50513          	addi	a0,a0,-498 # 8020e770 <$d.36+0x4>
    8020a96a:	f8a43023          	sd	a0,-128(s0)
    8020a96e:	4d29                	li	s10,10
    8020a970:	f6943823          	sd	s1,-144(s0)
    8020a974:	0169f563          	bgeu	s3,s6,8020a97e <.Lpcrel_hi399+0x1c>
    8020a978:	a8c9                	j	8020aa4a <.Lpcrel_hi400+0x5a>
    8020a97a:	0d69e863          	bltu	s3,s6,8020aa4a <.Lpcrel_hi400+0x5a>
    8020a97e:	416988b3          	sub	a7,s3,s6
    8020a982:	01648533          	add	a0,s1,s6
    8020a986:	45c1                	li	a1,16
    8020a988:	00b8ff63          	bgeu	a7,a1,8020a9a6 <.Lpcrel_hi399+0x44>
    8020a98c:	0b698e63          	beq	s3,s6,8020aa48 <.Lpcrel_hi400+0x58>
    8020a990:	4681                	li	a3,0
    8020a992:	00d505b3          	add	a1,a0,a3
    8020a996:	0005c583          	lbu	a1,0(a1)
    8020a99a:	09a58863          	beq	a1,s10,8020aa2a <.Lpcrel_hi400+0x3a>
    8020a99e:	0685                	addi	a3,a3,1
    8020a9a0:	fed899e3          	bne	a7,a3,8020a992 <.Lpcrel_hi399+0x30>
    8020a9a4:	a055                	j	8020aa48 <.Lpcrel_hi400+0x58>
    8020a9a6:	00750713          	addi	a4,a0,7
    8020a9aa:	9b61                	andi	a4,a4,-8
    8020a9ac:	40a70633          	sub	a2,a4,a0
    8020a9b0:	c205                	beqz	a2,8020a9d0 <.Lpcrel_hi399+0x6e>
    8020a9b2:	4681                	li	a3,0
    8020a9b4:	00d507b3          	add	a5,a0,a3
    8020a9b8:	0007c783          	lbu	a5,0(a5)
    8020a9bc:	07a78763          	beq	a5,s10,8020aa2a <.Lpcrel_hi400+0x3a>
    8020a9c0:	0685                	addi	a3,a3,1
    8020a9c2:	fed619e3          	bne	a2,a3,8020a9b4 <.Lpcrel_hi399+0x52>
    8020a9c6:	ff088813          	addi	a6,a7,-16
    8020a9ca:	00c87563          	bgeu	a6,a2,8020a9d4 <.Lpcrel_hi399+0x72>
    8020a9ce:	a83d                	j	8020aa0c <.Lpcrel_hi400+0x1c>
    8020a9d0:	ff088813          	addi	a6,a7,-16
    8020a9d4:	45a1                	li	a1,8
    8020a9d6:	972e                	add	a4,a4,a1
    8020a9d8:	ff873783          	ld	a5,-8(a4)
    8020a9dc:	6304                	ld	s1,0(a4)
    8020a9de:	0127c6b3          	xor	a3,a5,s2
    8020a9e2:	96de                	add	a3,a3,s7
    8020a9e4:	fff7c793          	not	a5,a5
    8020a9e8:	8efd                	and	a3,a3,a5
    8020a9ea:	0124c7b3          	xor	a5,s1,s2
    8020a9ee:	97de                	add	a5,a5,s7

000000008020a9f0 <.Lpcrel_hi400>:
    8020a9f0:	0011c597          	auipc	a1,0x11c
    8020a9f4:	de85b583          	ld	a1,-536(a1) # 803267d8 <.LCPI158_0>
    8020a9f8:	fff4c493          	not	s1,s1
    8020a9fc:	8fe5                	and	a5,a5,s1
    8020a9fe:	8edd                	or	a3,a3,a5
    8020aa00:	8df5                	and	a1,a1,a3
    8020aa02:	e589                	bnez	a1,8020aa0c <.Lpcrel_hi400+0x1c>
    8020aa04:	0641                	addi	a2,a2,16
    8020aa06:	0741                	addi	a4,a4,16
    8020aa08:	fcc878e3          	bgeu	a6,a2,8020a9d8 <.Lpcrel_hi399+0x76>
    8020aa0c:	0ac88363          	beq	a7,a2,8020aab2 <.Lpcrel_hi400+0xc2>
    8020aa10:	f7043483          	ld	s1,-144(s0)
    8020aa14:	00c505b3          	add	a1,a0,a2
    8020aa18:	0005c583          	lbu	a1,0(a1)
    8020aa1c:	01a58663          	beq	a1,s10,8020aa28 <.Lpcrel_hi400+0x38>
    8020aa20:	0605                	addi	a2,a2,1
    8020aa22:	fec899e3          	bne	a7,a2,8020aa14 <.Lpcrel_hi400+0x24>
    8020aa26:	a00d                	j	8020aa48 <.Lpcrel_hi400+0x58>
    8020aa28:	86b2                	mv	a3,a2
    8020aa2a:	00db05b3          	add	a1,s6,a3
    8020aa2e:	00158b13          	addi	s6,a1,1
    8020aa32:	f535f4e3          	bgeu	a1,s3,8020a97a <.Lpcrel_hi399+0x18>
    8020aa36:	9536                	add	a0,a0,a3
    8020aa38:	00054503          	lbu	a0,0(a0)
    8020aa3c:	f3a51fe3          	bne	a0,s10,8020a97a <.Lpcrel_hi399+0x18>
    8020aa40:	4a05                	li	s4,1
    8020aa42:	8dda                	mv	s11,s6
    8020aa44:	8ada                	mv	s5,s6
    8020aa46:	a801                	j	8020aa56 <.Lpcrel_hi400+0x66>
    8020aa48:	8b4e                	mv	s6,s3
    8020aa4a:	4a01                	li	s4,0
    8020aa4c:	4581                	li	a1,0
    8020aa4e:	8de6                	mv	s11,s9
    8020aa50:	8ace                	mv	s5,s3
    8020aa52:	073c8563          	beq	s9,s3,8020aabc <.Lpcrel_hi400+0xcc>
    8020aa56:	000c4503          	lbu	a0,0(s8)
    8020aa5a:	c919                	beqz	a0,8020aa70 <.Lpcrel_hi400+0x80>
    8020aa5c:	f8843503          	ld	a0,-120(s0)
    8020aa60:	6d14                	ld	a3,24(a0)
    8020aa62:	4611                	li	a2,4
    8020aa64:	f9043503          	ld	a0,-112(s0)
    8020aa68:	f8043583          	ld	a1,-128(s0)
    8020aa6c:	9682                	jalr	a3
    8020aa6e:	e531                	bnez	a0,8020aaba <.Lpcrel_hi400+0xca>
    8020aa70:	019a9463          	bne	s5,s9,8020aa78 <.Lpcrel_hi400+0x88>
    8020aa74:	4501                	li	a0,0
    8020aa76:	a809                	j	8020aa88 <.Lpcrel_hi400+0x98>
    8020aa78:	f7843503          	ld	a0,-136(s0)
    8020aa7c:	9556                	add	a0,a0,s5
    8020aa7e:	00054503          	lbu	a0,0(a0)
    8020aa82:	1559                	addi	a0,a0,-10
    8020aa84:	00153513          	seqz	a0,a0
    8020aa88:	00ac0023          	sb	a0,0(s8)
    8020aa8c:	f8843503          	ld	a0,-120(s0)
    8020aa90:	6d14                	ld	a3,24(a0)
    8020aa92:	419a8633          	sub	a2,s5,s9
    8020aa96:	019485b3          	add	a1,s1,s9
    8020aa9a:	f9043503          	ld	a0,-112(s0)
    8020aa9e:	9682                	jalr	a3
    8020aaa0:	40a005b3          	neg	a1,a0
    8020aaa4:	ed01                	bnez	a0,8020aabc <.Lpcrel_hi400+0xcc>
    8020aaa6:	001a4513          	xori	a0,s4,1
    8020aaaa:	8cee                	mv	s9,s11
    8020aaac:	ec0504e3          	beqz	a0,8020a974 <.Lpcrel_hi399+0x12>
    8020aab0:	a031                	j	8020aabc <.Lpcrel_hi400+0xcc>
    8020aab2:	8b4e                	mv	s6,s3
    8020aab4:	f7043483          	ld	s1,-144(s0)
    8020aab8:	bf49                	j	8020aa4a <.Lpcrel_hi400+0x5a>
    8020aaba:	4585                	li	a1,1
    8020aabc:	0015f513          	andi	a0,a1,1
    8020aac0:	60aa                	ld	ra,136(sp)
    8020aac2:	640a                	ld	s0,128(sp)
    8020aac4:	74e6                	ld	s1,120(sp)
    8020aac6:	7946                	ld	s2,112(sp)
    8020aac8:	79a6                	ld	s3,104(sp)
    8020aaca:	7a06                	ld	s4,96(sp)
    8020aacc:	6ae6                	ld	s5,88(sp)
    8020aace:	6b46                	ld	s6,80(sp)
    8020aad0:	6ba6                	ld	s7,72(sp)
    8020aad2:	6c06                	ld	s8,64(sp)
    8020aad4:	7ce2                	ld	s9,56(sp)
    8020aad6:	7d42                	ld	s10,48(sp)
    8020aad8:	7da2                	ld	s11,40(sp)
    8020aada:	6149                	addi	sp,sp,144
    8020aadc:	8082                	ret

000000008020aade <_ZN68_$LT$core..fmt..builders..PadAdapter$u20$as$u20$core..fmt..Write$GT$10write_char17h83c9bd3a5994e164E>:
    8020aade:	7179                	addi	sp,sp,-48
    8020aae0:	f406                	sd	ra,40(sp)
    8020aae2:	f022                	sd	s0,32(sp)
    8020aae4:	ec26                	sd	s1,24(sp)
    8020aae6:	e84a                	sd	s2,16(sp)
    8020aae8:	e44e                	sd	s3,8(sp)
    8020aaea:	e052                	sd	s4,0(sp)
    8020aaec:	1800                	addi	s0,sp,48
    8020aaee:	6904                	ld	s1,16(a0)
    8020aaf0:	0004c603          	lbu	a2,0(s1)
    8020aaf4:	00053903          	ld	s2,0(a0)
    8020aaf8:	00853983          	ld	s3,8(a0)
    8020aafc:	c61d                	beqz	a2,8020ab2a <.Lpcrel_hi401+0x28>
    8020aafe:	0189b703          	ld	a4,24(s3)

000000008020ab02 <.Lpcrel_hi401>:
    8020ab02:	00004517          	auipc	a0,0x4
    8020ab06:	c6e50693          	addi	a3,a0,-914 # 8020e770 <$d.36+0x4>
    8020ab0a:	4611                	li	a2,4
    8020ab0c:	854a                	mv	a0,s2
    8020ab0e:	8a2e                	mv	s4,a1
    8020ab10:	85b6                	mv	a1,a3
    8020ab12:	9702                	jalr	a4
    8020ab14:	85d2                	mv	a1,s4
    8020ab16:	c911                	beqz	a0,8020ab2a <.Lpcrel_hi401+0x28>
    8020ab18:	4505                	li	a0,1
    8020ab1a:	70a2                	ld	ra,40(sp)
    8020ab1c:	7402                	ld	s0,32(sp)
    8020ab1e:	64e2                	ld	s1,24(sp)
    8020ab20:	6942                	ld	s2,16(sp)
    8020ab22:	69a2                	ld	s3,8(sp)
    8020ab24:	6a02                	ld	s4,0(sp)
    8020ab26:	6145                	addi	sp,sp,48
    8020ab28:	8082                	ret
    8020ab2a:	0005851b          	sext.w	a0,a1
    8020ab2e:	1559                	addi	a0,a0,-10
    8020ab30:	00153513          	seqz	a0,a0
    8020ab34:	00a48023          	sb	a0,0(s1)
    8020ab38:	0209b783          	ld	a5,32(s3)
    8020ab3c:	854a                	mv	a0,s2
    8020ab3e:	70a2                	ld	ra,40(sp)
    8020ab40:	7402                	ld	s0,32(sp)
    8020ab42:	64e2                	ld	s1,24(sp)
    8020ab44:	6942                	ld	s2,16(sp)
    8020ab46:	69a2                	ld	s3,8(sp)
    8020ab48:	6a02                	ld	s4,0(sp)
    8020ab4a:	6145                	addi	sp,sp,48
    8020ab4c:	8782                	jr	a5

000000008020ab4e <_ZN4core3fmt8builders11DebugStruct5field17hdbd5c179fb429ed6E>:
    8020ab4e:	7171                	addi	sp,sp,-176
    8020ab50:	f506                	sd	ra,168(sp)
    8020ab52:	f122                	sd	s0,160(sp)
    8020ab54:	ed26                	sd	s1,152(sp)
    8020ab56:	e94a                	sd	s2,144(sp)
    8020ab58:	e54e                	sd	s3,136(sp)
    8020ab5a:	e152                	sd	s4,128(sp)
    8020ab5c:	fcd6                	sd	s5,120(sp)
    8020ab5e:	f8da                	sd	s6,112(sp)
    8020ab60:	f4de                	sd	s7,104(sp)
    8020ab62:	f0e2                	sd	s8,96(sp)
    8020ab64:	1900                	addi	s0,sp,176
    8020ab66:	00854783          	lbu	a5,8(a0)
    8020ab6a:	4a85                	li	s5,1
    8020ab6c:	4485                	li	s1,1
    8020ab6e:	16079b63          	bnez	a5,8020ace4 <.Lpcrel_hi404+0x22>
    8020ab72:	89ba                	mv	s3,a4
    8020ab74:	8936                	mv	s2,a3
    8020ab76:	00053a03          	ld	s4,0(a0)
    8020ab7a:	034a6683          	lwu	a3,52(s4)
    8020ab7e:	00954703          	lbu	a4,9(a0)
    8020ab82:	0046f793          	andi	a5,a3,4
    8020ab86:	8b2a                	mv	s6,a0
    8020ab88:	eb99                	bnez	a5,8020ab9e <.Lpcrel_hi403+0xa>
    8020ab8a:	00173693          	seqz	a3,a4
    8020ab8e:	8c2e                	mv	s8,a1
    8020ab90:	8bb2                	mv	s7,a2
    8020ab92:	c77d                	beqz	a4,8020ac80 <.Lpcrel_hi402>

000000008020ab94 <.Lpcrel_hi403>:
    8020ab94:	00006517          	auipc	a0,0x6
    8020ab98:	1bf50593          	addi	a1,a0,447 # 80210d53 <.Lanon.ecd42e7c4e68db44e18ec9922ac55289.287>
    8020ab9c:	a0f5                	j	8020ac88 <.Lpcrel_hi402+0x8>
    8020ab9e:	eb05                	bnez	a4,8020abce <.Lpcrel_hi405+0x24>
    8020aba0:	028a3683          	ld	a3,40(s4)
    8020aba4:	020a3503          	ld	a0,32(s4)
    8020aba8:	6e98                	ld	a4,24(a3)

000000008020abaa <.Lpcrel_hi405>:
    8020abaa:	00006697          	auipc	a3,0x6
    8020abae:	1ab68693          	addi	a3,a3,427 # 80210d55 <.Lanon.ecd42e7c4e68db44e18ec9922ac55289.288>
    8020abb2:	8bb2                	mv	s7,a2
    8020abb4:	460d                	li	a2,3
    8020abb6:	84ae                	mv	s1,a1
    8020abb8:	85b6                	mv	a1,a3
    8020abba:	9702                	jalr	a4
    8020abbc:	85a6                	mv	a1,s1
    8020abbe:	86aa                	mv	a3,a0
    8020abc0:	4485                	li	s1,1
    8020abc2:	855a                	mv	a0,s6
    8020abc4:	12069063          	bnez	a3,8020ace4 <.Lpcrel_hi404+0x22>
    8020abc8:	865e                	mv	a2,s7
    8020abca:	034a2683          	lw	a3,52(s4)
    8020abce:	020a3503          	ld	a0,32(s4)
    8020abd2:	028a3703          	ld	a4,40(s4)
    8020abd6:	4485                	li	s1,1
    8020abd8:	f69407a3          	sb	s1,-145(s0)
    8020abdc:	f4a43823          	sd	a0,-176(s0)
    8020abe0:	f4e43c23          	sd	a4,-168(s0)
    8020abe4:	f6f40513          	addi	a0,s0,-145
    8020abe8:	f6a43023          	sd	a0,-160(s0)
    8020abec:	030a2503          	lw	a0,48(s4)
    8020abf0:	038a4703          	lbu	a4,56(s4)
    8020abf4:	000a3783          	ld	a5,0(s4)
    8020abf8:	008a3803          	ld	a6,8(s4)
    8020abfc:	010a3883          	ld	a7,16(s4)
    8020ac00:	018a3283          	ld	t0,24(s4)
    8020ac04:	fad42223          	sw	a3,-92(s0)
    8020ac08:	faa42023          	sw	a0,-96(s0)
    8020ac0c:	fae40423          	sb	a4,-88(s0)
    8020ac10:	f6f43823          	sd	a5,-144(s0)
    8020ac14:	f7043c23          	sd	a6,-136(s0)
    8020ac18:	f9143023          	sd	a7,-128(s0)
    8020ac1c:	f8543423          	sd	t0,-120(s0)
    8020ac20:	f5040513          	addi	a0,s0,-176
    8020ac24:	f8a43823          	sd	a0,-112(s0)

000000008020ac28 <.Lpcrel_hi406>:
    8020ac28:	00006517          	auipc	a0,0x6
    8020ac2c:	0f850513          	addi	a0,a0,248 # 80210d20 <.Lanon.ecd42e7c4e68db44e18ec9922ac55289.284>
    8020ac30:	f8a43c23          	sd	a0,-104(s0)
    8020ac34:	f5040513          	addi	a0,s0,-176
    8020ac38:	00000097          	auipc	ra,0x0
    8020ac3c:	cd0080e7          	jalr	-816(ra) # 8020a908 <_ZN68_$LT$core..fmt..builders..PadAdapter$u20$as$u20$core..fmt..Write$GT$9write_str17hc811fc8a989fcfefE>
    8020ac40:	e14d                	bnez	a0,8020ace2 <.Lpcrel_hi404+0x20>

000000008020ac42 <.Lpcrel_hi407>:
    8020ac42:	00006517          	auipc	a0,0x6
    8020ac46:	0b650593          	addi	a1,a0,182 # 80210cf8 <.Lanon.ecd42e7c4e68db44e18ec9922ac55289.282>
    8020ac4a:	f5040513          	addi	a0,s0,-176
    8020ac4e:	4609                	li	a2,2
    8020ac50:	00000097          	auipc	ra,0x0
    8020ac54:	cb8080e7          	jalr	-840(ra) # 8020a908 <_ZN68_$LT$core..fmt..builders..PadAdapter$u20$as$u20$core..fmt..Write$GT$9write_str17hc811fc8a989fcfefE>
    8020ac58:	e549                	bnez	a0,8020ace2 <.Lpcrel_hi404+0x20>
    8020ac5a:	0189b603          	ld	a2,24(s3)
    8020ac5e:	f7040593          	addi	a1,s0,-144
    8020ac62:	854a                	mv	a0,s2
    8020ac64:	9602                	jalr	a2
    8020ac66:	ed35                	bnez	a0,8020ace2 <.Lpcrel_hi404+0x20>
    8020ac68:	f9843583          	ld	a1,-104(s0)
    8020ac6c:	f9043503          	ld	a0,-112(s0)
    8020ac70:	6d94                	ld	a3,24(a1)

000000008020ac72 <.Lpcrel_hi408>:
    8020ac72:	00006597          	auipc	a1,0x6
    8020ac76:	0e658593          	addi	a1,a1,230 # 80210d58 <.Lanon.ecd42e7c4e68db44e18ec9922ac55289.289>
    8020ac7a:	4609                	li	a2,2
    8020ac7c:	9682                	jalr	a3
    8020ac7e:	a08d                	j	8020ace0 <.Lpcrel_hi404+0x1e>

000000008020ac80 <.Lpcrel_hi402>:
    8020ac80:	00006517          	auipc	a0,0x6
    8020ac84:	0d050593          	addi	a1,a0,208 # 80210d50 <.Lanon.ecd42e7c4e68db44e18ec9922ac55289.286>
    8020ac88:	028a3603          	ld	a2,40(s4)
    8020ac8c:	020a3503          	ld	a0,32(s4)
    8020ac90:	6e18                	ld	a4,24(a2)
    8020ac92:	00268613          	addi	a2,a3,2
    8020ac96:	9702                	jalr	a4
    8020ac98:	86aa                	mv	a3,a0
    8020ac9a:	4485                	li	s1,1
    8020ac9c:	855a                	mv	a0,s6
    8020ac9e:	e2b9                	bnez	a3,8020ace4 <.Lpcrel_hi404+0x22>
    8020aca0:	865e                	mv	a2,s7
    8020aca2:	85e2                	mv	a1,s8
    8020aca4:	028a3683          	ld	a3,40(s4)
    8020aca8:	020a3503          	ld	a0,32(s4)
    8020acac:	6e94                	ld	a3,24(a3)
    8020acae:	9682                	jalr	a3
    8020acb0:	85aa                	mv	a1,a0
    8020acb2:	855a                	mv	a0,s6
    8020acb4:	4485                	li	s1,1
    8020acb6:	e59d                	bnez	a1,8020ace4 <.Lpcrel_hi404+0x22>
    8020acb8:	028a3583          	ld	a1,40(s4)
    8020acbc:	020a3503          	ld	a0,32(s4)
    8020acc0:	6d94                	ld	a3,24(a1)

000000008020acc2 <.Lpcrel_hi404>:
    8020acc2:	00006597          	auipc	a1,0x6
    8020acc6:	03658593          	addi	a1,a1,54 # 80210cf8 <.Lanon.ecd42e7c4e68db44e18ec9922ac55289.282>
    8020acca:	4609                	li	a2,2
    8020accc:	9682                	jalr	a3
    8020acce:	85aa                	mv	a1,a0
    8020acd0:	855a                	mv	a0,s6
    8020acd2:	4485                	li	s1,1
    8020acd4:	e981                	bnez	a1,8020ace4 <.Lpcrel_hi404+0x22>
    8020acd6:	0189b603          	ld	a2,24(s3)
    8020acda:	854a                	mv	a0,s2
    8020acdc:	85d2                	mv	a1,s4
    8020acde:	9602                	jalr	a2
    8020ace0:	84aa                	mv	s1,a0
    8020ace2:	855a                	mv	a0,s6
    8020ace4:	00950423          	sb	s1,8(a0)
    8020ace8:	015504a3          	sb	s5,9(a0)
    8020acec:	70aa                	ld	ra,168(sp)
    8020acee:	740a                	ld	s0,160(sp)
    8020acf0:	64ea                	ld	s1,152(sp)
    8020acf2:	694a                	ld	s2,144(sp)
    8020acf4:	69aa                	ld	s3,136(sp)
    8020acf6:	6a0a                	ld	s4,128(sp)
    8020acf8:	7ae6                	ld	s5,120(sp)
    8020acfa:	7b46                	ld	s6,112(sp)
    8020acfc:	7ba6                	ld	s7,104(sp)
    8020acfe:	7c06                	ld	s8,96(sp)
    8020ad00:	614d                	addi	sp,sp,176
    8020ad02:	8082                	ret

000000008020ad04 <_ZN4core3fmt8builders10DebugTuple5field17h8a280a6900df4f3dE>:
    8020ad04:	7135                	addi	sp,sp,-160
    8020ad06:	ed06                	sd	ra,152(sp)
    8020ad08:	e922                	sd	s0,144(sp)
    8020ad0a:	e526                	sd	s1,136(sp)
    8020ad0c:	e14a                	sd	s2,128(sp)
    8020ad0e:	fcce                	sd	s3,120(sp)
    8020ad10:	f8d2                	sd	s4,112(sp)
    8020ad12:	f4d6                	sd	s5,104(sp)
    8020ad14:	f0da                	sd	s6,96(sp)
    8020ad16:	1100                	addi	s0,sp,160
    8020ad18:	01054683          	lbu	a3,16(a0)
    8020ad1c:	00053a03          	ld	s4,0(a0)
    8020ad20:	4905                	li	s2,1
    8020ad22:	eaf5                	bnez	a3,8020ae16 <.Lpcrel_hi415+0x2a>
    8020ad24:	6504                	ld	s1,8(a0)
    8020ad26:	0344e683          	lwu	a3,52(s1)
    8020ad2a:	0046f713          	andi	a4,a3,4
    8020ad2e:	ef09                	bnez	a4,8020ad48 <.Lpcrel_hi416+0xa>
    8020ad30:	014036b3          	snez	a3,s4
    8020ad34:	8ab2                	mv	s5,a2
    8020ad36:	89ae                	mv	s3,a1
    8020ad38:	8b2a                	mv	s6,a0
    8020ad3a:	0a0a0963          	beqz	s4,8020adec <.Lpcrel_hi415>

000000008020ad3e <.Lpcrel_hi416>:
    8020ad3e:	00006517          	auipc	a0,0x6
    8020ad42:	01550593          	addi	a1,a0,21 # 80210d53 <.Lanon.ecd42e7c4e68db44e18ec9922ac55289.287>
    8020ad46:	a07d                	j	8020adf4 <.Lpcrel_hi415+0x8>
    8020ad48:	89ae                	mv	s3,a1
    8020ad4a:	8aaa                	mv	s5,a0
    8020ad4c:	020a1163          	bnez	s4,8020ad6e <.Lpcrel_hi417+0x16>
    8020ad50:	8b32                	mv	s6,a2
    8020ad52:	748c                	ld	a1,40(s1)
    8020ad54:	7088                	ld	a0,32(s1)
    8020ad56:	6d94                	ld	a3,24(a1)

000000008020ad58 <.Lpcrel_hi417>:
    8020ad58:	00006597          	auipc	a1,0x6
    8020ad5c:	00658593          	addi	a1,a1,6 # 80210d5e <.Lanon.ecd42e7c4e68db44e18ec9922ac55289.296>
    8020ad60:	4609                	li	a2,2
    8020ad62:	9682                	jalr	a3
    8020ad64:	85aa                	mv	a1,a0
    8020ad66:	8556                	mv	a0,s5
    8020ad68:	e5dd                	bnez	a1,8020ae16 <.Lpcrel_hi415+0x2a>
    8020ad6a:	58d4                	lw	a3,52(s1)
    8020ad6c:	865a                	mv	a2,s6
    8020ad6e:	7088                	ld	a0,32(s1)
    8020ad70:	748c                	ld	a1,40(s1)
    8020ad72:	4905                	li	s2,1
    8020ad74:	f7240fa3          	sb	s2,-129(s0)
    8020ad78:	f6a43023          	sd	a0,-160(s0)
    8020ad7c:	f6b43423          	sd	a1,-152(s0)
    8020ad80:	f7f40513          	addi	a0,s0,-129
    8020ad84:	f6a43823          	sd	a0,-144(s0)
    8020ad88:	5888                	lw	a0,48(s1)
    8020ad8a:	0384c583          	lbu	a1,56(s1)
    8020ad8e:	6098                	ld	a4,0(s1)
    8020ad90:	649c                	ld	a5,8(s1)
    8020ad92:	0104b803          	ld	a6,16(s1)
    8020ad96:	6c84                	ld	s1,24(s1)
    8020ad98:	fad42a23          	sw	a3,-76(s0)
    8020ad9c:	faa42823          	sw	a0,-80(s0)
    8020ada0:	fab40c23          	sb	a1,-72(s0)
    8020ada4:	f8e43023          	sd	a4,-128(s0)
    8020ada8:	f8f43423          	sd	a5,-120(s0)
    8020adac:	f9043823          	sd	a6,-112(s0)
    8020adb0:	f8943c23          	sd	s1,-104(s0)
    8020adb4:	f6040513          	addi	a0,s0,-160
    8020adb8:	faa43023          	sd	a0,-96(s0)
    8020adbc:	6e10                	ld	a2,24(a2)

000000008020adbe <.Lpcrel_hi418>:
    8020adbe:	00006517          	auipc	a0,0x6
    8020adc2:	f6250513          	addi	a0,a0,-158 # 80210d20 <.Lanon.ecd42e7c4e68db44e18ec9922ac55289.284>
    8020adc6:	faa43423          	sd	a0,-88(s0)
    8020adca:	f8040593          	addi	a1,s0,-128
    8020adce:	854e                	mv	a0,s3
    8020add0:	9602                	jalr	a2
    8020add2:	e129                	bnez	a0,8020ae14 <.Lpcrel_hi415+0x28>
    8020add4:	fa843583          	ld	a1,-88(s0)
    8020add8:	fa043503          	ld	a0,-96(s0)
    8020addc:	6d94                	ld	a3,24(a1)

000000008020adde <.Lpcrel_hi419>:
    8020adde:	00006597          	auipc	a1,0x6
    8020ade2:	f7a58593          	addi	a1,a1,-134 # 80210d58 <.Lanon.ecd42e7c4e68db44e18ec9922ac55289.289>
    8020ade6:	4609                	li	a2,2
    8020ade8:	9682                	jalr	a3
    8020adea:	a025                	j	8020ae12 <.Lpcrel_hi415+0x26>

000000008020adec <.Lpcrel_hi415>:
    8020adec:	00006517          	auipc	a0,0x6
    8020adf0:	f7150593          	addi	a1,a0,-143 # 80210d5d <.Lanon.ecd42e7c4e68db44e18ec9922ac55289.295>
    8020adf4:	7490                	ld	a2,40(s1)
    8020adf6:	7088                	ld	a0,32(s1)
    8020adf8:	6e18                	ld	a4,24(a2)
    8020adfa:	00168613          	addi	a2,a3,1
    8020adfe:	9702                	jalr	a4
    8020ae00:	85aa                	mv	a1,a0
    8020ae02:	855a                	mv	a0,s6
    8020ae04:	e989                	bnez	a1,8020ae16 <.Lpcrel_hi415+0x2a>
    8020ae06:	018ab603          	ld	a2,24(s5)
    8020ae0a:	8aaa                	mv	s5,a0
    8020ae0c:	854e                	mv	a0,s3
    8020ae0e:	85a6                	mv	a1,s1
    8020ae10:	9602                	jalr	a2
    8020ae12:	892a                	mv	s2,a0
    8020ae14:	8556                	mv	a0,s5
    8020ae16:	01250823          	sb	s2,16(a0)
    8020ae1a:	0a05                	addi	s4,s4,1
    8020ae1c:	01453023          	sd	s4,0(a0)
    8020ae20:	60ea                	ld	ra,152(sp)
    8020ae22:	644a                	ld	s0,144(sp)
    8020ae24:	64aa                	ld	s1,136(sp)
    8020ae26:	690a                	ld	s2,128(sp)
    8020ae28:	79e6                	ld	s3,120(sp)
    8020ae2a:	7a46                	ld	s4,112(sp)
    8020ae2c:	7aa6                	ld	s5,104(sp)
    8020ae2e:	7b06                	ld	s6,96(sp)
    8020ae30:	610d                	addi	sp,sp,160
    8020ae32:	8082                	ret

000000008020ae34 <_ZN4core3fmt8builders8DebugSet5entry17h3f386b00a7cd59dbE>:
    8020ae34:	7135                	addi	sp,sp,-160
    8020ae36:	ed06                	sd	ra,152(sp)
    8020ae38:	e922                	sd	s0,144(sp)
    8020ae3a:	e526                	sd	s1,136(sp)
    8020ae3c:	e14a                	sd	s2,128(sp)
    8020ae3e:	fcce                	sd	s3,120(sp)
    8020ae40:	f8d2                	sd	s4,112(sp)
    8020ae42:	f4d6                	sd	s5,104(sp)
    8020ae44:	f0da                	sd	s6,96(sp)
    8020ae46:	1100                	addi	s0,sp,160
    8020ae48:	00854683          	lbu	a3,8(a0)
    8020ae4c:	4a05                	li	s4,1
    8020ae4e:	4485                	li	s1,1
    8020ae50:	ce99                	beqz	a3,8020ae6e <_ZN4core3fmt8builders8DebugSet5entry17h3f386b00a7cd59dbE+0x3a>
    8020ae52:	00950423          	sb	s1,8(a0)
    8020ae56:	014504a3          	sb	s4,9(a0)
    8020ae5a:	60ea                	ld	ra,152(sp)
    8020ae5c:	644a                	ld	s0,144(sp)
    8020ae5e:	64aa                	ld	s1,136(sp)
    8020ae60:	690a                	ld	s2,128(sp)
    8020ae62:	79e6                	ld	s3,120(sp)
    8020ae64:	7a46                	ld	s4,112(sp)
    8020ae66:	7aa6                	ld	s5,104(sp)
    8020ae68:	7b06                	ld	s6,96(sp)
    8020ae6a:	610d                	addi	sp,sp,160
    8020ae6c:	8082                	ret
    8020ae6e:	00053983          	ld	s3,0(a0)
    8020ae72:	0349e683          	lwu	a3,52(s3)
    8020ae76:	00954703          	lbu	a4,9(a0)
    8020ae7a:	0046f793          	andi	a5,a3,4
    8020ae7e:	e3a1                	bnez	a5,8020aebe <.Lpcrel_hi422+0x32>
    8020ae80:	c71d                	beqz	a4,8020aeae <.Lpcrel_hi422+0x22>
    8020ae82:	0289b703          	ld	a4,40(s3)
    8020ae86:	0209b683          	ld	a3,32(s3)
    8020ae8a:	6f1c                	ld	a5,24(a4)

000000008020ae8c <.Lpcrel_hi422>:
    8020ae8c:	00006717          	auipc	a4,0x6
    8020ae90:	ec770713          	addi	a4,a4,-313 # 80210d53 <.Lanon.ecd42e7c4e68db44e18ec9922ac55289.287>
    8020ae94:	8932                	mv	s2,a2
    8020ae96:	4609                	li	a2,2
    8020ae98:	8aaa                	mv	s5,a0
    8020ae9a:	8536                	mv	a0,a3
    8020ae9c:	84ae                	mv	s1,a1
    8020ae9e:	85ba                	mv	a1,a4
    8020aea0:	9782                	jalr	a5
    8020aea2:	864a                	mv	a2,s2
    8020aea4:	85a6                	mv	a1,s1
    8020aea6:	86aa                	mv	a3,a0
    8020aea8:	8556                	mv	a0,s5
    8020aeaa:	4485                	li	s1,1
    8020aeac:	f2dd                	bnez	a3,8020ae52 <_ZN4core3fmt8builders8DebugSet5entry17h3f386b00a7cd59dbE+0x1e>
    8020aeae:	6e10                	ld	a2,24(a2)
    8020aeb0:	892a                	mv	s2,a0
    8020aeb2:	852e                	mv	a0,a1
    8020aeb4:	85ce                	mv	a1,s3
    8020aeb6:	9602                	jalr	a2
    8020aeb8:	84aa                	mv	s1,a0
    8020aeba:	854a                	mv	a0,s2
    8020aebc:	bf59                	j	8020ae52 <_ZN4core3fmt8builders8DebugSet5entry17h3f386b00a7cd59dbE+0x1e>
    8020aebe:	892e                	mv	s2,a1
    8020aec0:	8aaa                	mv	s5,a0
    8020aec2:	e705                	bnez	a4,8020aeea <.Lpcrel_hi423+0x1c>
    8020aec4:	0289b583          	ld	a1,40(s3)
    8020aec8:	0209b503          	ld	a0,32(s3)
    8020aecc:	6d94                	ld	a3,24(a1)

000000008020aece <.Lpcrel_hi423>:
    8020aece:	00006597          	auipc	a1,0x6
    8020aed2:	d1e58593          	addi	a1,a1,-738 # 80210bec <.Lanon.ecd42e7c4e68db44e18ec9922ac55289.254>
    8020aed6:	8b32                	mv	s6,a2
    8020aed8:	4605                	li	a2,1
    8020aeda:	4485                	li	s1,1
    8020aedc:	9682                	jalr	a3
    8020aede:	85aa                	mv	a1,a0
    8020aee0:	8556                	mv	a0,s5
    8020aee2:	f9a5                	bnez	a1,8020ae52 <_ZN4core3fmt8builders8DebugSet5entry17h3f386b00a7cd59dbE+0x1e>
    8020aee4:	865a                	mv	a2,s6
    8020aee6:	0349a683          	lw	a3,52(s3)
    8020aeea:	0209b503          	ld	a0,32(s3)
    8020aeee:	0289b583          	ld	a1,40(s3)
    8020aef2:	4485                	li	s1,1
    8020aef4:	f6940fa3          	sb	s1,-129(s0)
    8020aef8:	f6a43023          	sd	a0,-160(s0)
    8020aefc:	f6b43423          	sd	a1,-152(s0)
    8020af00:	f7f40513          	addi	a0,s0,-129
    8020af04:	f6a43823          	sd	a0,-144(s0)
    8020af08:	0309a503          	lw	a0,48(s3)
    8020af0c:	0389c583          	lbu	a1,56(s3)
    8020af10:	0009b703          	ld	a4,0(s3)
    8020af14:	0089b783          	ld	a5,8(s3)
    8020af18:	0109b803          	ld	a6,16(s3)
    8020af1c:	0189b883          	ld	a7,24(s3)
    8020af20:	fad42a23          	sw	a3,-76(s0)
    8020af24:	faa42823          	sw	a0,-80(s0)
    8020af28:	fab40c23          	sb	a1,-72(s0)
    8020af2c:	f8e43023          	sd	a4,-128(s0)
    8020af30:	f8f43423          	sd	a5,-120(s0)
    8020af34:	f9043823          	sd	a6,-112(s0)
    8020af38:	f9143c23          	sd	a7,-104(s0)
    8020af3c:	f6040513          	addi	a0,s0,-160
    8020af40:	faa43023          	sd	a0,-96(s0)
    8020af44:	6e10                	ld	a2,24(a2)

000000008020af46 <.Lpcrel_hi424>:
    8020af46:	00006517          	auipc	a0,0x6
    8020af4a:	dda50513          	addi	a0,a0,-550 # 80210d20 <.Lanon.ecd42e7c4e68db44e18ec9922ac55289.284>
    8020af4e:	faa43423          	sd	a0,-88(s0)
    8020af52:	f8040593          	addi	a1,s0,-128
    8020af56:	854a                	mv	a0,s2
    8020af58:	9602                	jalr	a2
    8020af5a:	ed09                	bnez	a0,8020af74 <.Lpcrel_hi425+0xe>
    8020af5c:	fa843583          	ld	a1,-88(s0)
    8020af60:	fa043503          	ld	a0,-96(s0)
    8020af64:	6d94                	ld	a3,24(a1)

000000008020af66 <.Lpcrel_hi425>:
    8020af66:	00006597          	auipc	a1,0x6
    8020af6a:	df258593          	addi	a1,a1,-526 # 80210d58 <.Lanon.ecd42e7c4e68db44e18ec9922ac55289.289>
    8020af6e:	4609                	li	a2,2
    8020af70:	9682                	jalr	a3
    8020af72:	84aa                	mv	s1,a0
    8020af74:	8556                	mv	a0,s5
    8020af76:	bdf1                	j	8020ae52 <_ZN4core3fmt8builders8DebugSet5entry17h3f386b00a7cd59dbE+0x1e>

000000008020af78 <_ZN4core3fmt8builders9DebugList6finish17hb0a2d6eceb73b577E>:
    8020af78:	1141                	addi	sp,sp,-16
    8020af7a:	e406                	sd	ra,8(sp)
    8020af7c:	e022                	sd	s0,0(sp)
    8020af7e:	0800                	addi	s0,sp,16
    8020af80:	00854583          	lbu	a1,8(a0)
    8020af84:	c591                	beqz	a1,8020af90 <_ZN4core3fmt8builders9DebugList6finish17hb0a2d6eceb73b577E+0x18>
    8020af86:	4505                	li	a0,1
    8020af88:	60a2                	ld	ra,8(sp)
    8020af8a:	6402                	ld	s0,0(sp)
    8020af8c:	0141                	addi	sp,sp,16
    8020af8e:	8082                	ret
    8020af90:	6108                	ld	a0,0(a0)
    8020af92:	750c                	ld	a1,40(a0)
    8020af94:	7108                	ld	a0,32(a0)
    8020af96:	6d9c                	ld	a5,24(a1)

000000008020af98 <.Lpcrel_hi427>:
    8020af98:	00006597          	auipc	a1,0x6
    8020af9c:	dc958593          	addi	a1,a1,-567 # 80210d61 <.Lanon.ecd42e7c4e68db44e18ec9922ac55289.300>
    8020afa0:	4605                	li	a2,1
    8020afa2:	60a2                	ld	ra,8(sp)
    8020afa4:	6402                	ld	s0,0(sp)
    8020afa6:	0141                	addi	sp,sp,16
    8020afa8:	8782                	jr	a5

000000008020afaa <_ZN4core3fmt5Write9write_fmt17ha9a137d9348d7d22E>:
    8020afaa:	1141                	addi	sp,sp,-16
    8020afac:	e406                	sd	ra,8(sp)
    8020afae:	e022                	sd	s0,0(sp)
    8020afb0:	0800                	addi	s0,sp,16

000000008020afb2 <.Lpcrel_hi541>:
    8020afb2:	00006617          	auipc	a2,0x6
    8020afb6:	d6e60613          	addi	a2,a2,-658 # 80210d20 <.Lanon.ecd42e7c4e68db44e18ec9922ac55289.284>
    8020afba:	86ae                	mv	a3,a1
    8020afbc:	85b2                	mv	a1,a2
    8020afbe:	8636                	mv	a2,a3
    8020afc0:	60a2                	ld	ra,8(sp)
    8020afc2:	6402                	ld	s0,0(sp)
    8020afc4:	0141                	addi	sp,sp,16
    8020afc6:	00000317          	auipc	t1,0x0
    8020afca:	02830067          	jr	40(t1) # 8020afee <_ZN4core3fmt5write17h7149f27b6a64b164E>

000000008020afce <_ZN59_$LT$core..fmt..Arguments$u20$as$u20$core..fmt..Display$GT$3fmt17hab871323e3c3d510E>:
    8020afce:	1141                	addi	sp,sp,-16
    8020afd0:	e406                	sd	ra,8(sp)
    8020afd2:	e022                	sd	s0,0(sp)
    8020afd4:	0800                	addi	s0,sp,16
    8020afd6:	7190                	ld	a2,32(a1)
    8020afd8:	758c                	ld	a1,40(a1)
    8020afda:	86aa                	mv	a3,a0
    8020afdc:	8532                	mv	a0,a2
    8020afde:	8636                	mv	a2,a3
    8020afe0:	60a2                	ld	ra,8(sp)
    8020afe2:	6402                	ld	s0,0(sp)
    8020afe4:	0141                	addi	sp,sp,16
    8020afe6:	00000317          	auipc	t1,0x0
    8020afea:	00830067          	jr	8(t1) # 8020afee <_ZN4core3fmt5write17h7149f27b6a64b164E>

000000008020afee <_ZN4core3fmt5write17h7149f27b6a64b164E>:
    8020afee:	7175                	addi	sp,sp,-144
    8020aff0:	e506                	sd	ra,136(sp)
    8020aff2:	e122                	sd	s0,128(sp)
    8020aff4:	fca6                	sd	s1,120(sp)
    8020aff6:	f8ca                	sd	s2,112(sp)
    8020aff8:	f4ce                	sd	s3,104(sp)
    8020affa:	f0d2                	sd	s4,96(sp)
    8020affc:	ecd6                	sd	s5,88(sp)
    8020affe:	e8da                	sd	s6,80(sp)
    8020b000:	e4de                	sd	s7,72(sp)
    8020b002:	e0e2                	sd	s8,64(sp)
    8020b004:	0900                	addi	s0,sp,144
    8020b006:	89b2                	mv	s3,a2
    8020b008:	02000613          	li	a2,32
    8020b00c:	fac43023          	sd	a2,-96(s0)
    8020b010:	460d                	li	a2,3
    8020b012:	fac40423          	sb	a2,-88(s0)
    8020b016:	0209b483          	ld	s1,32(s3)
    8020b01a:	f6043823          	sd	zero,-144(s0)
    8020b01e:	f8043023          	sd	zero,-128(s0)
    8020b022:	f8a43823          	sd	a0,-112(s0)
    8020b026:	f8b43c23          	sd	a1,-104(s0)
    8020b02a:	c8f9                	beqz	s1,8020b100 <_ZN4core3fmt5write17h7149f27b6a64b164E+0x112>
    8020b02c:	0289b503          	ld	a0,40(s3)
    8020b030:	12050663          	beqz	a0,8020b15c <_ZN4core3fmt5write17h7149f27b6a64b164E+0x16e>
    8020b034:	0009bb03          	ld	s6,0(s3)
    8020b038:	0109ba03          	ld	s4,16(s3)
    8020b03c:	fff50593          	addi	a1,a0,-1
    8020b040:	058e                	slli	a1,a1,0x3
    8020b042:	818d                	srli	a1,a1,0x3
    8020b044:	00158913          	addi	s2,a1,1
    8020b048:	0b21                	addi	s6,s6,8
    8020b04a:	03800593          	li	a1,56
    8020b04e:	02b50ab3          	mul	s5,a0,a1
    8020b052:	04e1                	addi	s1,s1,24
    8020b054:	4b89                	li	s7,2
    8020b056:	4c05                	li	s8,1
    8020b058:	000b3603          	ld	a2,0(s6)
    8020b05c:	ca19                	beqz	a2,8020b072 <_ZN4core3fmt5write17h7149f27b6a64b164E+0x84>
    8020b05e:	f9843683          	ld	a3,-104(s0)
    8020b062:	f9043503          	ld	a0,-112(s0)
    8020b066:	ff8b3583          	ld	a1,-8(s6)
    8020b06a:	6e94                	ld	a3,24(a3)
    8020b06c:	9682                	jalr	a3
    8020b06e:	10051b63          	bnez	a0,8020b184 <_ZN4core3fmt5write17h7149f27b6a64b164E+0x196>
    8020b072:	6888                	ld	a0,16(s1)
    8020b074:	faa43023          	sd	a0,-96(s0)
    8020b078:	0184c603          	lbu	a2,24(s1)
    8020b07c:	ff84b583          	ld	a1,-8(s1)
    8020b080:	6088                	ld	a0,0(s1)
    8020b082:	fac40423          	sb	a2,-88(s0)
    8020b086:	c195                	beqz	a1,8020b0aa <_ZN4core3fmt5write17h7149f27b6a64b164E+0xbc>
    8020b088:	01859663          	bne	a1,s8,8020b094 <_ZN4core3fmt5write17h7149f27b6a64b164E+0xa6>
    8020b08c:	0512                	slli	a0,a0,0x4
    8020b08e:	9552                	add	a0,a0,s4
    8020b090:	650c                	ld	a1,8(a0)
    8020b092:	c999                	beqz	a1,8020b0a8 <_ZN4core3fmt5write17h7149f27b6a64b164E+0xba>
    8020b094:	4581                	li	a1,0
    8020b096:	fe84b603          	ld	a2,-24(s1)
    8020b09a:	f6043823          	sd	zero,-144(s0)
    8020b09e:	f6a43c23          	sd	a0,-136(s0)
    8020b0a2:	01761d63          	bne	a2,s7,8020b0bc <_ZN4core3fmt5write17h7149f27b6a64b164E+0xce>
    8020b0a6:	a025                	j	8020b0ce <_ZN4core3fmt5write17h7149f27b6a64b164E+0xe0>
    8020b0a8:	6108                	ld	a0,0(a0)
    8020b0aa:	4585                	li	a1,1
    8020b0ac:	fe84b603          	ld	a2,-24(s1)
    8020b0b0:	f6b43823          	sd	a1,-144(s0)
    8020b0b4:	f6a43c23          	sd	a0,-136(s0)
    8020b0b8:	01760b63          	beq	a2,s7,8020b0ce <_ZN4core3fmt5write17h7149f27b6a64b164E+0xe0>
    8020b0bc:	ff04b583          	ld	a1,-16(s1)
    8020b0c0:	01861a63          	bne	a2,s8,8020b0d4 <_ZN4core3fmt5write17h7149f27b6a64b164E+0xe6>
    8020b0c4:	00459513          	slli	a0,a1,0x4
    8020b0c8:	9552                	add	a0,a0,s4
    8020b0ca:	650c                	ld	a1,8(a0)
    8020b0cc:	c199                	beqz	a1,8020b0d2 <_ZN4core3fmt5write17h7149f27b6a64b164E+0xe4>
    8020b0ce:	4601                	li	a2,0
    8020b0d0:	a019                	j	8020b0d6 <_ZN4core3fmt5write17h7149f27b6a64b164E+0xe8>
    8020b0d2:	610c                	ld	a1,0(a0)
    8020b0d4:	4605                	li	a2,1
    8020b0d6:	6488                	ld	a0,8(s1)
    8020b0d8:	0512                	slli	a0,a0,0x4
    8020b0da:	9552                	add	a0,a0,s4
    8020b0dc:	6514                	ld	a3,8(a0)
    8020b0de:	6108                	ld	a0,0(a0)
    8020b0e0:	f8c43023          	sd	a2,-128(s0)
    8020b0e4:	f8b43423          	sd	a1,-120(s0)
    8020b0e8:	f7040593          	addi	a1,s0,-144
    8020b0ec:	9682                	jalr	a3
    8020b0ee:	e959                	bnez	a0,8020b184 <_ZN4core3fmt5write17h7149f27b6a64b164E+0x196>
    8020b0f0:	0b41                	addi	s6,s6,16
    8020b0f2:	fc8a8a93          	addi	s5,s5,-56
    8020b0f6:	03848493          	addi	s1,s1,56
    8020b0fa:	f40a9fe3          	bnez	s5,8020b058 <_ZN4core3fmt5write17h7149f27b6a64b164E+0x6a>
    8020b0fe:	a891                	j	8020b152 <_ZN4core3fmt5write17h7149f27b6a64b164E+0x164>
    8020b100:	0189ba03          	ld	s4,24(s3)
    8020b104:	040a0c63          	beqz	s4,8020b15c <_ZN4core3fmt5write17h7149f27b6a64b164E+0x16e>
    8020b108:	0109b483          	ld	s1,16(s3)
    8020b10c:	0009ba83          	ld	s5,0(s3)
    8020b110:	fffa0513          	addi	a0,s4,-1
    8020b114:	0512                	slli	a0,a0,0x4
    8020b116:	8111                	srli	a0,a0,0x4
    8020b118:	00150913          	addi	s2,a0,1
    8020b11c:	0aa1                	addi	s5,s5,8
    8020b11e:	0a12                	slli	s4,s4,0x4
    8020b120:	04a1                	addi	s1,s1,8
    8020b122:	000ab603          	ld	a2,0(s5)
    8020b126:	ca11                	beqz	a2,8020b13a <_ZN4core3fmt5write17h7149f27b6a64b164E+0x14c>
    8020b128:	f9843683          	ld	a3,-104(s0)
    8020b12c:	f9043503          	ld	a0,-112(s0)
    8020b130:	ff8ab583          	ld	a1,-8(s5)
    8020b134:	6e94                	ld	a3,24(a3)
    8020b136:	9682                	jalr	a3
    8020b138:	e531                	bnez	a0,8020b184 <_ZN4core3fmt5write17h7149f27b6a64b164E+0x196>
    8020b13a:	6090                	ld	a2,0(s1)
    8020b13c:	ff84b503          	ld	a0,-8(s1)
    8020b140:	f7040593          	addi	a1,s0,-144
    8020b144:	9602                	jalr	a2
    8020b146:	ed1d                	bnez	a0,8020b184 <_ZN4core3fmt5write17h7149f27b6a64b164E+0x196>
    8020b148:	0ac1                	addi	s5,s5,16
    8020b14a:	1a41                	addi	s4,s4,-16
    8020b14c:	04c1                	addi	s1,s1,16
    8020b14e:	fc0a1ae3          	bnez	s4,8020b122 <_ZN4core3fmt5write17h7149f27b6a64b164E+0x134>
    8020b152:	0089b503          	ld	a0,8(s3)
    8020b156:	00a96863          	bltu	s2,a0,8020b166 <_ZN4core3fmt5write17h7149f27b6a64b164E+0x178>
    8020b15a:	a03d                	j	8020b188 <_ZN4core3fmt5write17h7149f27b6a64b164E+0x19a>
    8020b15c:	4901                	li	s2,0
    8020b15e:	0089b503          	ld	a0,8(s3)
    8020b162:	02a07363          	bgeu	zero,a0,8020b188 <_ZN4core3fmt5write17h7149f27b6a64b164E+0x19a>
    8020b166:	0009b503          	ld	a0,0(s3)
    8020b16a:	0912                	slli	s2,s2,0x4
    8020b16c:	992a                	add	s2,s2,a0
    8020b16e:	f9843683          	ld	a3,-104(s0)
    8020b172:	f9043503          	ld	a0,-112(s0)
    8020b176:	00093583          	ld	a1,0(s2)
    8020b17a:	00893603          	ld	a2,8(s2)
    8020b17e:	6e94                	ld	a3,24(a3)
    8020b180:	9682                	jalr	a3
    8020b182:	c119                	beqz	a0,8020b188 <_ZN4core3fmt5write17h7149f27b6a64b164E+0x19a>
    8020b184:	4505                	li	a0,1
    8020b186:	a011                	j	8020b18a <_ZN4core3fmt5write17h7149f27b6a64b164E+0x19c>
    8020b188:	4501                	li	a0,0
    8020b18a:	60aa                	ld	ra,136(sp)
    8020b18c:	640a                	ld	s0,128(sp)
    8020b18e:	74e6                	ld	s1,120(sp)
    8020b190:	7946                	ld	s2,112(sp)
    8020b192:	79a6                	ld	s3,104(sp)
    8020b194:	7a06                	ld	s4,96(sp)
    8020b196:	6ae6                	ld	s5,88(sp)
    8020b198:	6b46                	ld	s6,80(sp)
    8020b19a:	6ba6                	ld	s7,72(sp)
    8020b19c:	6c06                	ld	s8,64(sp)
    8020b19e:	6149                	addi	sp,sp,144
    8020b1a0:	8082                	ret

000000008020b1a2 <_ZN4core3fmt9Formatter12pad_integral17h201c978eebbf5716E>:
    8020b1a2:	7159                	addi	sp,sp,-112
    8020b1a4:	f486                	sd	ra,104(sp)
    8020b1a6:	f0a2                	sd	s0,96(sp)
    8020b1a8:	eca6                	sd	s1,88(sp)
    8020b1aa:	e8ca                	sd	s2,80(sp)
    8020b1ac:	e4ce                	sd	s3,72(sp)
    8020b1ae:	e0d2                	sd	s4,64(sp)
    8020b1b0:	fc56                	sd	s5,56(sp)
    8020b1b2:	f85a                	sd	s6,48(sp)
    8020b1b4:	f45e                	sd	s7,40(sp)
    8020b1b6:	f062                	sd	s8,32(sp)
    8020b1b8:	ec66                	sd	s9,24(sp)
    8020b1ba:	e86a                	sd	s10,16(sp)
    8020b1bc:	e46e                	sd	s11,8(sp)
    8020b1be:	1880                	addi	s0,sp,112
    8020b1c0:	89be                	mv	s3,a5
    8020b1c2:	893a                	mv	s2,a4
    8020b1c4:	8a36                	mv	s4,a3
    8020b1c6:	8b32                	mv	s6,a2
    8020b1c8:	c5b9                	beqz	a1,8020b216 <_ZN4core3fmt9Formatter12pad_integral17h201c978eebbf5716E+0x74>
    8020b1ca:	03456483          	lwu	s1,52(a0)
    8020b1ce:	0014fc13          	andi	s8,s1,1
    8020b1d2:	00110ab7          	lui	s5,0x110
    8020b1d6:	000c0463          	beqz	s8,8020b1de <_ZN4core3fmt9Formatter12pad_integral17h201c978eebbf5716E+0x3c>
    8020b1da:	02b00a93          	li	s5,43
    8020b1de:	9c4e                	add	s8,s8,s3
    8020b1e0:	0044f593          	andi	a1,s1,4
    8020b1e4:	c1a9                	beqz	a1,8020b226 <_ZN4core3fmt9Formatter12pad_integral17h201c978eebbf5716E+0x84>
    8020b1e6:	02000593          	li	a1,32
    8020b1ea:	04ba7263          	bgeu	s4,a1,8020b22e <_ZN4core3fmt9Formatter12pad_integral17h201c978eebbf5716E+0x8c>
    8020b1ee:	4581                	li	a1,0
    8020b1f0:	000a0f63          	beqz	s4,8020b20e <_ZN4core3fmt9Formatter12pad_integral17h201c978eebbf5716E+0x6c>
    8020b1f4:	014b0633          	add	a2,s6,s4
    8020b1f8:	86da                	mv	a3,s6
    8020b1fa:	00068703          	lb	a4,0(a3)
    8020b1fe:	fc072713          	slti	a4,a4,-64
    8020b202:	00174713          	xori	a4,a4,1
    8020b206:	0685                	addi	a3,a3,1
    8020b208:	95ba                	add	a1,a1,a4
    8020b20a:	fec698e3          	bne	a3,a2,8020b1fa <_ZN4core3fmt9Formatter12pad_integral17h201c978eebbf5716E+0x58>
    8020b20e:	9c2e                	add	s8,s8,a1
    8020b210:	610c                	ld	a1,0(a0)
    8020b212:	e99d                	bnez	a1,8020b248 <_ZN4core3fmt9Formatter12pad_integral17h201c978eebbf5716E+0xa6>
    8020b214:	a889                	j	8020b266 <_ZN4core3fmt9Formatter12pad_integral17h201c978eebbf5716E+0xc4>
    8020b216:	5944                	lw	s1,52(a0)
    8020b218:	00198c13          	addi	s8,s3,1
    8020b21c:	02d00a93          	li	s5,45
    8020b220:	0044f593          	andi	a1,s1,4
    8020b224:	f1e9                	bnez	a1,8020b1e6 <_ZN4core3fmt9Formatter12pad_integral17h201c978eebbf5716E+0x44>
    8020b226:	4b01                	li	s6,0
    8020b228:	610c                	ld	a1,0(a0)
    8020b22a:	ed99                	bnez	a1,8020b248 <_ZN4core3fmt9Formatter12pad_integral17h201c978eebbf5716E+0xa6>
    8020b22c:	a82d                	j	8020b266 <_ZN4core3fmt9Formatter12pad_integral17h201c978eebbf5716E+0xc4>
    8020b22e:	8baa                	mv	s7,a0
    8020b230:	855a                	mv	a0,s6
    8020b232:	85d2                	mv	a1,s4
    8020b234:	00001097          	auipc	ra,0x1
    8020b238:	d9a080e7          	jalr	-614(ra) # 8020bfce <_ZN4core3str5count14do_count_chars17he2788df5ec04e5d9E>
    8020b23c:	85aa                	mv	a1,a0
    8020b23e:	855e                	mv	a0,s7
    8020b240:	9c2e                	add	s8,s8,a1
    8020b242:	000bb583          	ld	a1,0(s7)
    8020b246:	c185                	beqz	a1,8020b266 <_ZN4core3fmt9Formatter12pad_integral17h201c978eebbf5716E+0xc4>
    8020b248:	00853c83          	ld	s9,8(a0)
    8020b24c:	019c7d63          	bgeu	s8,s9,8020b266 <_ZN4core3fmt9Formatter12pad_integral17h201c978eebbf5716E+0xc4>
    8020b250:	88a1                	andi	s1,s1,8
    8020b252:	eca1                	bnez	s1,8020b2aa <_ZN4core3fmt9Formatter12pad_integral17h201c978eebbf5716E+0x108>
    8020b254:	03854583          	lbu	a1,56(a0)
    8020b258:	4605                	li	a2,1
    8020b25a:	418c8cb3          	sub	s9,s9,s8
    8020b25e:	08b64e63          	blt	a2,a1,8020b2fa <_ZN4core3fmt9Formatter12pad_integral17h201c978eebbf5716E+0x158>
    8020b262:	c5dd                	beqz	a1,8020b310 <_ZN4core3fmt9Formatter12pad_integral17h201c978eebbf5716E+0x16e>
    8020b264:	a065                	j	8020b30c <_ZN4core3fmt9Formatter12pad_integral17h201c978eebbf5716E+0x16a>
    8020b266:	02053b83          	ld	s7,32(a0)
    8020b26a:	7504                	ld	s1,40(a0)
    8020b26c:	855e                	mv	a0,s7
    8020b26e:	85a6                	mv	a1,s1
    8020b270:	8656                	mv	a2,s5
    8020b272:	86da                	mv	a3,s6
    8020b274:	8752                	mv	a4,s4
    8020b276:	00000097          	auipc	ra,0x0
    8020b27a:	152080e7          	jalr	338(ra) # 8020b3c8 <_ZN4core3fmt9Formatter12pad_integral12write_prefix17h81636d30f1bcd6edE>
    8020b27e:	85aa                	mv	a1,a0
    8020b280:	4505                	li	a0,1
    8020b282:	e9c5                	bnez	a1,8020b332 <_ZN4core3fmt9Formatter12pad_integral17h201c978eebbf5716E+0x190>
    8020b284:	6c9c                	ld	a5,24(s1)
    8020b286:	855e                	mv	a0,s7
    8020b288:	85ca                	mv	a1,s2
    8020b28a:	864e                	mv	a2,s3
    8020b28c:	70a6                	ld	ra,104(sp)
    8020b28e:	7406                	ld	s0,96(sp)
    8020b290:	64e6                	ld	s1,88(sp)
    8020b292:	6946                	ld	s2,80(sp)
    8020b294:	69a6                	ld	s3,72(sp)
    8020b296:	6a06                	ld	s4,64(sp)
    8020b298:	7ae2                	ld	s5,56(sp)
    8020b29a:	7b42                	ld	s6,48(sp)
    8020b29c:	7ba2                	ld	s7,40(sp)
    8020b29e:	7c02                	ld	s8,32(sp)
    8020b2a0:	6ce2                	ld	s9,24(sp)
    8020b2a2:	6d42                	ld	s10,16(sp)
    8020b2a4:	6da2                	ld	s11,8(sp)
    8020b2a6:	6165                	addi	sp,sp,112
    8020b2a8:	8782                	jr	a5
    8020b2aa:	5904                	lw	s1,48(a0)
    8020b2ac:	03000593          	li	a1,48
    8020b2b0:	03854603          	lbu	a2,56(a0)
    8020b2b4:	f8c43823          	sd	a2,-112(s0)
    8020b2b8:	02053b83          	ld	s7,32(a0)
    8020b2bc:	02853d03          	ld	s10,40(a0)
    8020b2c0:	d90c                	sw	a1,48(a0)
    8020b2c2:	4585                	li	a1,1
    8020b2c4:	8daa                	mv	s11,a0
    8020b2c6:	02b50c23          	sb	a1,56(a0)
    8020b2ca:	855e                	mv	a0,s7
    8020b2cc:	85ea                	mv	a1,s10
    8020b2ce:	8656                	mv	a2,s5
    8020b2d0:	86da                	mv	a3,s6
    8020b2d2:	8752                	mv	a4,s4
    8020b2d4:	00000097          	auipc	ra,0x0
    8020b2d8:	0f4080e7          	jalr	244(ra) # 8020b3c8 <_ZN4core3fmt9Formatter12pad_integral12write_prefix17h81636d30f1bcd6edE>
    8020b2dc:	e931                	bnez	a0,8020b330 <_ZN4core3fmt9Formatter12pad_integral17h201c978eebbf5716E+0x18e>
    8020b2de:	8a26                	mv	s4,s1
    8020b2e0:	418c84b3          	sub	s1,s9,s8
    8020b2e4:	0485                	addi	s1,s1,1
    8020b2e6:	14fd                	addi	s1,s1,-1
    8020b2e8:	c8dd                	beqz	s1,8020b39e <_ZN4core3fmt9Formatter12pad_integral17h201c978eebbf5716E+0x1fc>
    8020b2ea:	020d3603          	ld	a2,32(s10)
    8020b2ee:	03000593          	li	a1,48
    8020b2f2:	855e                	mv	a0,s7
    8020b2f4:	9602                	jalr	a2
    8020b2f6:	d965                	beqz	a0,8020b2e6 <_ZN4core3fmt9Formatter12pad_integral17h201c978eebbf5716E+0x144>
    8020b2f8:	a825                	j	8020b330 <_ZN4core3fmt9Formatter12pad_integral17h201c978eebbf5716E+0x18e>
    8020b2fa:	4609                	li	a2,2
    8020b2fc:	00c59863          	bne	a1,a2,8020b30c <_ZN4core3fmt9Formatter12pad_integral17h201c978eebbf5716E+0x16a>
    8020b300:	001cd593          	srli	a1,s9,0x1
    8020b304:	0c85                	addi	s9,s9,1
    8020b306:	001cdc93          	srli	s9,s9,0x1
    8020b30a:	a019                	j	8020b310 <_ZN4core3fmt9Formatter12pad_integral17h201c978eebbf5716E+0x16e>
    8020b30c:	85e6                	mv	a1,s9
    8020b30e:	4c81                	li	s9,0
    8020b310:	02053b83          	ld	s7,32(a0)
    8020b314:	02853d03          	ld	s10,40(a0)
    8020b318:	03052c03          	lw	s8,48(a0)
    8020b31c:	00158493          	addi	s1,a1,1
    8020b320:	14fd                	addi	s1,s1,-1
    8020b322:	c49d                	beqz	s1,8020b350 <_ZN4core3fmt9Formatter12pad_integral17h201c978eebbf5716E+0x1ae>
    8020b324:	020d3603          	ld	a2,32(s10)
    8020b328:	855e                	mv	a0,s7
    8020b32a:	85e2                	mv	a1,s8
    8020b32c:	9602                	jalr	a2
    8020b32e:	d96d                	beqz	a0,8020b320 <_ZN4core3fmt9Formatter12pad_integral17h201c978eebbf5716E+0x17e>
    8020b330:	4505                	li	a0,1
    8020b332:	70a6                	ld	ra,104(sp)
    8020b334:	7406                	ld	s0,96(sp)
    8020b336:	64e6                	ld	s1,88(sp)
    8020b338:	6946                	ld	s2,80(sp)
    8020b33a:	69a6                	ld	s3,72(sp)
    8020b33c:	6a06                	ld	s4,64(sp)
    8020b33e:	7ae2                	ld	s5,56(sp)
    8020b340:	7b42                	ld	s6,48(sp)
    8020b342:	7ba2                	ld	s7,40(sp)
    8020b344:	7c02                	ld	s8,32(sp)
    8020b346:	6ce2                	ld	s9,24(sp)
    8020b348:	6d42                	ld	s10,16(sp)
    8020b34a:	6da2                	ld	s11,8(sp)
    8020b34c:	6165                	addi	sp,sp,112
    8020b34e:	8082                	ret
    8020b350:	855e                	mv	a0,s7
    8020b352:	85ea                	mv	a1,s10
    8020b354:	8656                	mv	a2,s5
    8020b356:	86da                	mv	a3,s6
    8020b358:	8752                	mv	a4,s4
    8020b35a:	00000097          	auipc	ra,0x0
    8020b35e:	06e080e7          	jalr	110(ra) # 8020b3c8 <_ZN4core3fmt9Formatter12pad_integral12write_prefix17h81636d30f1bcd6edE>
    8020b362:	85aa                	mv	a1,a0
    8020b364:	4505                	li	a0,1
    8020b366:	f5f1                	bnez	a1,8020b332 <_ZN4core3fmt9Formatter12pad_integral17h201c978eebbf5716E+0x190>
    8020b368:	018d3683          	ld	a3,24(s10)
    8020b36c:	855e                	mv	a0,s7
    8020b36e:	85ca                	mv	a1,s2
    8020b370:	864e                	mv	a2,s3
    8020b372:	9682                	jalr	a3
    8020b374:	85aa                	mv	a1,a0
    8020b376:	4505                	li	a0,1
    8020b378:	fdcd                	bnez	a1,8020b332 <_ZN4core3fmt9Formatter12pad_integral17h201c978eebbf5716E+0x190>
    8020b37a:	41900933          	neg	s2,s9
    8020b37e:	59fd                	li	s3,-1
    8020b380:	54fd                	li	s1,-1
    8020b382:	00990533          	add	a0,s2,s1
    8020b386:	03350d63          	beq	a0,s3,8020b3c0 <_ZN4core3fmt9Formatter12pad_integral17h201c978eebbf5716E+0x21e>
    8020b38a:	020d3603          	ld	a2,32(s10)
    8020b38e:	855e                	mv	a0,s7
    8020b390:	85e2                	mv	a1,s8
    8020b392:	9602                	jalr	a2
    8020b394:	0485                	addi	s1,s1,1
    8020b396:	d575                	beqz	a0,8020b382 <_ZN4core3fmt9Formatter12pad_integral17h201c978eebbf5716E+0x1e0>
    8020b398:	0194b533          	sltu	a0,s1,s9
    8020b39c:	bf59                	j	8020b332 <_ZN4core3fmt9Formatter12pad_integral17h201c978eebbf5716E+0x190>
    8020b39e:	018d3683          	ld	a3,24(s10)
    8020b3a2:	855e                	mv	a0,s7
    8020b3a4:	85ca                	mv	a1,s2
    8020b3a6:	864e                	mv	a2,s3
    8020b3a8:	9682                	jalr	a3
    8020b3aa:	85aa                	mv	a1,a0
    8020b3ac:	4505                	li	a0,1
    8020b3ae:	f1d1                	bnez	a1,8020b332 <_ZN4core3fmt9Formatter12pad_integral17h201c978eebbf5716E+0x190>
    8020b3b0:	4501                	li	a0,0
    8020b3b2:	034da823          	sw	s4,48(s11)
    8020b3b6:	f9043583          	ld	a1,-112(s0)
    8020b3ba:	02bd8c23          	sb	a1,56(s11)
    8020b3be:	bf95                	j	8020b332 <_ZN4core3fmt9Formatter12pad_integral17h201c978eebbf5716E+0x190>
    8020b3c0:	84e6                	mv	s1,s9
    8020b3c2:	019cb533          	sltu	a0,s9,s9
    8020b3c6:	b7b5                	j	8020b332 <_ZN4core3fmt9Formatter12pad_integral17h201c978eebbf5716E+0x190>

000000008020b3c8 <_ZN4core3fmt9Formatter12pad_integral12write_prefix17h81636d30f1bcd6edE>:
    8020b3c8:	7179                	addi	sp,sp,-48
    8020b3ca:	f406                	sd	ra,40(sp)
    8020b3cc:	f022                	sd	s0,32(sp)
    8020b3ce:	ec26                	sd	s1,24(sp)
    8020b3d0:	e84a                	sd	s2,16(sp)
    8020b3d2:	e44e                	sd	s3,8(sp)
    8020b3d4:	e052                	sd	s4,0(sp)
    8020b3d6:	1800                	addi	s0,sp,48
    8020b3d8:	0006079b          	sext.w	a5,a2
    8020b3dc:	001104b7          	lui	s1,0x110
    8020b3e0:	893a                	mv	s2,a4
    8020b3e2:	8a36                	mv	s4,a3
    8020b3e4:	89ae                	mv	s3,a1
    8020b3e6:	00978b63          	beq	a5,s1,8020b3fc <_ZN4core3fmt9Formatter12pad_integral12write_prefix17h81636d30f1bcd6edE+0x34>
    8020b3ea:	0209b683          	ld	a3,32(s3)
    8020b3ee:	84aa                	mv	s1,a0
    8020b3f0:	85b2                	mv	a1,a2
    8020b3f2:	9682                	jalr	a3
    8020b3f4:	862a                	mv	a2,a0
    8020b3f6:	8526                	mv	a0,s1
    8020b3f8:	4585                	li	a1,1
    8020b3fa:	e205                	bnez	a2,8020b41a <_ZN4core3fmt9Formatter12pad_integral12write_prefix17h81636d30f1bcd6edE+0x52>
    8020b3fc:	000a0e63          	beqz	s4,8020b418 <_ZN4core3fmt9Formatter12pad_integral12write_prefix17h81636d30f1bcd6edE+0x50>
    8020b400:	0189b783          	ld	a5,24(s3)
    8020b404:	85d2                	mv	a1,s4
    8020b406:	864a                	mv	a2,s2
    8020b408:	70a2                	ld	ra,40(sp)
    8020b40a:	7402                	ld	s0,32(sp)
    8020b40c:	64e2                	ld	s1,24(sp)
    8020b40e:	6942                	ld	s2,16(sp)
    8020b410:	69a2                	ld	s3,8(sp)
    8020b412:	6a02                	ld	s4,0(sp)
    8020b414:	6145                	addi	sp,sp,48
    8020b416:	8782                	jr	a5
    8020b418:	4581                	li	a1,0
    8020b41a:	852e                	mv	a0,a1
    8020b41c:	70a2                	ld	ra,40(sp)
    8020b41e:	7402                	ld	s0,32(sp)
    8020b420:	64e2                	ld	s1,24(sp)
    8020b422:	6942                	ld	s2,16(sp)
    8020b424:	69a2                	ld	s3,8(sp)
    8020b426:	6a02                	ld	s4,0(sp)
    8020b428:	6145                	addi	sp,sp,48
    8020b42a:	8082                	ret

000000008020b42c <_ZN4core3fmt9Formatter3pad17h4f816dac4be33f2eE>:
    8020b42c:	715d                	addi	sp,sp,-80
    8020b42e:	e486                	sd	ra,72(sp)
    8020b430:	e0a2                	sd	s0,64(sp)
    8020b432:	fc26                	sd	s1,56(sp)
    8020b434:	f84a                	sd	s2,48(sp)
    8020b436:	f44e                	sd	s3,40(sp)
    8020b438:	f052                	sd	s4,32(sp)
    8020b43a:	ec56                	sd	s5,24(sp)
    8020b43c:	e85a                	sd	s6,16(sp)
    8020b43e:	e45e                	sd	s7,8(sp)
    8020b440:	0880                	addi	s0,sp,80
    8020b442:	00053303          	ld	t1,0(a0)
    8020b446:	6918                	ld	a4,16(a0)
    8020b448:	00e367b3          	or	a5,t1,a4
    8020b44c:	89b2                	mv	s3,a2
    8020b44e:	892e                	mv	s2,a1
    8020b450:	14078b63          	beqz	a5,8020b5a6 <_ZN4core3fmt9Formatter3pad17h4f816dac4be33f2eE+0x17a>
    8020b454:	cb6d                	beqz	a4,8020b546 <_ZN4core3fmt9Formatter3pad17h4f816dac4be33f2eE+0x11a>
    8020b456:	6d18                	ld	a4,24(a0)
    8020b458:	01390633          	add	a2,s2,s3
    8020b45c:	4781                	li	a5,0
    8020b45e:	cf2d                	beqz	a4,8020b4d8 <_ZN4core3fmt9Formatter3pad17h4f816dac4be33f2eE+0xac>
    8020b460:	0e000293          	li	t0,224
    8020b464:	0f000893          	li	a7,240
    8020b468:	00110837          	lui	a6,0x110
    8020b46c:	84ca                	mv	s1,s2
    8020b46e:	a801                	j	8020b47e <_ZN4core3fmt9Formatter3pad17h4f816dac4be33f2eE+0x52>
    8020b470:	00148593          	addi	a1,s1,1 # 110001 <$d.6+0x491a6>
    8020b474:	8f85                	sub	a5,a5,s1
    8020b476:	177d                	addi	a4,a4,-1
    8020b478:	97ae                	add	a5,a5,a1
    8020b47a:	84ae                	mv	s1,a1
    8020b47c:	cf39                	beqz	a4,8020b4da <_ZN4core3fmt9Formatter3pad17h4f816dac4be33f2eE+0xae>
    8020b47e:	0cc48463          	beq	s1,a2,8020b546 <_ZN4core3fmt9Formatter3pad17h4f816dac4be33f2eE+0x11a>
    8020b482:	00048583          	lb	a1,0(s1)
    8020b486:	fe05d5e3          	bgez	a1,8020b470 <_ZN4core3fmt9Formatter3pad17h4f816dac4be33f2eE+0x44>
    8020b48a:	0ff5f593          	zext.b	a1,a1
    8020b48e:	0255ef63          	bltu	a1,t0,8020b4cc <_ZN4core3fmt9Formatter3pad17h4f816dac4be33f2eE+0xa0>
    8020b492:	0515e063          	bltu	a1,a7,8020b4d2 <_ZN4core3fmt9Formatter3pad17h4f816dac4be33f2eE+0xa6>
    8020b496:	0014c383          	lbu	t2,1(s1)
    8020b49a:	0024c683          	lbu	a3,2(s1)
    8020b49e:	03f3f393          	andi	t2,t2,63
    8020b4a2:	03f6f693          	andi	a3,a3,63
    8020b4a6:	0034ce03          	lbu	t3,3(s1)
    8020b4aa:	15f6                	slli	a1,a1,0x3d
    8020b4ac:	02b5de93          	srli	t4,a1,0x2b
    8020b4b0:	03b2                	slli	t2,t2,0xc
    8020b4b2:	069a                	slli	a3,a3,0x6
    8020b4b4:	0076e6b3          	or	a3,a3,t2
    8020b4b8:	03fe7593          	andi	a1,t3,63
    8020b4bc:	8dd5                	or	a1,a1,a3
    8020b4be:	01d5e5b3          	or	a1,a1,t4
    8020b4c2:	09058263          	beq	a1,a6,8020b546 <_ZN4core3fmt9Formatter3pad17h4f816dac4be33f2eE+0x11a>
    8020b4c6:	00448593          	addi	a1,s1,4
    8020b4ca:	b76d                	j	8020b474 <_ZN4core3fmt9Formatter3pad17h4f816dac4be33f2eE+0x48>
    8020b4cc:	00248593          	addi	a1,s1,2
    8020b4d0:	b755                	j	8020b474 <_ZN4core3fmt9Formatter3pad17h4f816dac4be33f2eE+0x48>
    8020b4d2:	00348593          	addi	a1,s1,3
    8020b4d6:	bf79                	j	8020b474 <_ZN4core3fmt9Formatter3pad17h4f816dac4be33f2eE+0x48>
    8020b4d8:	85ca                	mv	a1,s2
    8020b4da:	06c58663          	beq	a1,a2,8020b546 <_ZN4core3fmt9Formatter3pad17h4f816dac4be33f2eE+0x11a>
    8020b4de:	00058603          	lb	a2,0(a1)
    8020b4e2:	04065363          	bgez	a2,8020b528 <_ZN4core3fmt9Formatter3pad17h4f816dac4be33f2eE+0xfc>
    8020b4e6:	0ff67613          	zext.b	a2,a2
    8020b4ea:	0e000693          	li	a3,224
    8020b4ee:	02d66d63          	bltu	a2,a3,8020b528 <_ZN4core3fmt9Formatter3pad17h4f816dac4be33f2eE+0xfc>
    8020b4f2:	0f000693          	li	a3,240
    8020b4f6:	02d66963          	bltu	a2,a3,8020b528 <_ZN4core3fmt9Formatter3pad17h4f816dac4be33f2eE+0xfc>
    8020b4fa:	0015c683          	lbu	a3,1(a1)
    8020b4fe:	0025c703          	lbu	a4,2(a1)
    8020b502:	03f6f693          	andi	a3,a3,63
    8020b506:	03f77713          	andi	a4,a4,63
    8020b50a:	0035c583          	lbu	a1,3(a1)
    8020b50e:	1676                	slli	a2,a2,0x3d
    8020b510:	922d                	srli	a2,a2,0x2b
    8020b512:	06b2                	slli	a3,a3,0xc
    8020b514:	071a                	slli	a4,a4,0x6
    8020b516:	8ed9                	or	a3,a3,a4
    8020b518:	03f5f593          	andi	a1,a1,63
    8020b51c:	8dd5                	or	a1,a1,a3
    8020b51e:	8dd1                	or	a1,a1,a2
    8020b520:	00110637          	lui	a2,0x110
    8020b524:	02c58163          	beq	a1,a2,8020b546 <_ZN4core3fmt9Formatter3pad17h4f816dac4be33f2eE+0x11a>
    8020b528:	cf91                	beqz	a5,8020b544 <_ZN4core3fmt9Formatter3pad17h4f816dac4be33f2eE+0x118>
    8020b52a:	0137fb63          	bgeu	a5,s3,8020b540 <_ZN4core3fmt9Formatter3pad17h4f816dac4be33f2eE+0x114>
    8020b52e:	00f905b3          	add	a1,s2,a5
    8020b532:	00058583          	lb	a1,0(a1)
    8020b536:	fc000613          	li	a2,-64
    8020b53a:	00c5d563          	bge	a1,a2,8020b544 <_ZN4core3fmt9Formatter3pad17h4f816dac4be33f2eE+0x118>
    8020b53e:	a021                	j	8020b546 <_ZN4core3fmt9Formatter3pad17h4f816dac4be33f2eE+0x11a>
    8020b540:	01379363          	bne	a5,s3,8020b546 <_ZN4core3fmt9Formatter3pad17h4f816dac4be33f2eE+0x11a>
    8020b544:	89be                	mv	s3,a5
    8020b546:	06030063          	beqz	t1,8020b5a6 <_ZN4core3fmt9Formatter3pad17h4f816dac4be33f2eE+0x17a>
    8020b54a:	6504                	ld	s1,8(a0)
    8020b54c:	02000593          	li	a1,32
    8020b550:	04b9f063          	bgeu	s3,a1,8020b590 <_ZN4core3fmt9Formatter3pad17h4f816dac4be33f2eE+0x164>
    8020b554:	4581                	li	a1,0
    8020b556:	00098f63          	beqz	s3,8020b574 <_ZN4core3fmt9Formatter3pad17h4f816dac4be33f2eE+0x148>
    8020b55a:	01390633          	add	a2,s2,s3
    8020b55e:	86ca                	mv	a3,s2
    8020b560:	00068703          	lb	a4,0(a3)
    8020b564:	fc072713          	slti	a4,a4,-64
    8020b568:	00174713          	xori	a4,a4,1
    8020b56c:	0685                	addi	a3,a3,1
    8020b56e:	95ba                	add	a1,a1,a4
    8020b570:	fec698e3          	bne	a3,a2,8020b560 <_ZN4core3fmt9Formatter3pad17h4f816dac4be33f2eE+0x134>
    8020b574:	0295f963          	bgeu	a1,s1,8020b5a6 <_ZN4core3fmt9Formatter3pad17h4f816dac4be33f2eE+0x17a>
    8020b578:	03854683          	lbu	a3,56(a0)
    8020b57c:	4601                	li	a2,0
    8020b57e:	4705                	li	a4,1
    8020b580:	40b48ab3          	sub	s5,s1,a1
    8020b584:	04d74163          	blt	a4,a3,8020b5c6 <_ZN4core3fmt9Formatter3pad17h4f816dac4be33f2eE+0x19a>
    8020b588:	c6b9                	beqz	a3,8020b5d6 <_ZN4core3fmt9Formatter3pad17h4f816dac4be33f2eE+0x1aa>
    8020b58a:	8656                	mv	a2,s5
    8020b58c:	4a81                	li	s5,0
    8020b58e:	a0a1                	j	8020b5d6 <_ZN4core3fmt9Formatter3pad17h4f816dac4be33f2eE+0x1aa>
    8020b590:	8a2a                	mv	s4,a0
    8020b592:	854a                	mv	a0,s2
    8020b594:	85ce                	mv	a1,s3
    8020b596:	00001097          	auipc	ra,0x1
    8020b59a:	a38080e7          	jalr	-1480(ra) # 8020bfce <_ZN4core3str5count14do_count_chars17he2788df5ec04e5d9E>
    8020b59e:	85aa                	mv	a1,a0
    8020b5a0:	8552                	mv	a0,s4
    8020b5a2:	fc95ebe3          	bltu	a1,s1,8020b578 <_ZN4core3fmt9Formatter3pad17h4f816dac4be33f2eE+0x14c>
    8020b5a6:	750c                	ld	a1,40(a0)
    8020b5a8:	7108                	ld	a0,32(a0)
    8020b5aa:	6d9c                	ld	a5,24(a1)
    8020b5ac:	85ca                	mv	a1,s2
    8020b5ae:	864e                	mv	a2,s3
    8020b5b0:	60a6                	ld	ra,72(sp)
    8020b5b2:	6406                	ld	s0,64(sp)
    8020b5b4:	74e2                	ld	s1,56(sp)
    8020b5b6:	7942                	ld	s2,48(sp)
    8020b5b8:	79a2                	ld	s3,40(sp)
    8020b5ba:	7a02                	ld	s4,32(sp)
    8020b5bc:	6ae2                	ld	s5,24(sp)
    8020b5be:	6b42                	ld	s6,16(sp)
    8020b5c0:	6ba2                	ld	s7,8(sp)
    8020b5c2:	6161                	addi	sp,sp,80
    8020b5c4:	8782                	jr	a5
    8020b5c6:	4589                	li	a1,2
    8020b5c8:	00b69763          	bne	a3,a1,8020b5d6 <_ZN4core3fmt9Formatter3pad17h4f816dac4be33f2eE+0x1aa>
    8020b5cc:	001ad613          	srli	a2,s5,0x1
    8020b5d0:	0a85                	addi	s5,s5,1 # 110001 <$d.6+0x491a6>
    8020b5d2:	001ada93          	srli	s5,s5,0x1
    8020b5d6:	02053a03          	ld	s4,32(a0)
    8020b5da:	02853b83          	ld	s7,40(a0)
    8020b5de:	03052b03          	lw	s6,48(a0)
    8020b5e2:	00160493          	addi	s1,a2,1 # 110001 <$d.6+0x491a6>
    8020b5e6:	14fd                	addi	s1,s1,-1
    8020b5e8:	c889                	beqz	s1,8020b5fa <_ZN4core3fmt9Formatter3pad17h4f816dac4be33f2eE+0x1ce>
    8020b5ea:	020bb603          	ld	a2,32(s7)
    8020b5ee:	8552                	mv	a0,s4
    8020b5f0:	85da                	mv	a1,s6
    8020b5f2:	9602                	jalr	a2
    8020b5f4:	d96d                	beqz	a0,8020b5e6 <_ZN4core3fmt9Formatter3pad17h4f816dac4be33f2eE+0x1ba>
    8020b5f6:	4505                	li	a0,1
    8020b5f8:	a82d                	j	8020b632 <_ZN4core3fmt9Formatter3pad17h4f816dac4be33f2eE+0x206>
    8020b5fa:	018bb683          	ld	a3,24(s7)
    8020b5fe:	8552                	mv	a0,s4
    8020b600:	85ca                	mv	a1,s2
    8020b602:	864e                	mv	a2,s3
    8020b604:	9682                	jalr	a3
    8020b606:	85aa                	mv	a1,a0
    8020b608:	4505                	li	a0,1
    8020b60a:	e585                	bnez	a1,8020b632 <_ZN4core3fmt9Formatter3pad17h4f816dac4be33f2eE+0x206>
    8020b60c:	41500933          	neg	s2,s5
    8020b610:	59fd                	li	s3,-1
    8020b612:	54fd                	li	s1,-1
    8020b614:	00990533          	add	a0,s2,s1
    8020b618:	01350a63          	beq	a0,s3,8020b62c <_ZN4core3fmt9Formatter3pad17h4f816dac4be33f2eE+0x200>
    8020b61c:	020bb603          	ld	a2,32(s7)
    8020b620:	8552                	mv	a0,s4
    8020b622:	85da                	mv	a1,s6
    8020b624:	9602                	jalr	a2
    8020b626:	0485                	addi	s1,s1,1
    8020b628:	d575                	beqz	a0,8020b614 <_ZN4core3fmt9Formatter3pad17h4f816dac4be33f2eE+0x1e8>
    8020b62a:	a011                	j	8020b62e <_ZN4core3fmt9Formatter3pad17h4f816dac4be33f2eE+0x202>
    8020b62c:	84d6                	mv	s1,s5
    8020b62e:	0154b533          	sltu	a0,s1,s5
    8020b632:	60a6                	ld	ra,72(sp)
    8020b634:	6406                	ld	s0,64(sp)
    8020b636:	74e2                	ld	s1,56(sp)
    8020b638:	7942                	ld	s2,48(sp)
    8020b63a:	79a2                	ld	s3,40(sp)
    8020b63c:	7a02                	ld	s4,32(sp)
    8020b63e:	6ae2                	ld	s5,24(sp)
    8020b640:	6b42                	ld	s6,16(sp)
    8020b642:	6ba2                	ld	s7,8(sp)
    8020b644:	6161                	addi	sp,sp,80
    8020b646:	8082                	ret

000000008020b648 <_ZN4core3fmt9Formatter9write_str17h3eab43551042ee87E>:
    8020b648:	1141                	addi	sp,sp,-16
    8020b64a:	e406                	sd	ra,8(sp)
    8020b64c:	e022                	sd	s0,0(sp)
    8020b64e:	0800                	addi	s0,sp,16
    8020b650:	7514                	ld	a3,40(a0)
    8020b652:	7108                	ld	a0,32(a0)
    8020b654:	6e9c                	ld	a5,24(a3)
    8020b656:	60a2                	ld	ra,8(sp)
    8020b658:	6402                	ld	s0,0(sp)
    8020b65a:	0141                	addi	sp,sp,16
    8020b65c:	8782                	jr	a5

000000008020b65e <_ZN4core3fmt9Formatter26debug_struct_field2_finish17hbec8a996f47ae8f1E>:
    8020b65e:	7159                	addi	sp,sp,-112
    8020b660:	f486                	sd	ra,104(sp)
    8020b662:	f0a2                	sd	s0,96(sp)
    8020b664:	eca6                	sd	s1,88(sp)
    8020b666:	e8ca                	sd	s2,80(sp)
    8020b668:	e4ce                	sd	s3,72(sp)
    8020b66a:	e0d2                	sd	s4,64(sp)
    8020b66c:	fc56                	sd	s5,56(sp)
    8020b66e:	f85a                	sd	s6,48(sp)
    8020b670:	f45e                	sd	s7,40(sp)
    8020b672:	f062                	sd	s8,32(sp)
    8020b674:	ec66                	sd	s9,24(sp)
    8020b676:	1880                	addi	s0,sp,112
    8020b678:	84aa                	mv	s1,a0
    8020b67a:	00043903          	ld	s2,0(s0)
    8020b67e:	02853283          	ld	t0,40(a0)
    8020b682:	00843983          	ld	s3,8(s0)
    8020b686:	01043a03          	ld	s4,16(s0)
    8020b68a:	7108                	ld	a0,32(a0)
    8020b68c:	0182b303          	ld	t1,24(t0)
    8020b690:	8ac6                	mv	s5,a7
    8020b692:	8b42                	mv	s6,a6
    8020b694:	8bbe                	mv	s7,a5
    8020b696:	8c3a                	mv	s8,a4
    8020b698:	8cb6                	mv	s9,a3
    8020b69a:	9302                	jalr	t1
    8020b69c:	f8943c23          	sd	s1,-104(s0)
    8020b6a0:	faa40023          	sb	a0,-96(s0)
    8020b6a4:	fa0400a3          	sb	zero,-95(s0)
    8020b6a8:	f9840513          	addi	a0,s0,-104
    8020b6ac:	85e6                	mv	a1,s9
    8020b6ae:	8662                	mv	a2,s8
    8020b6b0:	86de                	mv	a3,s7
    8020b6b2:	875a                	mv	a4,s6
    8020b6b4:	fffff097          	auipc	ra,0xfffff
    8020b6b8:	49a080e7          	jalr	1178(ra) # 8020ab4e <_ZN4core3fmt8builders11DebugStruct5field17hdbd5c179fb429ed6E>
    8020b6bc:	f9840513          	addi	a0,s0,-104
    8020b6c0:	85d6                	mv	a1,s5
    8020b6c2:	864a                	mv	a2,s2
    8020b6c4:	86ce                	mv	a3,s3
    8020b6c6:	8752                	mv	a4,s4
    8020b6c8:	fffff097          	auipc	ra,0xfffff
    8020b6cc:	486080e7          	jalr	1158(ra) # 8020ab4e <_ZN4core3fmt8builders11DebugStruct5field17hdbd5c179fb429ed6E>
    8020b6d0:	fa144503          	lbu	a0,-95(s0)
    8020b6d4:	fa044583          	lbu	a1,-96(s0)
    8020b6d8:	c115                	beqz	a0,8020b6fc <.Lpcrel_hi548+0xc>
    8020b6da:	4505                	li	a0,1
    8020b6dc:	ed85                	bnez	a1,8020b714 <.Lpcrel_hi549+0xc>
    8020b6de:	f9843503          	ld	a0,-104(s0)
    8020b6e2:	03454583          	lbu	a1,52(a0)
    8020b6e6:	8991                	andi	a1,a1,4
    8020b6e8:	ed89                	bnez	a1,8020b702 <.Lpcrel_hi548+0x12>
    8020b6ea:	750c                	ld	a1,40(a0)
    8020b6ec:	7108                	ld	a0,32(a0)
    8020b6ee:	6d94                	ld	a3,24(a1)

000000008020b6f0 <.Lpcrel_hi548>:
    8020b6f0:	00005597          	auipc	a1,0x5
    8020b6f4:	66b58593          	addi	a1,a1,1643 # 80210d5b <.Lanon.ecd42e7c4e68db44e18ec9922ac55289.294>
    8020b6f8:	4609                	li	a2,2
    8020b6fa:	a821                	j	8020b712 <.Lpcrel_hi549+0xa>
    8020b6fc:	00b03533          	snez	a0,a1
    8020b700:	a811                	j	8020b714 <.Lpcrel_hi549+0xc>
    8020b702:	750c                	ld	a1,40(a0)
    8020b704:	7108                	ld	a0,32(a0)
    8020b706:	6d94                	ld	a3,24(a1)

000000008020b708 <.Lpcrel_hi549>:
    8020b708:	00005597          	auipc	a1,0x5
    8020b70c:	65258593          	addi	a1,a1,1618 # 80210d5a <.Lanon.ecd42e7c4e68db44e18ec9922ac55289.293>
    8020b710:	4605                	li	a2,1
    8020b712:	9682                	jalr	a3
    8020b714:	70a6                	ld	ra,104(sp)
    8020b716:	7406                	ld	s0,96(sp)
    8020b718:	64e6                	ld	s1,88(sp)
    8020b71a:	6946                	ld	s2,80(sp)
    8020b71c:	69a6                	ld	s3,72(sp)
    8020b71e:	6a06                	ld	s4,64(sp)
    8020b720:	7ae2                	ld	s5,56(sp)
    8020b722:	7b42                	ld	s6,48(sp)
    8020b724:	7ba2                	ld	s7,40(sp)
    8020b726:	7c02                	ld	s8,32(sp)
    8020b728:	6ce2                	ld	s9,24(sp)
    8020b72a:	6165                	addi	sp,sp,112
    8020b72c:	8082                	ret

000000008020b72e <_ZN4core3fmt9Formatter25debug_tuple_field1_finish17hfc08985d566fe371E>:
    8020b72e:	715d                	addi	sp,sp,-80
    8020b730:	e486                	sd	ra,72(sp)
    8020b732:	e0a2                	sd	s0,64(sp)
    8020b734:	fc26                	sd	s1,56(sp)
    8020b736:	f84a                	sd	s2,48(sp)
    8020b738:	f44e                	sd	s3,40(sp)
    8020b73a:	f052                	sd	s4,32(sp)
    8020b73c:	0880                	addi	s0,sp,80
    8020b73e:	84aa                	mv	s1,a0
    8020b740:	751c                	ld	a5,40(a0)
    8020b742:	7108                	ld	a0,32(a0)
    8020b744:	6f9c                	ld	a5,24(a5)
    8020b746:	893a                	mv	s2,a4
    8020b748:	89b6                	mv	s3,a3
    8020b74a:	8a32                	mv	s4,a2
    8020b74c:	9782                	jalr	a5
    8020b74e:	001a3593          	seqz	a1,s4
    8020b752:	fc943023          	sd	s1,-64(s0)
    8020b756:	fca40423          	sb	a0,-56(s0)
    8020b75a:	fa043c23          	sd	zero,-72(s0)
    8020b75e:	fcb404a3          	sb	a1,-55(s0)
    8020b762:	fb840513          	addi	a0,s0,-72
    8020b766:	85ce                	mv	a1,s3
    8020b768:	864a                	mv	a2,s2
    8020b76a:	fffff097          	auipc	ra,0xfffff
    8020b76e:	59a080e7          	jalr	1434(ra) # 8020ad04 <_ZN4core3fmt8builders10DebugTuple5field17h8a280a6900df4f3dE>
    8020b772:	fb843583          	ld	a1,-72(s0)
    8020b776:	fc844603          	lbu	a2,-56(s0)
    8020b77a:	c5a9                	beqz	a1,8020b7c4 <.Lpcrel_hi559+0xe>
    8020b77c:	4505                	li	a0,1
    8020b77e:	e629                	bnez	a2,8020b7c8 <.Lpcrel_hi559+0x12>
    8020b780:	fc043483          	ld	s1,-64(s0)
    8020b784:	4505                	li	a0,1
    8020b786:	02a59563          	bne	a1,a0,8020b7b0 <.Lpcrel_hi560+0x12>
    8020b78a:	fc944503          	lbu	a0,-55(s0)
    8020b78e:	c10d                	beqz	a0,8020b7b0 <.Lpcrel_hi560+0x12>
    8020b790:	0344c503          	lbu	a0,52(s1)
    8020b794:	8911                	andi	a0,a0,4
    8020b796:	ed09                	bnez	a0,8020b7b0 <.Lpcrel_hi560+0x12>
    8020b798:	748c                	ld	a1,40(s1)
    8020b79a:	7088                	ld	a0,32(s1)
    8020b79c:	6d94                	ld	a3,24(a1)

000000008020b79e <.Lpcrel_hi560>:
    8020b79e:	00005597          	auipc	a1,0x5
    8020b7a2:	5c258593          	addi	a1,a1,1474 # 80210d60 <.Lanon.ecd42e7c4e68db44e18ec9922ac55289.297>
    8020b7a6:	4605                	li	a2,1
    8020b7a8:	9682                	jalr	a3
    8020b7aa:	85aa                	mv	a1,a0
    8020b7ac:	4505                	li	a0,1
    8020b7ae:	ed89                	bnez	a1,8020b7c8 <.Lpcrel_hi559+0x12>
    8020b7b0:	748c                	ld	a1,40(s1)
    8020b7b2:	7088                	ld	a0,32(s1)
    8020b7b4:	6d94                	ld	a3,24(a1)

000000008020b7b6 <.Lpcrel_hi559>:
    8020b7b6:	00005597          	auipc	a1,0x5
    8020b7ba:	39c58593          	addi	a1,a1,924 # 80210b52 <.Lanon.ecd42e7c4e68db44e18ec9922ac55289.168>
    8020b7be:	4605                	li	a2,1
    8020b7c0:	9682                	jalr	a3
    8020b7c2:	a019                	j	8020b7c8 <.Lpcrel_hi559+0x12>
    8020b7c4:	00c03533          	snez	a0,a2
    8020b7c8:	60a6                	ld	ra,72(sp)
    8020b7ca:	6406                	ld	s0,64(sp)
    8020b7cc:	74e2                	ld	s1,56(sp)
    8020b7ce:	7942                	ld	s2,48(sp)
    8020b7d0:	79a2                	ld	s3,40(sp)
    8020b7d2:	7a02                	ld	s4,32(sp)
    8020b7d4:	6161                	addi	sp,sp,80
    8020b7d6:	8082                	ret

000000008020b7d8 <_ZN4core3fmt9Formatter10debug_list17h90f986cc3a5d56faE>:
    8020b7d8:	1101                	addi	sp,sp,-32
    8020b7da:	ec06                	sd	ra,24(sp)
    8020b7dc:	e822                	sd	s0,16(sp)
    8020b7de:	e426                	sd	s1,8(sp)
    8020b7e0:	e04a                	sd	s2,0(sp)
    8020b7e2:	1000                	addi	s0,sp,32
    8020b7e4:	892e                	mv	s2,a1
    8020b7e6:	758c                	ld	a1,40(a1)
    8020b7e8:	02093683          	ld	a3,32(s2)
    8020b7ec:	6d98                	ld	a4,24(a1)
    8020b7ee:	84aa                	mv	s1,a0

000000008020b7f0 <.Lpcrel_hi572>:
    8020b7f0:	00005517          	auipc	a0,0x5
    8020b7f4:	3d050593          	addi	a1,a0,976 # 80210bc0 <.Lanon.ecd42e7c4e68db44e18ec9922ac55289.245>
    8020b7f8:	4605                	li	a2,1
    8020b7fa:	8536                	mv	a0,a3
    8020b7fc:	9702                	jalr	a4
    8020b7fe:	0124b023          	sd	s2,0(s1)
    8020b802:	00a48423          	sb	a0,8(s1)
    8020b806:	000484a3          	sb	zero,9(s1)
    8020b80a:	60e2                	ld	ra,24(sp)
    8020b80c:	6442                	ld	s0,16(sp)
    8020b80e:	64a2                	ld	s1,8(sp)
    8020b810:	6902                	ld	s2,0(sp)
    8020b812:	6105                	addi	sp,sp,32
    8020b814:	8082                	ret

000000008020b816 <_ZN40_$LT$str$u20$as$u20$core..fmt..Debug$GT$3fmt17h62ed9feb6960dcdeE>:
    8020b816:	7131                	addi	sp,sp,-192
    8020b818:	fd06                	sd	ra,184(sp)
    8020b81a:	f922                	sd	s0,176(sp)
    8020b81c:	f526                	sd	s1,168(sp)
    8020b81e:	f14a                	sd	s2,160(sp)
    8020b820:	ed4e                	sd	s3,152(sp)
    8020b822:	e952                	sd	s4,144(sp)
    8020b824:	e556                	sd	s5,136(sp)
    8020b826:	e15a                	sd	s6,128(sp)
    8020b828:	fcde                	sd	s7,120(sp)
    8020b82a:	f8e2                	sd	s8,112(sp)
    8020b82c:	f4e6                	sd	s9,104(sp)
    8020b82e:	f0ea                	sd	s10,96(sp)
    8020b830:	ecee                	sd	s11,88(sp)
    8020b832:	0180                	addi	s0,sp,192
    8020b834:	02863a83          	ld	s5,40(a2)
    8020b838:	02063a03          	ld	s4,32(a2)
    8020b83c:	020ab783          	ld	a5,32(s5)
    8020b840:	8cae                	mv	s9,a1
    8020b842:	892a                	mv	s2,a0
    8020b844:	02200593          	li	a1,34
    8020b848:	8552                	mv	a0,s4
    8020b84a:	f6f43823          	sd	a5,-144(s0)
    8020b84e:	9782                	jalr	a5
    8020b850:	c10d                	beqz	a0,8020b872 <_ZN40_$LT$str$u20$as$u20$core..fmt..Debug$GT$3fmt17h62ed9feb6960dcdeE+0x5c>
    8020b852:	4505                	li	a0,1
    8020b854:	70ea                	ld	ra,184(sp)
    8020b856:	744a                	ld	s0,176(sp)
    8020b858:	74aa                	ld	s1,168(sp)
    8020b85a:	790a                	ld	s2,160(sp)
    8020b85c:	69ea                	ld	s3,152(sp)
    8020b85e:	6a4a                	ld	s4,144(sp)
    8020b860:	6aaa                	ld	s5,136(sp)
    8020b862:	6b0a                	ld	s6,128(sp)
    8020b864:	7be6                	ld	s7,120(sp)
    8020b866:	7c46                	ld	s8,112(sp)
    8020b868:	7ca6                	ld	s9,104(sp)
    8020b86a:	7d06                	ld	s10,96(sp)
    8020b86c:	6de6                	ld	s11,88(sp)
    8020b86e:	6129                	addi	sp,sp,192
    8020b870:	8082                	ret
    8020b872:	4b81                	li	s7,0
    8020b874:	240c8263          	beqz	s9,8020bab8 <.Lpcrel_hi578+0x1c>
    8020b878:	4c01                	li	s8,0
    8020b87a:	019904b3          	add	s1,s2,s9
    8020b87e:	6541                	lui	a0,0x10
    8020b880:	2505                	addiw	a0,a0,1 # 10001 <$d.67+0x714>
    8020b882:	f6a43423          	sd	a0,-152(s0)
    8020b886:	08000d93          	li	s11,128
    8020b88a:	89ca                	mv	s3,s2
    8020b88c:	f7943023          	sd	s9,-160(s0)
    8020b890:	f5243c23          	sd	s2,-168(s0)
    8020b894:	f5543823          	sd	s5,-176(s0)
    8020b898:	f4943423          	sd	s1,-184(s0)
    8020b89c:	a839                	j	8020b8ba <_ZN40_$LT$str$u20$as$u20$core..fmt..Debug$GT$3fmt17h62ed9feb6960dcdeE+0xa4>
    8020b89e:	9be2                	add	s7,s7,s8
    8020b8a0:	f6043c83          	ld	s9,-160(s0)
    8020b8a4:	f5843903          	ld	s2,-168(s0)
    8020b8a8:	f5043a83          	ld	s5,-176(s0)
    8020b8ac:	f4843483          	ld	s1,-184(s0)
    8020b8b0:	41ac0c33          	sub	s8,s8,s10
    8020b8b4:	9c4e                	add	s8,s8,s3
    8020b8b6:	1c998763          	beq	s3,s1,8020ba84 <_ZN40_$LT$str$u20$as$u20$core..fmt..Debug$GT$3fmt17h62ed9feb6960dcdeE+0x26e>
    8020b8ba:	8d4e                	mv	s10,s3
    8020b8bc:	00098503          	lb	a0,0(s3)
    8020b8c0:	0ff57b13          	zext.b	s6,a0
    8020b8c4:	00054563          	bltz	a0,8020b8ce <_ZN40_$LT$str$u20$as$u20$core..fmt..Debug$GT$3fmt17h62ed9feb6960dcdeE+0xb8>
    8020b8c8:	001d0993          	addi	s3,s10,1
    8020b8cc:	a08d                	j	8020b92e <_ZN40_$LT$str$u20$as$u20$core..fmt..Debug$GT$3fmt17h62ed9feb6960dcdeE+0x118>
    8020b8ce:	001d4583          	lbu	a1,1(s10)
    8020b8d2:	01fb7513          	andi	a0,s6,31
    8020b8d6:	03f5f593          	andi	a1,a1,63
    8020b8da:	0df00613          	li	a2,223
    8020b8de:	03667f63          	bgeu	a2,s6,8020b91c <_ZN40_$LT$str$u20$as$u20$core..fmt..Debug$GT$3fmt17h62ed9feb6960dcdeE+0x106>
    8020b8e2:	002d4603          	lbu	a2,2(s10)
    8020b8e6:	003d0993          	addi	s3,s10,3
    8020b8ea:	059a                	slli	a1,a1,0x6
    8020b8ec:	03f67613          	andi	a2,a2,63
    8020b8f0:	8dd1                	or	a1,a1,a2
    8020b8f2:	0f000613          	li	a2,240
    8020b8f6:	02cb6963          	bltu	s6,a2,8020b928 <_ZN40_$LT$str$u20$as$u20$core..fmt..Debug$GT$3fmt17h62ed9feb6960dcdeE+0x112>
    8020b8fa:	0009c603          	lbu	a2,0(s3)
    8020b8fe:	1576                	slli	a0,a0,0x3d
    8020b900:	912d                	srli	a0,a0,0x2b
    8020b902:	059a                	slli	a1,a1,0x6
    8020b904:	03f67613          	andi	a2,a2,63
    8020b908:	8dd1                	or	a1,a1,a2
    8020b90a:	00a5eb33          	or	s6,a1,a0
    8020b90e:	00110537          	lui	a0,0x110
    8020b912:	16ab0963          	beq	s6,a0,8020ba84 <_ZN40_$LT$str$u20$as$u20$core..fmt..Debug$GT$3fmt17h62ed9feb6960dcdeE+0x26e>
    8020b916:	004d0993          	addi	s3,s10,4
    8020b91a:	a811                	j	8020b92e <_ZN40_$LT$str$u20$as$u20$core..fmt..Debug$GT$3fmt17h62ed9feb6960dcdeE+0x118>
    8020b91c:	002d0993          	addi	s3,s10,2
    8020b920:	051a                	slli	a0,a0,0x6
    8020b922:	00b56b33          	or	s6,a0,a1
    8020b926:	a021                	j	8020b92e <_ZN40_$LT$str$u20$as$u20$core..fmt..Debug$GT$3fmt17h62ed9feb6960dcdeE+0x118>
    8020b928:	0532                	slli	a0,a0,0xc
    8020b92a:	00a5eb33          	or	s6,a1,a0
    8020b92e:	f7c40513          	addi	a0,s0,-132
    8020b932:	85da                	mv	a1,s6
    8020b934:	f6843603          	ld	a2,-152(s0)
    8020b938:	fffff097          	auipc	ra,0xfffff
    8020b93c:	9c4080e7          	jalr	-1596(ra) # 8020a2fc <_ZN4core4char7methods22_$LT$impl$u20$char$GT$16escape_debug_ext17h8efcc8a3d0c32644E>
    8020b940:	f7c44503          	lbu	a0,-132(s0)
    8020b944:	f7b506e3          	beq	a0,s11,8020b8b0 <_ZN40_$LT$str$u20$as$u20$core..fmt..Debug$GT$3fmt17h62ed9feb6960dcdeE+0x9a>
    8020b948:	f8744503          	lbu	a0,-121(s0)
    8020b94c:	f8644583          	lbu	a1,-122(s0)
    8020b950:	9d0d                	subw	a0,a0,a1
    8020b952:	0ff57513          	zext.b	a0,a0
    8020b956:	4585                	li	a1,1
    8020b958:	f4b50ce3          	beq	a0,a1,8020b8b0 <_ZN40_$LT$str$u20$as$u20$core..fmt..Debug$GT$3fmt17h62ed9feb6960dcdeE+0x9a>
    8020b95c:	1b7c6663          	bltu	s8,s7,8020bb08 <.Lpcrel_hi579>
    8020b960:	017905b3          	add	a1,s2,s7
    8020b964:	000b8d63          	beqz	s7,8020b97e <_ZN40_$LT$str$u20$as$u20$core..fmt..Debug$GT$3fmt17h62ed9feb6960dcdeE+0x168>
    8020b968:	019bf963          	bgeu	s7,s9,8020b97a <_ZN40_$LT$str$u20$as$u20$core..fmt..Debug$GT$3fmt17h62ed9feb6960dcdeE+0x164>
    8020b96c:	00058503          	lb	a0,0(a1)
    8020b970:	fc000613          	li	a2,-64
    8020b974:	00c55563          	bge	a0,a2,8020b97e <_ZN40_$LT$str$u20$as$u20$core..fmt..Debug$GT$3fmt17h62ed9feb6960dcdeE+0x168>
    8020b978:	aa41                	j	8020bb08 <.Lpcrel_hi579>
    8020b97a:	199b9763          	bne	s7,s9,8020bb08 <.Lpcrel_hi579>
    8020b97e:	000c0f63          	beqz	s8,8020b99c <_ZN40_$LT$str$u20$as$u20$core..fmt..Debug$GT$3fmt17h62ed9feb6960dcdeE+0x186>
    8020b982:	019c7b63          	bgeu	s8,s9,8020b998 <_ZN40_$LT$str$u20$as$u20$core..fmt..Debug$GT$3fmt17h62ed9feb6960dcdeE+0x182>
    8020b986:	01890533          	add	a0,s2,s8
    8020b98a:	00050503          	lb	a0,0(a0) # 110000 <$d.6+0x491a5>
    8020b98e:	fbf00613          	li	a2,-65
    8020b992:	00a64563          	blt	a2,a0,8020b99c <_ZN40_$LT$str$u20$as$u20$core..fmt..Debug$GT$3fmt17h62ed9feb6960dcdeE+0x186>
    8020b996:	aa8d                	j	8020bb08 <.Lpcrel_hi579>
    8020b998:	179c1863          	bne	s8,s9,8020bb08 <.Lpcrel_hi579>
    8020b99c:	018ab683          	ld	a3,24(s5)
    8020b9a0:	417c0633          	sub	a2,s8,s7
    8020b9a4:	8552                	mv	a0,s4
    8020b9a6:	9682                	jalr	a3
    8020b9a8:	ea0515e3          	bnez	a0,8020b852 <_ZN40_$LT$str$u20$as$u20$core..fmt..Debug$GT$3fmt17h62ed9feb6960dcdeE+0x3c>
    8020b9ac:	f8442503          	lw	a0,-124(s0)
    8020b9b0:	f8046583          	lwu	a1,-128(s0)
    8020b9b4:	f7c46603          	lwu	a2,-132(s0)
    8020b9b8:	f8a42823          	sw	a0,-112(s0)
    8020b9bc:	1582                	slli	a1,a1,0x20
    8020b9be:	8dd1                	or	a1,a1,a2
    8020b9c0:	0ff5f513          	zext.b	a0,a1
    8020b9c4:	f8b43423          	sd	a1,-120(s0)
    8020b9c8:	05b51963          	bne	a0,s11,8020ba1a <_ZN40_$LT$str$u20$as$u20$core..fmt..Debug$GT$3fmt17h62ed9feb6960dcdeE+0x204>
    8020b9cc:	08000b93          	li	s7,128
    8020b9d0:	a831                	j	8020b9ec <_ZN40_$LT$str$u20$as$u20$core..fmt..Debug$GT$3fmt17h62ed9feb6960dcdeE+0x1d6>
    8020b9d2:	f8c42583          	lw	a1,-116(s0)
    8020b9d6:	4b81                	li	s7,0
    8020b9d8:	f8042823          	sw	zero,-112(s0)
    8020b9dc:	f8043423          	sd	zero,-120(s0)
    8020b9e0:	8552                	mv	a0,s4
    8020b9e2:	f7043783          	ld	a5,-144(s0)
    8020b9e6:	9782                	jalr	a5
    8020b9e8:	e60515e3          	bnez	a0,8020b852 <_ZN40_$LT$str$u20$as$u20$core..fmt..Debug$GT$3fmt17h62ed9feb6960dcdeE+0x3c>
    8020b9ec:	0ffbf513          	zext.b	a0,s7
    8020b9f0:	ffb501e3          	beq	a0,s11,8020b9d2 <_ZN40_$LT$str$u20$as$u20$core..fmt..Debug$GT$3fmt17h62ed9feb6960dcdeE+0x1bc>
    8020b9f4:	f9244c83          	lbu	s9,-110(s0)
    8020b9f8:	f9344503          	lbu	a0,-109(s0)
    8020b9fc:	06acf663          	bgeu	s9,a0,8020ba68 <_ZN40_$LT$str$u20$as$u20$core..fmt..Debug$GT$3fmt17h62ed9feb6960dcdeE+0x252>
    8020ba00:	001c8513          	addi	a0,s9,1
    8020ba04:	f8a40923          	sb	a0,-110(s0)
    8020ba08:	4529                	li	a0,10
    8020ba0a:	0eacf563          	bgeu	s9,a0,8020baf4 <.Lpcrel_hi580>
    8020ba0e:	f8840513          	addi	a0,s0,-120
    8020ba12:	9caa                	add	s9,s9,a0
    8020ba14:	000cc583          	lbu	a1,0(s9)
    8020ba18:	b7e1                	j	8020b9e0 <_ZN40_$LT$str$u20$as$u20$core..fmt..Debug$GT$3fmt17h62ed9feb6960dcdeE+0x1ca>
    8020ba1a:	f9244903          	lbu	s2,-110(s0)
    8020ba1e:	4529                	li	a0,10
    8020ba20:	8cca                	mv	s9,s2
    8020ba22:	01256363          	bltu	a0,s2,8020ba28 <_ZN40_$LT$str$u20$as$u20$core..fmt..Debug$GT$3fmt17h62ed9feb6960dcdeE+0x212>
    8020ba26:	4ca9                	li	s9,10
    8020ba28:	f9344503          	lbu	a0,-109(s0)
    8020ba2c:	412c8bb3          	sub	s7,s9,s2
    8020ba30:	412505b3          	sub	a1,a0,s2
    8020ba34:	00b53533          	sltu	a0,a0,a1
    8020ba38:	157d                	addi	a0,a0,-1
    8020ba3a:	00b574b3          	and	s1,a0,a1
    8020ba3e:	f8840a93          	addi	s5,s0,-120
    8020ba42:	9aca                	add	s5,s5,s2
    8020ba44:	0905                	addi	s2,s2,1
    8020ba46:	c08d                	beqz	s1,8020ba68 <_ZN40_$LT$str$u20$as$u20$core..fmt..Debug$GT$3fmt17h62ed9feb6960dcdeE+0x252>
    8020ba48:	f9240923          	sb	s2,-110(s0)
    8020ba4c:	0a0b8463          	beqz	s7,8020baf4 <.Lpcrel_hi580>
    8020ba50:	000ac583          	lbu	a1,0(s5)
    8020ba54:	8552                	mv	a0,s4
    8020ba56:	f7043783          	ld	a5,-144(s0)
    8020ba5a:	9782                	jalr	a5
    8020ba5c:	1bfd                	addi	s7,s7,-1
    8020ba5e:	14fd                	addi	s1,s1,-1
    8020ba60:	0a85                	addi	s5,s5,1
    8020ba62:	0905                	addi	s2,s2,1
    8020ba64:	d16d                	beqz	a0,8020ba46 <_ZN40_$LT$str$u20$as$u20$core..fmt..Debug$GT$3fmt17h62ed9feb6960dcdeE+0x230>
    8020ba66:	b3f5                	j	8020b852 <_ZN40_$LT$str$u20$as$u20$core..fmt..Debug$GT$3fmt17h62ed9feb6960dcdeE+0x3c>
    8020ba68:	4b85                	li	s7,1
    8020ba6a:	e3bb6ae3          	bltu	s6,s11,8020b89e <_ZN40_$LT$str$u20$as$u20$core..fmt..Debug$GT$3fmt17h62ed9feb6960dcdeE+0x88>
    8020ba6e:	00bb5513          	srli	a0,s6,0xb
    8020ba72:	4b89                	li	s7,2
    8020ba74:	e20505e3          	beqz	a0,8020b89e <_ZN40_$LT$str$u20$as$u20$core..fmt..Debug$GT$3fmt17h62ed9feb6960dcdeE+0x88>
    8020ba78:	010b5513          	srli	a0,s6,0x10
    8020ba7c:	00a03bb3          	snez	s7,a0
    8020ba80:	0b8d                	addi	s7,s7,3
    8020ba82:	bd31                	j	8020b89e <_ZN40_$LT$str$u20$as$u20$core..fmt..Debug$GT$3fmt17h62ed9feb6960dcdeE+0x88>
    8020ba84:	020b8a63          	beqz	s7,8020bab8 <.Lpcrel_hi578+0x1c>
    8020ba88:	039bf663          	bgeu	s7,s9,8020bab4 <.Lpcrel_hi578+0x18>
    8020ba8c:	01790533          	add	a0,s2,s7
    8020ba90:	00050503          	lb	a0,0(a0)
    8020ba94:	fbf00593          	li	a1,-65
    8020ba98:	02a5c063          	blt	a1,a0,8020bab8 <.Lpcrel_hi578+0x1c>

000000008020ba9c <.Lpcrel_hi578>:
    8020ba9c:	00005517          	auipc	a0,0x5
    8020baa0:	3cc50713          	addi	a4,a0,972 # 80210e68 <.Lanon.ecd42e7c4e68db44e18ec9922ac55289.329>
    8020baa4:	854a                	mv	a0,s2
    8020baa6:	85e6                	mv	a1,s9
    8020baa8:	865e                	mv	a2,s7
    8020baaa:	86e6                	mv	a3,s9
    8020baac:	00000097          	auipc	ra,0x0
    8020bab0:	6ca080e7          	jalr	1738(ra) # 8020c176 <_ZN4core3str16slice_error_fail17h01cf406369352d55E>
    8020bab4:	ff9b94e3          	bne	s7,s9,8020ba9c <.Lpcrel_hi578>
    8020bab8:	018ab683          	ld	a3,24(s5)
    8020babc:	417c8633          	sub	a2,s9,s7
    8020bac0:	017905b3          	add	a1,s2,s7
    8020bac4:	8552                	mv	a0,s4
    8020bac6:	9682                	jalr	a3
    8020bac8:	d80515e3          	bnez	a0,8020b852 <_ZN40_$LT$str$u20$as$u20$core..fmt..Debug$GT$3fmt17h62ed9feb6960dcdeE+0x3c>
    8020bacc:	02200593          	li	a1,34
    8020bad0:	8552                	mv	a0,s4
    8020bad2:	f7043783          	ld	a5,-144(s0)
    8020bad6:	70ea                	ld	ra,184(sp)
    8020bad8:	744a                	ld	s0,176(sp)
    8020bada:	74aa                	ld	s1,168(sp)
    8020badc:	790a                	ld	s2,160(sp)
    8020bade:	69ea                	ld	s3,152(sp)
    8020bae0:	6a4a                	ld	s4,144(sp)
    8020bae2:	6aaa                	ld	s5,136(sp)
    8020bae4:	6b0a                	ld	s6,128(sp)
    8020bae6:	7be6                	ld	s7,120(sp)
    8020bae8:	7c46                	ld	s8,112(sp)
    8020baea:	7ca6                	ld	s9,104(sp)
    8020baec:	7d06                	ld	s10,96(sp)
    8020baee:	6de6                	ld	s11,88(sp)
    8020baf0:	6129                	addi	sp,sp,192
    8020baf2:	8782                	jr	a5

000000008020baf4 <.Lpcrel_hi580>:
    8020baf4:	00006517          	auipc	a0,0x6
    8020baf8:	d2c50613          	addi	a2,a0,-724 # 80211820 <.Lanon.ecd42e7c4e68db44e18ec9922ac55289.439>
    8020bafc:	45a9                	li	a1,10
    8020bafe:	8566                	mv	a0,s9
    8020bb00:	fffff097          	auipc	ra,0xfffff
    8020bb04:	bfe080e7          	jalr	-1026(ra) # 8020a6fe <_ZN4core9panicking18panic_bounds_check17h087f2837af3bd59aE>

000000008020bb08 <.Lpcrel_hi579>:
    8020bb08:	00005517          	auipc	a0,0x5
    8020bb0c:	37850713          	addi	a4,a0,888 # 80210e80 <.Lanon.ecd42e7c4e68db44e18ec9922ac55289.330>
    8020bb10:	854a                	mv	a0,s2
    8020bb12:	85e6                	mv	a1,s9
    8020bb14:	865e                	mv	a2,s7
    8020bb16:	86e2                	mv	a3,s8
    8020bb18:	00000097          	auipc	ra,0x0
    8020bb1c:	65e080e7          	jalr	1630(ra) # 8020c176 <_ZN4core3str16slice_error_fail17h01cf406369352d55E>

000000008020bb20 <_ZN42_$LT$str$u20$as$u20$core..fmt..Display$GT$3fmt17h2a14b39c69050861E>:
    8020bb20:	1141                	addi	sp,sp,-16
    8020bb22:	e406                	sd	ra,8(sp)
    8020bb24:	e022                	sd	s0,0(sp)
    8020bb26:	0800                	addi	s0,sp,16
    8020bb28:	86ae                	mv	a3,a1
    8020bb2a:	85aa                	mv	a1,a0
    8020bb2c:	8532                	mv	a0,a2
    8020bb2e:	8636                	mv	a2,a3
    8020bb30:	60a2                	ld	ra,8(sp)
    8020bb32:	6402                	ld	s0,0(sp)
    8020bb34:	0141                	addi	sp,sp,16
    8020bb36:	00000317          	auipc	t1,0x0
    8020bb3a:	8f630067          	jr	-1802(t1) # 8020b42c <_ZN4core3fmt9Formatter3pad17h4f816dac4be33f2eE>

000000008020bb3e <_ZN41_$LT$char$u20$as$u20$core..fmt..Debug$GT$3fmt17h637c9ae092bdc8a5E>:
    8020bb3e:	711d                	addi	sp,sp,-96
    8020bb40:	ec86                	sd	ra,88(sp)
    8020bb42:	e8a2                	sd	s0,80(sp)
    8020bb44:	e4a6                	sd	s1,72(sp)
    8020bb46:	e0ca                	sd	s2,64(sp)
    8020bb48:	fc4e                	sd	s3,56(sp)
    8020bb4a:	f852                	sd	s4,48(sp)
    8020bb4c:	f456                	sd	s5,40(sp)
    8020bb4e:	f05a                	sd	s6,32(sp)
    8020bb50:	1080                	addi	s0,sp,96
    8020bb52:	7590                	ld	a2,40(a1)
    8020bb54:	0205b903          	ld	s2,32(a1)
    8020bb58:	721c                	ld	a5,32(a2)
    8020bb5a:	84aa                	mv	s1,a0
    8020bb5c:	02700593          	li	a1,39
    8020bb60:	854a                	mv	a0,s2
    8020bb62:	faf43423          	sd	a5,-88(s0)
    8020bb66:	9782                	jalr	a5
    8020bb68:	cd01                	beqz	a0,8020bb80 <_ZN41_$LT$char$u20$as$u20$core..fmt..Debug$GT$3fmt17h637c9ae092bdc8a5E+0x42>
    8020bb6a:	4505                	li	a0,1
    8020bb6c:	60e6                	ld	ra,88(sp)
    8020bb6e:	6446                	ld	s0,80(sp)
    8020bb70:	64a6                	ld	s1,72(sp)
    8020bb72:	6906                	ld	s2,64(sp)
    8020bb74:	79e2                	ld	s3,56(sp)
    8020bb76:	7a42                	ld	s4,48(sp)
    8020bb78:	7aa2                	ld	s5,40(sp)
    8020bb7a:	7b02                	ld	s6,32(sp)
    8020bb7c:	6125                	addi	sp,sp,96
    8020bb7e:	8082                	ret
    8020bb80:	408c                	lw	a1,0(s1)
    8020bb82:	fb040513          	addi	a0,s0,-80
    8020bb86:	10100613          	li	a2,257
    8020bb8a:	fb040993          	addi	s3,s0,-80
    8020bb8e:	ffffe097          	auipc	ra,0xffffe
    8020bb92:	76e080e7          	jalr	1902(ra) # 8020a2fc <_ZN4core4char7methods22_$LT$impl$u20$char$GT$16escape_debug_ext17h8efcc8a3d0c32644E>
    8020bb96:	fb044503          	lbu	a0,-80(s0)
    8020bb9a:	08000a13          	li	s4,128
    8020bb9e:	05451b63          	bne	a0,s4,8020bbf4 <_ZN41_$LT$char$u20$as$u20$core..fmt..Debug$GT$3fmt17h637c9ae092bdc8a5E+0xb6>
    8020bba2:	4aa9                	li	s5,10
    8020bba4:	08000493          	li	s1,128
    8020bba8:	a829                	j	8020bbc2 <_ZN41_$LT$char$u20$as$u20$core..fmt..Debug$GT$3fmt17h637c9ae092bdc8a5E+0x84>
    8020bbaa:	fb442583          	lw	a1,-76(s0)
    8020bbae:	4481                	li	s1,0
    8020bbb0:	fa042c23          	sw	zero,-72(s0)
    8020bbb4:	fa043823          	sd	zero,-80(s0)
    8020bbb8:	854a                	mv	a0,s2
    8020bbba:	fa843783          	ld	a5,-88(s0)
    8020bbbe:	9782                	jalr	a5
    8020bbc0:	f54d                	bnez	a0,8020bb6a <_ZN41_$LT$char$u20$as$u20$core..fmt..Debug$GT$3fmt17h637c9ae092bdc8a5E+0x2c>
    8020bbc2:	0ff4f513          	zext.b	a0,s1
    8020bbc6:	ff4502e3          	beq	a0,s4,8020bbaa <_ZN41_$LT$char$u20$as$u20$core..fmt..Debug$GT$3fmt17h637c9ae092bdc8a5E+0x6c>
    8020bbca:	fba44b03          	lbu	s6,-70(s0)
    8020bbce:	fbb44503          	lbu	a0,-69(s0)
    8020bbd2:	06ab7963          	bgeu	s6,a0,8020bc44 <_ZN41_$LT$char$u20$as$u20$core..fmt..Debug$GT$3fmt17h637c9ae092bdc8a5E+0x106>
    8020bbd6:	001b0513          	addi	a0,s6,1
    8020bbda:	faa40d23          	sb	a0,-70(s0)
    8020bbde:	095b7263          	bgeu	s6,s5,8020bc62 <.Lpcrel_hi581>
    8020bbe2:	9b4e                	add	s6,s6,s3
    8020bbe4:	000b4583          	lbu	a1,0(s6)
    8020bbe8:	854a                	mv	a0,s2
    8020bbea:	fa843783          	ld	a5,-88(s0)
    8020bbee:	9782                	jalr	a5
    8020bbf0:	d969                	beqz	a0,8020bbc2 <_ZN41_$LT$char$u20$as$u20$core..fmt..Debug$GT$3fmt17h637c9ae092bdc8a5E+0x84>
    8020bbf2:	bfa5                	j	8020bb6a <_ZN41_$LT$char$u20$as$u20$core..fmt..Debug$GT$3fmt17h637c9ae092bdc8a5E+0x2c>
    8020bbf4:	fba44483          	lbu	s1,-70(s0)
    8020bbf8:	fbb44503          	lbu	a0,-69(s0)
    8020bbfc:	45a9                	li	a1,10
    8020bbfe:	8b26                	mv	s6,s1
    8020bc00:	0095e363          	bltu	a1,s1,8020bc06 <_ZN41_$LT$char$u20$as$u20$core..fmt..Debug$GT$3fmt17h637c9ae092bdc8a5E+0xc8>
    8020bc04:	4b29                	li	s6,10
    8020bc06:	409b09b3          	sub	s3,s6,s1
    8020bc0a:	409505b3          	sub	a1,a0,s1
    8020bc0e:	00b53533          	sltu	a0,a0,a1
    8020bc12:	157d                	addi	a0,a0,-1
    8020bc14:	00b57a33          	and	s4,a0,a1
    8020bc18:	fb040a93          	addi	s5,s0,-80
    8020bc1c:	9aa6                	add	s5,s5,s1
    8020bc1e:	0485                	addi	s1,s1,1
    8020bc20:	020a0263          	beqz	s4,8020bc44 <_ZN41_$LT$char$u20$as$u20$core..fmt..Debug$GT$3fmt17h637c9ae092bdc8a5E+0x106>
    8020bc24:	fa940d23          	sb	s1,-70(s0)
    8020bc28:	02098d63          	beqz	s3,8020bc62 <.Lpcrel_hi581>
    8020bc2c:	000ac583          	lbu	a1,0(s5)
    8020bc30:	854a                	mv	a0,s2
    8020bc32:	fa843783          	ld	a5,-88(s0)
    8020bc36:	9782                	jalr	a5
    8020bc38:	19fd                	addi	s3,s3,-1
    8020bc3a:	1a7d                	addi	s4,s4,-1
    8020bc3c:	0a85                	addi	s5,s5,1
    8020bc3e:	0485                	addi	s1,s1,1
    8020bc40:	d165                	beqz	a0,8020bc20 <_ZN41_$LT$char$u20$as$u20$core..fmt..Debug$GT$3fmt17h637c9ae092bdc8a5E+0xe2>
    8020bc42:	b725                	j	8020bb6a <_ZN41_$LT$char$u20$as$u20$core..fmt..Debug$GT$3fmt17h637c9ae092bdc8a5E+0x2c>
    8020bc44:	02700593          	li	a1,39
    8020bc48:	854a                	mv	a0,s2
    8020bc4a:	fa843783          	ld	a5,-88(s0)
    8020bc4e:	60e6                	ld	ra,88(sp)
    8020bc50:	6446                	ld	s0,80(sp)
    8020bc52:	64a6                	ld	s1,72(sp)
    8020bc54:	6906                	ld	s2,64(sp)
    8020bc56:	79e2                	ld	s3,56(sp)
    8020bc58:	7a42                	ld	s4,48(sp)
    8020bc5a:	7aa2                	ld	s5,40(sp)
    8020bc5c:	7b02                	ld	s6,32(sp)
    8020bc5e:	6125                	addi	sp,sp,96
    8020bc60:	8782                	jr	a5

000000008020bc62 <.Lpcrel_hi581>:
    8020bc62:	00006517          	auipc	a0,0x6
    8020bc66:	bbe50613          	addi	a2,a0,-1090 # 80211820 <.Lanon.ecd42e7c4e68db44e18ec9922ac55289.439>
    8020bc6a:	45a9                	li	a1,10
    8020bc6c:	855a                	mv	a0,s6
    8020bc6e:	fffff097          	auipc	ra,0xfffff
    8020bc72:	a90080e7          	jalr	-1392(ra) # 8020a6fe <_ZN4core9panicking18panic_bounds_check17h087f2837af3bd59aE>

000000008020bc76 <_ZN4core5slice5index26slice_start_index_len_fail17h4fe0fe1482ca1679E>:
    8020bc76:	1141                	addi	sp,sp,-16
    8020bc78:	e406                	sd	ra,8(sp)
    8020bc7a:	e022                	sd	s0,0(sp)
    8020bc7c:	0800                	addi	s0,sp,16
    8020bc7e:	00000097          	auipc	ra,0x0
    8020bc82:	008080e7          	jalr	8(ra) # 8020bc86 <_ZN4core5slice5index29slice_start_index_len_fail_rt17hc6fcbddd0748c1e2E>

000000008020bc86 <_ZN4core5slice5index29slice_start_index_len_fail_rt17hc6fcbddd0748c1e2E>:
    8020bc86:	7159                	addi	sp,sp,-112
    8020bc88:	f486                	sd	ra,104(sp)
    8020bc8a:	f0a2                	sd	s0,96(sp)
    8020bc8c:	1880                	addi	s0,sp,112
    8020bc8e:	f8a43823          	sd	a0,-112(s0)
    8020bc92:	f8b43c23          	sd	a1,-104(s0)
    8020bc96:	f9040513          	addi	a0,s0,-112
    8020bc9a:	fca43823          	sd	a0,-48(s0)

000000008020bc9e <.Lpcrel_hi600>:
    8020bc9e:	00001517          	auipc	a0,0x1
    8020bca2:	fce50513          	addi	a0,a0,-50 # 8020cc6c <_ZN4core3fmt3num3imp52_$LT$impl$u20$core..fmt..Display$u20$for$u20$u64$GT$3fmt17hdc568abe5d51f18fE>
    8020bca6:	fca43c23          	sd	a0,-40(s0)
    8020bcaa:	f9840593          	addi	a1,s0,-104
    8020bcae:	feb43023          	sd	a1,-32(s0)
    8020bcb2:	fea43423          	sd	a0,-24(s0)

000000008020bcb6 <.Lpcrel_hi601>:
    8020bcb6:	00005517          	auipc	a0,0x5
    8020bcba:	21a50513          	addi	a0,a0,538 # 80210ed0 <.Lanon.ecd42e7c4e68db44e18ec9922ac55289.337>
    8020bcbe:	faa43023          	sd	a0,-96(s0)
    8020bcc2:	4509                	li	a0,2
    8020bcc4:	faa43423          	sd	a0,-88(s0)
    8020bcc8:	fc043023          	sd	zero,-64(s0)
    8020bccc:	fd040593          	addi	a1,s0,-48
    8020bcd0:	fab43823          	sd	a1,-80(s0)
    8020bcd4:	faa43c23          	sd	a0,-72(s0)
    8020bcd8:	fa040513          	addi	a0,s0,-96
    8020bcdc:	85b2                	mv	a1,a2
    8020bcde:	fffff097          	auipc	ra,0xfffff
    8020bce2:	96e080e7          	jalr	-1682(ra) # 8020a64c <_ZN4core9panicking9panic_fmt17hc25dbb51a4d67a42E>

000000008020bce6 <_ZN4core5slice5index24slice_end_index_len_fail17h4f74974912d1b932E>:
    8020bce6:	1141                	addi	sp,sp,-16
    8020bce8:	e406                	sd	ra,8(sp)
    8020bcea:	e022                	sd	s0,0(sp)
    8020bcec:	0800                	addi	s0,sp,16
    8020bcee:	00000097          	auipc	ra,0x0
    8020bcf2:	008080e7          	jalr	8(ra) # 8020bcf6 <_ZN4core5slice5index27slice_end_index_len_fail_rt17hdfcd5556ccc19187E>

000000008020bcf6 <_ZN4core5slice5index27slice_end_index_len_fail_rt17hdfcd5556ccc19187E>:
    8020bcf6:	7159                	addi	sp,sp,-112
    8020bcf8:	f486                	sd	ra,104(sp)
    8020bcfa:	f0a2                	sd	s0,96(sp)
    8020bcfc:	1880                	addi	s0,sp,112
    8020bcfe:	f8a43823          	sd	a0,-112(s0)
    8020bd02:	f8b43c23          	sd	a1,-104(s0)
    8020bd06:	f9040513          	addi	a0,s0,-112
    8020bd0a:	fca43823          	sd	a0,-48(s0)

000000008020bd0e <.Lpcrel_hi602>:
    8020bd0e:	00001517          	auipc	a0,0x1
    8020bd12:	f5e50513          	addi	a0,a0,-162 # 8020cc6c <_ZN4core3fmt3num3imp52_$LT$impl$u20$core..fmt..Display$u20$for$u20$u64$GT$3fmt17hdc568abe5d51f18fE>
    8020bd16:	fca43c23          	sd	a0,-40(s0)
    8020bd1a:	f9840593          	addi	a1,s0,-104
    8020bd1e:	feb43023          	sd	a1,-32(s0)
    8020bd22:	fea43423          	sd	a0,-24(s0)

000000008020bd26 <.Lpcrel_hi603>:
    8020bd26:	00005517          	auipc	a0,0x5
    8020bd2a:	1ca50513          	addi	a0,a0,458 # 80210ef0 <.Lanon.ecd42e7c4e68db44e18ec9922ac55289.339>
    8020bd2e:	faa43023          	sd	a0,-96(s0)
    8020bd32:	4509                	li	a0,2
    8020bd34:	faa43423          	sd	a0,-88(s0)
    8020bd38:	fc043023          	sd	zero,-64(s0)
    8020bd3c:	fd040593          	addi	a1,s0,-48
    8020bd40:	fab43823          	sd	a1,-80(s0)
    8020bd44:	faa43c23          	sd	a0,-72(s0)
    8020bd48:	fa040513          	addi	a0,s0,-96
    8020bd4c:	85b2                	mv	a1,a2
    8020bd4e:	fffff097          	auipc	ra,0xfffff
    8020bd52:	8fe080e7          	jalr	-1794(ra) # 8020a64c <_ZN4core9panicking9panic_fmt17hc25dbb51a4d67a42E>

000000008020bd56 <_ZN4core5slice5index22slice_index_order_fail17h883be29a657f36f8E>:
    8020bd56:	1141                	addi	sp,sp,-16
    8020bd58:	e406                	sd	ra,8(sp)
    8020bd5a:	e022                	sd	s0,0(sp)
    8020bd5c:	0800                	addi	s0,sp,16
    8020bd5e:	00000097          	auipc	ra,0x0
    8020bd62:	008080e7          	jalr	8(ra) # 8020bd66 <_ZN4core5slice5index25slice_index_order_fail_rt17h1ff3d8f1c2571b8bE>

000000008020bd66 <_ZN4core5slice5index25slice_index_order_fail_rt17h1ff3d8f1c2571b8bE>:
    8020bd66:	7159                	addi	sp,sp,-112
    8020bd68:	f486                	sd	ra,104(sp)
    8020bd6a:	f0a2                	sd	s0,96(sp)
    8020bd6c:	1880                	addi	s0,sp,112
    8020bd6e:	f8a43823          	sd	a0,-112(s0)
    8020bd72:	f8b43c23          	sd	a1,-104(s0)
    8020bd76:	f9040513          	addi	a0,s0,-112
    8020bd7a:	fca43823          	sd	a0,-48(s0)

000000008020bd7e <.Lpcrel_hi604>:
    8020bd7e:	00001517          	auipc	a0,0x1
    8020bd82:	eee50513          	addi	a0,a0,-274 # 8020cc6c <_ZN4core3fmt3num3imp52_$LT$impl$u20$core..fmt..Display$u20$for$u20$u64$GT$3fmt17hdc568abe5d51f18fE>
    8020bd86:	fca43c23          	sd	a0,-40(s0)
    8020bd8a:	f9840593          	addi	a1,s0,-104
    8020bd8e:	feb43023          	sd	a1,-32(s0)
    8020bd92:	fea43423          	sd	a0,-24(s0)

000000008020bd96 <.Lpcrel_hi605>:
    8020bd96:	00005517          	auipc	a0,0x5
    8020bd9a:	1a250513          	addi	a0,a0,418 # 80210f38 <.Lanon.ecd42e7c4e68db44e18ec9922ac55289.342>
    8020bd9e:	faa43023          	sd	a0,-96(s0)
    8020bda2:	4509                	li	a0,2
    8020bda4:	faa43423          	sd	a0,-88(s0)
    8020bda8:	fc043023          	sd	zero,-64(s0)
    8020bdac:	fd040593          	addi	a1,s0,-48
    8020bdb0:	fab43823          	sd	a1,-80(s0)
    8020bdb4:	faa43c23          	sd	a0,-72(s0)
    8020bdb8:	fa040513          	addi	a0,s0,-96
    8020bdbc:	85b2                	mv	a1,a2
    8020bdbe:	fffff097          	auipc	ra,0xfffff
    8020bdc2:	88e080e7          	jalr	-1906(ra) # 8020a64c <_ZN4core9panicking9panic_fmt17hc25dbb51a4d67a42E>

000000008020bdc6 <_ZN4core3str8converts9from_utf817ha74d029ccfc0885eE>:
    8020bdc6:	7159                	addi	sp,sp,-112
    8020bdc8:	f486                	sd	ra,104(sp)
    8020bdca:	f0a2                	sd	s0,96(sp)
    8020bdcc:	eca6                	sd	s1,88(sp)
    8020bdce:	e8ca                	sd	s2,80(sp)
    8020bdd0:	e4ce                	sd	s3,72(sp)
    8020bdd2:	e0d2                	sd	s4,64(sp)
    8020bdd4:	fc56                	sd	s5,56(sp)
    8020bdd6:	f85a                	sd	s6,48(sp)
    8020bdd8:	f45e                	sd	s7,40(sp)
    8020bdda:	f062                	sd	s8,32(sp)
    8020bddc:	ec66                	sd	s9,24(sp)
    8020bdde:	e86a                	sd	s10,16(sp)
    8020bde0:	e46e                	sd	s11,8(sp)
    8020bde2:	1880                	addi	s0,sp,112
    8020bde4:	1a060663          	beqz	a2,8020bf90 <.Lpcrel_hi613+0xf2>
    8020bde8:	4481                	li	s1,0
    8020bdea:	ff160713          	addi	a4,a2,-15
    8020bdee:	00e637b3          	sltu	a5,a2,a4
    8020bdf2:	17fd                	addi	a5,a5,-1
    8020bdf4:	00e7ff33          	and	t5,a5,a4
    8020bdf8:	00758793          	addi	a5,a1,7
    8020bdfc:	9be1                	andi	a5,a5,-8
    8020bdfe:	40b78833          	sub	a6,a5,a1
    8020be02:	00858c13          	addi	s8,a1,8

000000008020be06 <.Lpcrel_hi612>:
    8020be06:	00005797          	auipc	a5,0x5
    8020be0a:	15278893          	addi	a7,a5,338 # 80210f58 <.Lanon.ecd42e7c4e68db44e18ec9922ac55289.363>
    8020be0e:	4291                	li	t0,4
    8020be10:	0f000313          	li	t1,240
    8020be14:	fbf00e13          	li	t3,-65
    8020be18:	0f400e93          	li	t4,244
    8020be1c:	4f89                	li	t6,2
    8020be1e:	fc000913          	li	s2,-64
    8020be22:	4c8d                	li	s9,3
    8020be24:	0e000993          	li	s3,224
    8020be28:	fa000a13          	li	s4,-96
    8020be2c:	0ed00a93          	li	s5,237
    8020be30:	f9f00b13          	li	s6,-97
    8020be34:	4bb1                	li	s7,12
    8020be36:	4d05                	li	s10,1
    8020be38:	a029                	j	8020be42 <.Lpcrel_hi612+0x3c>
    8020be3a:	00168493          	addi	s1,a3,1
    8020be3e:	14c4f963          	bgeu	s1,a2,8020bf90 <.Lpcrel_hi613+0xf2>
    8020be42:	009587b3          	add	a5,a1,s1
    8020be46:	0007c383          	lbu	t2,0(a5)
    8020be4a:	03839693          	slli	a3,t2,0x38
    8020be4e:	0006c863          	bltz	a3,8020be5e <.Lpcrel_hi612+0x58>
    8020be52:	409807bb          	subw	a5,a6,s1
    8020be56:	8b9d                	andi	a5,a5,7
    8020be58:	cb9d                	beqz	a5,8020be8e <.Lpcrel_hi612+0x88>
    8020be5a:	0485                	addi	s1,s1,1
    8020be5c:	a0bd                	j	8020beca <.Lpcrel_hi613+0x2c>
    8020be5e:	00788733          	add	a4,a7,t2
    8020be62:	00074783          	lbu	a5,0(a4)
    8020be66:	4386dd93          	srai	s11,a3,0x38
    8020be6a:	08578163          	beq	a5,t0,8020beec <.Lpcrel_hi613+0x4e>
    8020be6e:	07978163          	beq	a5,s9,8020bed0 <.Lpcrel_hi613+0x32>
    8020be72:	13f79563          	bne	a5,t6,8020bf9c <.Lpcrel_hi613+0xfe>
    8020be76:	00148693          	addi	a3,s1,1
    8020be7a:	10c6ff63          	bgeu	a3,a2,8020bf98 <.Lpcrel_hi613+0xfa>
    8020be7e:	00d58733          	add	a4,a1,a3
    8020be82:	00070703          	lb	a4,0(a4)
    8020be86:	4d85                	li	s11,1
    8020be88:	faee59e3          	bge	t3,a4,8020be3a <.Lpcrel_hi612+0x34>
    8020be8c:	aa19                	j	8020bfa2 <.Lpcrel_hi613+0x104>
    8020be8e:	03e4f263          	bgeu	s1,t5,8020beb2 <.Lpcrel_hi613+0x14>
    8020be92:	009587b3          	add	a5,a1,s1
    8020be96:	639c                	ld	a5,0(a5)
    8020be98:	009c06b3          	add	a3,s8,s1
    8020be9c:	6294                	ld	a3,0(a3)

000000008020be9e <.Lpcrel_hi613>:
    8020be9e:	0011b717          	auipc	a4,0x11b
    8020bea2:	9c273703          	ld	a4,-1598(a4) # 80326860 <.LCPI245_0>
    8020bea6:	8edd                	or	a3,a3,a5
    8020bea8:	8ef9                	and	a3,a3,a4
    8020beaa:	e681                	bnez	a3,8020beb2 <.Lpcrel_hi613+0x14>
    8020beac:	04c1                	addi	s1,s1,16
    8020beae:	ffe4e2e3          	bltu	s1,t5,8020be92 <.Lpcrel_hi612+0x8c>
    8020beb2:	00c4fc63          	bgeu	s1,a2,8020beca <.Lpcrel_hi613+0x2c>
    8020beb6:	009586b3          	add	a3,a1,s1
    8020beba:	00068683          	lb	a3,0(a3)
    8020bebe:	0006c663          	bltz	a3,8020beca <.Lpcrel_hi613+0x2c>
    8020bec2:	0485                	addi	s1,s1,1
    8020bec4:	fe9619e3          	bne	a2,s1,8020beb6 <.Lpcrel_hi613+0x18>
    8020bec8:	a0e1                	j	8020bf90 <.Lpcrel_hi613+0xf2>
    8020beca:	f6c4ece3          	bltu	s1,a2,8020be42 <.Lpcrel_hi612+0x3c>
    8020bece:	a0c9                	j	8020bf90 <.Lpcrel_hi613+0xf2>
    8020bed0:	00148793          	addi	a5,s1,1
    8020bed4:	0cc7f263          	bgeu	a5,a2,8020bf98 <.Lpcrel_hi613+0xfa>
    8020bed8:	97ae                	add	a5,a5,a1
    8020beda:	00078083          	lb	ra,0(a5)
    8020bede:	03338763          	beq	t2,s3,8020bf0c <.Lpcrel_hi613+0x6e>
    8020bee2:	05539363          	bne	t2,s5,8020bf28 <.Lpcrel_hi613+0x8a>
    8020bee6:	041b5e63          	bge	s6,ra,8020bf42 <.Lpcrel_hi613+0xa4>
    8020beea:	a84d                	j	8020bf9c <.Lpcrel_hi613+0xfe>
    8020beec:	00148793          	addi	a5,s1,1
    8020bef0:	0ac7f463          	bgeu	a5,a2,8020bf98 <.Lpcrel_hi613+0xfa>
    8020bef4:	97ae                	add	a5,a5,a1
    8020bef6:	00078083          	lb	ra,0(a5)
    8020befa:	00638e63          	beq	t2,t1,8020bf16 <.Lpcrel_hi613+0x78>
    8020befe:	05d39d63          	bne	t2,t4,8020bf58 <.Lpcrel_hi613+0xba>
    8020bf02:	f8f00693          	li	a3,-113
    8020bf06:	0616d063          	bge	a3,ra,8020bf66 <.Lpcrel_hi613+0xc8>
    8020bf0a:	a849                	j	8020bf9c <.Lpcrel_hi613+0xfe>
    8020bf0c:	fe00f693          	andi	a3,ra,-32
    8020bf10:	03468963          	beq	a3,s4,8020bf42 <.Lpcrel_hi613+0xa4>
    8020bf14:	a061                	j	8020bf9c <.Lpcrel_hi613+0xfe>
    8020bf16:	07008693          	addi	a3,ra,112
    8020bf1a:	0ff6f693          	zext.b	a3,a3
    8020bf1e:	03000713          	li	a4,48
    8020bf22:	04e6e263          	bltu	a3,a4,8020bf66 <.Lpcrel_hi613+0xc8>
    8020bf26:	a89d                	j	8020bf9c <.Lpcrel_hi613+0xfe>
    8020bf28:	01fd8693          	addi	a3,s11,31
    8020bf2c:	0ff6f693          	zext.b	a3,a3
    8020bf30:	0176e763          	bltu	a3,s7,8020bf3e <.Lpcrel_hi613+0xa0>
    8020bf34:	ffedf693          	andi	a3,s11,-2
    8020bf38:	5739                	li	a4,-18
    8020bf3a:	06e69163          	bne	a3,a4,8020bf9c <.Lpcrel_hi613+0xfe>
    8020bf3e:	0520df63          	bge	ra,s2,8020bf9c <.Lpcrel_hi613+0xfe>
    8020bf42:	00248693          	addi	a3,s1,2
    8020bf46:	04c6f963          	bgeu	a3,a2,8020bf98 <.Lpcrel_hi613+0xfa>
    8020bf4a:	00d58733          	add	a4,a1,a3
    8020bf4e:	00070703          	lb	a4,0(a4)
    8020bf52:	eeee54e3          	bge	t3,a4,8020be3a <.Lpcrel_hi612+0x34>
    8020bf56:	a0a9                	j	8020bfa0 <.Lpcrel_hi613+0x102>
    8020bf58:	0dbd                	addi	s11,s11,15
    8020bf5a:	0ffdf693          	zext.b	a3,s11
    8020bf5e:	02dfef63          	bltu	t6,a3,8020bf9c <.Lpcrel_hi613+0xfe>
    8020bf62:	0320dd63          	bge	ra,s2,8020bf9c <.Lpcrel_hi613+0xfe>
    8020bf66:	00248793          	addi	a5,s1,2
    8020bf6a:	02c7f763          	bgeu	a5,a2,8020bf98 <.Lpcrel_hi613+0xfa>
    8020bf6e:	97ae                	add	a5,a5,a1
    8020bf70:	00078683          	lb	a3,0(a5)
    8020bf74:	02de4663          	blt	t3,a3,8020bfa0 <.Lpcrel_hi613+0x102>
    8020bf78:	00348693          	addi	a3,s1,3
    8020bf7c:	00c6fe63          	bgeu	a3,a2,8020bf98 <.Lpcrel_hi613+0xfa>
    8020bf80:	00d58733          	add	a4,a1,a3
    8020bf84:	00070703          	lb	a4,0(a4)
    8020bf88:	eaee59e3          	bge	t3,a4,8020be3a <.Lpcrel_hi612+0x34>
    8020bf8c:	4d8d                	li	s11,3
    8020bf8e:	a811                	j	8020bfa2 <.Lpcrel_hi613+0x104>
    8020bf90:	4681                	li	a3,0
    8020bf92:	e50c                	sd	a1,8(a0)
    8020bf94:	e910                	sd	a2,16(a0)
    8020bf96:	a821                	j	8020bfae <.Lpcrel_hi613+0x110>
    8020bf98:	4d01                	li	s10,0
    8020bf9a:	a021                	j	8020bfa2 <.Lpcrel_hi613+0x104>
    8020bf9c:	4d85                	li	s11,1
    8020bf9e:	a011                	j	8020bfa2 <.Lpcrel_hi613+0x104>
    8020bfa0:	4d89                	li	s11,2
    8020bfa2:	e504                	sd	s1,8(a0)
    8020bfa4:	01a50823          	sb	s10,16(a0)
    8020bfa8:	01b508a3          	sb	s11,17(a0)
    8020bfac:	4685                	li	a3,1
    8020bfae:	e114                	sd	a3,0(a0)
    8020bfb0:	70a6                	ld	ra,104(sp)
    8020bfb2:	7406                	ld	s0,96(sp)
    8020bfb4:	64e6                	ld	s1,88(sp)
    8020bfb6:	6946                	ld	s2,80(sp)
    8020bfb8:	69a6                	ld	s3,72(sp)
    8020bfba:	6a06                	ld	s4,64(sp)
    8020bfbc:	7ae2                	ld	s5,56(sp)
    8020bfbe:	7b42                	ld	s6,48(sp)
    8020bfc0:	7ba2                	ld	s7,40(sp)
    8020bfc2:	7c02                	ld	s8,32(sp)
    8020bfc4:	6ce2                	ld	s9,24(sp)
    8020bfc6:	6d42                	ld	s10,16(sp)
    8020bfc8:	6da2                	ld	s11,8(sp)
    8020bfca:	6165                	addi	sp,sp,112
    8020bfcc:	8082                	ret

000000008020bfce <_ZN4core3str5count14do_count_chars17he2788df5ec04e5d9E>:
    8020bfce:	1141                	addi	sp,sp,-16
    8020bfd0:	e406                	sd	ra,8(sp)
    8020bfd2:	e022                	sd	s0,0(sp)
    8020bfd4:	0800                	addi	s0,sp,16
    8020bfd6:	862a                	mv	a2,a0
    8020bfd8:	00750793          	addi	a5,a0,7
    8020bfdc:	9be1                	andi	a5,a5,-8
    8020bfde:	40a786b3          	sub	a3,a5,a0
    8020bfe2:	12d5e063          	bltu	a1,a3,8020c102 <_ZN4core3str5count14do_count_chars17he2788df5ec04e5d9E+0x134>
    8020bfe6:	40d58733          	sub	a4,a1,a3
    8020bfea:	00375313          	srli	t1,a4,0x3
    8020bfee:	10030a63          	beqz	t1,8020c102 <_ZN4core3str5count14do_count_chars17he2788df5ec04e5d9E+0x134>
    8020bff2:	96b2                	add	a3,a3,a2
    8020bff4:	00777813          	andi	a6,a4,7
    8020bff8:	4501                	li	a0,0
    8020bffa:	00c78c63          	beq	a5,a2,8020c012 <_ZN4core3str5count14do_count_chars17he2788df5ec04e5d9E+0x44>
    8020bffe:	00060583          	lb	a1,0(a2)
    8020c002:	fc05a593          	slti	a1,a1,-64
    8020c006:	0015c593          	xori	a1,a1,1
    8020c00a:	0605                	addi	a2,a2,1
    8020c00c:	952e                	add	a0,a0,a1
    8020c00e:	fed618e3          	bne	a2,a3,8020bffe <_ZN4core3str5count14do_count_chars17he2788df5ec04e5d9E+0x30>
    8020c012:	4601                	li	a2,0
    8020c014:	02080163          	beqz	a6,8020c036 <_ZN4core3str5count14do_count_chars17he2788df5ec04e5d9E+0x68>
    8020c018:	9b61                	andi	a4,a4,-8
    8020c01a:	00f705b3          	add	a1,a4,a5
    8020c01e:	9736                	add	a4,a4,a3
    8020c020:	95c2                	add	a1,a1,a6
    8020c022:	00070783          	lb	a5,0(a4)
    8020c026:	fc07a793          	slti	a5,a5,-64
    8020c02a:	0017c793          	xori	a5,a5,1
    8020c02e:	0705                	addi	a4,a4,1
    8020c030:	963e                	add	a2,a2,a5
    8020c032:	feb718e3          	bne	a4,a1,8020c022 <_ZN4core3str5count14do_count_chars17he2788df5ec04e5d9E+0x54>
    8020c036:	010105b7          	lui	a1,0x1010
    8020c03a:	1015859b          	addiw	a1,a1,257 # 1010101 <$d.6+0xf492a6>
    8020c03e:	02059713          	slli	a4,a1,0x20
    8020c042:	00e58fb3          	add	t6,a1,a4
    8020c046:	00ff0737          	lui	a4,0xff0
    8020c04a:	0ff7089b          	addiw	a7,a4,255 # ff00ff <$d.6+0xf292a4>
    8020c04e:	02089713          	slli	a4,a7,0x20
    8020c052:	98ba                	add	a7,a7,a4
    8020c054:	6741                	lui	a4,0x10
    8020c056:	2705                	addiw	a4,a4,1 # 10001 <$d.67+0x714>
    8020c058:	02071813          	slli	a6,a4,0x20
    8020c05c:	983a                	add	a6,a6,a4
    8020c05e:	9532                	add	a0,a0,a2
    8020c060:	4291                	li	t0,4
    8020c062:	a015                	j	8020c086 <_ZN4core3str5count14do_count_chars17he2788df5ec04e5d9E+0xb8>
    8020c064:	006e06b3          	add	a3,t3,t1
    8020c068:	407e8333          	sub	t1,t4,t2
    8020c06c:	0033f593          	andi	a1,t2,3
    8020c070:	0117f633          	and	a2,a5,a7
    8020c074:	83a1                	srli	a5,a5,0x8
    8020c076:	0117f733          	and	a4,a5,a7
    8020c07a:	963a                	add	a2,a2,a4
    8020c07c:	03060633          	mul	a2,a2,a6
    8020c080:	9241                	srli	a2,a2,0x30
    8020c082:	9532                	add	a0,a0,a2
    8020c084:	e1c5                	bnez	a1,8020c124 <_ZN4core3str5count14do_count_chars17he2788df5ec04e5d9E+0x156>
    8020c086:	08030b63          	beqz	t1,8020c11c <_ZN4core3str5count14do_count_chars17he2788df5ec04e5d9E+0x14e>
    8020c08a:	8e9a                	mv	t4,t1
    8020c08c:	8e36                	mv	t3,a3
    8020c08e:	0c000613          	li	a2,192
    8020c092:	839a                	mv	t2,t1
    8020c094:	00c36463          	bltu	t1,a2,8020c09c <_ZN4core3str5count14do_count_chars17he2788df5ec04e5d9E+0xce>
    8020c098:	0c000393          	li	t2,192
    8020c09c:	00339313          	slli	t1,t2,0x3
    8020c0a0:	4781                	li	a5,0
    8020c0a2:	fc5ee1e3          	bltu	t4,t0,8020c064 <_ZN4core3str5count14do_count_chars17he2788df5ec04e5d9E+0x96>
    8020c0a6:	7e037613          	andi	a2,t1,2016
    8020c0aa:	00ce0f33          	add	t5,t3,a2
    8020c0ae:	86f2                	mv	a3,t3
    8020c0b0:	6298                	ld	a4,0(a3)
    8020c0b2:	fff74613          	not	a2,a4
    8020c0b6:	821d                	srli	a2,a2,0x7
    8020c0b8:	8319                	srli	a4,a4,0x6
    8020c0ba:	668c                	ld	a1,8(a3)
    8020c0bc:	8e59                	or	a2,a2,a4
    8020c0be:	01f67633          	and	a2,a2,t6
    8020c0c2:	963e                	add	a2,a2,a5
    8020c0c4:	fff5c713          	not	a4,a1
    8020c0c8:	831d                	srli	a4,a4,0x7
    8020c0ca:	6a9c                	ld	a5,16(a3)
    8020c0cc:	8199                	srli	a1,a1,0x6
    8020c0ce:	8dd9                	or	a1,a1,a4
    8020c0d0:	01f5f5b3          	and	a1,a1,t6
    8020c0d4:	fff7c713          	not	a4,a5
    8020c0d8:	831d                	srli	a4,a4,0x7
    8020c0da:	8399                	srli	a5,a5,0x6
    8020c0dc:	8f5d                	or	a4,a4,a5
    8020c0de:	6e9c                	ld	a5,24(a3)
    8020c0e0:	01f77733          	and	a4,a4,t6
    8020c0e4:	95ba                	add	a1,a1,a4
    8020c0e6:	95b2                	add	a1,a1,a2
    8020c0e8:	fff7c613          	not	a2,a5
    8020c0ec:	821d                	srli	a2,a2,0x7
    8020c0ee:	8399                	srli	a5,a5,0x6
    8020c0f0:	8e5d                	or	a2,a2,a5
    8020c0f2:	01f677b3          	and	a5,a2,t6
    8020c0f6:	02068693          	addi	a3,a3,32
    8020c0fa:	97ae                	add	a5,a5,a1
    8020c0fc:	fbe69ae3          	bne	a3,t5,8020c0b0 <_ZN4core3str5count14do_count_chars17he2788df5ec04e5d9E+0xe2>
    8020c100:	b795                	j	8020c064 <_ZN4core3str5count14do_count_chars17he2788df5ec04e5d9E+0x96>
    8020c102:	4501                	li	a0,0
    8020c104:	cd81                	beqz	a1,8020c11c <_ZN4core3str5count14do_count_chars17he2788df5ec04e5d9E+0x14e>
    8020c106:	95b2                	add	a1,a1,a2
    8020c108:	00060683          	lb	a3,0(a2)
    8020c10c:	fc06a693          	slti	a3,a3,-64
    8020c110:	0016c693          	xori	a3,a3,1
    8020c114:	0605                	addi	a2,a2,1
    8020c116:	9536                	add	a0,a0,a3
    8020c118:	feb618e3          	bne	a2,a1,8020c108 <_ZN4core3str5count14do_count_chars17he2788df5ec04e5d9E+0x13a>
    8020c11c:	60a2                	ld	ra,8(sp)
    8020c11e:	6402                	ld	s0,0(sp)
    8020c120:	0141                	addi	sp,sp,16
    8020c122:	8082                	ret
    8020c124:	4601                	li	a2,0
    8020c126:	0fc3f593          	andi	a1,t2,252
    8020c12a:	058e                	slli	a1,a1,0x3
    8020c12c:	9e2e                	add	t3,t3,a1
    8020c12e:	0c0eb593          	sltiu	a1,t4,192
    8020c132:	40b005bb          	negw	a1,a1
    8020c136:	00bef5b3          	and	a1,t4,a1
    8020c13a:	898d                	andi	a1,a1,3
    8020c13c:	00359693          	slli	a3,a1,0x3
    8020c140:	000e3583          	ld	a1,0(t3)
    8020c144:	0e21                	addi	t3,t3,8
    8020c146:	fff5c713          	not	a4,a1
    8020c14a:	831d                	srli	a4,a4,0x7
    8020c14c:	8199                	srli	a1,a1,0x6
    8020c14e:	8dd9                	or	a1,a1,a4
    8020c150:	01f5f5b3          	and	a1,a1,t6
    8020c154:	16e1                	addi	a3,a3,-8
    8020c156:	962e                	add	a2,a2,a1
    8020c158:	f6e5                	bnez	a3,8020c140 <_ZN4core3str5count14do_count_chars17he2788df5ec04e5d9E+0x172>
    8020c15a:	011675b3          	and	a1,a2,a7
    8020c15e:	8221                	srli	a2,a2,0x8
    8020c160:	01167633          	and	a2,a2,a7
    8020c164:	95b2                	add	a1,a1,a2
    8020c166:	030585b3          	mul	a1,a1,a6
    8020c16a:	91c1                	srli	a1,a1,0x30
    8020c16c:	952e                	add	a0,a0,a1
    8020c16e:	60a2                	ld	ra,8(sp)
    8020c170:	6402                	ld	s0,0(sp)
    8020c172:	0141                	addi	sp,sp,16
    8020c174:	8082                	ret

000000008020c176 <_ZN4core3str16slice_error_fail17h01cf406369352d55E>:
    8020c176:	1141                	addi	sp,sp,-16
    8020c178:	e406                	sd	ra,8(sp)
    8020c17a:	e022                	sd	s0,0(sp)
    8020c17c:	0800                	addi	s0,sp,16
    8020c17e:	00000097          	auipc	ra,0x0
    8020c182:	008080e7          	jalr	8(ra) # 8020c186 <_ZN4core3str19slice_error_fail_rt17h28e16a434c6240acE>

000000008020c186 <_ZN4core3str19slice_error_fail_rt17h28e16a434c6240acE>:
    8020c186:	7115                	addi	sp,sp,-224
    8020c188:	ed86                	sd	ra,216(sp)
    8020c18a:	e9a2                	sd	s0,208(sp)
    8020c18c:	1180                	addi	s0,sp,224
    8020c18e:	f2c43023          	sd	a2,-224(s0)
    8020c192:	10100793          	li	a5,257
    8020c196:	f2d43423          	sd	a3,-216(s0)
    8020c19a:	04f5ec63          	bltu	a1,a5,8020c1f2 <.Lpcrel_hi652+0x16>
    8020c19e:	10050883          	lb	a7,256(a0)
    8020c1a2:	fbf00813          	li	a6,-65
    8020c1a6:	478d                	li	a5,3
    8020c1a8:	01184d63          	blt	a6,a7,8020c1c2 <_ZN4core3str19slice_error_fail_rt17h28e16a434c6240acE+0x3c>
    8020c1ac:	0ff50883          	lb	a7,255(a0)
    8020c1b0:	4789                	li	a5,2
    8020c1b2:	01184863          	blt	a6,a7,8020c1c2 <_ZN4core3str19slice_error_fail_rt17h28e16a434c6240acE+0x3c>
    8020c1b6:	0fe50783          	lb	a5,254(a0)
    8020c1ba:	fc07a793          	slti	a5,a5,-64
    8020c1be:	0017c793          	xori	a5,a5,1
    8020c1c2:	0fd78893          	addi	a7,a5,253
    8020c1c6:	011507b3          	add	a5,a0,a7
    8020c1ca:	00078783          	lb	a5,0(a5)
    8020c1ce:	10f85163          	bge	a6,a5,8020c2d0 <.Lpcrel_hi664+0x30>
    8020c1d2:	f2a43823          	sd	a0,-208(s0)
    8020c1d6:	f3143c23          	sd	a7,-200(s0)
    8020c1da:	4815                	li	a6,5

000000008020c1dc <.Lpcrel_hi652>:
    8020c1dc:	00005797          	auipc	a5,0x5
    8020c1e0:	e7c78793          	addi	a5,a5,-388 # 80211058 <.Lanon.ecd42e7c4e68db44e18ec9922ac55289.381>
    8020c1e4:	f4f43023          	sd	a5,-192(s0)
    8020c1e8:	f5043423          	sd	a6,-184(s0)
    8020c1ec:	00c5ff63          	bgeu	a1,a2,8020c20a <.Lpcrel_hi652+0x2e>
    8020c1f0:	a88d                	j	8020c262 <.Lpcrel_hi655+0x10>
    8020c1f2:	4801                	li	a6,0
    8020c1f4:	f2a43823          	sd	a0,-208(s0)
    8020c1f8:	f2b43c23          	sd	a1,-200(s0)
    8020c1fc:	4785                	li	a5,1
    8020c1fe:	f4f43023          	sd	a5,-192(s0)
    8020c202:	f4043423          	sd	zero,-184(s0)
    8020c206:	04c5ee63          	bltu	a1,a2,8020c262 <.Lpcrel_hi655+0x10>
    8020c20a:	04d5ec63          	bltu	a1,a3,8020c262 <.Lpcrel_hi655+0x10>
    8020c20e:	0cc6f763          	bgeu	a3,a2,8020c2dc <.Lpcrel_hi664+0x3c>
    8020c212:	f2040513          	addi	a0,s0,-224
    8020c216:	faa43023          	sd	a0,-96(s0)

000000008020c21a <.Lpcrel_hi653>:
    8020c21a:	00001517          	auipc	a0,0x1
    8020c21e:	a5250513          	addi	a0,a0,-1454 # 8020cc6c <_ZN4core3fmt3num3imp52_$LT$impl$u20$core..fmt..Display$u20$for$u20$u64$GT$3fmt17hdc568abe5d51f18fE>
    8020c222:	faa43423          	sd	a0,-88(s0)
    8020c226:	f2840593          	addi	a1,s0,-216
    8020c22a:	fab43823          	sd	a1,-80(s0)
    8020c22e:	faa43c23          	sd	a0,-72(s0)
    8020c232:	f3040513          	addi	a0,s0,-208
    8020c236:	fca43023          	sd	a0,-64(s0)

000000008020c23a <.Lpcrel_hi654>:
    8020c23a:	00001517          	auipc	a0,0x1
    8020c23e:	a6450513          	addi	a0,a0,-1436 # 8020cc9e <_ZN44_$LT$$RF$T$u20$as$u20$core..fmt..Display$GT$3fmt17h488e98c8705420f3E>
    8020c242:	fca43423          	sd	a0,-56(s0)
    8020c246:	f4040593          	addi	a1,s0,-192
    8020c24a:	fcb43823          	sd	a1,-48(s0)
    8020c24e:	fca43c23          	sd	a0,-40(s0)

000000008020c252 <.Lpcrel_hi655>:
    8020c252:	00005517          	auipc	a0,0x5
    8020c256:	e1e50513          	addi	a0,a0,-482 # 80211070 <.Lanon.ecd42e7c4e68db44e18ec9922ac55289.386>
    8020c25a:	f6a43823          	sd	a0,-144(s0)
    8020c25e:	4511                	li	a0,4
    8020c260:	a0b9                	j	8020c2ae <.Lpcrel_hi664+0xe>
    8020c262:	00c5e363          	bltu	a1,a2,8020c268 <.Lpcrel_hi655+0x16>
    8020c266:	8636                	mv	a2,a3
    8020c268:	f6c43023          	sd	a2,-160(s0)
    8020c26c:	f6040513          	addi	a0,s0,-160
    8020c270:	faa43023          	sd	a0,-96(s0)

000000008020c274 <.Lpcrel_hi662>:
    8020c274:	00001517          	auipc	a0,0x1
    8020c278:	9f850513          	addi	a0,a0,-1544 # 8020cc6c <_ZN4core3fmt3num3imp52_$LT$impl$u20$core..fmt..Display$u20$for$u20$u64$GT$3fmt17hdc568abe5d51f18fE>
    8020c27c:	faa43423          	sd	a0,-88(s0)
    8020c280:	f3040513          	addi	a0,s0,-208
    8020c284:	faa43823          	sd	a0,-80(s0)

000000008020c288 <.Lpcrel_hi663>:
    8020c288:	00001517          	auipc	a0,0x1
    8020c28c:	a1650513          	addi	a0,a0,-1514 # 8020cc9e <_ZN44_$LT$$RF$T$u20$as$u20$core..fmt..Display$GT$3fmt17h488e98c8705420f3E>
    8020c290:	faa43c23          	sd	a0,-72(s0)
    8020c294:	f4040593          	addi	a1,s0,-192
    8020c298:	fcb43023          	sd	a1,-64(s0)
    8020c29c:	fca43423          	sd	a0,-56(s0)

000000008020c2a0 <.Lpcrel_hi664>:
    8020c2a0:	00005517          	auipc	a0,0x5
    8020c2a4:	eb050513          	addi	a0,a0,-336 # 80211150 <.Lanon.ecd42e7c4e68db44e18ec9922ac55289.393>
    8020c2a8:	f6a43823          	sd	a0,-144(s0)
    8020c2ac:	450d                	li	a0,3
    8020c2ae:	f6a43c23          	sd	a0,-136(s0)
    8020c2b2:	f8043823          	sd	zero,-112(s0)
    8020c2b6:	fa040593          	addi	a1,s0,-96
    8020c2ba:	f8b43023          	sd	a1,-128(s0)
    8020c2be:	f8a43423          	sd	a0,-120(s0)
    8020c2c2:	f7040513          	addi	a0,s0,-144
    8020c2c6:	85ba                	mv	a1,a4
    8020c2c8:	ffffe097          	auipc	ra,0xffffe
    8020c2cc:	384080e7          	jalr	900(ra) # 8020a64c <_ZN4core9panicking9panic_fmt17hc25dbb51a4d67a42E>
    8020c2d0:	4601                	li	a2,0
    8020c2d2:	86c6                	mv	a3,a7
    8020c2d4:	00000097          	auipc	ra,0x0
    8020c2d8:	ea2080e7          	jalr	-350(ra) # 8020c176 <_ZN4core3str16slice_error_fail17h01cf406369352d55E>
    8020c2dc:	ca19                	beqz	a2,8020c2f2 <.Lpcrel_hi664+0x52>
    8020c2de:	00b67a63          	bgeu	a2,a1,8020c2f2 <.Lpcrel_hi664+0x52>
    8020c2e2:	00c507b3          	add	a5,a0,a2
    8020c2e6:	00078803          	lb	a6,0(a5)
    8020c2ea:	fc000793          	li	a5,-64
    8020c2ee:	00f84363          	blt	a6,a5,8020c2f4 <.Lpcrel_hi664+0x54>
    8020c2f2:	8636                	mv	a2,a3
    8020c2f4:	f4c43823          	sd	a2,-176(s0)
    8020c2f8:	86ae                	mv	a3,a1
    8020c2fa:	04b67763          	bgeu	a2,a1,8020c348 <.Lpcrel_hi656+0x34>
    8020c2fe:	ffd60693          	addi	a3,a2,-3
    8020c302:	00d637b3          	sltu	a5,a2,a3
    8020c306:	17fd                	addi	a5,a5,-1
    8020c308:	00d7f833          	and	a6,a5,a3
    8020c30c:	00160793          	addi	a5,a2,1
    8020c310:	0107fc63          	bgeu	a5,a6,8020c328 <.Lpcrel_hi656+0x14>

000000008020c314 <.Lpcrel_hi656>:
    8020c314:	00005517          	auipc	a0,0x5
    8020c318:	e8c50613          	addi	a2,a0,-372 # 802111a0 <.Lanon.ecd42e7c4e68db44e18ec9922ac55289.395>
    8020c31c:	8542                	mv	a0,a6
    8020c31e:	85be                	mv	a1,a5
    8020c320:	00000097          	auipc	ra,0x0
    8020c324:	a36080e7          	jalr	-1482(ra) # 8020bd56 <_ZN4core5slice5index22slice_index_order_fail17h883be29a657f36f8E>
    8020c328:	010506b3          	add	a3,a0,a6
    8020c32c:	97aa                	add	a5,a5,a0
    8020c32e:	8f95                	sub	a5,a5,a3
    8020c330:	962a                	add	a2,a2,a0
    8020c332:	fc000893          	li	a7,-64
    8020c336:	c799                	beqz	a5,8020c344 <.Lpcrel_hi656+0x30>
    8020c338:	00060683          	lb	a3,0(a2)
    8020c33c:	17fd                	addi	a5,a5,-1
    8020c33e:	167d                	addi	a2,a2,-1
    8020c340:	ff16cbe3          	blt	a3,a7,8020c336 <.Lpcrel_hi656+0x22>
    8020c344:	010786b3          	add	a3,a5,a6
    8020c348:	00d50633          	add	a2,a0,a3
    8020c34c:	ea81                	bnez	a3,8020c35c <.Lpcrel_hi656+0x48>
    8020c34e:	02b69063          	bne	a3,a1,8020c36e <.Lpcrel_hi656+0x5a>
    8020c352:	853a                	mv	a0,a4
    8020c354:	ffffe097          	auipc	ra,0xffffe
    8020c358:	2bc080e7          	jalr	700(ra) # 8020a610 <_ZN4core6option13unwrap_failed17h3c70806c841faa93E>
    8020c35c:	02b6f363          	bgeu	a3,a1,8020c382 <.Lpcrel_hi656+0x6e>
    8020c360:	00060803          	lb	a6,0(a2)
    8020c364:	fbf00793          	li	a5,-65
    8020c368:	ff07c3e3          	blt	a5,a6,8020c34e <.Lpcrel_hi656+0x3a>
    8020c36c:	a829                	j	8020c386 <.Lpcrel_hi656+0x72>
    8020c36e:	00060583          	lb	a1,0(a2)
    8020c372:	0ff5f513          	zext.b	a0,a1
    8020c376:	0005ce63          	bltz	a1,8020c392 <.Lpcrel_hi656+0x7e>
    8020c37a:	f4a42e23          	sw	a0,-164(s0)
    8020c37e:	4585                	li	a1,1
    8020c380:	a059                	j	8020c406 <.Lpcrel_hi656+0xf2>
    8020c382:	fcb686e3          	beq	a3,a1,8020c34e <.Lpcrel_hi656+0x3a>
    8020c386:	8636                	mv	a2,a3
    8020c388:	86ae                	mv	a3,a1
    8020c38a:	00000097          	auipc	ra,0x0
    8020c38e:	dec080e7          	jalr	-532(ra) # 8020c176 <_ZN4core3str16slice_error_fail17h01cf406369352d55E>
    8020c392:	00164783          	lbu	a5,1(a2)
    8020c396:	01f57593          	andi	a1,a0,31
    8020c39a:	0df00813          	li	a6,223
    8020c39e:	03f7f793          	andi	a5,a5,63
    8020c3a2:	02a87c63          	bgeu	a6,a0,8020c3da <.Lpcrel_hi656+0xc6>
    8020c3a6:	00264803          	lbu	a6,2(a2)
    8020c3aa:	00679893          	slli	a7,a5,0x6
    8020c3ae:	03f87793          	andi	a5,a6,63
    8020c3b2:	0f000813          	li	a6,240
    8020c3b6:	00f8e7b3          	or	a5,a7,a5
    8020c3ba:	03056463          	bltu	a0,a6,8020c3e2 <.Lpcrel_hi656+0xce>
    8020c3be:	00364503          	lbu	a0,3(a2)
    8020c3c2:	15f6                	slli	a1,a1,0x3d
    8020c3c4:	91ad                	srli	a1,a1,0x2b
    8020c3c6:	079a                	slli	a5,a5,0x6
    8020c3c8:	03f57513          	andi	a0,a0,63
    8020c3cc:	8d5d                	or	a0,a0,a5
    8020c3ce:	8d4d                	or	a0,a0,a1
    8020c3d0:	001105b7          	lui	a1,0x110
    8020c3d4:	f6b50fe3          	beq	a0,a1,8020c352 <.Lpcrel_hi656+0x3e>
    8020c3d8:	a801                	j	8020c3e8 <.Lpcrel_hi656+0xd4>
    8020c3da:	00659513          	slli	a0,a1,0x6
    8020c3de:	8d5d                	or	a0,a0,a5
    8020c3e0:	a021                	j	8020c3e8 <.Lpcrel_hi656+0xd4>
    8020c3e2:	00c59513          	slli	a0,a1,0xc
    8020c3e6:	8d5d                	or	a0,a0,a5
    8020c3e8:	f4a42e23          	sw	a0,-164(s0)
    8020c3ec:	08000613          	li	a2,128
    8020c3f0:	4585                	li	a1,1
    8020c3f2:	00c56a63          	bltu	a0,a2,8020c406 <.Lpcrel_hi656+0xf2>
    8020c3f6:	00b55613          	srli	a2,a0,0xb
    8020c3fa:	4589                	li	a1,2
    8020c3fc:	c609                	beqz	a2,8020c406 <.Lpcrel_hi656+0xf2>
    8020c3fe:	8141                	srli	a0,a0,0x10
    8020c400:	00a035b3          	snez	a1,a0
    8020c404:	058d                	addi	a1,a1,3 # 110003 <$d.6+0x491a8>
    8020c406:	95b6                	add	a1,a1,a3
    8020c408:	f6d43023          	sd	a3,-160(s0)
    8020c40c:	f6b43423          	sd	a1,-152(s0)
    8020c410:	f5040513          	addi	a0,s0,-176
    8020c414:	faa43023          	sd	a0,-96(s0)

000000008020c418 <.Lpcrel_hi657>:
    8020c418:	00001517          	auipc	a0,0x1
    8020c41c:	85450513          	addi	a0,a0,-1964 # 8020cc6c <_ZN4core3fmt3num3imp52_$LT$impl$u20$core..fmt..Display$u20$for$u20$u64$GT$3fmt17hdc568abe5d51f18fE>
    8020c420:	faa43423          	sd	a0,-88(s0)
    8020c424:	f5c40513          	addi	a0,s0,-164
    8020c428:	faa43823          	sd	a0,-80(s0)

000000008020c42c <.Lpcrel_hi658>:
    8020c42c:	fffff517          	auipc	a0,0xfffff
    8020c430:	71250513          	addi	a0,a0,1810 # 8020bb3e <_ZN41_$LT$char$u20$as$u20$core..fmt..Debug$GT$3fmt17h637c9ae092bdc8a5E>
    8020c434:	faa43c23          	sd	a0,-72(s0)
    8020c438:	f6040513          	addi	a0,s0,-160
    8020c43c:	fca43023          	sd	a0,-64(s0)

000000008020c440 <.Lpcrel_hi659>:
    8020c440:	ffffe517          	auipc	a0,0xffffe
    8020c444:	ddc50513          	addi	a0,a0,-548 # 8020a21c <_ZN71_$LT$core..ops..range..Range$LT$Idx$GT$$u20$as$u20$core..fmt..Debug$GT$3fmt17h3099c86f576b7a52E>
    8020c448:	fca43423          	sd	a0,-56(s0)
    8020c44c:	f3040513          	addi	a0,s0,-208
    8020c450:	fca43823          	sd	a0,-48(s0)

000000008020c454 <.Lpcrel_hi660>:
    8020c454:	00001517          	auipc	a0,0x1
    8020c458:	84a50513          	addi	a0,a0,-1974 # 8020cc9e <_ZN44_$LT$$RF$T$u20$as$u20$core..fmt..Display$GT$3fmt17h488e98c8705420f3E>
    8020c45c:	fca43c23          	sd	a0,-40(s0)
    8020c460:	f4040593          	addi	a1,s0,-192
    8020c464:	feb43023          	sd	a1,-32(s0)
    8020c468:	fea43423          	sd	a0,-24(s0)

000000008020c46c <.Lpcrel_hi661>:
    8020c46c:	00005517          	auipc	a0,0x5
    8020c470:	c7c50513          	addi	a0,a0,-900 # 802110e8 <.Lanon.ecd42e7c4e68db44e18ec9922ac55289.391>
    8020c474:	f6a43823          	sd	a0,-144(s0)
    8020c478:	4515                	li	a0,5
    8020c47a:	bd15                	j	8020c2ae <.Lpcrel_hi664+0xe>

000000008020c47c <_ZN4core7unicode9printable5check17hdf9106e6e0b1ecc1E>:
    8020c47c:	1141                	addi	sp,sp,-16
    8020c47e:	e406                	sd	ra,8(sp)
    8020c480:	e022                	sd	s0,0(sp)
    8020c482:	0800                	addi	s0,sp,16
    8020c484:	03051293          	slli	t0,a0,0x30
    8020c488:	c629                	beqz	a2,8020c4d2 <_ZN4core7unicode9printable5check17hdf9106e6e0b1ecc1E+0x56>
    8020c48a:	88aa                	mv	a7,a0
    8020c48c:	4501                	li	a0,0
    8020c48e:	0382d313          	srli	t1,t0,0x38
    8020c492:	0606                	slli	a2,a2,0x1
    8020c494:	00c583b3          	add	t2,a1,a2
    8020c498:	0ff8fe13          	zext.b	t3,a7
    8020c49c:	0005ce83          	lbu	t4,0(a1)
    8020c4a0:	0015c603          	lbu	a2,1(a1)
    8020c4a4:	0589                	addi	a1,a1,2
    8020c4a6:	00c508b3          	add	a7,a0,a2
    8020c4aa:	006e9f63          	bne	t4,t1,8020c4c8 <_ZN4core7unicode9printable5check17hdf9106e6e0b1ecc1E+0x4c>
    8020c4ae:	08a8e663          	bltu	a7,a0,8020c53a <.Lpcrel_hi686>
    8020c4b2:	09176d63          	bltu	a4,a7,8020c54c <.Lpcrel_hi687>
    8020c4b6:	9536                	add	a0,a0,a3
    8020c4b8:	ca11                	beqz	a2,8020c4cc <_ZN4core7unicode9printable5check17hdf9106e6e0b1ecc1E+0x50>
    8020c4ba:	00054e83          	lbu	t4,0(a0)
    8020c4be:	0505                	addi	a0,a0,1
    8020c4c0:	167d                	addi	a2,a2,-1
    8020c4c2:	ffce9be3          	bne	t4,t3,8020c4b8 <_ZN4core7unicode9printable5check17hdf9106e6e0b1ecc1E+0x3c>
    8020c4c6:	a891                	j	8020c51a <_ZN4core7unicode9printable5check17hdf9106e6e0b1ecc1E+0x9e>
    8020c4c8:	01d36563          	bltu	t1,t4,8020c4d2 <_ZN4core7unicode9printable5check17hdf9106e6e0b1ecc1E+0x56>
    8020c4cc:	8546                	mv	a0,a7
    8020c4ce:	fc7597e3          	bne	a1,t2,8020c49c <_ZN4core7unicode9printable5check17hdf9106e6e0b1ecc1E+0x20>
    8020c4d2:	04080663          	beqz	a6,8020c51e <_ZN4core7unicode9printable5check17hdf9106e6e0b1ecc1E+0xa2>
    8020c4d6:	983e                	add	a6,a6,a5
    8020c4d8:	0302d593          	srli	a1,t0,0x30
    8020c4dc:	4505                	li	a0,1
    8020c4de:	00078603          	lb	a2,0(a5)
    8020c4e2:	00178693          	addi	a3,a5,1
    8020c4e6:	00064963          	bltz	a2,8020c4f8 <_ZN4core7unicode9printable5check17hdf9106e6e0b1ecc1E+0x7c>
    8020c4ea:	0ff67613          	zext.b	a2,a2
    8020c4ee:	87b6                	mv	a5,a3
    8020c4f0:	9d91                	subw	a1,a1,a2
    8020c4f2:	0005df63          	bgez	a1,8020c510 <_ZN4core7unicode9printable5check17hdf9106e6e0b1ecc1E+0x94>
    8020c4f6:	a02d                	j	8020c520 <_ZN4core7unicode9printable5check17hdf9106e6e0b1ecc1E+0xa4>
    8020c4f8:	03068963          	beq	a3,a6,8020c52a <.Lpcrel_hi688>
    8020c4fc:	0017c683          	lbu	a3,1(a5)
    8020c500:	0789                	addi	a5,a5,2
    8020c502:	07f67613          	andi	a2,a2,127
    8020c506:	0622                	slli	a2,a2,0x8
    8020c508:	8e55                	or	a2,a2,a3
    8020c50a:	9d91                	subw	a1,a1,a2
    8020c50c:	0005ca63          	bltz	a1,8020c520 <_ZN4core7unicode9printable5check17hdf9106e6e0b1ecc1E+0xa4>
    8020c510:	00154513          	xori	a0,a0,1
    8020c514:	fd0795e3          	bne	a5,a6,8020c4de <_ZN4core7unicode9printable5check17hdf9106e6e0b1ecc1E+0x62>
    8020c518:	a021                	j	8020c520 <_ZN4core7unicode9printable5check17hdf9106e6e0b1ecc1E+0xa4>
    8020c51a:	4501                	li	a0,0
    8020c51c:	a011                	j	8020c520 <_ZN4core7unicode9printable5check17hdf9106e6e0b1ecc1E+0xa4>
    8020c51e:	4505                	li	a0,1
    8020c520:	8905                	andi	a0,a0,1
    8020c522:	60a2                	ld	ra,8(sp)
    8020c524:	6402                	ld	s0,0(sp)
    8020c526:	0141                	addi	sp,sp,16
    8020c528:	8082                	ret

000000008020c52a <.Lpcrel_hi688>:
    8020c52a:	00005517          	auipc	a0,0x5
    8020c52e:	cb650513          	addi	a0,a0,-842 # 802111e0 <.Lanon.ecd42e7c4e68db44e18ec9922ac55289.411>
    8020c532:	ffffe097          	auipc	ra,0xffffe
    8020c536:	0de080e7          	jalr	222(ra) # 8020a610 <_ZN4core6option13unwrap_failed17h3c70806c841faa93E>

000000008020c53a <.Lpcrel_hi686>:
    8020c53a:	00005597          	auipc	a1,0x5
    8020c53e:	cbe58613          	addi	a2,a1,-834 # 802111f8 <.Lanon.ecd42e7c4e68db44e18ec9922ac55289.412>
    8020c542:	85c6                	mv	a1,a7
    8020c544:	00000097          	auipc	ra,0x0
    8020c548:	812080e7          	jalr	-2030(ra) # 8020bd56 <_ZN4core5slice5index22slice_index_order_fail17h883be29a657f36f8E>

000000008020c54c <.Lpcrel_hi687>:
    8020c54c:	00005517          	auipc	a0,0x5
    8020c550:	cac50613          	addi	a2,a0,-852 # 802111f8 <.Lanon.ecd42e7c4e68db44e18ec9922ac55289.412>
    8020c554:	8546                	mv	a0,a7
    8020c556:	85ba                	mv	a1,a4
    8020c558:	fffff097          	auipc	ra,0xfffff
    8020c55c:	78e080e7          	jalr	1934(ra) # 8020bce6 <_ZN4core5slice5index24slice_end_index_len_fail17h4f74974912d1b932E>

000000008020c560 <_ZN4core7unicode9printable12is_printable17h1278e5ec684ded39E>:
    8020c560:	1141                	addi	sp,sp,-16
    8020c562:	e406                	sd	ra,8(sp)
    8020c564:	e022                	sd	s0,0(sp)
    8020c566:	0800                	addi	s0,sp,16
    8020c568:	0005061b          	sext.w	a2,a0
    8020c56c:	02000593          	li	a1,32
    8020c570:	00b67463          	bgeu	a2,a1,8020c578 <_ZN4core7unicode9printable12is_printable17h1278e5ec684ded39E+0x18>
    8020c574:	4581                	li	a1,0
    8020c576:	a031                	j	8020c582 <_ZN4core7unicode9printable12is_printable17h1278e5ec684ded39E+0x22>
    8020c578:	07f00693          	li	a3,127
    8020c57c:	4585                	li	a1,1
    8020c57e:	00d67763          	bgeu	a2,a3,8020c58c <_ZN4core7unicode9printable12is_printable17h1278e5ec684ded39E+0x2c>
    8020c582:	852e                	mv	a0,a1
    8020c584:	60a2                	ld	ra,8(sp)
    8020c586:	6402                	ld	s0,0(sp)
    8020c588:	0141                	addi	sp,sp,16
    8020c58a:	8082                	ret
    8020c58c:	0105559b          	srliw	a1,a0,0x10
    8020c590:	e995                	bnez	a1,8020c5c4 <.Lpcrel_hi691+0x22>

000000008020c592 <.Lpcrel_hi689>:
    8020c592:	00005597          	auipc	a1,0x5
    8020c596:	f5c58593          	addi	a1,a1,-164 # 802114ee <.Lanon.ecd42e7c4e68db44e18ec9922ac55289.416>

000000008020c59a <.Lpcrel_hi690>:
    8020c59a:	00005617          	auipc	a2,0x5
    8020c59e:	fa460693          	addi	a3,a2,-92 # 8021153e <.Lanon.ecd42e7c4e68db44e18ec9922ac55289.417>

000000008020c5a2 <.Lpcrel_hi691>:
    8020c5a2:	00005617          	auipc	a2,0x5
    8020c5a6:	0bc60793          	addi	a5,a2,188 # 8021165e <.Lanon.ecd42e7c4e68db44e18ec9922ac55289.418>
    8020c5aa:	02800613          	li	a2,40
    8020c5ae:	12000713          	li	a4,288
    8020c5b2:	12d00813          	li	a6,301
    8020c5b6:	60a2                	ld	ra,8(sp)
    8020c5b8:	6402                	ld	s0,0(sp)
    8020c5ba:	0141                	addi	sp,sp,16
    8020c5bc:	00000317          	auipc	t1,0x0
    8020c5c0:	ec030067          	jr	-320(t1) # 8020c47c <_ZN4core7unicode9printable5check17hdf9106e6e0b1ecc1E>
    8020c5c4:	0115559b          	srliw	a1,a0,0x11
    8020c5c8:	e995                	bnez	a1,8020c5fc <.Lpcrel_hi694+0x22>

000000008020c5ca <.Lpcrel_hi692>:
    8020c5ca:	00005597          	auipc	a1,0x5
    8020c5ce:	c4658593          	addi	a1,a1,-954 # 80211210 <.Lanon.ecd42e7c4e68db44e18ec9922ac55289.413>

000000008020c5d2 <.Lpcrel_hi693>:
    8020c5d2:	00005617          	auipc	a2,0x5
    8020c5d6:	c9660693          	addi	a3,a2,-874 # 80211268 <.Lanon.ecd42e7c4e68db44e18ec9922ac55289.414>

000000008020c5da <.Lpcrel_hi694>:
    8020c5da:	00005617          	auipc	a2,0x5
    8020c5de:	d5260793          	addi	a5,a2,-686 # 8021132c <.Lanon.ecd42e7c4e68db44e18ec9922ac55289.415>
    8020c5e2:	02c00613          	li	a2,44
    8020c5e6:	0c400713          	li	a4,196
    8020c5ea:	1c200813          	li	a6,450
    8020c5ee:	60a2                	ld	ra,8(sp)
    8020c5f0:	6402                	ld	s0,0(sp)
    8020c5f2:	0141                	addi	sp,sp,16
    8020c5f4:	00000317          	auipc	t1,0x0
    8020c5f8:	e8830067          	jr	-376(t1) # 8020c47c <_ZN4core7unicode9printable5check17hdf9106e6e0b1ecc1E>
    8020c5fc:	fffce5b7          	lui	a1,0xfffce
    8020c600:	c5058593          	addi	a1,a1,-944 # fffffffffffcdc50 <ebss+0xffffffff7fa95c50>
    8020c604:	00b5063b          	addw	a2,a0,a1
    8020c608:	000ae5b7          	lui	a1,0xae
    8020c60c:	d505869b          	addiw	a3,a1,-688 # add50 <$d.998+0xa281>
    8020c610:	4581                	li	a1,0
    8020c612:	f6d668e3          	bltu	a2,a3,8020c582 <_ZN4core7unicode9printable12is_printable17h1278e5ec684ded39E+0x22>
    8020c616:	fffcf637          	lui	a2,0xfffcf
    8020c61a:	cb560613          	addi	a2,a2,-843 # fffffffffffcecb5 <ebss+0xffffffff7fa96cb5>
    8020c61e:	9e29                	addw	a2,a2,a0
    8020c620:	4695                	li	a3,5
    8020c622:	f6d660e3          	bltu	a2,a3,8020c582 <_ZN4core7unicode9printable12is_printable17h1278e5ec684ded39E+0x22>
    8020c626:	fffd0637          	lui	a2,0xfffd0
    8020c62a:	5e260613          	addi	a2,a2,1506 # fffffffffffd05e2 <ebss+0xffffffff7fa985e2>
    8020c62e:	9e29                	addw	a2,a2,a0
    8020c630:	5e200693          	li	a3,1506
    8020c634:	f4d667e3          	bltu	a2,a3,8020c582 <_ZN4core7unicode9printable12is_printable17h1278e5ec684ded39E+0x22>
    8020c638:	fffd1637          	lui	a2,0xfffd1
    8020c63c:	1a260613          	addi	a2,a2,418 # fffffffffffd11a2 <ebss+0xffffffff7fa991a2>
    8020c640:	962a                	add	a2,a2,a0
    8020c642:	0016569b          	srliw	a3,a2,0x1
    8020c646:	4d100713          	li	a4,1233
    8020c64a:	f2e6ece3          	bltu	a3,a4,8020c582 <_ZN4core7unicode9printable12is_printable17h1278e5ec684ded39E+0x22>
    8020c64e:	27d6061b          	addiw	a2,a2,637
    8020c652:	46bd                	li	a3,15
    8020c654:	f2d667e3          	bltu	a2,a3,8020c582 <_ZN4core7unicode9printable12is_printable17h1278e5ec684ded39E+0x22>
    8020c658:	fffd3637          	lui	a2,0xfffd3
    8020c65c:	15e60613          	addi	a2,a2,350 # fffffffffffd315e <ebss+0xffffffff7fa9b15e>
    8020c660:	9e29                	addw	a2,a2,a0
    8020c662:	46b9                	li	a3,14
    8020c664:	f0d66fe3          	bltu	a2,a3,8020c582 <_ZN4core7unicode9printable12is_printable17h1278e5ec684ded39E+0x22>
    8020c668:	ffe57613          	andi	a2,a0,-2
    8020c66c:	2601                	sext.w	a2,a2
    8020c66e:	0002c6b7          	lui	a3,0x2c
    8020c672:	81e6869b          	addiw	a3,a3,-2018 # 2b81e <$d.54+0x13be>
    8020c676:	f0d606e3          	beq	a2,a3,8020c582 <_ZN4core7unicode9printable12is_printable17h1278e5ec684ded39E+0x22>
    8020c67a:	fe057613          	andi	a2,a0,-32
    8020c67e:	2601                	sext.w	a2,a2
    8020c680:	0002a6b7          	lui	a3,0x2a
    8020c684:	6e06869b          	addiw	a3,a3,1760 # 2a6e0 <$d.54+0x280>
    8020c688:	eed60de3          	beq	a2,a3,8020c582 <_ZN4core7unicode9printable12is_printable17h1278e5ec684ded39E+0x22>
    8020c68c:	fffd5637          	lui	a2,0xfffd5
    8020c690:	8c660613          	addi	a2,a2,-1850 # fffffffffffd48c6 <ebss+0xffffffff7fa9c8c6>
    8020c694:	9e29                	addw	a2,a2,a0
    8020c696:	4699                	li	a3,6
    8020c698:	eed665e3          	bltu	a2,a3,8020c582 <_ZN4core7unicode9printable12is_printable17h1278e5ec684ded39E+0x22>
    8020c69c:	ffef05b7          	lui	a1,0xffef0
    8020c6a0:	9d2d                	addw	a0,a0,a1
    8020c6a2:	fffd05b7          	lui	a1,0xfffd0
    8020c6a6:	1f05859b          	addiw	a1,a1,496 # fffffffffffd01f0 <ebss+0xffffffff7fa981f0>
    8020c6aa:	00b535b3          	sltu	a1,a0,a1
    8020c6ae:	bdd1                	j	8020c582 <_ZN4core7unicode9printable12is_printable17h1278e5ec684ded39E+0x22>

000000008020c6b0 <_ZN73_$LT$core..num..nonzero..NonZero$LT$T$GT$$u20$as$u20$core..fmt..Debug$GT$3fmt17ha6fe44be016799efE>:
    8020c6b0:	1101                	addi	sp,sp,-32
    8020c6b2:	ec06                	sd	ra,24(sp)
    8020c6b4:	e822                	sd	s0,16(sp)
    8020c6b6:	1000                	addi	s0,sp,32
    8020c6b8:	6108                	ld	a0,0(a0)
    8020c6ba:	fea43423          	sd	a0,-24(s0)
    8020c6be:	fe840513          	addi	a0,s0,-24
    8020c6c2:	00000097          	auipc	ra,0x0
    8020c6c6:	2e8080e7          	jalr	744(ra) # 8020c9aa <_ZN4core3fmt3num52_$LT$impl$u20$core..fmt..Debug$u20$for$u20$usize$GT$3fmt17h1c8a6d16de8eed31E>
    8020c6ca:	60e2                	ld	ra,24(sp)
    8020c6cc:	6442                	ld	s0,16(sp)
    8020c6ce:	6105                	addi	sp,sp,32
    8020c6d0:	8082                	ret

000000008020c6d2 <_ZN4core3fmt3num52_$LT$impl$u20$core..fmt..LowerHex$u20$for$u20$i8$GT$3fmt17h8536913baf387f54E>:
    8020c6d2:	7175                	addi	sp,sp,-144
    8020c6d4:	e506                	sd	ra,136(sp)
    8020c6d6:	e122                	sd	s0,128(sp)
    8020c6d8:	0900                	addi	s0,sp,144
    8020c6da:	00054503          	lbu	a0,0(a0)
    8020c6de:	882e                	mv	a6,a1
    8020c6e0:	4781                	li	a5,0
    8020c6e2:	ff040613          	addi	a2,s0,-16
    8020c6e6:	45a9                	li	a1,10
    8020c6e8:	a821                	j	8020c700 <_ZN4core3fmt3num52_$LT$impl$u20$core..fmt..LowerHex$u20$for$u20$i8$GT$3fmt17h8536913baf387f54E+0x2e>
    8020c6ea:	05768693          	addi	a3,a3,87
    8020c6ee:	fff60713          	addi	a4,a2,-1
    8020c6f2:	1562                	slli	a0,a0,0x38
    8020c6f4:	9171                	srli	a0,a0,0x3c
    8020c6f6:	fed60fa3          	sb	a3,-1(a2)
    8020c6fa:	0785                	addi	a5,a5,1
    8020c6fc:	863a                	mv	a2,a4
    8020c6fe:	c901                	beqz	a0,8020c70e <_ZN4core3fmt3num52_$LT$impl$u20$core..fmt..LowerHex$u20$for$u20$i8$GT$3fmt17h8536913baf387f54E+0x3c>
    8020c700:	00f57693          	andi	a3,a0,15
    8020c704:	feb6f3e3          	bgeu	a3,a1,8020c6ea <_ZN4core3fmt3num52_$LT$impl$u20$core..fmt..LowerHex$u20$for$u20$i8$GT$3fmt17h8536913baf387f54E+0x18>
    8020c708:	03068693          	addi	a3,a3,48
    8020c70c:	b7cd                	j	8020c6ee <_ZN4core3fmt3num52_$LT$impl$u20$core..fmt..LowerHex$u20$for$u20$i8$GT$3fmt17h8536913baf387f54E+0x1c>
    8020c70e:	08000593          	li	a1,128
    8020c712:	40f58533          	sub	a0,a1,a5
    8020c716:	02a5e163          	bltu	a1,a0,8020c738 <.Lpcrel_hi963>

000000008020c71a <.Lpcrel_hi964>:
    8020c71a:	00004517          	auipc	a0,0x4
    8020c71e:	67e50613          	addi	a2,a0,1662 # 80210d98 <.Lanon.ecd42e7c4e68db44e18ec9922ac55289.313>
    8020c722:	4585                	li	a1,1
    8020c724:	4689                	li	a3,2
    8020c726:	8542                	mv	a0,a6
    8020c728:	fffff097          	auipc	ra,0xfffff
    8020c72c:	a7a080e7          	jalr	-1414(ra) # 8020b1a2 <_ZN4core3fmt9Formatter12pad_integral17h201c978eebbf5716E>
    8020c730:	60aa                	ld	ra,136(sp)
    8020c732:	640a                	ld	s0,128(sp)
    8020c734:	6149                	addi	sp,sp,144
    8020c736:	8082                	ret

000000008020c738 <.Lpcrel_hi963>:
    8020c738:	00004597          	auipc	a1,0x4
    8020c73c:	64858613          	addi	a2,a1,1608 # 80210d80 <.Lanon.ecd42e7c4e68db44e18ec9922ac55289.312>
    8020c740:	08000593          	li	a1,128
    8020c744:	fffff097          	auipc	ra,0xfffff
    8020c748:	532080e7          	jalr	1330(ra) # 8020bc76 <_ZN4core5slice5index26slice_start_index_len_fail17h4fe0fe1482ca1679E>

000000008020c74c <_ZN4core3fmt3num52_$LT$impl$u20$core..fmt..UpperHex$u20$for$u20$i8$GT$3fmt17h896851339c341097E>:
    8020c74c:	7175                	addi	sp,sp,-144
    8020c74e:	e506                	sd	ra,136(sp)
    8020c750:	e122                	sd	s0,128(sp)
    8020c752:	0900                	addi	s0,sp,144
    8020c754:	00054503          	lbu	a0,0(a0)
    8020c758:	882e                	mv	a6,a1
    8020c75a:	4781                	li	a5,0
    8020c75c:	ff040613          	addi	a2,s0,-16
    8020c760:	45a9                	li	a1,10
    8020c762:	a821                	j	8020c77a <_ZN4core3fmt3num52_$LT$impl$u20$core..fmt..UpperHex$u20$for$u20$i8$GT$3fmt17h896851339c341097E+0x2e>
    8020c764:	03768693          	addi	a3,a3,55
    8020c768:	fff60713          	addi	a4,a2,-1
    8020c76c:	1562                	slli	a0,a0,0x38
    8020c76e:	9171                	srli	a0,a0,0x3c
    8020c770:	fed60fa3          	sb	a3,-1(a2)
    8020c774:	0785                	addi	a5,a5,1
    8020c776:	863a                	mv	a2,a4
    8020c778:	c901                	beqz	a0,8020c788 <_ZN4core3fmt3num52_$LT$impl$u20$core..fmt..UpperHex$u20$for$u20$i8$GT$3fmt17h896851339c341097E+0x3c>
    8020c77a:	00f57693          	andi	a3,a0,15
    8020c77e:	feb6f3e3          	bgeu	a3,a1,8020c764 <_ZN4core3fmt3num52_$LT$impl$u20$core..fmt..UpperHex$u20$for$u20$i8$GT$3fmt17h896851339c341097E+0x18>
    8020c782:	03068693          	addi	a3,a3,48
    8020c786:	b7cd                	j	8020c768 <_ZN4core3fmt3num52_$LT$impl$u20$core..fmt..UpperHex$u20$for$u20$i8$GT$3fmt17h896851339c341097E+0x1c>
    8020c788:	08000593          	li	a1,128
    8020c78c:	40f58533          	sub	a0,a1,a5
    8020c790:	02a5e163          	bltu	a1,a0,8020c7b2 <.Lpcrel_hi965>

000000008020c794 <.Lpcrel_hi966>:
    8020c794:	00004517          	auipc	a0,0x4
    8020c798:	60450613          	addi	a2,a0,1540 # 80210d98 <.Lanon.ecd42e7c4e68db44e18ec9922ac55289.313>
    8020c79c:	4585                	li	a1,1
    8020c79e:	4689                	li	a3,2
    8020c7a0:	8542                	mv	a0,a6
    8020c7a2:	fffff097          	auipc	ra,0xfffff
    8020c7a6:	a00080e7          	jalr	-1536(ra) # 8020b1a2 <_ZN4core3fmt9Formatter12pad_integral17h201c978eebbf5716E>
    8020c7aa:	60aa                	ld	ra,136(sp)
    8020c7ac:	640a                	ld	s0,128(sp)
    8020c7ae:	6149                	addi	sp,sp,144
    8020c7b0:	8082                	ret

000000008020c7b2 <.Lpcrel_hi965>:
    8020c7b2:	00004597          	auipc	a1,0x4
    8020c7b6:	5ce58613          	addi	a2,a1,1486 # 80210d80 <.Lanon.ecd42e7c4e68db44e18ec9922ac55289.312>
    8020c7ba:	08000593          	li	a1,128
    8020c7be:	fffff097          	auipc	ra,0xfffff
    8020c7c2:	4b8080e7          	jalr	1208(ra) # 8020bc76 <_ZN4core5slice5index26slice_start_index_len_fail17h4fe0fe1482ca1679E>

000000008020c7c6 <_ZN4core3fmt3num53_$LT$impl$u20$core..fmt..LowerHex$u20$for$u20$i64$GT$3fmt17h2c0862d8e5218d41E>:
    8020c7c6:	7175                	addi	sp,sp,-144
    8020c7c8:	e506                	sd	ra,136(sp)
    8020c7ca:	e122                	sd	s0,128(sp)
    8020c7cc:	0900                	addi	s0,sp,144
    8020c7ce:	6108                	ld	a0,0(a0)
    8020c7d0:	882e                	mv	a6,a1
    8020c7d2:	4781                	li	a5,0
    8020c7d4:	ff040613          	addi	a2,s0,-16
    8020c7d8:	45a9                	li	a1,10
    8020c7da:	a819                	j	8020c7f0 <_ZN4core3fmt3num53_$LT$impl$u20$core..fmt..LowerHex$u20$for$u20$i64$GT$3fmt17h2c0862d8e5218d41E+0x2a>
    8020c7dc:	05768693          	addi	a3,a3,87
    8020c7e0:	fff60713          	addi	a4,a2,-1
    8020c7e4:	8111                	srli	a0,a0,0x4
    8020c7e6:	fed60fa3          	sb	a3,-1(a2)
    8020c7ea:	0785                	addi	a5,a5,1
    8020c7ec:	863a                	mv	a2,a4
    8020c7ee:	c901                	beqz	a0,8020c7fe <_ZN4core3fmt3num53_$LT$impl$u20$core..fmt..LowerHex$u20$for$u20$i64$GT$3fmt17h2c0862d8e5218d41E+0x38>
    8020c7f0:	00f57693          	andi	a3,a0,15
    8020c7f4:	feb6f4e3          	bgeu	a3,a1,8020c7dc <_ZN4core3fmt3num53_$LT$impl$u20$core..fmt..LowerHex$u20$for$u20$i64$GT$3fmt17h2c0862d8e5218d41E+0x16>
    8020c7f8:	03068693          	addi	a3,a3,48
    8020c7fc:	b7d5                	j	8020c7e0 <_ZN4core3fmt3num53_$LT$impl$u20$core..fmt..LowerHex$u20$for$u20$i64$GT$3fmt17h2c0862d8e5218d41E+0x1a>
    8020c7fe:	08000593          	li	a1,128
    8020c802:	40f58533          	sub	a0,a1,a5
    8020c806:	02a5e163          	bltu	a1,a0,8020c828 <.Lpcrel_hi987>

000000008020c80a <.Lpcrel_hi988>:
    8020c80a:	00004517          	auipc	a0,0x4
    8020c80e:	58e50613          	addi	a2,a0,1422 # 80210d98 <.Lanon.ecd42e7c4e68db44e18ec9922ac55289.313>
    8020c812:	4585                	li	a1,1
    8020c814:	4689                	li	a3,2
    8020c816:	8542                	mv	a0,a6
    8020c818:	fffff097          	auipc	ra,0xfffff
    8020c81c:	98a080e7          	jalr	-1654(ra) # 8020b1a2 <_ZN4core3fmt9Formatter12pad_integral17h201c978eebbf5716E>
    8020c820:	60aa                	ld	ra,136(sp)
    8020c822:	640a                	ld	s0,128(sp)
    8020c824:	6149                	addi	sp,sp,144
    8020c826:	8082                	ret

000000008020c828 <.Lpcrel_hi987>:
    8020c828:	00004597          	auipc	a1,0x4
    8020c82c:	55858613          	addi	a2,a1,1368 # 80210d80 <.Lanon.ecd42e7c4e68db44e18ec9922ac55289.312>
    8020c830:	08000593          	li	a1,128
    8020c834:	fffff097          	auipc	ra,0xfffff
    8020c838:	442080e7          	jalr	1090(ra) # 8020bc76 <_ZN4core5slice5index26slice_start_index_len_fail17h4fe0fe1482ca1679E>

000000008020c83c <_ZN4core3fmt3num53_$LT$impl$u20$core..fmt..UpperHex$u20$for$u20$i64$GT$3fmt17hdf92147260748110E>:
    8020c83c:	7175                	addi	sp,sp,-144
    8020c83e:	e506                	sd	ra,136(sp)
    8020c840:	e122                	sd	s0,128(sp)
    8020c842:	0900                	addi	s0,sp,144
    8020c844:	6108                	ld	a0,0(a0)
    8020c846:	882e                	mv	a6,a1
    8020c848:	4781                	li	a5,0
    8020c84a:	ff040613          	addi	a2,s0,-16
    8020c84e:	45a9                	li	a1,10
    8020c850:	a819                	j	8020c866 <_ZN4core3fmt3num53_$LT$impl$u20$core..fmt..UpperHex$u20$for$u20$i64$GT$3fmt17hdf92147260748110E+0x2a>
    8020c852:	03768693          	addi	a3,a3,55
    8020c856:	fff60713          	addi	a4,a2,-1
    8020c85a:	8111                	srli	a0,a0,0x4
    8020c85c:	fed60fa3          	sb	a3,-1(a2)
    8020c860:	0785                	addi	a5,a5,1
    8020c862:	863a                	mv	a2,a4
    8020c864:	c901                	beqz	a0,8020c874 <_ZN4core3fmt3num53_$LT$impl$u20$core..fmt..UpperHex$u20$for$u20$i64$GT$3fmt17hdf92147260748110E+0x38>
    8020c866:	00f57693          	andi	a3,a0,15
    8020c86a:	feb6f4e3          	bgeu	a3,a1,8020c852 <_ZN4core3fmt3num53_$LT$impl$u20$core..fmt..UpperHex$u20$for$u20$i64$GT$3fmt17hdf92147260748110E+0x16>
    8020c86e:	03068693          	addi	a3,a3,48
    8020c872:	b7d5                	j	8020c856 <_ZN4core3fmt3num53_$LT$impl$u20$core..fmt..UpperHex$u20$for$u20$i64$GT$3fmt17hdf92147260748110E+0x1a>
    8020c874:	08000593          	li	a1,128
    8020c878:	40f58533          	sub	a0,a1,a5
    8020c87c:	02a5e163          	bltu	a1,a0,8020c89e <.Lpcrel_hi989>

000000008020c880 <.Lpcrel_hi990>:
    8020c880:	00004517          	auipc	a0,0x4
    8020c884:	51850613          	addi	a2,a0,1304 # 80210d98 <.Lanon.ecd42e7c4e68db44e18ec9922ac55289.313>
    8020c888:	4585                	li	a1,1
    8020c88a:	4689                	li	a3,2
    8020c88c:	8542                	mv	a0,a6
    8020c88e:	fffff097          	auipc	ra,0xfffff
    8020c892:	914080e7          	jalr	-1772(ra) # 8020b1a2 <_ZN4core3fmt9Formatter12pad_integral17h201c978eebbf5716E>
    8020c896:	60aa                	ld	ra,136(sp)
    8020c898:	640a                	ld	s0,128(sp)
    8020c89a:	6149                	addi	sp,sp,144
    8020c89c:	8082                	ret

000000008020c89e <.Lpcrel_hi989>:
    8020c89e:	00004597          	auipc	a1,0x4
    8020c8a2:	4e258613          	addi	a2,a1,1250 # 80210d80 <.Lanon.ecd42e7c4e68db44e18ec9922ac55289.312>
    8020c8a6:	08000593          	li	a1,128
    8020c8aa:	fffff097          	auipc	ra,0xfffff
    8020c8ae:	3cc080e7          	jalr	972(ra) # 8020bc76 <_ZN4core5slice5index26slice_start_index_len_fail17h4fe0fe1482ca1679E>

000000008020c8b2 <_ZN4core3fmt3num50_$LT$impl$u20$core..fmt..Debug$u20$for$u20$u32$GT$3fmt17h700187fd72a9aa52E>:
    8020c8b2:	7175                	addi	sp,sp,-144
    8020c8b4:	e506                	sd	ra,136(sp)
    8020c8b6:	e122                	sd	s0,128(sp)
    8020c8b8:	0900                	addi	s0,sp,144
    8020c8ba:	882e                	mv	a6,a1
    8020c8bc:	0345e583          	lwu	a1,52(a1)
    8020c8c0:	0105f613          	andi	a2,a1,16
    8020c8c4:	ee19                	bnez	a2,8020c8e2 <_ZN4core3fmt3num50_$LT$impl$u20$core..fmt..Debug$u20$for$u20$u32$GT$3fmt17h700187fd72a9aa52E+0x30>
    8020c8c6:	0205f593          	andi	a1,a1,32
    8020c8ca:	edb9                	bnez	a1,8020c928 <.Lpcrel_hi1000+0xa>
    8020c8cc:	00056503          	lwu	a0,0(a0)
    8020c8d0:	4585                	li	a1,1
    8020c8d2:	8642                	mv	a2,a6
    8020c8d4:	60aa                	ld	ra,136(sp)
    8020c8d6:	640a                	ld	s0,128(sp)
    8020c8d8:	6149                	addi	sp,sp,144
    8020c8da:	00000317          	auipc	t1,0x0
    8020c8de:	1c230067          	jr	450(t1) # 8020ca9c <_ZN4core3fmt3num3imp7fmt_u6417h7db99f6cff7ca887E>
    8020c8e2:	4108                	lw	a0,0(a0)
    8020c8e4:	4781                	li	a5,0
    8020c8e6:	ff040613          	addi	a2,s0,-16
    8020c8ea:	45a9                	li	a1,10
    8020c8ec:	a821                	j	8020c904 <_ZN4core3fmt3num50_$LT$impl$u20$core..fmt..Debug$u20$for$u20$u32$GT$3fmt17h700187fd72a9aa52E+0x52>
    8020c8ee:	05768693          	addi	a3,a3,87
    8020c8f2:	fff60713          	addi	a4,a2,-1
    8020c8f6:	0045551b          	srliw	a0,a0,0x4
    8020c8fa:	fed60fa3          	sb	a3,-1(a2)
    8020c8fe:	0785                	addi	a5,a5,1
    8020c900:	863a                	mv	a2,a4
    8020c902:	c901                	beqz	a0,8020c912 <_ZN4core3fmt3num50_$LT$impl$u20$core..fmt..Debug$u20$for$u20$u32$GT$3fmt17h700187fd72a9aa52E+0x60>
    8020c904:	00f57693          	andi	a3,a0,15
    8020c908:	feb6f3e3          	bgeu	a3,a1,8020c8ee <_ZN4core3fmt3num50_$LT$impl$u20$core..fmt..Debug$u20$for$u20$u32$GT$3fmt17h700187fd72a9aa52E+0x3c>
    8020c90c:	03068693          	addi	a3,a3,48
    8020c910:	b7cd                	j	8020c8f2 <_ZN4core3fmt3num50_$LT$impl$u20$core..fmt..Debug$u20$for$u20$u32$GT$3fmt17h700187fd72a9aa52E+0x40>
    8020c912:	08000593          	li	a1,128
    8020c916:	40f58533          	sub	a0,a1,a5
    8020c91a:	06a5e463          	bltu	a1,a0,8020c982 <.Lpcrel_hi999>

000000008020c91e <.Lpcrel_hi1000>:
    8020c91e:	00004517          	auipc	a0,0x4
    8020c922:	47a50613          	addi	a2,a0,1146 # 80210d98 <.Lanon.ecd42e7c4e68db44e18ec9922ac55289.313>
    8020c926:	a099                	j	8020c96c <.Lpcrel_hi1002+0x8>
    8020c928:	4108                	lw	a0,0(a0)
    8020c92a:	4781                	li	a5,0
    8020c92c:	ff040613          	addi	a2,s0,-16
    8020c930:	45a9                	li	a1,10
    8020c932:	a821                	j	8020c94a <.Lpcrel_hi1000+0x2c>
    8020c934:	03768693          	addi	a3,a3,55
    8020c938:	fff60713          	addi	a4,a2,-1
    8020c93c:	0045551b          	srliw	a0,a0,0x4
    8020c940:	fed60fa3          	sb	a3,-1(a2)
    8020c944:	0785                	addi	a5,a5,1
    8020c946:	863a                	mv	a2,a4
    8020c948:	c901                	beqz	a0,8020c958 <.Lpcrel_hi1000+0x3a>
    8020c94a:	00f57693          	andi	a3,a0,15
    8020c94e:	feb6f3e3          	bgeu	a3,a1,8020c934 <.Lpcrel_hi1000+0x16>
    8020c952:	03068693          	addi	a3,a3,48
    8020c956:	b7cd                	j	8020c938 <.Lpcrel_hi1000+0x1a>
    8020c958:	08000593          	li	a1,128
    8020c95c:	40f58533          	sub	a0,a1,a5
    8020c960:	02a5eb63          	bltu	a1,a0,8020c996 <.Lpcrel_hi1001>

000000008020c964 <.Lpcrel_hi1002>:
    8020c964:	00004517          	auipc	a0,0x4
    8020c968:	43450613          	addi	a2,a0,1076 # 80210d98 <.Lanon.ecd42e7c4e68db44e18ec9922ac55289.313>
    8020c96c:	4585                	li	a1,1
    8020c96e:	4689                	li	a3,2
    8020c970:	8542                	mv	a0,a6
    8020c972:	fffff097          	auipc	ra,0xfffff
    8020c976:	830080e7          	jalr	-2000(ra) # 8020b1a2 <_ZN4core3fmt9Formatter12pad_integral17h201c978eebbf5716E>
    8020c97a:	60aa                	ld	ra,136(sp)
    8020c97c:	640a                	ld	s0,128(sp)
    8020c97e:	6149                	addi	sp,sp,144
    8020c980:	8082                	ret

000000008020c982 <.Lpcrel_hi999>:
    8020c982:	00004597          	auipc	a1,0x4
    8020c986:	3fe58613          	addi	a2,a1,1022 # 80210d80 <.Lanon.ecd42e7c4e68db44e18ec9922ac55289.312>
    8020c98a:	08000593          	li	a1,128
    8020c98e:	fffff097          	auipc	ra,0xfffff
    8020c992:	2e8080e7          	jalr	744(ra) # 8020bc76 <_ZN4core5slice5index26slice_start_index_len_fail17h4fe0fe1482ca1679E>

000000008020c996 <.Lpcrel_hi1001>:
    8020c996:	00004597          	auipc	a1,0x4
    8020c99a:	3ea58613          	addi	a2,a1,1002 # 80210d80 <.Lanon.ecd42e7c4e68db44e18ec9922ac55289.312>
    8020c99e:	08000593          	li	a1,128
    8020c9a2:	fffff097          	auipc	ra,0xfffff
    8020c9a6:	2d4080e7          	jalr	724(ra) # 8020bc76 <_ZN4core5slice5index26slice_start_index_len_fail17h4fe0fe1482ca1679E>

000000008020c9aa <_ZN4core3fmt3num52_$LT$impl$u20$core..fmt..Debug$u20$for$u20$usize$GT$3fmt17h1c8a6d16de8eed31E>:
    8020c9aa:	7175                	addi	sp,sp,-144
    8020c9ac:	e506                	sd	ra,136(sp)
    8020c9ae:	e122                	sd	s0,128(sp)
    8020c9b0:	0900                	addi	s0,sp,144
    8020c9b2:	882e                	mv	a6,a1
    8020c9b4:	0345e583          	lwu	a1,52(a1)
    8020c9b8:	0105f613          	andi	a2,a1,16
    8020c9bc:	ee11                	bnez	a2,8020c9d8 <_ZN4core3fmt3num52_$LT$impl$u20$core..fmt..Debug$u20$for$u20$usize$GT$3fmt17h1c8a6d16de8eed31E+0x2e>
    8020c9be:	0205f593          	andi	a1,a1,32
    8020c9c2:	eda9                	bnez	a1,8020ca1c <.Lpcrel_hi1008+0xa>
    8020c9c4:	6108                	ld	a0,0(a0)
    8020c9c6:	4585                	li	a1,1
    8020c9c8:	8642                	mv	a2,a6
    8020c9ca:	60aa                	ld	ra,136(sp)
    8020c9cc:	640a                	ld	s0,128(sp)
    8020c9ce:	6149                	addi	sp,sp,144
    8020c9d0:	00000317          	auipc	t1,0x0
    8020c9d4:	0cc30067          	jr	204(t1) # 8020ca9c <_ZN4core3fmt3num3imp7fmt_u6417h7db99f6cff7ca887E>
    8020c9d8:	6108                	ld	a0,0(a0)
    8020c9da:	4781                	li	a5,0
    8020c9dc:	ff040613          	addi	a2,s0,-16
    8020c9e0:	45a9                	li	a1,10
    8020c9e2:	a819                	j	8020c9f8 <_ZN4core3fmt3num52_$LT$impl$u20$core..fmt..Debug$u20$for$u20$usize$GT$3fmt17h1c8a6d16de8eed31E+0x4e>
    8020c9e4:	05768693          	addi	a3,a3,87
    8020c9e8:	fff60713          	addi	a4,a2,-1
    8020c9ec:	8111                	srli	a0,a0,0x4
    8020c9ee:	fed60fa3          	sb	a3,-1(a2)
    8020c9f2:	0785                	addi	a5,a5,1
    8020c9f4:	863a                	mv	a2,a4
    8020c9f6:	c901                	beqz	a0,8020ca06 <_ZN4core3fmt3num52_$LT$impl$u20$core..fmt..Debug$u20$for$u20$usize$GT$3fmt17h1c8a6d16de8eed31E+0x5c>
    8020c9f8:	00f57693          	andi	a3,a0,15
    8020c9fc:	feb6f4e3          	bgeu	a3,a1,8020c9e4 <_ZN4core3fmt3num52_$LT$impl$u20$core..fmt..Debug$u20$for$u20$usize$GT$3fmt17h1c8a6d16de8eed31E+0x3a>
    8020ca00:	03068693          	addi	a3,a3,48
    8020ca04:	b7d5                	j	8020c9e8 <_ZN4core3fmt3num52_$LT$impl$u20$core..fmt..Debug$u20$for$u20$usize$GT$3fmt17h1c8a6d16de8eed31E+0x3e>
    8020ca06:	08000593          	li	a1,128
    8020ca0a:	40f58533          	sub	a0,a1,a5
    8020ca0e:	06a5e363          	bltu	a1,a0,8020ca74 <.Lpcrel_hi1007>

000000008020ca12 <.Lpcrel_hi1008>:
    8020ca12:	00004517          	auipc	a0,0x4
    8020ca16:	38650613          	addi	a2,a0,902 # 80210d98 <.Lanon.ecd42e7c4e68db44e18ec9922ac55289.313>
    8020ca1a:	a091                	j	8020ca5e <.Lpcrel_hi1010+0x8>
    8020ca1c:	6108                	ld	a0,0(a0)
    8020ca1e:	4781                	li	a5,0
    8020ca20:	ff040613          	addi	a2,s0,-16
    8020ca24:	45a9                	li	a1,10
    8020ca26:	a819                	j	8020ca3c <.Lpcrel_hi1008+0x2a>
    8020ca28:	03768693          	addi	a3,a3,55
    8020ca2c:	fff60713          	addi	a4,a2,-1
    8020ca30:	8111                	srli	a0,a0,0x4
    8020ca32:	fed60fa3          	sb	a3,-1(a2)
    8020ca36:	0785                	addi	a5,a5,1
    8020ca38:	863a                	mv	a2,a4
    8020ca3a:	c901                	beqz	a0,8020ca4a <.Lpcrel_hi1008+0x38>
    8020ca3c:	00f57693          	andi	a3,a0,15
    8020ca40:	feb6f4e3          	bgeu	a3,a1,8020ca28 <.Lpcrel_hi1008+0x16>
    8020ca44:	03068693          	addi	a3,a3,48
    8020ca48:	b7d5                	j	8020ca2c <.Lpcrel_hi1008+0x1a>
    8020ca4a:	08000593          	li	a1,128
    8020ca4e:	40f58533          	sub	a0,a1,a5
    8020ca52:	02a5eb63          	bltu	a1,a0,8020ca88 <.Lpcrel_hi1009>

000000008020ca56 <.Lpcrel_hi1010>:
    8020ca56:	00004517          	auipc	a0,0x4
    8020ca5a:	34250613          	addi	a2,a0,834 # 80210d98 <.Lanon.ecd42e7c4e68db44e18ec9922ac55289.313>
    8020ca5e:	4585                	li	a1,1
    8020ca60:	4689                	li	a3,2
    8020ca62:	8542                	mv	a0,a6
    8020ca64:	ffffe097          	auipc	ra,0xffffe
    8020ca68:	73e080e7          	jalr	1854(ra) # 8020b1a2 <_ZN4core3fmt9Formatter12pad_integral17h201c978eebbf5716E>
    8020ca6c:	60aa                	ld	ra,136(sp)
    8020ca6e:	640a                	ld	s0,128(sp)
    8020ca70:	6149                	addi	sp,sp,144
    8020ca72:	8082                	ret

000000008020ca74 <.Lpcrel_hi1007>:
    8020ca74:	00004597          	auipc	a1,0x4
    8020ca78:	30c58613          	addi	a2,a1,780 # 80210d80 <.Lanon.ecd42e7c4e68db44e18ec9922ac55289.312>
    8020ca7c:	08000593          	li	a1,128
    8020ca80:	fffff097          	auipc	ra,0xfffff
    8020ca84:	1f6080e7          	jalr	502(ra) # 8020bc76 <_ZN4core5slice5index26slice_start_index_len_fail17h4fe0fe1482ca1679E>

000000008020ca88 <.Lpcrel_hi1009>:
    8020ca88:	00004597          	auipc	a1,0x4
    8020ca8c:	2f858613          	addi	a2,a1,760 # 80210d80 <.Lanon.ecd42e7c4e68db44e18ec9922ac55289.312>
    8020ca90:	08000593          	li	a1,128
    8020ca94:	fffff097          	auipc	ra,0xfffff
    8020ca98:	1e2080e7          	jalr	482(ra) # 8020bc76 <_ZN4core5slice5index26slice_start_index_len_fail17h4fe0fe1482ca1679E>

000000008020ca9c <_ZN4core3fmt3num3imp7fmt_u6417h7db99f6cff7ca887E>:
    8020ca9c:	715d                	addi	sp,sp,-80
    8020ca9e:	e486                	sd	ra,72(sp)
    8020caa0:	e0a2                	sd	s0,64(sp)
    8020caa2:	fc26                	sd	s1,56(sp)
    8020caa4:	f84a                	sd	s2,48(sp)
    8020caa6:	0880                	addi	s0,sp,80
    8020caa8:	8832                	mv	a6,a2
    8020caaa:	00455693          	srli	a3,a0,0x4
    8020caae:	02700713          	li	a4,39
    8020cab2:	27100793          	li	a5,625

000000008020cab6 <.Lpcrel_hi1011>:
    8020cab6:	00004617          	auipc	a2,0x4
    8020caba:	2e460e93          	addi	t4,a2,740 # 80210d9a <.Lanon.ecd42e7c4e68db44e18ec9922ac55289.316>
    8020cabe:	02f6f363          	bgeu	a3,a5,8020cae4 <.Lpcrel_hi1011+0x2e>
    8020cac2:	06300693          	li	a3,99
    8020cac6:	0aa6ea63          	bltu	a3,a0,8020cb7a <.Lpcrel_hi1012+0x8c>
    8020caca:	4629                	li	a2,10
    8020cacc:	0ec57863          	bgeu	a0,a2,8020cbbc <.Lpcrel_hi1012+0xce>
    8020cad0:	fff70693          	addi	a3,a4,-1
    8020cad4:	fb940613          	addi	a2,s0,-71
    8020cad8:	9636                	add	a2,a2,a3
    8020cada:	03056513          	ori	a0,a0,48
    8020cade:	00a60023          	sb	a0,0(a2)
    8020cae2:	a8e5                	j	8020cbda <.Lpcrel_hi1012+0xec>
    8020cae4:	4701                	li	a4,0
    8020cae6:	fdc40893          	addi	a7,s0,-36
    8020caea:	fde40293          	addi	t0,s0,-34

000000008020caee <.Lpcrel_hi1012>:
    8020caee:	0011a697          	auipc	a3,0x11a
    8020caf2:	dea6b303          	ld	t1,-534(a3) # 803268d8 <.LCPI430_0>
    8020caf6:	6689                	lui	a3,0x2
    8020caf8:	71068e13          	addi	t3,a3,1808 # 2710 <$d.81+0xcb>
    8020cafc:	6685                	lui	a3,0x1
    8020cafe:	47b68f1b          	addiw	t5,a3,1147 # 147b <$d.101+0x3b>
    8020cb02:	06400393          	li	t2,100
    8020cb06:	05f5e6b7          	lui	a3,0x5f5e
    8020cb0a:	0ff68f9b          	addiw	t6,a3,255 # 5f5e0ff <$d.6+0x5e972a4>
    8020cb0e:	892a                	mv	s2,a0
    8020cb10:	02653533          	mulhu	a0,a0,t1
    8020cb14:	812d                	srli	a0,a0,0xb
    8020cb16:	03c507b3          	mul	a5,a0,t3
    8020cb1a:	40f9063b          	subw	a2,s2,a5
    8020cb1e:	03061793          	slli	a5,a2,0x30
    8020cb22:	93c9                	srli	a5,a5,0x32
    8020cb24:	03e787b3          	mul	a5,a5,t5
    8020cb28:	0117d493          	srli	s1,a5,0x11
    8020cb2c:	83c1                	srli	a5,a5,0x10
    8020cb2e:	7fe7f793          	andi	a5,a5,2046
    8020cb32:	027484b3          	mul	s1,s1,t2
    8020cb36:	9e05                	subw	a2,a2,s1
    8020cb38:	1646                	slli	a2,a2,0x31
    8020cb3a:	97f6                	add	a5,a5,t4
    8020cb3c:	0017c483          	lbu	s1,1(a5)
    8020cb40:	9241                	srli	a2,a2,0x30
    8020cb42:	00e886b3          	add	a3,a7,a4
    8020cb46:	0007c783          	lbu	a5,0(a5)
    8020cb4a:	009680a3          	sb	s1,1(a3)
    8020cb4e:	9676                	add	a2,a2,t4
    8020cb50:	00164483          	lbu	s1,1(a2)
    8020cb54:	00064603          	lbu	a2,0(a2)
    8020cb58:	00f68023          	sb	a5,0(a3)
    8020cb5c:	00e286b3          	add	a3,t0,a4
    8020cb60:	009680a3          	sb	s1,1(a3)
    8020cb64:	00c68023          	sb	a2,0(a3)
    8020cb68:	1771                	addi	a4,a4,-4
    8020cb6a:	fb2fe2e3          	bltu	t6,s2,8020cb0e <.Lpcrel_hi1012+0x20>
    8020cb6e:	02770713          	addi	a4,a4,39
    8020cb72:	06300693          	li	a3,99
    8020cb76:	f4a6fae3          	bgeu	a3,a0,8020caca <.Lpcrel_hi1011+0x14>
    8020cb7a:	03051613          	slli	a2,a0,0x30
    8020cb7e:	9249                	srli	a2,a2,0x32
    8020cb80:	6685                	lui	a3,0x1
    8020cb82:	47b6869b          	addiw	a3,a3,1147 # 147b <$d.101+0x3b>
    8020cb86:	02d60633          	mul	a2,a2,a3
    8020cb8a:	8245                	srli	a2,a2,0x11
    8020cb8c:	06400693          	li	a3,100
    8020cb90:	02d606b3          	mul	a3,a2,a3
    8020cb94:	9d15                	subw	a0,a0,a3
    8020cb96:	1546                	slli	a0,a0,0x31
    8020cb98:	9141                	srli	a0,a0,0x30
    8020cb9a:	1779                	addi	a4,a4,-2
    8020cb9c:	9576                	add	a0,a0,t4
    8020cb9e:	00154683          	lbu	a3,1(a0)
    8020cba2:	00054503          	lbu	a0,0(a0)
    8020cba6:	fb940793          	addi	a5,s0,-71
    8020cbaa:	97ba                	add	a5,a5,a4
    8020cbac:	00d780a3          	sb	a3,1(a5)
    8020cbb0:	00a78023          	sb	a0,0(a5)
    8020cbb4:	8532                	mv	a0,a2
    8020cbb6:	4629                	li	a2,10
    8020cbb8:	f0c56ce3          	bltu	a0,a2,8020cad0 <.Lpcrel_hi1011+0x1a>
    8020cbbc:	0506                	slli	a0,a0,0x1
    8020cbbe:	ffe70693          	addi	a3,a4,-2
    8020cbc2:	9576                	add	a0,a0,t4
    8020cbc4:	00154603          	lbu	a2,1(a0)
    8020cbc8:	00054503          	lbu	a0,0(a0)
    8020cbcc:	fb940713          	addi	a4,s0,-71
    8020cbd0:	9736                	add	a4,a4,a3
    8020cbd2:	00c700a3          	sb	a2,1(a4)
    8020cbd6:	00a70023          	sb	a0,0(a4)
    8020cbda:	fb940713          	addi	a4,s0,-71
    8020cbde:	9736                	add	a4,a4,a3
    8020cbe0:	02700793          	li	a5,39
    8020cbe4:	8f95                	sub	a5,a5,a3
    8020cbe6:	4605                	li	a2,1
    8020cbe8:	8542                	mv	a0,a6
    8020cbea:	4681                	li	a3,0
    8020cbec:	ffffe097          	auipc	ra,0xffffe
    8020cbf0:	5b6080e7          	jalr	1462(ra) # 8020b1a2 <_ZN4core3fmt9Formatter12pad_integral17h201c978eebbf5716E>
    8020cbf4:	60a6                	ld	ra,72(sp)
    8020cbf6:	6406                	ld	s0,64(sp)
    8020cbf8:	74e2                	ld	s1,56(sp)
    8020cbfa:	7942                	ld	s2,48(sp)
    8020cbfc:	6161                	addi	sp,sp,80
    8020cbfe:	8082                	ret

000000008020cc00 <_ZN4core3fmt3num3imp51_$LT$impl$u20$core..fmt..Display$u20$for$u20$u8$GT$3fmt17h1ef3f7ef9813e01eE>:
    8020cc00:	1141                	addi	sp,sp,-16
    8020cc02:	e406                	sd	ra,8(sp)
    8020cc04:	e022                	sd	s0,0(sp)
    8020cc06:	0800                	addi	s0,sp,16
    8020cc08:	00054503          	lbu	a0,0(a0)
    8020cc0c:	862e                	mv	a2,a1
    8020cc0e:	4585                	li	a1,1
    8020cc10:	60a2                	ld	ra,8(sp)
    8020cc12:	6402                	ld	s0,0(sp)
    8020cc14:	0141                	addi	sp,sp,16
    8020cc16:	00000317          	auipc	t1,0x0
    8020cc1a:	e8630067          	jr	-378(t1) # 8020ca9c <_ZN4core3fmt3num3imp7fmt_u6417h7db99f6cff7ca887E>

000000008020cc1e <_ZN4core3fmt3num3imp52_$LT$impl$u20$core..fmt..Display$u20$for$u20$i32$GT$3fmt17h2bd07d710de2d86aE>:
    8020cc1e:	1141                	addi	sp,sp,-16
    8020cc20:	e406                	sd	ra,8(sp)
    8020cc22:	e022                	sd	s0,0(sp)
    8020cc24:	0800                	addi	s0,sp,16
    8020cc26:	4110                	lw	a2,0(a0)
    8020cc28:	43f65513          	srai	a0,a2,0x3f
    8020cc2c:	00a646b3          	xor	a3,a2,a0
    8020cc30:	40a68533          	sub	a0,a3,a0
    8020cc34:	fff64613          	not	a2,a2
    8020cc38:	927d                	srli	a2,a2,0x3f
    8020cc3a:	86ae                	mv	a3,a1
    8020cc3c:	85b2                	mv	a1,a2
    8020cc3e:	8636                	mv	a2,a3
    8020cc40:	60a2                	ld	ra,8(sp)
    8020cc42:	6402                	ld	s0,0(sp)
    8020cc44:	0141                	addi	sp,sp,16
    8020cc46:	00000317          	auipc	t1,0x0
    8020cc4a:	e5630067          	jr	-426(t1) # 8020ca9c <_ZN4core3fmt3num3imp7fmt_u6417h7db99f6cff7ca887E>

000000008020cc4e <_ZN4core3fmt3num3imp52_$LT$impl$u20$core..fmt..Display$u20$for$u20$u32$GT$3fmt17hd2e5044e983b3e9aE>:
    8020cc4e:	1141                	addi	sp,sp,-16
    8020cc50:	e406                	sd	ra,8(sp)
    8020cc52:	e022                	sd	s0,0(sp)
    8020cc54:	0800                	addi	s0,sp,16
    8020cc56:	00056503          	lwu	a0,0(a0)
    8020cc5a:	862e                	mv	a2,a1
    8020cc5c:	4585                	li	a1,1
    8020cc5e:	60a2                	ld	ra,8(sp)
    8020cc60:	6402                	ld	s0,0(sp)
    8020cc62:	0141                	addi	sp,sp,16
    8020cc64:	00000317          	auipc	t1,0x0
    8020cc68:	e3830067          	jr	-456(t1) # 8020ca9c <_ZN4core3fmt3num3imp7fmt_u6417h7db99f6cff7ca887E>

000000008020cc6c <_ZN4core3fmt3num3imp52_$LT$impl$u20$core..fmt..Display$u20$for$u20$u64$GT$3fmt17hdc568abe5d51f18fE>:
    8020cc6c:	1141                	addi	sp,sp,-16
    8020cc6e:	e406                	sd	ra,8(sp)
    8020cc70:	e022                	sd	s0,0(sp)
    8020cc72:	0800                	addi	s0,sp,16
    8020cc74:	6108                	ld	a0,0(a0)
    8020cc76:	862e                	mv	a2,a1
    8020cc78:	4585                	li	a1,1
    8020cc7a:	60a2                	ld	ra,8(sp)
    8020cc7c:	6402                	ld	s0,0(sp)
    8020cc7e:	0141                	addi	sp,sp,16
    8020cc80:	00000317          	auipc	t1,0x0
    8020cc84:	e1c30067          	jr	-484(t1) # 8020ca9c <_ZN4core3fmt3num3imp7fmt_u6417h7db99f6cff7ca887E>

000000008020cc88 <_ZN42_$LT$$RF$T$u20$as$u20$core..fmt..Debug$GT$3fmt17h7b87dc6a6ab297eeE>:
    8020cc88:	1141                	addi	sp,sp,-16
    8020cc8a:	e406                	sd	ra,8(sp)
    8020cc8c:	e022                	sd	s0,0(sp)
    8020cc8e:	0800                	addi	s0,sp,16
    8020cc90:	6510                	ld	a2,8(a0)
    8020cc92:	6108                	ld	a0,0(a0)
    8020cc94:	6e1c                	ld	a5,24(a2)
    8020cc96:	60a2                	ld	ra,8(sp)
    8020cc98:	6402                	ld	s0,0(sp)
    8020cc9a:	0141                	addi	sp,sp,16
    8020cc9c:	8782                	jr	a5

000000008020cc9e <_ZN44_$LT$$RF$T$u20$as$u20$core..fmt..Display$GT$3fmt17h488e98c8705420f3E>:
    8020cc9e:	1141                	addi	sp,sp,-16
    8020cca0:	e406                	sd	ra,8(sp)
    8020cca2:	e022                	sd	s0,0(sp)
    8020cca4:	0800                	addi	s0,sp,16
    8020cca6:	6114                	ld	a3,0(a0)
    8020cca8:	6510                	ld	a2,8(a0)
    8020ccaa:	852e                	mv	a0,a1
    8020ccac:	85b6                	mv	a1,a3
    8020ccae:	60a2                	ld	ra,8(sp)
    8020ccb0:	6402                	ld	s0,0(sp)
    8020ccb2:	0141                	addi	sp,sp,16
    8020ccb4:	ffffe317          	auipc	t1,0xffffe
    8020ccb8:	77830067          	jr	1912(t1) # 8020b42c <_ZN4core3fmt9Formatter3pad17h4f816dac4be33f2eE>

000000008020ccbc <_ZN4core7unicode12unicode_data15grapheme_extend11lookup_slow17h618e76a03dcc7518E>:
    8020ccbc:	1141                	addi	sp,sp,-16
    8020ccbe:	e406                	sd	ra,8(sp)
    8020ccc0:	e022                	sd	s0,0(sp)
    8020ccc2:	0800                	addi	s0,sp,16
    8020ccc4:	4881                	li	a7,0
    8020ccc6:	00b5161b          	slliw	a2,a0,0xb
    8020ccca:	02100793          	li	a5,33

000000008020ccce <.Lpcrel_hi1065>:
    8020ccce:	00005597          	auipc	a1,0x5
    8020ccd2:	b6a58813          	addi	a6,a1,-1174 # 80211838 <_ZN4core7unicode12unicode_data15grapheme_extend17SHORT_OFFSET_RUNS17h34a92ae2bf60d4dcE>
    8020ccd6:	02100593          	li	a1,33
    8020ccda:	a031                	j	8020cce6 <.Lpcrel_hi1065+0x18>
    8020ccdc:	411707b3          	sub	a5,a4,a7
    8020cce0:	85ba                	mv	a1,a4
    8020cce2:	02e8fa63          	bgeu	a7,a4,8020cd16 <.Lpcrel_hi1065+0x48>
    8020cce6:	8385                	srli	a5,a5,0x1
    8020cce8:	97c6                	add	a5,a5,a7
    8020ccea:	00279693          	slli	a3,a5,0x2
    8020ccee:	96c2                	add	a3,a3,a6
    8020ccf0:	4294                	lw	a3,0(a3)
    8020ccf2:	00b6969b          	slliw	a3,a3,0xb
    8020ccf6:	00c68e63          	beq	a3,a2,8020cd12 <.Lpcrel_hi1065+0x44>
    8020ccfa:	873e                	mv	a4,a5
    8020ccfc:	00d67563          	bgeu	a2,a3,8020cd06 <.Lpcrel_hi1065+0x38>
    8020cd00:	fcc6fee3          	bgeu	a3,a2,8020ccdc <.Lpcrel_hi1065+0xe>
    8020cd04:	a021                	j	8020cd0c <.Lpcrel_hi1065+0x3e>
    8020cd06:	872e                	mv	a4,a1
    8020cd08:	fcc6fae3          	bgeu	a3,a2,8020ccdc <.Lpcrel_hi1065+0xe>
    8020cd0c:	00178893          	addi	a7,a5,1
    8020cd10:	b7f1                	j	8020ccdc <.Lpcrel_hi1065+0xe>
    8020cd12:	00178893          	addi	a7,a5,1
    8020cd16:	02000693          	li	a3,32
    8020cd1a:	0b16e263          	bltu	a3,a7,8020cdbe <.Lpcrel_hi1066>
    8020cd1e:	00289713          	slli	a4,a7,0x2
    8020cd22:	9742                	add	a4,a4,a6
    8020cd24:	00076583          	lwu	a1,0(a4)
    8020cd28:	2d700293          	li	t0,727
    8020cd2c:	00d88963          	beq	a7,a3,8020cd3e <.Lpcrel_hi1065+0x70>
    8020cd30:	00470693          	addi	a3,a4,4
    8020cd34:	c689                	beqz	a3,8020cd3e <.Lpcrel_hi1065+0x70>
    8020cd36:	0006e603          	lwu	a2,0(a3)
    8020cd3a:	01565293          	srli	t0,a2,0x15
    8020cd3e:	0155d613          	srli	a2,a1,0x15
    8020cd42:	00088c63          	beqz	a7,8020cd5a <.Lpcrel_hi1065+0x8c>
    8020cd46:	ffc76683          	lwu	a3,-4(a4)
    8020cd4a:	16ae                	slli	a3,a3,0x2b
    8020cd4c:	02b6d713          	srli	a4,a3,0x2b
    8020cd50:	fff64693          	not	a3,a2
    8020cd54:	9696                	add	a3,a3,t0
    8020cd56:	e699                	bnez	a3,8020cd64 <.Lpcrel_hi1065+0x96>
    8020cd58:	a091                	j	8020cd9c <.Lpcrel_hi1067+0x22>
    8020cd5a:	4701                	li	a4,0
    8020cd5c:	fff64693          	not	a3,a2
    8020cd60:	9696                	add	a3,a3,t0
    8020cd62:	ce8d                	beqz	a3,8020cd9c <.Lpcrel_hi1067+0x22>
    8020cd64:	2d700793          	li	a5,727
    8020cd68:	8832                	mv	a6,a2
    8020cd6a:	00c7e463          	bltu	a5,a2,8020cd72 <.Lpcrel_hi1065+0xa4>
    8020cd6e:	2d700813          	li	a6,727
    8020cd72:	4781                	li	a5,0
    8020cd74:	9d19                	subw	a0,a0,a4
    8020cd76:	fff28693          	addi	a3,t0,-1

000000008020cd7a <.Lpcrel_hi1067>:
    8020cd7a:	00005717          	auipc	a4,0x5
    8020cd7e:	b4270713          	addi	a4,a4,-1214 # 802118bc <_ZN4core7unicode12unicode_data15grapheme_extend7OFFSETS17ha0afcf93715192fcE>
    8020cd82:	02c80363          	beq	a6,a2,8020cda8 <.Lpcrel_hi1068>
    8020cd86:	00c705b3          	add	a1,a4,a2
    8020cd8a:	0005c583          	lbu	a1,0(a1)
    8020cd8e:	9fad                	addw	a5,a5,a1
    8020cd90:	00f56663          	bltu	a0,a5,8020cd9c <.Lpcrel_hi1067+0x22>
    8020cd94:	0605                	addi	a2,a2,1
    8020cd96:	fec696e3          	bne	a3,a2,8020cd82 <.Lpcrel_hi1067+0x8>
    8020cd9a:	8636                	mv	a2,a3
    8020cd9c:	00167513          	andi	a0,a2,1
    8020cda0:	60a2                	ld	ra,8(sp)
    8020cda2:	6402                	ld	s0,0(sp)
    8020cda4:	0141                	addi	sp,sp,16
    8020cda6:	8082                	ret

000000008020cda8 <.Lpcrel_hi1068>:
    8020cda8:	00005517          	auipc	a0,0x5
    8020cdac:	a2850613          	addi	a2,a0,-1496 # 802117d0 <.Lanon.ecd42e7c4e68db44e18ec9922ac55289.424>
    8020cdb0:	2d700593          	li	a1,727
    8020cdb4:	8542                	mv	a0,a6
    8020cdb6:	ffffe097          	auipc	ra,0xffffe
    8020cdba:	948080e7          	jalr	-1720(ra) # 8020a6fe <_ZN4core9panicking18panic_bounds_check17h087f2837af3bd59aE>

000000008020cdbe <.Lpcrel_hi1066>:
    8020cdbe:	00005517          	auipc	a0,0x5
    8020cdc2:	9fa50613          	addi	a2,a0,-1542 # 802117b8 <.Lanon.ecd42e7c4e68db44e18ec9922ac55289.423>
    8020cdc6:	02100593          	li	a1,33
    8020cdca:	8546                	mv	a0,a7
    8020cdcc:	ffffe097          	auipc	ra,0xffffe
    8020cdd0:	932080e7          	jalr	-1742(ra) # 8020a6fe <_ZN4core9panicking18panic_bounds_check17h087f2837af3bd59aE>

000000008020cdd4 <_ZN17compiler_builtins3mem6memcpy17h27d604799044d8cfE>:
    8020cdd4:	1141                	addi	sp,sp,-16
    8020cdd6:	e406                	sd	ra,8(sp)
    8020cdd8:	e022                	sd	s0,0(sp)
    8020cdda:	0800                	addi	s0,sp,16
    8020cddc:	46c1                	li	a3,16
    8020cdde:	06d66b63          	bltu	a2,a3,8020ce54 <_ZN17compiler_builtins3mem6memcpy17h27d604799044d8cfE+0x80>
    8020cde2:	40a006bb          	negw	a3,a0
    8020cde6:	0076f813          	andi	a6,a3,7
    8020cdea:	010503b3          	add	t2,a0,a6
    8020cdee:	00080c63          	beqz	a6,8020ce06 <_ZN17compiler_builtins3mem6memcpy17h27d604799044d8cfE+0x32>
    8020cdf2:	87aa                	mv	a5,a0
    8020cdf4:	86ae                	mv	a3,a1
    8020cdf6:	0006c703          	lbu	a4,0(a3)
    8020cdfa:	00e78023          	sb	a4,0(a5)
    8020cdfe:	0785                	addi	a5,a5,1
    8020ce00:	0685                	addi	a3,a3,1
    8020ce02:	fe77eae3          	bltu	a5,t2,8020cdf6 <_ZN17compiler_builtins3mem6memcpy17h27d604799044d8cfE+0x22>
    8020ce06:	010588b3          	add	a7,a1,a6
    8020ce0a:	41060833          	sub	a6,a2,a6
    8020ce0e:	ff887293          	andi	t0,a6,-8
    8020ce12:	0078f593          	andi	a1,a7,7
    8020ce16:	005386b3          	add	a3,t2,t0
    8020ce1a:	c1a1                	beqz	a1,8020ce5a <_ZN17compiler_builtins3mem6memcpy17h27d604799044d8cfE+0x86>
    8020ce1c:	04505963          	blez	t0,8020ce6e <_ZN17compiler_builtins3mem6memcpy17h27d604799044d8cfE+0x9a>
    8020ce20:	00389593          	slli	a1,a7,0x3
    8020ce24:	0385f313          	andi	t1,a1,56
    8020ce28:	ff88f793          	andi	a5,a7,-8
    8020ce2c:	6390                	ld	a2,0(a5)
    8020ce2e:	40b005bb          	negw	a1,a1
    8020ce32:	0385fe13          	andi	t3,a1,56
    8020ce36:	07a1                	addi	a5,a5,8
    8020ce38:	6398                	ld	a4,0(a5)
    8020ce3a:	00665633          	srl	a2,a2,t1
    8020ce3e:	01c715b3          	sll	a1,a4,t3
    8020ce42:	8dd1                	or	a1,a1,a2
    8020ce44:	00b3b023          	sd	a1,0(t2)
    8020ce48:	03a1                	addi	t2,t2,8
    8020ce4a:	07a1                	addi	a5,a5,8
    8020ce4c:	863a                	mv	a2,a4
    8020ce4e:	fed3e5e3          	bltu	t2,a3,8020ce38 <_ZN17compiler_builtins3mem6memcpy17h27d604799044d8cfE+0x64>
    8020ce52:	a831                	j	8020ce6e <_ZN17compiler_builtins3mem6memcpy17h27d604799044d8cfE+0x9a>
    8020ce54:	86aa                	mv	a3,a0
    8020ce56:	e20d                	bnez	a2,8020ce78 <_ZN17compiler_builtins3mem6memcpy17h27d604799044d8cfE+0xa4>
    8020ce58:	a80d                	j	8020ce8a <_ZN17compiler_builtins3mem6memcpy17h27d604799044d8cfE+0xb6>
    8020ce5a:	00505a63          	blez	t0,8020ce6e <_ZN17compiler_builtins3mem6memcpy17h27d604799044d8cfE+0x9a>
    8020ce5e:	85c6                	mv	a1,a7
    8020ce60:	6190                	ld	a2,0(a1)
    8020ce62:	00c3b023          	sd	a2,0(t2)
    8020ce66:	03a1                	addi	t2,t2,8
    8020ce68:	05a1                	addi	a1,a1,8
    8020ce6a:	fed3ebe3          	bltu	t2,a3,8020ce60 <_ZN17compiler_builtins3mem6memcpy17h27d604799044d8cfE+0x8c>
    8020ce6e:	005885b3          	add	a1,a7,t0
    8020ce72:	00787613          	andi	a2,a6,7
    8020ce76:	ca11                	beqz	a2,8020ce8a <_ZN17compiler_builtins3mem6memcpy17h27d604799044d8cfE+0xb6>
    8020ce78:	9636                	add	a2,a2,a3
    8020ce7a:	0005c703          	lbu	a4,0(a1)
    8020ce7e:	00e68023          	sb	a4,0(a3)
    8020ce82:	0685                	addi	a3,a3,1
    8020ce84:	0585                	addi	a1,a1,1
    8020ce86:	fec6eae3          	bltu	a3,a2,8020ce7a <_ZN17compiler_builtins3mem6memcpy17h27d604799044d8cfE+0xa6>
    8020ce8a:	60a2                	ld	ra,8(sp)
    8020ce8c:	6402                	ld	s0,0(sp)
    8020ce8e:	0141                	addi	sp,sp,16
    8020ce90:	8082                	ret

000000008020ce92 <_ZN17compiler_builtins3mem7memmove17ha7335cae1f248a86E>:
    8020ce92:	1141                	addi	sp,sp,-16
    8020ce94:	e406                	sd	ra,8(sp)
    8020ce96:	e022                	sd	s0,0(sp)
    8020ce98:	0800                	addi	s0,sp,16
    8020ce9a:	40b506b3          	sub	a3,a0,a1
    8020ce9e:	08c6f763          	bgeu	a3,a2,8020cf2c <_ZN17compiler_builtins3mem7memmove17ha7335cae1f248a86E+0x9a>
    8020cea2:	00c506b3          	add	a3,a0,a2
    8020cea6:	4741                	li	a4,16
    8020cea8:	00c58833          	add	a6,a1,a2
    8020ceac:	0ee66c63          	bltu	a2,a4,8020cfa4 <_ZN17compiler_builtins3mem7memmove17ha7335cae1f248a86E+0x112>
    8020ceb0:	0076f293          	andi	t0,a3,7
    8020ceb4:	405008b3          	neg	a7,t0
    8020ceb8:	ff86f393          	andi	t2,a3,-8
    8020cebc:	00028f63          	beqz	t0,8020ceda <_ZN17compiler_builtins3mem7memmove17ha7335cae1f248a86E+0x48>
    8020cec0:	00c587b3          	add	a5,a1,a2
    8020cec4:	17fd                	addi	a5,a5,-1
    8020cec6:	0007c303          	lbu	t1,0(a5)
    8020ceca:	fff68713          	addi	a4,a3,-1
    8020cece:	fe668fa3          	sb	t1,-1(a3)
    8020ced2:	17fd                	addi	a5,a5,-1
    8020ced4:	86ba                	mv	a3,a4
    8020ced6:	fee3e8e3          	bltu	t2,a4,8020cec6 <_ZN17compiler_builtins3mem7memmove17ha7335cae1f248a86E+0x34>
    8020ceda:	9846                	add	a6,a6,a7
    8020cedc:	405608b3          	sub	a7,a2,t0
    8020cee0:	ff88f293          	andi	t0,a7,-8
    8020cee4:	00787613          	andi	a2,a6,7
    8020cee8:	405386b3          	sub	a3,t2,t0
    8020ceec:	c269                	beqz	a2,8020cfae <_ZN17compiler_builtins3mem7memmove17ha7335cae1f248a86E+0x11c>
    8020ceee:	0c505d63          	blez	t0,8020cfc8 <_ZN17compiler_builtins3mem7memmove17ha7335cae1f248a86E+0x136>
    8020cef2:	00381613          	slli	a2,a6,0x3
    8020cef6:	03867313          	andi	t1,a2,56
    8020cefa:	ff887713          	andi	a4,a6,-8
    8020cefe:	630c                	ld	a1,0(a4)
    8020cf00:	40c0063b          	negw	a2,a2
    8020cf04:	03867e13          	andi	t3,a2,56
    8020cf08:	ff870613          	addi	a2,a4,-8
    8020cf0c:	6218                	ld	a4,0(a2)
    8020cf0e:	01c595b3          	sll	a1,a1,t3
    8020cf12:	006757b3          	srl	a5,a4,t1
    8020cf16:	8ddd                	or	a1,a1,a5
    8020cf18:	ff838793          	addi	a5,t2,-8
    8020cf1c:	feb3bc23          	sd	a1,-8(t2)
    8020cf20:	1661                	addi	a2,a2,-8
    8020cf22:	83be                	mv	t2,a5
    8020cf24:	85ba                	mv	a1,a4
    8020cf26:	fef6e3e3          	bltu	a3,a5,8020cf0c <_ZN17compiler_builtins3mem7memmove17ha7335cae1f248a86E+0x7a>
    8020cf2a:	a879                	j	8020cfc8 <_ZN17compiler_builtins3mem7memmove17ha7335cae1f248a86E+0x136>
    8020cf2c:	46c1                	li	a3,16
    8020cf2e:	06d66d63          	bltu	a2,a3,8020cfa8 <_ZN17compiler_builtins3mem7memmove17ha7335cae1f248a86E+0x116>
    8020cf32:	40a006bb          	negw	a3,a0
    8020cf36:	0076f813          	andi	a6,a3,7
    8020cf3a:	010503b3          	add	t2,a0,a6
    8020cf3e:	00080c63          	beqz	a6,8020cf56 <_ZN17compiler_builtins3mem7memmove17ha7335cae1f248a86E+0xc4>
    8020cf42:	87aa                	mv	a5,a0
    8020cf44:	86ae                	mv	a3,a1
    8020cf46:	0006c703          	lbu	a4,0(a3)
    8020cf4a:	00e78023          	sb	a4,0(a5)
    8020cf4e:	0785                	addi	a5,a5,1
    8020cf50:	0685                	addi	a3,a3,1
    8020cf52:	fe77eae3          	bltu	a5,t2,8020cf46 <_ZN17compiler_builtins3mem7memmove17ha7335cae1f248a86E+0xb4>
    8020cf56:	010588b3          	add	a7,a1,a6
    8020cf5a:	41060833          	sub	a6,a2,a6
    8020cf5e:	ff887293          	andi	t0,a6,-8
    8020cf62:	0078f593          	andi	a1,a7,7
    8020cf66:	005386b3          	add	a3,t2,t0
    8020cf6a:	c1d9                	beqz	a1,8020cff0 <_ZN17compiler_builtins3mem7memmove17ha7335cae1f248a86E+0x15e>
    8020cf6c:	08505c63          	blez	t0,8020d004 <_ZN17compiler_builtins3mem7memmove17ha7335cae1f248a86E+0x172>
    8020cf70:	00389593          	slli	a1,a7,0x3
    8020cf74:	0385f313          	andi	t1,a1,56
    8020cf78:	ff88f793          	andi	a5,a7,-8
    8020cf7c:	6390                	ld	a2,0(a5)
    8020cf7e:	40b005bb          	negw	a1,a1
    8020cf82:	0385fe13          	andi	t3,a1,56
    8020cf86:	07a1                	addi	a5,a5,8
    8020cf88:	6398                	ld	a4,0(a5)
    8020cf8a:	00665633          	srl	a2,a2,t1
    8020cf8e:	01c715b3          	sll	a1,a4,t3
    8020cf92:	8dd1                	or	a1,a1,a2
    8020cf94:	00b3b023          	sd	a1,0(t2)
    8020cf98:	03a1                	addi	t2,t2,8
    8020cf9a:	07a1                	addi	a5,a5,8
    8020cf9c:	863a                	mv	a2,a4
    8020cf9e:	fed3e5e3          	bltu	t2,a3,8020cf88 <_ZN17compiler_builtins3mem7memmove17ha7335cae1f248a86E+0xf6>
    8020cfa2:	a08d                	j	8020d004 <_ZN17compiler_builtins3mem7memmove17ha7335cae1f248a86E+0x172>
    8020cfa4:	85aa                	mv	a1,a0
    8020cfa6:	a80d                	j	8020cfd8 <_ZN17compiler_builtins3mem7memmove17ha7335cae1f248a86E+0x146>
    8020cfa8:	86aa                	mv	a3,a0
    8020cfaa:	e235                	bnez	a2,8020d00e <_ZN17compiler_builtins3mem7memmove17ha7335cae1f248a86E+0x17c>
    8020cfac:	a895                	j	8020d020 <_ZN17compiler_builtins3mem7memmove17ha7335cae1f248a86E+0x18e>
    8020cfae:	00505d63          	blez	t0,8020cfc8 <_ZN17compiler_builtins3mem7memmove17ha7335cae1f248a86E+0x136>
    8020cfb2:	95c6                	add	a1,a1,a7
    8020cfb4:	15e1                	addi	a1,a1,-8
    8020cfb6:	6190                	ld	a2,0(a1)
    8020cfb8:	ff838713          	addi	a4,t2,-8
    8020cfbc:	fec3bc23          	sd	a2,-8(t2)
    8020cfc0:	15e1                	addi	a1,a1,-8
    8020cfc2:	83ba                	mv	t2,a4
    8020cfc4:	fee6e9e3          	bltu	a3,a4,8020cfb6 <_ZN17compiler_builtins3mem7memmove17ha7335cae1f248a86E+0x124>
    8020cfc8:	0078f593          	andi	a1,a7,7
    8020cfcc:	c9b1                	beqz	a1,8020d020 <_ZN17compiler_builtins3mem7memmove17ha7335cae1f248a86E+0x18e>
    8020cfce:	40500633          	neg	a2,t0
    8020cfd2:	9832                	add	a6,a6,a2
    8020cfd4:	40b685b3          	sub	a1,a3,a1
    8020cfd8:	187d                	addi	a6,a6,-1 # 10ffff <$d.6+0x491a4>
    8020cfda:	00084603          	lbu	a2,0(a6)
    8020cfde:	fff68713          	addi	a4,a3,-1
    8020cfe2:	fec68fa3          	sb	a2,-1(a3)
    8020cfe6:	187d                	addi	a6,a6,-1
    8020cfe8:	86ba                	mv	a3,a4
    8020cfea:	fee5e8e3          	bltu	a1,a4,8020cfda <_ZN17compiler_builtins3mem7memmove17ha7335cae1f248a86E+0x148>
    8020cfee:	a80d                	j	8020d020 <_ZN17compiler_builtins3mem7memmove17ha7335cae1f248a86E+0x18e>
    8020cff0:	00505a63          	blez	t0,8020d004 <_ZN17compiler_builtins3mem7memmove17ha7335cae1f248a86E+0x172>
    8020cff4:	85c6                	mv	a1,a7
    8020cff6:	6190                	ld	a2,0(a1)
    8020cff8:	00c3b023          	sd	a2,0(t2)
    8020cffc:	03a1                	addi	t2,t2,8
    8020cffe:	05a1                	addi	a1,a1,8
    8020d000:	fed3ebe3          	bltu	t2,a3,8020cff6 <_ZN17compiler_builtins3mem7memmove17ha7335cae1f248a86E+0x164>
    8020d004:	005885b3          	add	a1,a7,t0
    8020d008:	00787613          	andi	a2,a6,7
    8020d00c:	ca11                	beqz	a2,8020d020 <_ZN17compiler_builtins3mem7memmove17ha7335cae1f248a86E+0x18e>
    8020d00e:	9636                	add	a2,a2,a3
    8020d010:	0005c703          	lbu	a4,0(a1)
    8020d014:	00e68023          	sb	a4,0(a3)
    8020d018:	0685                	addi	a3,a3,1
    8020d01a:	0585                	addi	a1,a1,1
    8020d01c:	fec6eae3          	bltu	a3,a2,8020d010 <_ZN17compiler_builtins3mem7memmove17ha7335cae1f248a86E+0x17e>
    8020d020:	60a2                	ld	ra,8(sp)
    8020d022:	6402                	ld	s0,0(sp)
    8020d024:	0141                	addi	sp,sp,16
    8020d026:	8082                	ret

000000008020d028 <_ZN17compiler_builtins3mem6memset17he891f02fb08ad2b3E>:
    8020d028:	1141                	addi	sp,sp,-16
    8020d02a:	e406                	sd	ra,8(sp)
    8020d02c:	e022                	sd	s0,0(sp)
    8020d02e:	0800                	addi	s0,sp,16
    8020d030:	46c1                	li	a3,16
    8020d032:	04d66a63          	bltu	a2,a3,8020d086 <_ZN17compiler_builtins3mem6memset17he891f02fb08ad2b3E+0x5e>
    8020d036:	40a006bb          	negw	a3,a0
    8020d03a:	8a9d                	andi	a3,a3,7
    8020d03c:	00d50733          	add	a4,a0,a3
    8020d040:	c699                	beqz	a3,8020d04e <_ZN17compiler_builtins3mem6memset17he891f02fb08ad2b3E+0x26>
    8020d042:	87aa                	mv	a5,a0
    8020d044:	00b78023          	sb	a1,0(a5)
    8020d048:	0785                	addi	a5,a5,1
    8020d04a:	fee7ede3          	bltu	a5,a4,8020d044 <_ZN17compiler_builtins3mem6memset17he891f02fb08ad2b3E+0x1c>
    8020d04e:	40d608b3          	sub	a7,a2,a3
    8020d052:	ff88f793          	andi	a5,a7,-8
    8020d056:	00f706b3          	add	a3,a4,a5
    8020d05a:	02f05263          	blez	a5,8020d07e <_ZN17compiler_builtins3mem6memset17he891f02fb08ad2b3E+0x56>
    8020d05e:	03859813          	slli	a6,a1,0x38
    8020d062:	101017b7          	lui	a5,0x10101
    8020d066:	0792                	slli	a5,a5,0x4
    8020d068:	10078793          	addi	a5,a5,256 # 10101100 <$d.6+0x1003a2a5>
    8020d06c:	02f83633          	mulhu	a2,a6,a5
    8020d070:	02061793          	slli	a5,a2,0x20
    8020d074:	8fd1                	or	a5,a5,a2
    8020d076:	e31c                	sd	a5,0(a4)
    8020d078:	0721                	addi	a4,a4,8
    8020d07a:	fed76ee3          	bltu	a4,a3,8020d076 <_ZN17compiler_builtins3mem6memset17he891f02fb08ad2b3E+0x4e>
    8020d07e:	0078f613          	andi	a2,a7,7
    8020d082:	e601                	bnez	a2,8020d08a <_ZN17compiler_builtins3mem6memset17he891f02fb08ad2b3E+0x62>
    8020d084:	a809                	j	8020d096 <_ZN17compiler_builtins3mem6memset17he891f02fb08ad2b3E+0x6e>
    8020d086:	86aa                	mv	a3,a0
    8020d088:	c619                	beqz	a2,8020d096 <_ZN17compiler_builtins3mem6memset17he891f02fb08ad2b3E+0x6e>
    8020d08a:	9636                	add	a2,a2,a3
    8020d08c:	00b68023          	sb	a1,0(a3)
    8020d090:	0685                	addi	a3,a3,1
    8020d092:	fec6ede3          	bltu	a3,a2,8020d08c <_ZN17compiler_builtins3mem6memset17he891f02fb08ad2b3E+0x64>
    8020d096:	60a2                	ld	ra,8(sp)
    8020d098:	6402                	ld	s0,0(sp)
    8020d09a:	0141                	addi	sp,sp,16
    8020d09c:	8082                	ret

000000008020d09e <_ZN17compiler_builtins3mem6memcmp17h4c7361c1469a0741E>:
    8020d09e:	c605                	beqz	a2,8020d0c6 <_ZN17compiler_builtins3mem6memcmp17h4c7361c1469a0741E+0x28>
    8020d0a0:	1141                	addi	sp,sp,-16
    8020d0a2:	e406                	sd	ra,8(sp)
    8020d0a4:	e022                	sd	s0,0(sp)
    8020d0a6:	0800                	addi	s0,sp,16
    8020d0a8:	00054683          	lbu	a3,0(a0)
    8020d0ac:	0005c703          	lbu	a4,0(a1)
    8020d0b0:	00e69d63          	bne	a3,a4,8020d0ca <_ZN17compiler_builtins3mem6memcmp17h4c7361c1469a0741E+0x2c>
    8020d0b4:	0585                	addi	a1,a1,1
    8020d0b6:	167d                	addi	a2,a2,-1
    8020d0b8:	0505                	addi	a0,a0,1
    8020d0ba:	f67d                	bnez	a2,8020d0a8 <_ZN17compiler_builtins3mem6memcmp17h4c7361c1469a0741E+0xa>
    8020d0bc:	4501                	li	a0,0
    8020d0be:	60a2                	ld	ra,8(sp)
    8020d0c0:	6402                	ld	s0,0(sp)
    8020d0c2:	0141                	addi	sp,sp,16
    8020d0c4:	8082                	ret
    8020d0c6:	4501                	li	a0,0
    8020d0c8:	8082                	ret
    8020d0ca:	40e68533          	sub	a0,a3,a4
    8020d0ce:	60a2                	ld	ra,8(sp)
    8020d0d0:	6402                	ld	s0,0(sp)
    8020d0d2:	0141                	addi	sp,sp,16
    8020d0d4:	8082                	ret

000000008020d0d6 <memmove>:
    8020d0d6:	1141                	addi	sp,sp,-16
    8020d0d8:	e406                	sd	ra,8(sp)
    8020d0da:	e022                	sd	s0,0(sp)
    8020d0dc:	0800                	addi	s0,sp,16
    8020d0de:	60a2                	ld	ra,8(sp)
    8020d0e0:	6402                	ld	s0,0(sp)
    8020d0e2:	0141                	addi	sp,sp,16
    8020d0e4:	00000317          	auipc	t1,0x0
    8020d0e8:	dae30067          	jr	-594(t1) # 8020ce92 <_ZN17compiler_builtins3mem7memmove17ha7335cae1f248a86E>

000000008020d0ec <memset>:
    8020d0ec:	1141                	addi	sp,sp,-16
    8020d0ee:	e406                	sd	ra,8(sp)
    8020d0f0:	e022                	sd	s0,0(sp)
    8020d0f2:	0800                	addi	s0,sp,16
    8020d0f4:	60a2                	ld	ra,8(sp)
    8020d0f6:	6402                	ld	s0,0(sp)
    8020d0f8:	0141                	addi	sp,sp,16
    8020d0fa:	00000317          	auipc	t1,0x0
    8020d0fe:	f2e30067          	jr	-210(t1) # 8020d028 <_ZN17compiler_builtins3mem6memset17he891f02fb08ad2b3E>

000000008020d102 <memcmp>:
    8020d102:	1141                	addi	sp,sp,-16
    8020d104:	e406                	sd	ra,8(sp)
    8020d106:	e022                	sd	s0,0(sp)
    8020d108:	0800                	addi	s0,sp,16
    8020d10a:	60a2                	ld	ra,8(sp)
    8020d10c:	6402                	ld	s0,0(sp)
    8020d10e:	0141                	addi	sp,sp,16
    8020d110:	00000317          	auipc	t1,0x0
    8020d114:	f8e30067          	jr	-114(t1) # 8020d09e <_ZN17compiler_builtins3mem6memcmp17h4c7361c1469a0741E>

000000008020d118 <memcpy>:
    8020d118:	1141                	addi	sp,sp,-16
    8020d11a:	e406                	sd	ra,8(sp)
    8020d11c:	e022                	sd	s0,0(sp)
    8020d11e:	0800                	addi	s0,sp,16
    8020d120:	60a2                	ld	ra,8(sp)
    8020d122:	6402                	ld	s0,0(sp)
    8020d124:	0141                	addi	sp,sp,16
    8020d126:	00000317          	auipc	t1,0x0
    8020d12a:	cae30067          	jr	-850(t1) # 8020cdd4 <_ZN17compiler_builtins3mem6memcpy17h27d604799044d8cfE>
